
build/file.elf:     file format elf64-littleaarch64


Disassembly of section .text:

0000000000200000 <main>:
  200000:	a9b77bfd 	stp	x29, x30, [sp,#-144]!
  200004:	910003fd 	mov	x29, sp
  200008:	b9001fa0 	str	w0, [x29,#28]
  20000c:	f9000ba1 	str	x1, [x29,#16]
  200010:	90000000 	adrp	x0, 200000 <main>
  200014:	91288000 	add	x0, x0, #0xa20
  200018:	52800021 	mov	w1, #0x1                   	// #1
  20001c:	940000a2 	bl	2002a4 <open>
  200020:	b9008fa0 	str	w0, [x29,#140]
  200024:	90000000 	adrp	x0, 200000 <main>
  200028:	9128a000 	add	x0, x0, #0xa28
  20002c:	52800021 	mov	w1, #0x1                   	// #1
  200030:	9400009d 	bl	2002a4 <open>
  200034:	b9008ba0 	str	w0, [x29,#136]
  200038:	90000000 	adrp	x0, 200000 <main>
  20003c:	9128c000 	add	x0, x0, #0xa30
  200040:	528000c2 	mov	w2, #0x6                   	// #6
  200044:	aa0003e1 	mov	x1, x0
  200048:	b9408fa0 	ldr	w0, [x29,#140]
  20004c:	940000a9 	bl	2002f0 <write>
  200050:	90000000 	adrp	x0, 200000 <main>
  200054:	9128e000 	add	x0, x0, #0xa38
  200058:	528000c2 	mov	w2, #0x6                   	// #6
  20005c:	aa0003e1 	mov	x1, x0
  200060:	b9408ba0 	ldr	w0, [x29,#136]
  200064:	940000a3 	bl	2002f0 <write>
  200068:	b9408fa0 	ldr	w0, [x29,#140]
  20006c:	94000098 	bl	2002cc <close>
  200070:	b9408ba0 	ldr	w0, [x29,#136]
  200074:	94000096 	bl	2002cc <close>
  200078:	90000000 	adrp	x0, 200000 <main>
  20007c:	91288000 	add	x0, x0, #0xa20
  200080:	52800001 	mov	w1, #0x0                   	// #0
  200084:	94000088 	bl	2002a4 <open>
  200088:	b9008ba0 	str	w0, [x29,#136]
  20008c:	90000000 	adrp	x0, 200000 <main>
  200090:	9128a000 	add	x0, x0, #0xa28
  200094:	52800001 	mov	w1, #0x0                   	// #0
  200098:	94000083 	bl	2002a4 <open>
  20009c:	b9008fa0 	str	w0, [x29,#140]
  2000a0:	910083a0 	add	x0, x29, #0x20
  2000a4:	52800c82 	mov	w2, #0x64                  	// #100
  2000a8:	aa0003e1 	mov	x1, x0
  2000ac:	b9408ba0 	ldr	w0, [x29,#136]
  2000b0:	9400009b 	bl	20031c <read>
  2000b4:	b90087a0 	str	w0, [x29,#132]
  2000b8:	b98087a0 	ldrsw	x0, [x29,#132]
  2000bc:	910083a1 	add	x1, x29, #0x20
  2000c0:	8b000020 	add	x0, x1, x0
  2000c4:	52800c82 	mov	w2, #0x64                  	// #100
  2000c8:	aa0003e1 	mov	x1, x0
  2000cc:	b9408fa0 	ldr	w0, [x29,#140]
  2000d0:	94000093 	bl	20031c <read>
  2000d4:	2a0003e1 	mov	w1, w0
  2000d8:	b94087a0 	ldr	w0, [x29,#132]
  2000dc:	0b010000 	add	w0, w0, w1
  2000e0:	b90087a0 	str	w0, [x29,#132]
  2000e4:	b98087a0 	ldrsw	x0, [x29,#132]
  2000e8:	d13dc3a1 	sub	x1, x29, #0xf70
  2000ec:	8b000020 	add	x0, x1, x0
  2000f0:	393e401f 	strb	wzr, [x0,#3984]
  2000f4:	910083a1 	add	x1, x29, #0x20
  2000f8:	90000000 	adrp	x0, 200000 <main>
  2000fc:	91290000 	add	x0, x0, #0xa40
  200100:	94000021 	bl	200184 <uart_printf>
  200104:	9400005d 	bl	200278 <exit>
  200108:	52800000 	mov	w0, #0x0                   	// #0
  20010c:	a8c97bfd 	ldp	x29, x30, [sp],#144
  200110:	d65f03c0 	ret

0000000000200114 <getpid>:
  200114:	d10043ff 	sub	sp, sp, #0x10
  200118:	52800028 	mov	w8, #0x1                   	// #1
  20011c:	d4000001 	svc	#0x0
  200120:	aa0003e0 	mov	x0, x0
  200124:	f90007e0 	str	x0, [sp,#8]
  200128:	f94007e0 	ldr	x0, [sp,#8]
  20012c:	910043ff 	add	sp, sp, #0x10
  200130:	d65f03c0 	ret

0000000000200134 <uart_read>:
  200134:	d10083ff 	sub	sp, sp, #0x20
  200138:	f90007e0 	str	x0, [sp,#8]
  20013c:	b90007e1 	str	w1, [sp,#4]
  200140:	52800048 	mov	w8, #0x2                   	// #2
  200144:	d4000001 	svc	#0x0
  200148:	aa0003e0 	mov	x0, x0
  20014c:	f9000fe0 	str	x0, [sp,#24]
  200150:	f9400fe0 	ldr	x0, [sp,#24]
  200154:	910083ff 	add	sp, sp, #0x20
  200158:	d65f03c0 	ret

000000000020015c <uart_write>:
  20015c:	d10083ff 	sub	sp, sp, #0x20
  200160:	f90007e0 	str	x0, [sp,#8]
  200164:	b90007e1 	str	w1, [sp,#4]
  200168:	52800068 	mov	w8, #0x3                   	// #3
  20016c:	d4000001 	svc	#0x0
  200170:	aa0003e0 	mov	x0, x0
  200174:	f9000fe0 	str	x0, [sp,#24]
  200178:	f9400fe0 	ldr	x0, [sp,#24]
  20017c:	910083ff 	add	sp, sp, #0x20
  200180:	d65f03c0 	ret

0000000000200184 <uart_printf>:
  200184:	a9a77bfd 	stp	x29, x30, [sp,#-400]!
  200188:	910003fd 	mov	x29, sp
  20018c:	f9001fa0 	str	x0, [x29,#56]
  200190:	f900afa1 	str	x1, [x29,#344]
  200194:	f900b3a2 	str	x2, [x29,#352]
  200198:	f900b7a3 	str	x3, [x29,#360]
  20019c:	f900bba4 	str	x4, [x29,#368]
  2001a0:	f900bfa5 	str	x5, [x29,#376]
  2001a4:	f900c3a6 	str	x6, [x29,#384]
  2001a8:	f900c7a7 	str	x7, [x29,#392]
  2001ac:	3d8037a0 	str	q0, [x29,#208]
  2001b0:	3d803ba1 	str	q1, [x29,#224]
  2001b4:	3d803fa2 	str	q2, [x29,#240]
  2001b8:	910403a0 	add	x0, x29, #0x100
  2001bc:	3d800003 	str	q3, [x0]
  2001c0:	910443a0 	add	x0, x29, #0x110
  2001c4:	3d800004 	str	q4, [x0]
  2001c8:	910483a0 	add	x0, x29, #0x120
  2001cc:	3d800005 	str	q5, [x0]
  2001d0:	9104c3a0 	add	x0, x29, #0x130
  2001d4:	3d800006 	str	q6, [x0]
  2001d8:	910503a0 	add	x0, x29, #0x140
  2001dc:	3d800007 	str	q7, [x0]
  2001e0:	910643a0 	add	x0, x29, #0x190
  2001e4:	f90027a0 	str	x0, [x29,#72]
  2001e8:	910643a0 	add	x0, x29, #0x190
  2001ec:	f9002ba0 	str	x0, [x29,#80]
  2001f0:	910543a0 	add	x0, x29, #0x150
  2001f4:	f9002fa0 	str	x0, [x29,#88]
  2001f8:	128006e0 	mov	w0, #0xffffffc8            	// #-56
  2001fc:	b90063a0 	str	w0, [x29,#96]
  200200:	12800fe0 	mov	w0, #0xffffff80            	// #-128
  200204:	b90067a0 	str	w0, [x29,#100]
  200208:	910043a2 	add	x2, x29, #0x10
  20020c:	910123a3 	add	x3, x29, #0x48
  200210:	a9400460 	ldp	x0, x1, [x3]
  200214:	a9000440 	stp	x0, x1, [x2]
  200218:	a9410460 	ldp	x0, x1, [x3,#16]
  20021c:	a9010440 	stp	x0, x1, [x2,#16]
  200220:	910043a1 	add	x1, x29, #0x10
  200224:	9101a3a0 	add	x0, x29, #0x68
  200228:	aa0103e2 	mov	x2, x1
  20022c:	f9401fa1 	ldr	x1, [x29,#56]
  200230:	94000046 	bl	200348 <vsprintf>
  200234:	b900cfa0 	str	w0, [x29,#204]
  200238:	b940cfa1 	ldr	w1, [x29,#204]
  20023c:	9101a3a0 	add	x0, x29, #0x68
  200240:	97ffffc7 	bl	20015c <uart_write>
  200244:	b940cfa0 	ldr	w0, [x29,#204]
  200248:	a8d97bfd 	ldp	x29, x30, [sp],#400
  20024c:	d65f03c0 	ret

0000000000200250 <exec>:
  200250:	d10083ff 	sub	sp, sp, #0x20
  200254:	f90007e0 	str	x0, [sp,#8]
  200258:	f90003e1 	str	x1, [sp]
  20025c:	52800088 	mov	w8, #0x4                   	// #4
  200260:	d4000001 	svc	#0x0
  200264:	aa0003e0 	mov	x0, x0
  200268:	f9000fe0 	str	x0, [sp,#24]
  20026c:	f9400fe0 	ldr	x0, [sp,#24]
  200270:	910083ff 	add	sp, sp, #0x20
  200274:	d65f03c0 	ret

0000000000200278 <exit>:
  200278:	528000a8 	mov	w8, #0x5                   	// #5
  20027c:	d4000001 	svc	#0x0
  200280:	14000000 	b	200280 <exit+0x8>

0000000000200284 <fork>:
  200284:	d10043ff 	sub	sp, sp, #0x10
  200288:	528000c8 	mov	w8, #0x6                   	// #6
  20028c:	d4000001 	svc	#0x0
  200290:	aa0003e0 	mov	x0, x0
  200294:	f90007e0 	str	x0, [sp,#8]
  200298:	f94007e0 	ldr	x0, [sp,#8]
  20029c:	910043ff 	add	sp, sp, #0x10
  2002a0:	d65f03c0 	ret

00000000002002a4 <open>:
  2002a4:	d10083ff 	sub	sp, sp, #0x20
  2002a8:	f90007e0 	str	x0, [sp,#8]
  2002ac:	b90007e1 	str	w1, [sp,#4]
  2002b0:	528000e8 	mov	w8, #0x7                   	// #7
  2002b4:	d4000001 	svc	#0x0
  2002b8:	aa0003e0 	mov	x0, x0
  2002bc:	f9000fe0 	str	x0, [sp,#24]
  2002c0:	f9400fe0 	ldr	x0, [sp,#24]
  2002c4:	910083ff 	add	sp, sp, #0x20
  2002c8:	d65f03c0 	ret

00000000002002cc <close>:
  2002cc:	d10083ff 	sub	sp, sp, #0x20
  2002d0:	b9000fe0 	str	w0, [sp,#12]
  2002d4:	52800108 	mov	w8, #0x8                   	// #8
  2002d8:	d4000001 	svc	#0x0
  2002dc:	aa0003e0 	mov	x0, x0
  2002e0:	f9000fe0 	str	x0, [sp,#24]
  2002e4:	f9400fe0 	ldr	x0, [sp,#24]
  2002e8:	910083ff 	add	sp, sp, #0x20
  2002ec:	d65f03c0 	ret

00000000002002f0 <write>:
  2002f0:	d10083ff 	sub	sp, sp, #0x20
  2002f4:	b9000fe0 	str	w0, [sp,#12]
  2002f8:	f90003e1 	str	x1, [sp]
  2002fc:	b9000be2 	str	w2, [sp,#8]
  200300:	52800128 	mov	w8, #0x9                   	// #9
  200304:	d4000001 	svc	#0x0
  200308:	aa0003e0 	mov	x0, x0
  20030c:	f9000fe0 	str	x0, [sp,#24]
  200310:	f9400fe0 	ldr	x0, [sp,#24]
  200314:	910083ff 	add	sp, sp, #0x20
  200318:	d65f03c0 	ret

000000000020031c <read>:
  20031c:	d10083ff 	sub	sp, sp, #0x20
  200320:	b9000fe0 	str	w0, [sp,#12]
  200324:	f90003e1 	str	x1, [sp]
  200328:	b9000be2 	str	w2, [sp,#8]
  20032c:	52800148 	mov	w8, #0xa                   	// #10
  200330:	d4000001 	svc	#0x0
  200334:	aa0003e0 	mov	x0, x0
  200338:	f9000fe0 	str	x0, [sp,#24]
  20033c:	f9400fe0 	ldr	x0, [sp,#24]
  200340:	910083ff 	add	sp, sp, #0x20
  200344:	d65f03c0 	ret

0000000000200348 <vsprintf>:
  200348:	f81a0ff3 	str	x19, [sp,#-96]!
  20034c:	f9000fe0 	str	x0, [sp,#24]
  200350:	f9000be1 	str	x1, [sp,#16]
  200354:	aa0203f3 	mov	x19, x2
  200358:	f9400fe0 	ldr	x0, [sp,#24]
  20035c:	f9001fe0 	str	x0, [sp,#56]
  200360:	f9400fe0 	ldr	x0, [sp,#24]
  200364:	f100001f 	cmp	x0, #0x0
  200368:	54000080 	b.eq	200378 <vsprintf+0x30>
  20036c:	f9400be0 	ldr	x0, [sp,#16]
  200370:	f100001f 	cmp	x0, #0x0
  200374:	54000061 	b.ne	200380 <vsprintf+0x38>
  200378:	52800000 	mov	w0, #0x0                   	// #0
  20037c:	1400017e 	b	200974 <vsprintf+0x62c>
  200380:	f9002fff 	str	xzr, [sp,#88]
  200384:	14000173 	b	200950 <vsprintf+0x608>
  200388:	f9400be0 	ldr	x0, [sp,#16]
  20038c:	39400000 	ldrb	w0, [x0]
  200390:	7100941f 	cmp	w0, #0x25
  200394:	54002cc1 	b.ne	20092c <vsprintf+0x5e4>
  200398:	f9400be0 	ldr	x0, [sp,#16]
  20039c:	91000400 	add	x0, x0, #0x1
  2003a0:	f9000be0 	str	x0, [sp,#16]
  2003a4:	f9400be0 	ldr	x0, [sp,#16]
  2003a8:	39400000 	ldrb	w0, [x0]
  2003ac:	7100941f 	cmp	w0, #0x25
  2003b0:	54002bc0 	b.eq	200928 <vsprintf+0x5e0>
  2003b4:	b90057ff 	str	wzr, [sp,#84]
  2003b8:	14000010 	b	2003f8 <vsprintf+0xb0>
  2003bc:	b94057e1 	ldr	w1, [sp,#84]
  2003c0:	2a0103e0 	mov	w0, w1
  2003c4:	531e7400 	lsl	w0, w0, #2
  2003c8:	0b010000 	add	w0, w0, w1
  2003cc:	531f7800 	lsl	w0, w0, #1
  2003d0:	b90057e0 	str	w0, [sp,#84]
  2003d4:	f9400be0 	ldr	x0, [sp,#16]
  2003d8:	39400000 	ldrb	w0, [x0]
  2003dc:	5100c000 	sub	w0, w0, #0x30
  2003e0:	b94057e1 	ldr	w1, [sp,#84]
  2003e4:	0b000020 	add	w0, w1, w0
  2003e8:	b90057e0 	str	w0, [sp,#84]
  2003ec:	f9400be0 	ldr	x0, [sp,#16]
  2003f0:	91000400 	add	x0, x0, #0x1
  2003f4:	f9000be0 	str	x0, [sp,#16]
  2003f8:	f9400be0 	ldr	x0, [sp,#16]
  2003fc:	39400000 	ldrb	w0, [x0]
  200400:	7100bc1f 	cmp	w0, #0x2f
  200404:	540000a9 	b.ls	200418 <vsprintf+0xd0>
  200408:	f9400be0 	ldr	x0, [sp,#16]
  20040c:	39400000 	ldrb	w0, [x0]
  200410:	7100e41f 	cmp	w0, #0x39
  200414:	54fffd49 	b.ls	2003bc <vsprintf+0x74>
  200418:	f9400be0 	ldr	x0, [sp,#16]
  20041c:	39400000 	ldrb	w0, [x0]
  200420:	7101b01f 	cmp	w0, #0x6c
  200424:	54000081 	b.ne	200434 <vsprintf+0xec>
  200428:	f9400be0 	ldr	x0, [sp,#16]
  20042c:	91000400 	add	x0, x0, #0x1
  200430:	f9000be0 	str	x0, [sp,#16]
  200434:	f9400be0 	ldr	x0, [sp,#16]
  200438:	39400000 	ldrb	w0, [x0]
  20043c:	71018c1f 	cmp	w0, #0x63
  200440:	540004c1 	b.ne	2004d8 <vsprintf+0x190>
  200444:	b9401a60 	ldr	w0, [x19,#24]
  200448:	f9400261 	ldr	x1, [x19]
  20044c:	7100001f 	cmp	w0, #0x0
  200450:	540000eb 	b.lt	20046c <vsprintf+0x124>
  200454:	aa0103e0 	mov	x0, x1
  200458:	91002c00 	add	x0, x0, #0xb
  20045c:	927df000 	and	x0, x0, #0xfffffffffffffff8
  200460:	f9000260 	str	x0, [x19]
  200464:	aa0103e0 	mov	x0, x1
  200468:	1400000f 	b	2004a4 <vsprintf+0x15c>
  20046c:	11002002 	add	w2, w0, #0x8
  200470:	b9001a62 	str	w2, [x19,#24]
  200474:	b9401a62 	ldr	w2, [x19,#24]
  200478:	7100005f 	cmp	w2, #0x0
  20047c:	540000ed 	b.le	200498 <vsprintf+0x150>
  200480:	aa0103e0 	mov	x0, x1
  200484:	91002c00 	add	x0, x0, #0xb
  200488:	927df000 	and	x0, x0, #0xfffffffffffffff8
  20048c:	f9000260 	str	x0, [x19]
  200490:	aa0103e0 	mov	x0, x1
  200494:	14000004 	b	2004a4 <vsprintf+0x15c>
  200498:	f9400661 	ldr	x1, [x19,#8]
  20049c:	93407c00 	sxtw	x0, w0
  2004a0:	8b000020 	add	x0, x1, x0
  2004a4:	b9400000 	ldr	w0, [x0]
  2004a8:	93407c00 	sxtw	x0, w0
  2004ac:	f9002fe0 	str	x0, [sp,#88]
  2004b0:	f9400fe0 	ldr	x0, [sp,#24]
  2004b4:	91000401 	add	x1, x0, #0x1
  2004b8:	f9000fe1 	str	x1, [sp,#24]
  2004bc:	f9402fe1 	ldr	x1, [sp,#88]
  2004c0:	53001c21 	uxtb	w1, w1
  2004c4:	39000001 	strb	w1, [x0]
  2004c8:	f9400be0 	ldr	x0, [sp,#16]
  2004cc:	91000400 	add	x0, x0, #0x1
  2004d0:	f9000be0 	str	x0, [sp,#16]
  2004d4:	1400011f 	b	200950 <vsprintf+0x608>
  2004d8:	f9400be0 	ldr	x0, [sp,#16]
  2004dc:	39400000 	ldrb	w0, [x0]
  2004e0:	7101901f 	cmp	w0, #0x64
  2004e4:	54001041 	b.ne	2006ec <vsprintf+0x3a4>
  2004e8:	b9401a60 	ldr	w0, [x19,#24]
  2004ec:	f9400261 	ldr	x1, [x19]
  2004f0:	7100001f 	cmp	w0, #0x0
  2004f4:	540000eb 	b.lt	200510 <vsprintf+0x1c8>
  2004f8:	aa0103e0 	mov	x0, x1
  2004fc:	91002c00 	add	x0, x0, #0xb
  200500:	927df000 	and	x0, x0, #0xfffffffffffffff8
  200504:	f9000260 	str	x0, [x19]
  200508:	aa0103e0 	mov	x0, x1
  20050c:	1400000f 	b	200548 <vsprintf+0x200>
  200510:	11002002 	add	w2, w0, #0x8
  200514:	b9001a62 	str	w2, [x19,#24]
  200518:	b9401a62 	ldr	w2, [x19,#24]
  20051c:	7100005f 	cmp	w2, #0x0
  200520:	540000ed 	b.le	20053c <vsprintf+0x1f4>
  200524:	aa0103e0 	mov	x0, x1
  200528:	91002c00 	add	x0, x0, #0xb
  20052c:	927df000 	and	x0, x0, #0xfffffffffffffff8
  200530:	f9000260 	str	x0, [x19]
  200534:	aa0103e0 	mov	x0, x1
  200538:	14000004 	b	200548 <vsprintf+0x200>
  20053c:	f9400661 	ldr	x1, [x19,#8]
  200540:	93407c00 	sxtw	x0, w0
  200544:	8b000020 	add	x0, x1, x0
  200548:	b9400000 	ldr	w0, [x0]
  20054c:	93407c00 	sxtw	x0, w0
  200550:	f9002fe0 	str	x0, [sp,#88]
  200554:	b90053ff 	str	wzr, [sp,#80]
  200558:	f9402fe0 	ldr	x0, [sp,#88]
  20055c:	7100001f 	cmp	w0, #0x0
  200560:	540000ea 	b.ge	20057c <vsprintf+0x234>
  200564:	f9402fe0 	ldr	x0, [sp,#88]
  200568:	cb0003e0 	neg	x0, x0
  20056c:	f9002fe0 	str	x0, [sp,#88]
  200570:	b94053e0 	ldr	w0, [sp,#80]
  200574:	11000400 	add	w0, w0, #0x1
  200578:	b90053e0 	str	w0, [sp,#80]
  20057c:	f9402fe1 	ldr	x1, [sp,#88]
  200580:	92b44ec0 	mov	x0, #0xffffffff5d89ffff    	// #-2725642241
  200584:	f2c8af00 	movk	x0, #0x4578, lsl #32
  200588:	f2e02c60 	movk	x0, #0x163, lsl #48
  20058c:	eb00003f 	cmp	x1, x0
  200590:	540000ad 	b.le	2005a4 <vsprintf+0x25c>
  200594:	92b44ec0 	mov	x0, #0xffffffff5d89ffff    	// #-2725642241
  200598:	f2c8af00 	movk	x0, #0x4578, lsl #32
  20059c:	f2e02c60 	movk	x0, #0x163, lsl #48
  2005a0:	f9002fe0 	str	x0, [sp,#88]
  2005a4:	52800240 	mov	w0, #0x12                  	// #18
  2005a8:	b9004fe0 	str	w0, [sp,#76]
  2005ac:	b9804fe0 	ldrsw	x0, [sp,#76]
  2005b0:	d13e83e1 	sub	x1, sp, #0xfa0
  2005b4:	8b000020 	add	x0, x1, x0
  2005b8:	393f001f 	strb	wzr, [x0,#4032]
  2005bc:	b9404fe0 	ldr	w0, [sp,#76]
  2005c0:	51000400 	sub	w0, w0, #0x1
  2005c4:	b9004fe0 	str	w0, [sp,#76]
  2005c8:	f9402fe1 	ldr	x1, [sp,#88]
  2005cc:	b203e7e0 	mov	x0, #0x6666666666666666    	// #7378697629483820646
  2005d0:	f28ccce0 	movk	x0, #0x6667
  2005d4:	9b407c20 	smulh	x0, x1, x0
  2005d8:	9342fc02 	asr	x2, x0, #2
  2005dc:	937ffc20 	asr	x0, x1, #63
  2005e0:	cb000042 	sub	x2, x2, x0
  2005e4:	aa0203e0 	mov	x0, x2
  2005e8:	d37ef400 	lsl	x0, x0, #2
  2005ec:	8b020000 	add	x0, x0, x2
  2005f0:	d37ff800 	lsl	x0, x0, #1
  2005f4:	cb000022 	sub	x2, x1, x0
  2005f8:	53001c40 	uxtb	w0, w2
  2005fc:	1100c000 	add	w0, w0, #0x30
  200600:	53001c02 	uxtb	w2, w0
  200604:	b9804fe0 	ldrsw	x0, [sp,#76]
  200608:	d13e83e1 	sub	x1, sp, #0xfa0
  20060c:	8b000020 	add	x0, x1, x0
  200610:	2a0203e1 	mov	w1, w2
  200614:	393f0001 	strb	w1, [x0,#4032]
  200618:	f9402fe0 	ldr	x0, [sp,#88]
  20061c:	b203e7e1 	mov	x1, #0x6666666666666666    	// #7378697629483820646
  200620:	f28ccce1 	movk	x1, #0x6667
  200624:	9b417c01 	smulh	x1, x0, x1
  200628:	9342fc21 	asr	x1, x1, #2
  20062c:	937ffc00 	asr	x0, x0, #63
  200630:	cb000020 	sub	x0, x1, x0
  200634:	f9002fe0 	str	x0, [sp,#88]
  200638:	f9402fe0 	ldr	x0, [sp,#88]
  20063c:	f100001f 	cmp	x0, #0x0
  200640:	54000080 	b.eq	200650 <vsprintf+0x308>
  200644:	b9404fe0 	ldr	w0, [sp,#76]
  200648:	7100001f 	cmp	w0, #0x0
  20064c:	54fffb8c 	b.gt	2005bc <vsprintf+0x274>
  200650:	b94053e0 	ldr	w0, [sp,#80]
  200654:	7100001f 	cmp	w0, #0x0
  200658:	54000140 	b.eq	200680 <vsprintf+0x338>
  20065c:	b9404fe0 	ldr	w0, [sp,#76]
  200660:	51000400 	sub	w0, w0, #0x1
  200664:	b9004fe0 	str	w0, [sp,#76]
  200668:	b9804fe0 	ldrsw	x0, [sp,#76]
  20066c:	d13e83e1 	sub	x1, sp, #0xfa0
  200670:	8b000020 	add	x0, x1, x0
  200674:	aa0003e1 	mov	x1, x0
  200678:	528005a0 	mov	w0, #0x2d                  	// #45
  20067c:	393f0020 	strb	w0, [x1,#4032]
  200680:	b94057e0 	ldr	w0, [sp,#84]
  200684:	7100001f 	cmp	w0, #0x0
  200688:	5400028d 	b.le	2006d8 <vsprintf+0x390>
  20068c:	b94057e0 	ldr	w0, [sp,#84]
  200690:	7100441f 	cmp	w0, #0x11
  200694:	5400022c 	b.gt	2006d8 <vsprintf+0x390>
  200698:	1400000a 	b	2006c0 <vsprintf+0x378>
  20069c:	b9404fe0 	ldr	w0, [sp,#76]
  2006a0:	51000400 	sub	w0, w0, #0x1
  2006a4:	b9004fe0 	str	w0, [sp,#76]
  2006a8:	b9804fe0 	ldrsw	x0, [sp,#76]
  2006ac:	d13e83e1 	sub	x1, sp, #0xfa0
  2006b0:	8b000020 	add	x0, x1, x0
  2006b4:	aa0003e1 	mov	x1, x0
  2006b8:	52800400 	mov	w0, #0x20                  	// #32
  2006bc:	393f0020 	strb	w0, [x1,#4032]
  2006c0:	52800241 	mov	w1, #0x12                  	// #18
  2006c4:	b94057e0 	ldr	w0, [sp,#84]
  2006c8:	4b000021 	sub	w1, w1, w0
  2006cc:	b9404fe0 	ldr	w0, [sp,#76]
  2006d0:	6b00003f 	cmp	w1, w0
  2006d4:	54fffe4b 	b.lt	20069c <vsprintf+0x354>
  2006d8:	910083e1 	add	x1, sp, #0x20
  2006dc:	b9804fe0 	ldrsw	x0, [sp,#76]
  2006e0:	8b000020 	add	x0, x1, x0
  2006e4:	f90023e0 	str	x0, [sp,#64]
  2006e8:	1400007c 	b	2008d8 <vsprintf+0x590>
  2006ec:	f9400be0 	ldr	x0, [sp,#16]
  2006f0:	39400000 	ldrb	w0, [x0]
  2006f4:	7101e01f 	cmp	w0, #0x78
  2006f8:	54000b41 	b.ne	200860 <vsprintf+0x518>
  2006fc:	b9401a60 	ldr	w0, [x19,#24]
  200700:	f9400261 	ldr	x1, [x19]
  200704:	7100001f 	cmp	w0, #0x0
  200708:	540000eb 	b.lt	200724 <vsprintf+0x3dc>
  20070c:	aa0103e0 	mov	x0, x1
  200710:	91003c00 	add	x0, x0, #0xf
  200714:	927df000 	and	x0, x0, #0xfffffffffffffff8
  200718:	f9000260 	str	x0, [x19]
  20071c:	aa0103e0 	mov	x0, x1
  200720:	1400000f 	b	20075c <vsprintf+0x414>
  200724:	11002002 	add	w2, w0, #0x8
  200728:	b9001a62 	str	w2, [x19,#24]
  20072c:	b9401a62 	ldr	w2, [x19,#24]
  200730:	7100005f 	cmp	w2, #0x0
  200734:	540000ed 	b.le	200750 <vsprintf+0x408>
  200738:	aa0103e0 	mov	x0, x1
  20073c:	91003c00 	add	x0, x0, #0xf
  200740:	927df000 	and	x0, x0, #0xfffffffffffffff8
  200744:	f9000260 	str	x0, [x19]
  200748:	aa0103e0 	mov	x0, x1
  20074c:	14000004 	b	20075c <vsprintf+0x414>
  200750:	f9400661 	ldr	x1, [x19,#8]
  200754:	93407c00 	sxtw	x0, w0
  200758:	8b000020 	add	x0, x1, x0
  20075c:	f9400000 	ldr	x0, [x0]
  200760:	f9002fe0 	str	x0, [sp,#88]
  200764:	52800200 	mov	w0, #0x10                  	// #16
  200768:	b9004fe0 	str	w0, [sp,#76]
  20076c:	b9804fe0 	ldrsw	x0, [sp,#76]
  200770:	d13e83e1 	sub	x1, sp, #0xfa0
  200774:	8b000020 	add	x0, x1, x0
  200778:	393f001f 	strb	wzr, [x0,#4032]
  20077c:	f9402fe0 	ldr	x0, [sp,#88]
  200780:	53001c00 	uxtb	w0, w0
  200784:	12000c00 	and	w0, w0, #0xf
  200788:	3900dfe0 	strb	w0, [sp,#55]
  20078c:	b9404fe0 	ldr	w0, [sp,#76]
  200790:	51000400 	sub	w0, w0, #0x1
  200794:	b9004fe0 	str	w0, [sp,#76]
  200798:	3940dfe0 	ldrb	w0, [sp,#55]
  20079c:	7100241f 	cmp	w0, #0x9
  2007a0:	54000069 	b.ls	2007ac <vsprintf+0x464>
  2007a4:	528006e0 	mov	w0, #0x37                  	// #55
  2007a8:	14000002 	b	2007b0 <vsprintf+0x468>
  2007ac:	52800600 	mov	w0, #0x30                  	// #48
  2007b0:	3940dfe1 	ldrb	w1, [sp,#55]
  2007b4:	0b010000 	add	w0, w0, w1
  2007b8:	53001c02 	uxtb	w2, w0
  2007bc:	b9804fe0 	ldrsw	x0, [sp,#76]
  2007c0:	d13e83e1 	sub	x1, sp, #0xfa0
  2007c4:	8b000020 	add	x0, x1, x0
  2007c8:	2a0203e1 	mov	w1, w2
  2007cc:	393f0001 	strb	w1, [x0,#4032]
  2007d0:	f9402fe0 	ldr	x0, [sp,#88]
  2007d4:	9344fc00 	asr	x0, x0, #4
  2007d8:	f9002fe0 	str	x0, [sp,#88]
  2007dc:	f9402fe0 	ldr	x0, [sp,#88]
  2007e0:	f100001f 	cmp	x0, #0x0
  2007e4:	54000080 	b.eq	2007f4 <vsprintf+0x4ac>
  2007e8:	b9404fe0 	ldr	w0, [sp,#76]
  2007ec:	7100001f 	cmp	w0, #0x0
  2007f0:	54fffc6c 	b.gt	20077c <vsprintf+0x434>
  2007f4:	b94057e0 	ldr	w0, [sp,#84]
  2007f8:	7100001f 	cmp	w0, #0x0
  2007fc:	5400028d 	b.le	20084c <vsprintf+0x504>
  200800:	b94057e0 	ldr	w0, [sp,#84]
  200804:	7100401f 	cmp	w0, #0x10
  200808:	5400022c 	b.gt	20084c <vsprintf+0x504>
  20080c:	1400000a 	b	200834 <vsprintf+0x4ec>
  200810:	b9404fe0 	ldr	w0, [sp,#76]
  200814:	51000400 	sub	w0, w0, #0x1
  200818:	b9004fe0 	str	w0, [sp,#76]
  20081c:	b9804fe0 	ldrsw	x0, [sp,#76]
  200820:	d13e83e1 	sub	x1, sp, #0xfa0
  200824:	8b000020 	add	x0, x1, x0
  200828:	aa0003e1 	mov	x1, x0
  20082c:	52800600 	mov	w0, #0x30                  	// #48
  200830:	393f0020 	strb	w0, [x1,#4032]
  200834:	52800201 	mov	w1, #0x10                  	// #16
  200838:	b94057e0 	ldr	w0, [sp,#84]
  20083c:	4b000021 	sub	w1, w1, w0
  200840:	b9404fe0 	ldr	w0, [sp,#76]
  200844:	6b00003f 	cmp	w1, w0
  200848:	54fffe4b 	b.lt	200810 <vsprintf+0x4c8>
  20084c:	910083e1 	add	x1, sp, #0x20
  200850:	b9804fe0 	ldrsw	x0, [sp,#76]
  200854:	8b000020 	add	x0, x1, x0
  200858:	f90023e0 	str	x0, [sp,#64]
  20085c:	1400001f 	b	2008d8 <vsprintf+0x590>
  200860:	f9400be0 	ldr	x0, [sp,#16]
  200864:	39400000 	ldrb	w0, [x0]
  200868:	7101cc1f 	cmp	w0, #0x73
  20086c:	540006c1 	b.ne	200944 <vsprintf+0x5fc>
  200870:	b9401a60 	ldr	w0, [x19,#24]
  200874:	f9400261 	ldr	x1, [x19]
  200878:	7100001f 	cmp	w0, #0x0
  20087c:	540000eb 	b.lt	200898 <vsprintf+0x550>
  200880:	aa0103e0 	mov	x0, x1
  200884:	91003c00 	add	x0, x0, #0xf
  200888:	927df000 	and	x0, x0, #0xfffffffffffffff8
  20088c:	f9000260 	str	x0, [x19]
  200890:	aa0103e0 	mov	x0, x1
  200894:	1400000f 	b	2008d0 <vsprintf+0x588>
  200898:	11002002 	add	w2, w0, #0x8
  20089c:	b9001a62 	str	w2, [x19,#24]
  2008a0:	b9401a62 	ldr	w2, [x19,#24]
  2008a4:	7100005f 	cmp	w2, #0x0
  2008a8:	540000ed 	b.le	2008c4 <vsprintf+0x57c>
  2008ac:	aa0103e0 	mov	x0, x1
  2008b0:	91003c00 	add	x0, x0, #0xf
  2008b4:	927df000 	and	x0, x0, #0xfffffffffffffff8
  2008b8:	f9000260 	str	x0, [x19]
  2008bc:	aa0103e0 	mov	x0, x1
  2008c0:	14000004 	b	2008d0 <vsprintf+0x588>
  2008c4:	f9400661 	ldr	x1, [x19,#8]
  2008c8:	93407c00 	sxtw	x0, w0
  2008cc:	8b000020 	add	x0, x1, x0
  2008d0:	f9400000 	ldr	x0, [x0]
  2008d4:	f90023e0 	str	x0, [sp,#64]
  2008d8:	f94023e0 	ldr	x0, [sp,#64]
  2008dc:	f100001f 	cmp	x0, #0x0
  2008e0:	540001a1 	b.ne	200914 <vsprintf+0x5cc>
  2008e4:	90000000 	adrp	x0, 200000 <main>
  2008e8:	91292000 	add	x0, x0, #0xa48
  2008ec:	f90023e0 	str	x0, [sp,#64]
  2008f0:	14000009 	b	200914 <vsprintf+0x5cc>
  2008f4:	f9400fe0 	ldr	x0, [sp,#24]
  2008f8:	91000401 	add	x1, x0, #0x1
  2008fc:	f9000fe1 	str	x1, [sp,#24]
  200900:	f94023e1 	ldr	x1, [sp,#64]
  200904:	91000422 	add	x2, x1, #0x1
  200908:	f90023e2 	str	x2, [sp,#64]
  20090c:	39400021 	ldrb	w1, [x1]
  200910:	39000001 	strb	w1, [x0]
  200914:	f94023e0 	ldr	x0, [sp,#64]
  200918:	39400000 	ldrb	w0, [x0]
  20091c:	7100001f 	cmp	w0, #0x0
  200920:	54fffea1 	b.ne	2008f4 <vsprintf+0x5ac>
  200924:	14000008 	b	200944 <vsprintf+0x5fc>
  200928:	d503201f 	nop
  20092c:	f9400fe0 	ldr	x0, [sp,#24]
  200930:	91000401 	add	x1, x0, #0x1
  200934:	f9000fe1 	str	x1, [sp,#24]
  200938:	f9400be1 	ldr	x1, [sp,#16]
  20093c:	39400021 	ldrb	w1, [x1]
  200940:	39000001 	strb	w1, [x0]
  200944:	f9400be0 	ldr	x0, [sp,#16]
  200948:	91000400 	add	x0, x0, #0x1
  20094c:	f9000be0 	str	x0, [sp,#16]
  200950:	f9400be0 	ldr	x0, [sp,#16]
  200954:	39400000 	ldrb	w0, [x0]
  200958:	7100001f 	cmp	w0, #0x0
  20095c:	54ffd161 	b.ne	200388 <vsprintf+0x40>
  200960:	f9400fe0 	ldr	x0, [sp,#24]
  200964:	3900001f 	strb	wzr, [x0]
  200968:	f9400fe1 	ldr	x1, [sp,#24]
  20096c:	f9401fe0 	ldr	x0, [sp,#56]
  200970:	cb000020 	sub	x0, x1, x0
  200974:	f84607f3 	ldr	x19, [sp],#96
  200978:	d65f03c0 	ret

000000000020097c <sprintf>:
  20097c:	a9af7bfd 	stp	x29, x30, [sp,#-272]!
  200980:	910003fd 	mov	x29, sp
  200984:	f9001fa0 	str	x0, [x29,#56]
  200988:	f9001ba1 	str	x1, [x29,#48]
  20098c:	f90073a2 	str	x2, [x29,#224]
  200990:	f90077a3 	str	x3, [x29,#232]
  200994:	f9007ba4 	str	x4, [x29,#240]
  200998:	f9007fa5 	str	x5, [x29,#248]
  20099c:	f90083a6 	str	x6, [x29,#256]
  2009a0:	f90087a7 	str	x7, [x29,#264]
  2009a4:	3d801ba0 	str	q0, [x29,#96]
  2009a8:	3d801fa1 	str	q1, [x29,#112]
  2009ac:	3d8023a2 	str	q2, [x29,#128]
  2009b0:	3d8027a3 	str	q3, [x29,#144]
  2009b4:	3d802ba4 	str	q4, [x29,#160]
  2009b8:	3d802fa5 	str	q5, [x29,#176]
  2009bc:	3d8033a6 	str	q6, [x29,#192]
  2009c0:	3d8037a7 	str	q7, [x29,#208]
  2009c4:	910443a0 	add	x0, x29, #0x110
  2009c8:	f90023a0 	str	x0, [x29,#64]
  2009cc:	910443a0 	add	x0, x29, #0x110
  2009d0:	f90027a0 	str	x0, [x29,#72]
  2009d4:	910383a0 	add	x0, x29, #0xe0
  2009d8:	f9002ba0 	str	x0, [x29,#80]
  2009dc:	128005e0 	mov	w0, #0xffffffd0            	// #-48
  2009e0:	b9005ba0 	str	w0, [x29,#88]
  2009e4:	12800fe0 	mov	w0, #0xffffff80            	// #-128
  2009e8:	b9005fa0 	str	w0, [x29,#92]
  2009ec:	910043a2 	add	x2, x29, #0x10
  2009f0:	910103a3 	add	x3, x29, #0x40
  2009f4:	a9400460 	ldp	x0, x1, [x3]
  2009f8:	a9000440 	stp	x0, x1, [x2]
  2009fc:	a9410460 	ldp	x0, x1, [x3,#16]
  200a00:	a9010440 	stp	x0, x1, [x2,#16]
  200a04:	910043a0 	add	x0, x29, #0x10
  200a08:	aa0003e2 	mov	x2, x0
  200a0c:	f9401ba1 	ldr	x1, [x29,#48]
  200a10:	f9401fa0 	ldr	x0, [x29,#56]
  200a14:	97fffe4d 	bl	200348 <vsprintf>
  200a18:	a8d17bfd 	ldp	x29, x30, [sp],#272
  200a1c:	d65f03c0 	ret
