
build/mem.o:     file format elf64-littleaarch64


Disassembly of section .text:

0000000000000000 <alloc_page.constprop.0>:
       0:	a9bb7bfd 	stp	x29, x30, [sp, #-80]!
       4:	90000000 	adrp	x0, 0 <alloc_page.constprop.0>
       8:	91000000 	add	x0, x0, #0x0
       c:	910003fd 	mov	x29, sp
      10:	a90153f3 	stp	x19, x20, [sp, #16]
      14:	d2800013 	mov	x19, #0x0                   	// #0
      18:	a9025bf5 	stp	x21, x22, [sp, #32]
      1c:	90000015 	adrp	x21, 100 <alloc_page.constprop.0+0x100>
      20:	a90363f7 	stp	x23, x24, [sp, #48]
      24:	94000000 	bl	0 <log>
      28:	d2820000 	mov	x0, #0x1000                	// #4096
      2c:	94000000 	bl	0 <log_hex>
      30:	90000000 	adrp	x0, 0 <alloc_page.constprop.0>
      34:	91000000 	add	x0, x0, #0x0
      38:	94000000 	bl	0 <log>
      3c:	f94002b4 	ldr	x20, [x21]
      40:	14000005 	b	54 <alloc_page.constprop.0+0x54>
      44:	91000673 	add	x19, x19, #0x1
      48:	91004294 	add	x20, x20, #0x10
      4c:	f100427f 	cmp	x19, #0x10
      50:	54000700 	b.eq	130 <alloc_page.constprop.0+0x130>  // b.none
      54:	aa1403e0 	mov	x0, x20
      58:	94000000 	bl	0 <list_empty>
      5c:	35ffff40 	cbnz	w0, 44 <alloc_page.constprop.0+0x44>
      60:	f94002b4 	ldr	x20, [x21]
      64:	d37cee60 	lsl	x0, x19, #4
      68:	f8606a97 	ldr	x23, [x20, x0]
      6c:	f90023f9 	str	x25, [sp, #64]
      70:	90000019 	adrp	x25, 8 <alloc_page.constprop.0+0x8>
      74:	aa1703e0 	mov	x0, x23
      78:	94000000 	bl	0 <pop_list>
      7c:	f9400339 	ldr	x25, [x25]
      80:	d34cfef5 	lsr	x21, x23, #12
      84:	f9400321 	ldr	x1, [x25]
      88:	38756820 	ldrb	w0, [x1, x21]
      8c:	12001000 	and	w0, w0, #0x1f
      90:	321b0000 	orr	w0, w0, #0x20
      94:	38356820 	strb	w0, [x1, x21]
      98:	f9400321 	ldr	x1, [x25]
      9c:	38756820 	ldrb	w0, [x1, x21]
      a0:	121b6800 	and	w0, w0, #0xffffffe0
      a4:	38356820 	strb	w0, [x1, x21]
      a8:	b4000373 	cbz	x19, 114 <alloc_page.constprop.0+0x114>
      ac:	d1000673 	sub	x19, x19, #0x1
      b0:	90000016 	adrp	x22, 0 <alloc_page.constprop.0>
      b4:	52800038 	mov	w24, #0x1                   	// #1
      b8:	910002d6 	add	x22, x22, #0x0
      bc:	8b131294 	add	x20, x20, x19, lsl #4
      c0:	14000002 	b	c8 <alloc_page.constprop.0+0xc8>
      c4:	d1000673 	sub	x19, x19, #0x1
      c8:	aa1603e0 	mov	x0, x22
      cc:	94000000 	bl	0 <log>
      d0:	1ad32302 	lsl	w2, w24, w19
      d4:	aa1403e0 	mov	x0, x20
      d8:	93407c42 	sxtw	x2, w2
      dc:	d1004294 	sub	x20, x20, #0x10
      e0:	f9400324 	ldr	x4, [x25]
      e4:	ca150042 	eor	x2, x2, x21
      e8:	d374cc41 	lsl	x1, x2, #12
      ec:	38626883 	ldrb	w3, [x4, x2]
      f0:	12001063 	and	w3, w3, #0x1f
      f4:	38226883 	strb	w3, [x4, x2]
      f8:	f9400324 	ldr	x4, [x25]
      fc:	38626883 	ldrb	w3, [x4, x2]
     100:	121b6863 	and	w3, w3, #0xffffffe0
     104:	2a130063 	orr	w3, w3, w19
     108:	38226883 	strb	w3, [x4, x2]
     10c:	94000000 	bl	0 <push_list>
     110:	b5fffdb3 	cbnz	x19, c4 <alloc_page.constprop.0+0xc4>
     114:	aa1703e0 	mov	x0, x23
     118:	a94153f3 	ldp	x19, x20, [sp, #16]
     11c:	a9425bf5 	ldp	x21, x22, [sp, #32]
     120:	a94363f7 	ldp	x23, x24, [sp, #48]
     124:	f94023f9 	ldr	x25, [sp, #64]
     128:	a8c57bfd 	ldp	x29, x30, [sp], #80
     12c:	d65f03c0 	ret
     130:	d2800017 	mov	x23, #0x0                   	// #0
     134:	90000000 	adrp	x0, 0 <alloc_page.constprop.0>
     138:	91000000 	add	x0, x0, #0x0
     13c:	94000000 	bl	0 <log>
     140:	aa1703e0 	mov	x0, x23
     144:	a94153f3 	ldp	x19, x20, [sp, #16]
     148:	a9425bf5 	ldp	x21, x22, [sp, #32]
     14c:	a94363f7 	ldp	x23, x24, [sp, #48]
     150:	a8c57bfd 	ldp	x29, x30, [sp], #80
     154:	d65f03c0 	ret

0000000000000158 <place_buddy.constprop.1>:
     158:	eb01001f 	cmp	x0, x1
     15c:	54000a40 	b.eq	2a4 <place_buddy.constprop.1+0x14c>  // b.none
     160:	a9ba7bfd 	stp	x29, x30, [sp, #-96]!
     164:	910003fd 	mov	x29, sp
     168:	a90363f7 	stp	x23, x24, [sp, #48]
     16c:	90000017 	adrp	x23, 100 <alloc_page.constprop.0+0x100>
     170:	aa0003f8 	mov	x24, x0
     174:	f94002f7 	ldr	x23, [x23]
     178:	a9046bf9 	stp	x25, x26, [sp, #64]
     17c:	9000001a 	adrp	x26, 8 <alloc_page.constprop.0+0x8>
     180:	a90153f3 	stp	x19, x20, [sp, #16]
     184:	dac00034 	rbit	x20, x1
     188:	aa0103f9 	mov	x25, x1
     18c:	f940035a 	ldr	x26, [x26]
     190:	a90573fb 	stp	x27, x28, [sp, #80]
     194:	dac0001c 	rbit	x28, x0
     198:	dac0139c 	clz	x28, x28
     19c:	dac01294 	clz	x20, x20
     1a0:	a9025bf5 	stp	x21, x22, [sp, #32]
     1a4:	aa1703f6 	mov	x22, x23
     1a8:	528001fb 	mov	w27, #0xf                   	// #15
     1ac:	52800035 	mov	w21, #0x1                   	// #1
     1b0:	51003393 	sub	w19, w28, #0xc
     1b4:	51003282 	sub	w2, w20, #0xc
     1b8:	71003e7f 	cmp	w19, #0xf
     1bc:	d34cff05 	lsr	x5, x24, #12
     1c0:	1a9bd273 	csel	w19, w19, w27, le
     1c4:	71003c5f 	cmp	w2, #0xf
     1c8:	1a9bd042 	csel	w2, w2, w27, le
     1cc:	aa1803e1 	mov	x1, x24
     1d0:	11003043 	add	w3, w2, #0xc
     1d4:	8b33d2c0 	add	x0, x22, w19, sxtw #4
     1d8:	6b02027f 	cmp	w19, w2
     1dc:	1ac322a3 	lsl	w3, w21, w3
     1e0:	f9400344 	ldr	x4, [x26]
     1e4:	5400030c 	b.gt	244 <place_buddy.constprop.1+0xec>
     1e8:	38656882 	ldrb	w2, [x4, x5]
     1ec:	121b6842 	and	w2, w2, #0xffffffe0
     1f0:	2a130042 	orr	w2, w2, w19
     1f4:	38256882 	strb	w2, [x4, x5]
     1f8:	11003273 	add	w19, w19, #0xc
     1fc:	f9400343 	ldr	x3, [x26]
     200:	1ad322b3 	lsl	w19, w21, w19
     204:	8b33c318 	add	x24, x24, w19, sxtw
     208:	dac0031c 	rbit	x28, x24
     20c:	38656862 	ldrb	w2, [x3, x5]
     210:	dac0139c 	clz	x28, x28
     214:	12001042 	and	w2, w2, #0x1f
     218:	38256862 	strb	w2, [x3, x5]
     21c:	94000000 	bl	0 <push_list>
     220:	eb19031f 	cmp	x24, x25
     224:	54fffc61 	b.ne	1b0 <place_buddy.constprop.1+0x58>  // b.any
     228:	a94153f3 	ldp	x19, x20, [sp, #16]
     22c:	a9425bf5 	ldp	x21, x22, [sp, #32]
     230:	a94363f7 	ldp	x23, x24, [sp, #48]
     234:	a9446bf9 	ldp	x25, x26, [sp, #64]
     238:	a94573fb 	ldp	x27, x28, [sp, #80]
     23c:	a8c67bfd 	ldp	x29, x30, [sp], #96
     240:	d65f03c0 	ret
     244:	cb23c339 	sub	x25, x25, w3, sxtw
     248:	8b22d2e0 	add	x0, x23, w2, sxtw #4
     24c:	aa1903e1 	mov	x1, x25
     250:	dac00334 	rbit	x20, x25
     254:	d34cff25 	lsr	x5, x25, #12
     258:	dac01294 	clz	x20, x20
     25c:	38656883 	ldrb	w3, [x4, x5]
     260:	121b6863 	and	w3, w3, #0xffffffe0
     264:	2a020062 	orr	w2, w3, w2
     268:	38256882 	strb	w2, [x4, x5]
     26c:	f9400343 	ldr	x3, [x26]
     270:	38656862 	ldrb	w2, [x3, x5]
     274:	12001042 	and	w2, w2, #0x1f
     278:	38256862 	strb	w2, [x3, x5]
     27c:	94000000 	bl	0 <push_list>
     280:	eb18033f 	cmp	x25, x24
     284:	54fff961 	b.ne	1b0 <place_buddy.constprop.1+0x58>  // b.any
     288:	a94153f3 	ldp	x19, x20, [sp, #16]
     28c:	a9425bf5 	ldp	x21, x22, [sp, #32]
     290:	a94363f7 	ldp	x23, x24, [sp, #48]
     294:	a9446bf9 	ldp	x25, x26, [sp, #64]
     298:	a94573fb 	ldp	x27, x28, [sp, #80]
     29c:	a8c67bfd 	ldp	x29, x30, [sp], #96
     2a0:	d65f03c0 	ret
     2a4:	d65f03c0 	ret

00000000000002a8 <pop_slab_cache>:
     2a8:	a9be7bfd 	stp	x29, x30, [sp, #-32]!
     2ac:	aa0003e2 	mov	x2, x0
     2b0:	910003fd 	mov	x29, sp
     2b4:	f9400801 	ldr	x1, [x0, #16]
     2b8:	f9000bf3 	str	x19, [sp, #16]
     2bc:	f9400833 	ldr	x19, [x1, #16]
     2c0:	b4000213 	cbz	x19, 300 <pop_slab_cache+0x58>
     2c4:	b9402443 	ldr	w3, [x2, #36]
     2c8:	90000000 	adrp	x0, 0 <alloc_page.constprop.0>
     2cc:	b9401824 	ldr	w4, [x1, #24]
     2d0:	91000000 	add	x0, x0, #0x0
     2d4:	f9400265 	ldr	x5, [x19]
     2d8:	51000484 	sub	w4, w4, #0x1
     2dc:	51000463 	sub	w3, w3, #0x1
     2e0:	f9000825 	str	x5, [x1, #16]
     2e4:	b9001824 	str	w4, [x1, #24]
     2e8:	b9002443 	str	w3, [x2, #36]
     2ec:	94000000 	bl	0 <log>
     2f0:	aa1303e0 	mov	x0, x19
     2f4:	f9400bf3 	ldr	x19, [sp, #16]
     2f8:	a8c27bfd 	ldp	x29, x30, [sp], #32
     2fc:	d65f03c0 	ret
     300:	f9400401 	ldr	x1, [x0, #8]
     304:	f9400833 	ldr	x19, [x1, #16]
     308:	b50000b3 	cbnz	x19, 31c <pop_slab_cache+0x74>
     30c:	d503201f 	nop
     310:	f9400421 	ldr	x1, [x1, #8]
     314:	f9400833 	ldr	x19, [x1, #16]
     318:	b4ffffd3 	cbz	x19, 310 <pop_slab_cache+0x68>
     31c:	f9000841 	str	x1, [x2, #16]
     320:	17ffffe9 	b	2c4 <pop_slab_cache+0x1c>
     324:	d503201f 	nop

0000000000000328 <sort_reserve>:
     328:	90000000 	adrp	x0, 0 <alloc_page.constprop.0>
     32c:	f9400001 	ldr	x1, [x0]
     330:	71000421 	subs	w1, w1, #0x1
     334:	54004544 	b.mi	bdc <sort_reserve+0x8b4>  // b.first
     338:	a9ad7bfd 	stp	x29, x30, [sp, #-304]!
     33c:	90000000 	adrp	x0, 100 <alloc_page.constprop.0+0x100>
     340:	52800012 	mov	w18, #0x0                   	// #0
     344:	910473e2 	add	x2, sp, #0x11c
     348:	910003fd 	mov	x29, sp
     34c:	f940000c 	ldr	x12, [x0]
     350:	910423e0 	add	x0, sp, #0x108
     354:	a90153f3 	stp	x19, x20, [sp, #16]
     358:	5280000f 	mov	w15, #0x0                   	// #0
     35c:	52800014 	mov	w20, #0x0                   	// #0
     360:	a9025bf5 	stp	x21, x22, [sp, #32]
     364:	5280000a 	mov	w10, #0x0                   	// #0
     368:	52800008 	mov	w8, #0x0                   	// #0
     36c:	a90363f7 	stp	x23, x24, [sp, #48]
     370:	52800006 	mov	w6, #0x0                   	// #0
     374:	52800017 	mov	w23, #0x0                   	// #0
     378:	a9046bf9 	stp	x25, x26, [sp, #64]
     37c:	5280001a 	mov	w26, #0x0                   	// #0
     380:	a90573fb 	stp	x27, x28, [sp, #80]
     384:	293f7c1f 	stp	wzr, wzr, [x0, #-8]
     388:	293f7c5f 	stp	wzr, wzr, [x2, #-8]
     38c:	2900fc1f 	stp	wzr, wzr, [x0, #4]
     390:	2900fc5f 	stp	wzr, wzr, [x2, #4]
     394:	b90077ff 	str	wzr, [sp, #116]
     398:	29137fff 	stp	wzr, wzr, [sp, #152]
     39c:	29197fff 	stp	wzr, wzr, [sp, #200]
     3a0:	b900d7ff 	str	wzr, [sp, #212]
     3a4:	291d7fff 	stp	wzr, wzr, [sp, #232]
     3a8:	291f7fff 	stp	wzr, wzr, [sp, #248]
     3ac:	b90073ff 	str	wzr, [sp, #112]
     3b0:	a945099b 	ldp	x27, x2, [x12, #80]
     3b4:	f90043e2 	str	x2, [sp, #128]
     3b8:	f9403182 	ldr	x2, [x12, #96]
     3bc:	f9004be2 	str	x2, [sp, #144]
     3c0:	f9403582 	ldr	x2, [x12, #104]
     3c4:	f9005be2 	str	x2, [sp, #176]
     3c8:	f9403982 	ldr	x2, [x12, #112]
     3cc:	f90057e2 	str	x2, [sp, #168]
     3d0:	f9403d82 	ldr	x2, [x12, #120]
     3d4:	f90063e2 	str	x2, [sp, #192]
     3d8:	b900d3ff 	str	wzr, [sp, #208]
     3dc:	b9010bff 	str	wzr, [sp, #264]
     3e0:	b9011fff 	str	wzr, [sp, #284]
     3e4:	b9012bff 	str	wzr, [sp, #296]
     3e8:	b9012fff 	str	wzr, [sp, #300]
     3ec:	a9400d80 	ldp	x0, x3, [x12]
     3f0:	a9411d85 	ldp	x5, x7, [x12, #16]
     3f4:	a9422d89 	ldp	x9, x11, [x12, #32]
     3f8:	a9437990 	ldp	x16, x30, [x12, #48]
     3fc:	a9446195 	ldp	x21, x24, [x12, #64]
     400:	f9404182 	ldr	x2, [x12, #128]
     404:	a948b984 	ldp	x4, x14, [x12, #136]
     408:	a949cd91 	ldp	x17, x19, [x12, #152]
     40c:	f9405596 	ldr	x22, [x12, #168]
     410:	a94b7199 	ldp	x25, x28, [x12, #176]
     414:	f940618d 	ldr	x13, [x12, #192]
     418:	a90637fb 	stp	x27, x13, [sp, #96]
     41c:	f940658d 	ldr	x13, [x12, #200]
     420:	f9003fed 	str	x13, [sp, #120]
     424:	f940698d 	ldr	x13, [x12, #208]
     428:	f90047ed 	str	x13, [sp, #136]
     42c:	f9406d8d 	ldr	x13, [x12, #216]
     430:	f90053ed 	str	x13, [sp, #160]
     434:	f940718d 	ldr	x13, [x12, #224]
     438:	f9005fed 	str	x13, [sp, #184]
     43c:	f940758d 	ldr	x13, [x12, #232]
     440:	f9006fed 	str	x13, [sp, #216]
     444:	f9407d8d 	ldr	x13, [x12, #248]
     448:	f9007bed 	str	x13, [sp, #240]
     44c:	f940798c 	ldr	x12, [x12, #240]
     450:	f90073ec 	str	x12, [sp, #224]
     454:	14000084 	b	664 <sort_reserve+0x33c>
     458:	aa0403ed 	mov	x13, x4
     45c:	aa0303ec 	mov	x12, x3
     460:	aa0203e4 	mov	x4, x2
     464:	aa0003e3 	mov	x3, x0
     468:	aa0d03e2 	mov	x2, x13
     46c:	aa0c03e0 	mov	x0, x12
     470:	7100043f 	cmp	w1, #0x1
     474:	540010a0 	b.eq	688 <sort_reserve+0x360>  // b.none
     478:	eb05001f 	cmp	x0, x5
     47c:	540010c8 	b.hi	694 <sort_reserve+0x36c>  // b.pmore
     480:	aa0203ed 	mov	x13, x2
     484:	aa0003ec 	mov	x12, x0
     488:	aa0e03e2 	mov	x2, x14
     48c:	aa0503e0 	mov	x0, x5
     490:	7100083f 	cmp	w1, #0x2
     494:	540010e0 	b.eq	6b0 <sort_reserve+0x388>  // b.none
     498:	eb07001f 	cmp	x0, x7
     49c:	54001108 	b.hi	6bc <sort_reserve+0x394>  // b.pmore
     4a0:	aa0203ee 	mov	x14, x2
     4a4:	aa0003e5 	mov	x5, x0
     4a8:	aa1103e2 	mov	x2, x17
     4ac:	aa0703e0 	mov	x0, x7
     4b0:	71000c3f 	cmp	w1, #0x3
     4b4:	54001140 	b.eq	6dc <sort_reserve+0x3b4>  // b.none
     4b8:	eb09001f 	cmp	x0, x9
     4bc:	54001168 	b.hi	6e8 <sort_reserve+0x3c0>  // b.pmore
     4c0:	aa0203f1 	mov	x17, x2
     4c4:	aa0003e7 	mov	x7, x0
     4c8:	aa1303e2 	mov	x2, x19
     4cc:	aa0903e0 	mov	x0, x9
     4d0:	7100103f 	cmp	w1, #0x4
     4d4:	54001180 	b.eq	704 <sort_reserve+0x3dc>  // b.none
     4d8:	eb0b001f 	cmp	x0, x11
     4dc:	540011a8 	b.hi	710 <sort_reserve+0x3e8>  // b.pmore
     4e0:	aa0203f3 	mov	x19, x2
     4e4:	aa0003e9 	mov	x9, x0
     4e8:	aa1603e2 	mov	x2, x22
     4ec:	aa0b03e0 	mov	x0, x11
     4f0:	7100143f 	cmp	w1, #0x5
     4f4:	540011e0 	b.eq	730 <sort_reserve+0x408>  // b.none
     4f8:	eb10001f 	cmp	x0, x16
     4fc:	54001208 	b.hi	73c <sort_reserve+0x414>  // b.pmore
     500:	aa0203f6 	mov	x22, x2
     504:	aa0003eb 	mov	x11, x0
     508:	aa1903e2 	mov	x2, x25
     50c:	aa1003e0 	mov	x0, x16
     510:	7100183f 	cmp	w1, #0x6
     514:	54001220 	b.eq	758 <sort_reserve+0x430>  // b.none
     518:	eb1e001f 	cmp	x0, x30
     51c:	54001248 	b.hi	764 <sort_reserve+0x43c>  // b.pmore
     520:	aa0203f9 	mov	x25, x2
     524:	aa0003f0 	mov	x16, x0
     528:	aa1c03e2 	mov	x2, x28
     52c:	aa1e03e0 	mov	x0, x30
     530:	71001c3f 	cmp	w1, #0x7
     534:	54001280 	b.eq	784 <sort_reserve+0x45c>  // b.none
     538:	eb15001f 	cmp	x0, x21
     53c:	540012a8 	b.hi	790 <sort_reserve+0x468>  // b.pmore
     540:	aa0203fc 	mov	x28, x2
     544:	aa0003fe 	mov	x30, x0
     548:	7100203f 	cmp	w1, #0x8
     54c:	aa1503e0 	mov	x0, x21
     550:	f94037e2 	ldr	x2, [sp, #104]
     554:	540012c0 	b.eq	7ac <sort_reserve+0x484>  // b.none
     558:	eb18001f 	cmp	x0, x24
     55c:	540012e8 	b.hi	7b8 <sort_reserve+0x490>  // b.pmore
     560:	f90037e2 	str	x2, [sp, #104]
     564:	aa0003f5 	mov	x21, x0
     568:	7100243f 	cmp	w1, #0x9
     56c:	aa1803e0 	mov	x0, x24
     570:	f9403fe2 	ldr	x2, [sp, #120]
     574:	54001340 	b.eq	7dc <sort_reserve+0x4b4>  // b.none
     578:	f94033fb 	ldr	x27, [sp, #96]
     57c:	eb1b001f 	cmp	x0, x27
     580:	54001348 	b.hi	7e8 <sort_reserve+0x4c0>  // b.pmore
     584:	f9003fe2 	str	x2, [sp, #120]
     588:	aa0003f8 	mov	x24, x0
     58c:	7100283f 	cmp	w1, #0xa
     590:	aa1b03e0 	mov	x0, x27
     594:	f94047e2 	ldr	x2, [sp, #136]
     598:	540013a0 	b.eq	80c <sort_reserve+0x4e4>  // b.none
     59c:	f94043fb 	ldr	x27, [sp, #128]
     5a0:	eb1b001f 	cmp	x0, x27
     5a4:	540013a8 	b.hi	818 <sort_reserve+0x4f0>  // b.pmore
     5a8:	f90033e0 	str	x0, [sp, #96]
     5ac:	71002c3f 	cmp	w1, #0xb
     5b0:	f90047e2 	str	x2, [sp, #136]
     5b4:	aa1b03e0 	mov	x0, x27
     5b8:	f94053e2 	ldr	x2, [sp, #160]
     5bc:	54001440 	b.eq	844 <sort_reserve+0x51c>  // b.none
     5c0:	f9404bfb 	ldr	x27, [sp, #144]
     5c4:	eb1b001f 	cmp	x0, x27
     5c8:	54001448 	b.hi	850 <sort_reserve+0x528>  // b.pmore
     5cc:	f90043e0 	str	x0, [sp, #128]
     5d0:	7100303f 	cmp	w1, #0xc
     5d4:	f90053e2 	str	x2, [sp, #160]
     5d8:	aa1b03e0 	mov	x0, x27
     5dc:	f9405fe2 	ldr	x2, [sp, #184]
     5e0:	540014e0 	b.eq	87c <sort_reserve+0x554>  // b.none
     5e4:	f9405bfb 	ldr	x27, [sp, #176]
     5e8:	eb1b001f 	cmp	x0, x27
     5ec:	540014e8 	b.hi	888 <sort_reserve+0x560>  // b.pmore
     5f0:	f9004be0 	str	x0, [sp, #144]
     5f4:	7100343f 	cmp	w1, #0xd
     5f8:	f9005fe2 	str	x2, [sp, #184]
     5fc:	aa1b03e0 	mov	x0, x27
     600:	f9406fe2 	ldr	x2, [sp, #216]
     604:	54001580 	b.eq	8b4 <sort_reserve+0x58c>  // b.none
     608:	f94057fb 	ldr	x27, [sp, #168]
     60c:	eb1b001f 	cmp	x0, x27
     610:	54002b68 	b.hi	b7c <sort_reserve+0x854>  // b.pmore
     614:	f9005be0 	str	x0, [sp, #176]
     618:	7100383f 	cmp	w1, #0xe
     61c:	f9006fe2 	str	x2, [sp, #216]
     620:	aa1b03e0 	mov	x0, x27
     624:	f94073e2 	ldr	x2, [sp, #224]
     628:	54002c00 	b.eq	ba8 <sort_reserve+0x880>  // b.none
     62c:	f94063fb 	ldr	x27, [sp, #192]
     630:	eb1b001f 	cmp	x0, x27
     634:	54002c08 	b.hi	bb4 <sort_reserve+0x88c>  // b.pmore
     638:	f90073e2 	str	x2, [sp, #224]
     63c:	f9407be2 	ldr	x2, [sp, #240]
     640:	f90057e0 	str	x0, [sp, #168]
     644:	aa1b03e0 	mov	x0, x27
     648:	f90063e0 	str	x0, [sp, #192]
     64c:	f9007be2 	str	x2, [sp, #240]
     650:	aa0403e2 	mov	x2, x4
     654:	aa0303e0 	mov	x0, x3
     658:	aa0d03e4 	mov	x4, x13
     65c:	aa0c03e3 	mov	x3, x12
     660:	51000421 	sub	w1, w1, #0x1
     664:	7100003f 	cmp	w1, #0x0
     668:	540012cd 	b.le	8c0 <sort_reserve+0x598>
     66c:	eb00007f 	cmp	x3, x0
     670:	54ffef42 	b.cs	458 <sort_reserve+0x130>  // b.hs, b.nlast
     674:	52800026 	mov	w6, #0x1                   	// #1
     678:	b90073e6 	str	w6, [sp, #112]
     67c:	291a1be6 	stp	w6, w6, [sp, #208]
     680:	7100043f 	cmp	w1, #0x1
     684:	54ffefa1 	b.ne	478 <sort_reserve+0x150>  // b.any
     688:	aa0203ed 	mov	x13, x2
     68c:	aa0003ec 	mov	x12, x0
     690:	17fffff0 	b	650 <sort_reserve+0x328>
     694:	52800028 	mov	w8, #0x1                   	// #1
     698:	290e23e8 	stp	w8, w8, [sp, #112]
     69c:	aa0e03ed 	mov	x13, x14
     6a0:	aa0503ec 	mov	x12, x5
     6a4:	2a0803e6 	mov	w6, w8
     6a8:	7100083f 	cmp	w1, #0x2
     6ac:	54ffef61 	b.ne	498 <sort_reserve+0x170>  // b.any
     6b0:	aa0203ee 	mov	x14, x2
     6b4:	aa0003e5 	mov	x5, x0
     6b8:	17ffffe6 	b	650 <sort_reserve+0x328>
     6bc:	5280002a 	mov	w10, #0x1                   	// #1
     6c0:	b90077ea 	str	w10, [sp, #116]
     6c4:	b9009bea 	str	w10, [sp, #152]
     6c8:	aa1103ee 	mov	x14, x17
     6cc:	aa0703e5 	mov	x5, x7
     6d0:	2a0a03e8 	mov	w8, w10
     6d4:	71000c3f 	cmp	w1, #0x3
     6d8:	54ffef01 	b.ne	4b8 <sort_reserve+0x190>  // b.any
     6dc:	aa0203f1 	mov	x17, x2
     6e0:	aa0003e7 	mov	x7, x0
     6e4:	17ffffdb 	b	650 <sort_reserve+0x328>
     6e8:	5280002f 	mov	w15, #0x1                   	// #1
     6ec:	29133fef 	stp	w15, w15, [sp, #152]
     6f0:	aa1303f1 	mov	x17, x19
     6f4:	aa0903e7 	mov	x7, x9
     6f8:	2a0f03ea 	mov	w10, w15
     6fc:	7100103f 	cmp	w1, #0x4
     700:	54ffeec1 	b.ne	4d8 <sort_reserve+0x1b0>  // b.any
     704:	aa0203f3 	mov	x19, x2
     708:	aa0003e9 	mov	x9, x0
     70c:	17ffffd1 	b	650 <sort_reserve+0x328>
     710:	52800032 	mov	w18, #0x1                   	// #1
     714:	b9009ff2 	str	w18, [sp, #156]
     718:	b900cbf2 	str	w18, [sp, #200]
     71c:	aa1603f3 	mov	x19, x22
     720:	aa0b03e9 	mov	x9, x11
     724:	2a1203ef 	mov	w15, w18
     728:	7100143f 	cmp	w1, #0x5
     72c:	54ffee61 	b.ne	4f8 <sort_reserve+0x1d0>  // b.any
     730:	aa0203f6 	mov	x22, x2
     734:	aa0003eb 	mov	x11, x0
     738:	17ffffc6 	b	650 <sort_reserve+0x328>
     73c:	52800034 	mov	w20, #0x1                   	// #1
     740:	291953f4 	stp	w20, w20, [sp, #200]
     744:	aa1903f6 	mov	x22, x25
     748:	aa1003eb 	mov	x11, x16
     74c:	2a1403f2 	mov	w18, w20
     750:	7100183f 	cmp	w1, #0x6
     754:	54ffee21 	b.ne	518 <sort_reserve+0x1f0>  // b.any
     758:	aa0203f9 	mov	x25, x2
     75c:	aa0003f0 	mov	x16, x0
     760:	17ffffbc 	b	650 <sort_reserve+0x328>
     764:	52800037 	mov	w23, #0x1                   	// #1
     768:	b900cff7 	str	w23, [sp, #204]
     76c:	b900ebf7 	str	w23, [sp, #232]
     770:	aa1c03f9 	mov	x25, x28
     774:	aa1e03f0 	mov	x16, x30
     778:	2a1703f4 	mov	w20, w23
     77c:	71001c3f 	cmp	w1, #0x7
     780:	54ffedc1 	b.ne	538 <sort_reserve+0x210>  // b.any
     784:	aa0203fc 	mov	x28, x2
     788:	aa0003fe 	mov	x30, x0
     78c:	17ffffb1 	b	650 <sort_reserve+0x328>
     790:	5280003a 	mov	w26, #0x1                   	// #1
     794:	291d6bfa 	stp	w26, w26, [sp, #232]
     798:	aa1503fe 	mov	x30, x21
     79c:	2a1a03f7 	mov	w23, w26
     7a0:	7100203f 	cmp	w1, #0x8
     7a4:	f94037fc 	ldr	x28, [sp, #104]
     7a8:	54ffed81 	b.ne	558 <sort_reserve+0x230>  // b.any
     7ac:	aa0003f5 	mov	x21, x0
     7b0:	f90037e2 	str	x2, [sp, #104]
     7b4:	17ffffa7 	b	650 <sort_reserve+0x328>
     7b8:	f9403ff5 	ldr	x21, [sp, #120]
     7bc:	f90037f5 	str	x21, [sp, #104]
     7c0:	aa1803f5 	mov	x21, x24
     7c4:	52800038 	mov	w24, #0x1                   	// #1
     7c8:	b900eff8 	str	w24, [sp, #236]
     7cc:	2a1803fa 	mov	w26, w24
     7d0:	291f63f8 	stp	w24, w24, [sp, #248]
     7d4:	7100243f 	cmp	w1, #0x9
     7d8:	54ffed01 	b.ne	578 <sort_reserve+0x250>  // b.any
     7dc:	aa0003f8 	mov	x24, x0
     7e0:	f9003fe2 	str	x2, [sp, #120]
     7e4:	17ffff9b 	b	650 <sort_reserve+0x328>
     7e8:	f94047f8 	ldr	x24, [sp, #136]
     7ec:	5280003b 	mov	w27, #0x1                   	// #1
     7f0:	f9003ff8 	str	x24, [sp, #120]
     7f4:	7100283f 	cmp	w1, #0xa
     7f8:	291f6ffb 	stp	w27, w27, [sp, #248]
     7fc:	b90103fb 	str	w27, [sp, #256]
     800:	b90107fb 	str	w27, [sp, #260]
     804:	f94033f8 	ldr	x24, [sp, #96]
     808:	54ffeca1 	b.ne	59c <sort_reserve+0x274>  // b.any
     80c:	f90033e0 	str	x0, [sp, #96]
     810:	f90047e2 	str	x2, [sp, #136]
     814:	17ffff8f 	b	650 <sort_reserve+0x328>
     818:	f94053fb 	ldr	x27, [sp, #160]
     81c:	f90047fb 	str	x27, [sp, #136]
     820:	f94043fb 	ldr	x27, [sp, #128]
     824:	f90033fb 	str	x27, [sp, #96]
     828:	5280003b 	mov	w27, #0x1                   	// #1
     82c:	b90103fb 	str	w27, [sp, #256]
     830:	b90107fb 	str	w27, [sp, #260]
     834:	71002c3f 	cmp	w1, #0xb
     838:	b9010ffb 	str	w27, [sp, #268]
     83c:	b90113fb 	str	w27, [sp, #272]
     840:	54ffec01 	b.ne	5c0 <sort_reserve+0x298>  // b.any
     844:	f90043e0 	str	x0, [sp, #128]
     848:	f90053e2 	str	x2, [sp, #160]
     84c:	17ffff81 	b	650 <sort_reserve+0x328>
     850:	f9405ffb 	ldr	x27, [sp, #184]
     854:	f90053fb 	str	x27, [sp, #160]
     858:	f9404bfb 	ldr	x27, [sp, #144]
     85c:	f90043fb 	str	x27, [sp, #128]
     860:	5280003b 	mov	w27, #0x1                   	// #1
     864:	b9010ffb 	str	w27, [sp, #268]
     868:	b90113fb 	str	w27, [sp, #272]
     86c:	7100303f 	cmp	w1, #0xc
     870:	b90117fb 	str	w27, [sp, #276]
     874:	b9011bfb 	str	w27, [sp, #280]
     878:	54ffeb61 	b.ne	5e4 <sort_reserve+0x2bc>  // b.any
     87c:	f9004be0 	str	x0, [sp, #144]
     880:	f9005fe2 	str	x2, [sp, #184]
     884:	17ffff73 	b	650 <sort_reserve+0x328>
     888:	f9406ffb 	ldr	x27, [sp, #216]
     88c:	f9005ffb 	str	x27, [sp, #184]
     890:	f9405bfb 	ldr	x27, [sp, #176]
     894:	f9004bfb 	str	x27, [sp, #144]
     898:	5280003b 	mov	w27, #0x1                   	// #1
     89c:	b90117fb 	str	w27, [sp, #276]
     8a0:	b9011bfb 	str	w27, [sp, #280]
     8a4:	7100343f 	cmp	w1, #0xd
     8a8:	b90123fb 	str	w27, [sp, #288]
     8ac:	b90127fb 	str	w27, [sp, #292]
     8b0:	54ffeac1 	b.ne	608 <sort_reserve+0x2e0>  // b.any
     8b4:	f9005be0 	str	x0, [sp, #176]
     8b8:	f9006fe2 	str	x2, [sp, #216]
     8bc:	17ffff65 	b	650 <sort_reserve+0x328>
     8c0:	71000421 	subs	w1, w1, #0x1
     8c4:	54ffed05 	b.pl	664 <sort_reserve+0x33c>  // b.nfrst
     8c8:	b9410be1 	ldr	w1, [sp, #264]
     8cc:	f94033fb 	ldr	x27, [sp, #96]
     8d0:	340000a1 	cbz	w1, 8e4 <sort_reserve+0x5bc>
     8d4:	90000001 	adrp	x1, 100 <alloc_page.constprop.0+0x100>
     8d8:	f94057ec 	ldr	x12, [sp, #168]
     8dc:	f9400021 	ldr	x1, [x1]
     8e0:	f900382c 	str	x12, [x1, #112]
     8e4:	b9412be1 	ldr	w1, [sp, #296]
     8e8:	340000a1 	cbz	w1, 8fc <sort_reserve+0x5d4>
     8ec:	90000001 	adrp	x1, 100 <alloc_page.constprop.0+0x100>
     8f0:	f94063ec 	ldr	x12, [sp, #192]
     8f4:	f9400021 	ldr	x1, [x1]
     8f8:	f9003c2c 	str	x12, [x1, #120]
     8fc:	b9411fe1 	ldr	w1, [sp, #284]
     900:	340000a1 	cbz	w1, 914 <sort_reserve+0x5ec>
     904:	90000001 	adrp	x1, 100 <alloc_page.constprop.0+0x100>
     908:	f94073ec 	ldr	x12, [sp, #224]
     90c:	f9400021 	ldr	x1, [x1]
     910:	f900782c 	str	x12, [x1, #240]
     914:	b9412fe1 	ldr	w1, [sp, #300]
     918:	340000a1 	cbz	w1, 92c <sort_reserve+0x604>
     91c:	90000001 	adrp	x1, 100 <alloc_page.constprop.0+0x100>
     920:	f9407bec 	ldr	x12, [sp, #240]
     924:	f9400021 	ldr	x1, [x1]
     928:	f9007c2c 	str	x12, [x1, #248]
     92c:	b940d3e1 	ldr	w1, [sp, #208]
     930:	34000081 	cbz	w1, 940 <sort_reserve+0x618>
     934:	90000001 	adrp	x1, 100 <alloc_page.constprop.0+0x100>
     938:	f9400021 	ldr	x1, [x1]
     93c:	f9000020 	str	x0, [x1]
     940:	b94073e0 	ldr	w0, [sp, #112]
     944:	34000080 	cbz	w0, 954 <sort_reserve+0x62c>
     948:	90000000 	adrp	x0, 100 <alloc_page.constprop.0+0x100>
     94c:	f9400000 	ldr	x0, [x0]
     950:	f9000403 	str	x3, [x0, #8]
     954:	b940d7e0 	ldr	w0, [sp, #212]
     958:	34000080 	cbz	w0, 968 <sort_reserve+0x640>
     95c:	90000000 	adrp	x0, 100 <alloc_page.constprop.0+0x100>
     960:	f9400000 	ldr	x0, [x0]
     964:	f9004002 	str	x2, [x0, #128]
     968:	34000086 	cbz	w6, 978 <sort_reserve+0x650>
     96c:	90000000 	adrp	x0, 100 <alloc_page.constprop.0+0x100>
     970:	f9400000 	ldr	x0, [x0]
     974:	f9004404 	str	x4, [x0, #136]
     978:	b94077e0 	ldr	w0, [sp, #116]
     97c:	34000080 	cbz	w0, 98c <sort_reserve+0x664>
     980:	90000000 	adrp	x0, 100 <alloc_page.constprop.0+0x100>
     984:	f9400000 	ldr	x0, [x0]
     988:	f9000805 	str	x5, [x0, #16]
     98c:	34000088 	cbz	w8, 99c <sort_reserve+0x674>
     990:	90000000 	adrp	x0, 100 <alloc_page.constprop.0+0x100>
     994:	f9400000 	ldr	x0, [x0]
     998:	f900480e 	str	x14, [x0, #144]
     99c:	b9409be0 	ldr	w0, [sp, #152]
     9a0:	34000080 	cbz	w0, 9b0 <sort_reserve+0x688>
     9a4:	90000000 	adrp	x0, 100 <alloc_page.constprop.0+0x100>
     9a8:	f9400000 	ldr	x0, [x0]
     9ac:	f9000c07 	str	x7, [x0, #24]
     9b0:	3400008a 	cbz	w10, 9c0 <sort_reserve+0x698>
     9b4:	90000000 	adrp	x0, 100 <alloc_page.constprop.0+0x100>
     9b8:	f9400000 	ldr	x0, [x0]
     9bc:	f9004c11 	str	x17, [x0, #152]
     9c0:	b9409fe0 	ldr	w0, [sp, #156]
     9c4:	34000080 	cbz	w0, 9d4 <sort_reserve+0x6ac>
     9c8:	90000000 	adrp	x0, 100 <alloc_page.constprop.0+0x100>
     9cc:	f9400000 	ldr	x0, [x0]
     9d0:	f9001009 	str	x9, [x0, #32]
     9d4:	3400008f 	cbz	w15, 9e4 <sort_reserve+0x6bc>
     9d8:	90000000 	adrp	x0, 100 <alloc_page.constprop.0+0x100>
     9dc:	f9400000 	ldr	x0, [x0]
     9e0:	f9005013 	str	x19, [x0, #160]
     9e4:	b940cbe0 	ldr	w0, [sp, #200]
     9e8:	34000080 	cbz	w0, 9f8 <sort_reserve+0x6d0>
     9ec:	90000000 	adrp	x0, 100 <alloc_page.constprop.0+0x100>
     9f0:	f9400000 	ldr	x0, [x0]
     9f4:	f900140b 	str	x11, [x0, #40]
     9f8:	34000092 	cbz	w18, a08 <sort_reserve+0x6e0>
     9fc:	90000000 	adrp	x0, 100 <alloc_page.constprop.0+0x100>
     a00:	f9400000 	ldr	x0, [x0]
     a04:	f9005416 	str	x22, [x0, #168]
     a08:	b940cfe0 	ldr	w0, [sp, #204]
     a0c:	34000080 	cbz	w0, a1c <sort_reserve+0x6f4>
     a10:	90000000 	adrp	x0, 100 <alloc_page.constprop.0+0x100>
     a14:	f9400000 	ldr	x0, [x0]
     a18:	f9001810 	str	x16, [x0, #48]
     a1c:	34000094 	cbz	w20, a2c <sort_reserve+0x704>
     a20:	90000000 	adrp	x0, 100 <alloc_page.constprop.0+0x100>
     a24:	f9400000 	ldr	x0, [x0]
     a28:	f9005819 	str	x25, [x0, #176]
     a2c:	b940ebe0 	ldr	w0, [sp, #232]
     a30:	34000080 	cbz	w0, a40 <sort_reserve+0x718>
     a34:	90000000 	adrp	x0, 100 <alloc_page.constprop.0+0x100>
     a38:	f9400000 	ldr	x0, [x0]
     a3c:	f9001c1e 	str	x30, [x0, #56]
     a40:	34000097 	cbz	w23, a50 <sort_reserve+0x728>
     a44:	90000000 	adrp	x0, 100 <alloc_page.constprop.0+0x100>
     a48:	f9400000 	ldr	x0, [x0]
     a4c:	f9005c1c 	str	x28, [x0, #184]
     a50:	b940efe0 	ldr	w0, [sp, #236]
     a54:	34000080 	cbz	w0, a64 <sort_reserve+0x73c>
     a58:	90000000 	adrp	x0, 100 <alloc_page.constprop.0+0x100>
     a5c:	f9400000 	ldr	x0, [x0]
     a60:	f9002015 	str	x21, [x0, #64]
     a64:	340000ba 	cbz	w26, a78 <sort_reserve+0x750>
     a68:	90000000 	adrp	x0, 100 <alloc_page.constprop.0+0x100>
     a6c:	f94037e1 	ldr	x1, [sp, #104]
     a70:	f9400000 	ldr	x0, [x0]
     a74:	f9006001 	str	x1, [x0, #192]
     a78:	b940fbe0 	ldr	w0, [sp, #248]
     a7c:	34000080 	cbz	w0, a8c <sort_reserve+0x764>
     a80:	90000000 	adrp	x0, 100 <alloc_page.constprop.0+0x100>
     a84:	f9400000 	ldr	x0, [x0]
     a88:	f9002418 	str	x24, [x0, #72]
     a8c:	b940ffe0 	ldr	w0, [sp, #252]
     a90:	340000a0 	cbz	w0, aa4 <sort_reserve+0x77c>
     a94:	90000000 	adrp	x0, 100 <alloc_page.constprop.0+0x100>
     a98:	f9403fe1 	ldr	x1, [sp, #120]
     a9c:	f9400000 	ldr	x0, [x0]
     aa0:	f9006401 	str	x1, [x0, #200]
     aa4:	b94103e0 	ldr	w0, [sp, #256]
     aa8:	34000080 	cbz	w0, ab8 <sort_reserve+0x790>
     aac:	90000000 	adrp	x0, 100 <alloc_page.constprop.0+0x100>
     ab0:	f9400000 	ldr	x0, [x0]
     ab4:	f900281b 	str	x27, [x0, #80]
     ab8:	b94107e0 	ldr	w0, [sp, #260]
     abc:	340000a0 	cbz	w0, ad0 <sort_reserve+0x7a8>
     ac0:	90000000 	adrp	x0, 100 <alloc_page.constprop.0+0x100>
     ac4:	f94047e1 	ldr	x1, [sp, #136]
     ac8:	f9400000 	ldr	x0, [x0]
     acc:	f9006801 	str	x1, [x0, #208]
     ad0:	b9410fe0 	ldr	w0, [sp, #268]
     ad4:	340000a0 	cbz	w0, ae8 <sort_reserve+0x7c0>
     ad8:	90000000 	adrp	x0, 100 <alloc_page.constprop.0+0x100>
     adc:	f94043e1 	ldr	x1, [sp, #128]
     ae0:	f9400000 	ldr	x0, [x0]
     ae4:	f9002c01 	str	x1, [x0, #88]
     ae8:	b94113e0 	ldr	w0, [sp, #272]
     aec:	340000a0 	cbz	w0, b00 <sort_reserve+0x7d8>
     af0:	90000000 	adrp	x0, 100 <alloc_page.constprop.0+0x100>
     af4:	f94053e1 	ldr	x1, [sp, #160]
     af8:	f9400000 	ldr	x0, [x0]
     afc:	f9006c01 	str	x1, [x0, #216]
     b00:	b94117e0 	ldr	w0, [sp, #276]
     b04:	340000a0 	cbz	w0, b18 <sort_reserve+0x7f0>
     b08:	90000000 	adrp	x0, 100 <alloc_page.constprop.0+0x100>
     b0c:	f9404be1 	ldr	x1, [sp, #144]
     b10:	f9400000 	ldr	x0, [x0]
     b14:	f9003001 	str	x1, [x0, #96]
     b18:	b9411be0 	ldr	w0, [sp, #280]
     b1c:	340000a0 	cbz	w0, b30 <sort_reserve+0x808>
     b20:	90000000 	adrp	x0, 100 <alloc_page.constprop.0+0x100>
     b24:	f9405fe1 	ldr	x1, [sp, #184]
     b28:	f9400000 	ldr	x0, [x0]
     b2c:	f9007001 	str	x1, [x0, #224]
     b30:	b94123e0 	ldr	w0, [sp, #288]
     b34:	340000a0 	cbz	w0, b48 <sort_reserve+0x820>
     b38:	90000000 	adrp	x0, 100 <alloc_page.constprop.0+0x100>
     b3c:	f9405be1 	ldr	x1, [sp, #176]
     b40:	f9400000 	ldr	x0, [x0]
     b44:	f9003401 	str	x1, [x0, #104]
     b48:	b94127e0 	ldr	w0, [sp, #292]
     b4c:	340000a0 	cbz	w0, b60 <sort_reserve+0x838>
     b50:	90000000 	adrp	x0, 100 <alloc_page.constprop.0+0x100>
     b54:	f9406fe1 	ldr	x1, [sp, #216]
     b58:	f9400000 	ldr	x0, [x0]
     b5c:	f9007401 	str	x1, [x0, #232]
     b60:	a94153f3 	ldp	x19, x20, [sp, #16]
     b64:	a9425bf5 	ldp	x21, x22, [sp, #32]
     b68:	a94363f7 	ldp	x23, x24, [sp, #48]
     b6c:	a9446bf9 	ldp	x25, x26, [sp, #64]
     b70:	a94573fb 	ldp	x27, x28, [sp, #80]
     b74:	a8d37bfd 	ldp	x29, x30, [sp], #304
     b78:	d65f03c0 	ret
     b7c:	f94073fb 	ldr	x27, [sp, #224]
     b80:	f9006ffb 	str	x27, [sp, #216]
     b84:	f94057fb 	ldr	x27, [sp, #168]
     b88:	f9005bfb 	str	x27, [sp, #176]
     b8c:	5280003b 	mov	w27, #0x1                   	// #1
     b90:	b9010bfb 	str	w27, [sp, #264]
     b94:	b9011ffb 	str	w27, [sp, #284]
     b98:	7100383f 	cmp	w1, #0xe
     b9c:	b90123fb 	str	w27, [sp, #288]
     ba0:	b90127fb 	str	w27, [sp, #292]
     ba4:	54ffd441 	b.ne	62c <sort_reserve+0x304>  // b.any
     ba8:	f90057e0 	str	x0, [sp, #168]
     bac:	f90073e2 	str	x2, [sp, #224]
     bb0:	17fffea8 	b	650 <sort_reserve+0x328>
     bb4:	f9407bfb 	ldr	x27, [sp, #240]
     bb8:	f90073fb 	str	x27, [sp, #224]
     bbc:	f94063fb 	ldr	x27, [sp, #192]
     bc0:	f90057fb 	str	x27, [sp, #168]
     bc4:	5280003b 	mov	w27, #0x1                   	// #1
     bc8:	b9010bfb 	str	w27, [sp, #264]
     bcc:	b9011ffb 	str	w27, [sp, #284]
     bd0:	b9012bfb 	str	w27, [sp, #296]
     bd4:	b9012ffb 	str	w27, [sp, #300]
     bd8:	17fffe9c 	b	648 <sort_reserve+0x320>
     bdc:	d65f03c0 	ret

0000000000000be0 <check_reserve_collision>:
     be0:	8b010001 	add	x1, x0, x1
     be4:	aa0003e4 	mov	x4, x0
     be8:	eb02003f 	cmp	x1, x2
     bec:	1a9f97e5 	cset	w5, hi  // hi = pmore
     bf0:	710000bf 	cmp	w5, #0x0
     bf4:	fa421002 	ccmp	x0, x2, #0x2, ne  // ne = any
     bf8:	52800020 	mov	w0, #0x1                   	// #1
     bfc:	540000e9 	b.ls	c18 <check_reserve_collision+0x38>  // b.plast
     c00:	8b030043 	add	x3, x2, x3
     c04:	52800020 	mov	w0, #0x1                   	// #1
     c08:	eb03003f 	cmp	x1, x3
     c0c:	fa423082 	ccmp	x4, x2, #0x2, cc  // cc = lo, ul, last
     c10:	fa432082 	ccmp	x4, x3, #0x2, cs  // cs = hs, nlast
     c14:	54000042 	b.cs	c1c <check_reserve_collision+0x3c>  // b.hs, b.nlast
     c18:	d65f03c0 	ret
     c1c:	710000bf 	cmp	w5, #0x0
     c20:	fa431022 	ccmp	x1, x3, #0x2, ne  // ne = any
     c24:	1a9f87e0 	cset	w0, ls  // ls = plast
     c28:	d65f03c0 	ret
     c2c:	d503201f 	nop

0000000000000c30 <reserve_mem>:
     c30:	a9bf7bfd 	stp	x29, x30, [sp, #-16]!
     c34:	aa0003e2 	mov	x2, x0
     c38:	aa010000 	orr	x0, x0, x1
     c3c:	910003fd 	mov	x29, sp
     c40:	f2402c1f 	tst	x0, #0xfff
     c44:	54000561 	b.ne	cf0 <reserve_mem+0xc0>  // b.any
     c48:	90000009 	adrp	x9, 0 <alloc_page.constprop.0>
     c4c:	f9400125 	ldr	x5, [x9]
     c50:	f1003cbf 	cmp	x5, #0xf
     c54:	54000588 	b.hi	d04 <reserve_mem+0xd4>  // b.pmore
     c58:	90000008 	adrp	x8, 100 <alloc_page.constprop.0+0x100>
     c5c:	b40003a5 	cbz	x5, cd0 <reserve_mem+0xa0>
     c60:	f9400103 	ldr	x3, [x8]
     c64:	8b010047 	add	x7, x2, x1
     c68:	8b050c6a 	add	x10, x3, x5, lsl #3
     c6c:	f9400064 	ldr	x4, [x3]
     c70:	f9404060 	ldr	x0, [x3, #128]
     c74:	8b000080 	add	x0, x4, x0
     c78:	eb00005f 	cmp	x2, x0
     c7c:	1a9f27e6 	cset	w6, cc  // cc = lo, ul, last
     c80:	710000df 	cmp	w6, #0x0
     c84:	fa421082 	ccmp	x4, x2, #0x2, ne  // ne = any
     c88:	540000a9 	b.ls	c9c <reserve_mem+0x6c>  // b.plast
     c8c:	eb07001f 	cmp	x0, x7
     c90:	fa423082 	ccmp	x4, x2, #0x2, cc  // cc = lo, ul, last
     c94:	fa472082 	ccmp	x4, x7, #0x2, cs  // cs = hs, nlast
     c98:	540000e2 	b.cs	cb4 <reserve_mem+0x84>  // b.hs, b.nlast
     c9c:	90000000 	adrp	x0, 0 <alloc_page.constprop.0>
     ca0:	91000000 	add	x0, x0, #0x0
     ca4:	94000000 	bl	0 <log>
     ca8:	12800000 	mov	w0, #0xffffffff            	// #-1
     cac:	a8c17bfd 	ldp	x29, x30, [sp], #16
     cb0:	d65f03c0 	ret
     cb4:	710000df 	cmp	w6, #0x0
     cb8:	91002063 	add	x3, x3, #0x8
     cbc:	fa471002 	ccmp	x0, x7, #0x2, ne  // ne = any
     cc0:	54fffee9 	b.ls	c9c <reserve_mem+0x6c>  // b.plast
     cc4:	eb0a007f 	cmp	x3, x10
     cc8:	54fffd21 	b.ne	c6c <reserve_mem+0x3c>  // b.any
     ccc:	d503201f 	nop
     cd0:	f9400108 	ldr	x8, [x8]
     cd4:	910040a3 	add	x3, x5, #0x10
     cd8:	910004a4 	add	x4, x5, #0x1
     cdc:	52800000 	mov	w0, #0x0                   	// #0
     ce0:	f9000124 	str	x4, [x9]
     ce4:	f8257902 	str	x2, [x8, x5, lsl #3]
     ce8:	f8237901 	str	x1, [x8, x3, lsl #3]
     cec:	17fffff0 	b	cac <reserve_mem+0x7c>
     cf0:	90000000 	adrp	x0, 0 <alloc_page.constprop.0>
     cf4:	91000000 	add	x0, x0, #0x0
     cf8:	94000000 	bl	0 <log>
     cfc:	12800000 	mov	w0, #0xffffffff            	// #-1
     d00:	17ffffeb 	b	cac <reserve_mem+0x7c>
     d04:	90000000 	adrp	x0, 0 <alloc_page.constprop.0>
     d08:	91000000 	add	x0, x0, #0x0
     d0c:	94000000 	bl	0 <log>
     d10:	12800000 	mov	w0, #0xffffffff            	// #-1
     d14:	17ffffe6 	b	cac <reserve_mem+0x7c>

0000000000000d18 <_place_buddy>:
     d18:	90000005 	adrp	x5, 8 <alloc_page.constprop.0+0x8>
     d1c:	2a0103e6 	mov	w6, w1
     d20:	d34cfc04 	lsr	x4, x0, #12
     d24:	f94000a5 	ldr	x5, [x5]
     d28:	f94000a1 	ldr	x1, [x5]
     d2c:	38646823 	ldrb	w3, [x1, x4]
     d30:	121b6863 	and	w3, w3, #0xffffffe0
     d34:	2a060063 	orr	w3, w3, w6
     d38:	38246823 	strb	w3, [x1, x4]
     d3c:	f94000a3 	ldr	x3, [x5]
     d40:	38646861 	ldrb	w1, [x3, x4]
     d44:	331b6841 	bfi	w1, w2, #5, #27
     d48:	38246861 	strb	w1, [x3, x4]
     d4c:	34000042 	cbz	w2, d54 <_place_buddy+0x3c>
     d50:	d65f03c0 	ret
     d54:	90000002 	adrp	x2, 100 <alloc_page.constprop.0+0x100>
     d58:	aa0003e1 	mov	x1, x0
     d5c:	f9400040 	ldr	x0, [x2]
     d60:	8b26d000 	add	x0, x0, w6, sxtw #4
     d64:	14000000 	b	0 <push_list>

0000000000000d68 <place_buddy>:
     d68:	eb01001f 	cmp	x0, x1
     d6c:	54000a00 	b.eq	eac <place_buddy+0x144>  // b.none
     d70:	a9ba7bfd 	stp	x29, x30, [sp, #-96]!
     d74:	910003fd 	mov	x29, sp
     d78:	a90153f3 	stp	x19, x20, [sp, #16]
     d7c:	90000014 	adrp	x20, 100 <alloc_page.constprop.0+0x100>
     d80:	a90363f7 	stp	x23, x24, [sp, #48]
     d84:	90000018 	adrp	x24, 8 <alloc_page.constprop.0+0x8>
     d88:	aa0103f7 	mov	x23, x1
     d8c:	a90573fb 	stp	x27, x28, [sp, #80]
     d90:	531b685c 	lsl	w28, w2, #5
     d94:	2a0203fb 	mov	w27, w2
     d98:	f9400318 	ldr	x24, [x24]
     d9c:	13001f9c 	sxtb	w28, w28
     da0:	a9025bf5 	stp	x21, x22, [sp, #32]
     da4:	aa0003f6 	mov	x22, x0
     da8:	f9400295 	ldr	x21, [x20]
     dac:	a9046bf9 	stp	x25, x26, [sp, #64]
     db0:	528001f9 	mov	w25, #0xf                   	// #15
     db4:	5280003a 	mov	w26, #0x1                   	// #1
     db8:	14000010 	b	df8 <place_buddy+0x90>
     dbc:	38626820 	ldrb	w0, [x1, x2]
     dc0:	121b6800 	and	w0, w0, #0xffffffe0
     dc4:	2a130000 	orr	w0, w0, w19
     dc8:	38226820 	strb	w0, [x1, x2]
     dcc:	f9400301 	ldr	x1, [x24]
     dd0:	38626820 	ldrb	w0, [x1, x2]
     dd4:	12001000 	and	w0, w0, #0x1f
     dd8:	2a000380 	orr	w0, w28, w0
     ddc:	38226820 	strb	w0, [x1, x2]
     de0:	340005db 	cbz	w27, e98 <place_buddy+0x130>
     de4:	11003273 	add	w19, w19, #0xc
     de8:	1ad32353 	lsl	w19, w26, w19
     dec:	8b33c2d6 	add	x22, x22, w19, sxtw
     df0:	eb1602ff 	cmp	x23, x22
     df4:	54000440 	b.eq	e7c <place_buddy+0x114>  // b.none
     df8:	dac002d3 	rbit	x19, x22
     dfc:	dac002e3 	rbit	x3, x23
     e00:	dac01273 	clz	x19, x19
     e04:	dac01063 	clz	x3, x3
     e08:	51003273 	sub	w19, w19, #0xc
     e0c:	51003063 	sub	w3, w3, #0xc
     e10:	71003e7f 	cmp	w19, #0xf
     e14:	d34cfec2 	lsr	x2, x22, #12
     e18:	1a99d273 	csel	w19, w19, w25, le
     e1c:	71003c7f 	cmp	w3, #0xf
     e20:	1a99d063 	csel	w3, w3, w25, le
     e24:	11003060 	add	w0, w3, #0xc
     e28:	6b13007f 	cmp	w3, w19
     e2c:	f9400301 	ldr	x1, [x24]
     e30:	1ac02340 	lsl	w0, w26, w0
     e34:	54fffc4a 	b.ge	dbc <place_buddy+0x54>  // b.tcont
     e38:	cb20c2f7 	sub	x23, x23, w0, sxtw
     e3c:	d34cfee2 	lsr	x2, x23, #12
     e40:	38626820 	ldrb	w0, [x1, x2]
     e44:	121b6800 	and	w0, w0, #0xffffffe0
     e48:	2a030000 	orr	w0, w0, w3
     e4c:	38226820 	strb	w0, [x1, x2]
     e50:	f9400301 	ldr	x1, [x24]
     e54:	38626820 	ldrb	w0, [x1, x2]
     e58:	12001000 	and	w0, w0, #0x1f
     e5c:	2a000380 	orr	w0, w28, w0
     e60:	38226820 	strb	w0, [x1, x2]
     e64:	35fffc7b 	cbnz	w27, df0 <place_buddy+0x88>
     e68:	8b23d2a0 	add	x0, x21, w3, sxtw #4
     e6c:	aa1703e1 	mov	x1, x23
     e70:	94000000 	bl	0 <push_list>
     e74:	eb1602ff 	cmp	x23, x22
     e78:	54fffc01 	b.ne	df8 <place_buddy+0x90>  // b.any
     e7c:	a94153f3 	ldp	x19, x20, [sp, #16]
     e80:	a9425bf5 	ldp	x21, x22, [sp, #32]
     e84:	a94363f7 	ldp	x23, x24, [sp, #48]
     e88:	a9446bf9 	ldp	x25, x26, [sp, #64]
     e8c:	a94573fb 	ldp	x27, x28, [sp, #80]
     e90:	a8c67bfd 	ldp	x29, x30, [sp], #96
     e94:	d65f03c0 	ret
     e98:	f9400280 	ldr	x0, [x20]
     e9c:	aa1603e1 	mov	x1, x22
     ea0:	8b33d000 	add	x0, x0, w19, sxtw #4
     ea4:	94000000 	bl	0 <push_list>
     ea8:	17ffffcf 	b	de4 <place_buddy+0x7c>
     eac:	d65f03c0 	ret

0000000000000eb0 <init_buddy>:
     eb0:	a9ac7bfd 	stp	x29, x30, [sp, #-320]!
     eb4:	90000001 	adrp	x1, 8 <alloc_page.constprop.0+0x8>
     eb8:	910003fd 	mov	x29, sp
     ebc:	f9400022 	ldr	x2, [x1]
     ec0:	a90153f3 	stp	x19, x20, [sp, #16]
     ec4:	90000013 	adrp	x19, 0 <alloc_page.constprop.0>
     ec8:	a9025bf5 	stp	x21, x22, [sp, #32]
     ecc:	f9400261 	ldr	x1, [x19]
     ed0:	a90363f7 	stp	x23, x24, [sp, #48]
     ed4:	a9046bf9 	stp	x25, x26, [sp, #64]
     ed8:	71000421 	subs	w1, w1, #0x1
     edc:	f9000040 	str	x0, [x2]
     ee0:	54003f44 	b.mi	16c8 <init_buddy+0x818>  // b.first
     ee4:	90000000 	adrp	x0, 100 <alloc_page.constprop.0+0x100>
     ee8:	910443fa 	add	x26, sp, #0x110
     eec:	9104c3fe 	add	x30, sp, #0x130
     ef0:	a90573fb 	stp	x27, x28, [sp, #80]
     ef4:	910483fc 	add	x28, sp, #0x120
     ef8:	f940000c 	ldr	x12, [x0]
     efc:	293f7f5f 	stp	wzr, wzr, [x26, #-8]
     f00:	293f7f9f 	stp	wzr, wzr, [x28, #-8]
     f04:	5280001b 	mov	w27, #0x0                   	// #0
     f08:	293f7fdf 	stp	wzr, wzr, [x30, #-8]
     f0c:	52800018 	mov	w24, #0x0                   	// #0
     f10:	29007f5f 	stp	wzr, wzr, [x26]
     f14:	52800015 	mov	w21, #0x0                   	// #0
     f18:	29007f9f 	stp	wzr, wzr, [x28]
     f1c:	52800012 	mov	w18, #0x0                   	// #0
     f20:	29007fdf 	stp	wzr, wzr, [x30]
     f24:	5280000f 	mov	w15, #0x0                   	// #0
     f28:	29107fff 	stp	wzr, wzr, [sp, #128]
     f2c:	5280000a 	mov	w10, #0x0                   	// #0
     f30:	29157fff 	stp	wzr, wzr, [sp, #168]
     f34:	52800007 	mov	w7, #0x0                   	// #0
     f38:	291b7fff 	stp	wzr, wzr, [sp, #216]
     f3c:	52800005 	mov	w5, #0x0                   	// #0
     f40:	291c7fff 	stp	wzr, wzr, [sp, #224]
     f44:	291f7fff 	stp	wzr, wzr, [sp, #248]
     f48:	b9013bff 	str	wzr, [sp, #312]
     f4c:	b9013fff 	str	wzr, [sp, #316]
     f50:	a9400d80 	ldp	x0, x3, [x12]
     f54:	a9411984 	ldp	x4, x6, [x12, #16]
     f58:	f9401188 	ldr	x8, [x12, #32]
     f5c:	a942c18b 	ldp	x11, x16, [x12, #40]
     f60:	f9402d82 	ldr	x2, [x12, #88]
     f64:	f9004be2 	str	x2, [sp, #144]
     f68:	f9403182 	ldr	x2, [x12, #96]
     f6c:	f90053e2 	str	x2, [sp, #160]
     f70:	f9405d8d 	ldr	x13, [x12, #184]
     f74:	f9003bed 	str	x13, [sp, #112]
     f78:	f9403582 	ldr	x2, [x12, #104]
     f7c:	f90063e2 	str	x2, [sp, #192]
     f80:	f940618d 	ldr	x13, [x12, #192]
     f84:	f9003fed 	str	x13, [sp, #120]
     f88:	f9403982 	ldr	x2, [x12, #112]
     f8c:	f9005be2 	str	x2, [sp, #176]
     f90:	f940658d 	ldr	x13, [x12, #200]
     f94:	f90047ed 	str	x13, [sp, #136]
     f98:	f9403d82 	ldr	x2, [x12, #120]
     f9c:	f9006be2 	str	x2, [sp, #208]
     fa0:	f940698d 	ldr	x13, [x12, #208]
     fa4:	f9004fed 	str	x13, [sp, #152]
     fa8:	f9406d8d 	ldr	x13, [x12, #216]
     fac:	a943d99e 	ldp	x30, x22, [x12, #56]
     fb0:	a944f199 	ldp	x25, x28, [x12, #72]
     fb4:	f9404182 	ldr	x2, [x12, #128]
     fb8:	a948b989 	ldp	x9, x14, [x12, #136]
     fbc:	a949d191 	ldp	x17, x20, [x12, #152]
     fc0:	a94ae997 	ldp	x23, x26, [x12, #168]
     fc4:	f9005fed 	str	x13, [sp, #184]
     fc8:	f940718d 	ldr	x13, [x12, #224]
     fcc:	f90067ed 	str	x13, [sp, #200]
     fd0:	f940758d 	ldr	x13, [x12, #232]
     fd4:	f90077ed 	str	x13, [sp, #232]
     fd8:	f9407d8d 	ldr	x13, [x12, #248]
     fdc:	f90037fc 	str	x28, [sp, #104]
     fe0:	f940798c 	ldr	x12, [x12, #240]
     fe4:	f9007bec 	str	x12, [sp, #240]
     fe8:	f90083ed 	str	x13, [sp, #256]
     fec:	14000080 	b	11ec <init_buddy+0x33c>
     ff0:	aa0203ed 	mov	x13, x2
     ff4:	aa0003ec 	mov	x12, x0
     ff8:	aa0903e2 	mov	x2, x9
     ffc:	aa0303e0 	mov	x0, x3
    1000:	7100043f 	cmp	w1, #0x1
    1004:	540010a0 	b.eq	1218 <init_buddy+0x368>  // b.none
    1008:	eb00009f 	cmp	x4, x0
    100c:	540010c3 	b.cc	1224 <init_buddy+0x374>  // b.lo, b.ul, b.last
    1010:	aa0203e9 	mov	x9, x2
    1014:	aa0003e3 	mov	x3, x0
    1018:	aa0e03e2 	mov	x2, x14
    101c:	aa0403e0 	mov	x0, x4
    1020:	7100083f 	cmp	w1, #0x2
    1024:	540010e0 	b.eq	1240 <init_buddy+0x390>  // b.none
    1028:	eb0000df 	cmp	x6, x0
    102c:	54001103 	b.cc	124c <init_buddy+0x39c>  // b.lo, b.ul, b.last
    1030:	aa0203ee 	mov	x14, x2
    1034:	aa0003e4 	mov	x4, x0
    1038:	aa1103e2 	mov	x2, x17
    103c:	aa0603e0 	mov	x0, x6
    1040:	71000c3f 	cmp	w1, #0x3
    1044:	54001140 	b.eq	126c <init_buddy+0x3bc>  // b.none
    1048:	eb00011f 	cmp	x8, x0
    104c:	54001163 	b.cc	1278 <init_buddy+0x3c8>  // b.lo, b.ul, b.last
    1050:	aa0203f1 	mov	x17, x2
    1054:	aa0003e6 	mov	x6, x0
    1058:	aa1403e2 	mov	x2, x20
    105c:	aa0803e0 	mov	x0, x8
    1060:	7100103f 	cmp	w1, #0x4
    1064:	54001180 	b.eq	1294 <init_buddy+0x3e4>  // b.none
    1068:	eb00017f 	cmp	x11, x0
    106c:	540011a3 	b.cc	12a0 <init_buddy+0x3f0>  // b.lo, b.ul, b.last
    1070:	aa0203f4 	mov	x20, x2
    1074:	aa0003e8 	mov	x8, x0
    1078:	aa1703e2 	mov	x2, x23
    107c:	aa0b03e0 	mov	x0, x11
    1080:	7100143f 	cmp	w1, #0x5
    1084:	540011e0 	b.eq	12c0 <init_buddy+0x410>  // b.none
    1088:	eb00021f 	cmp	x16, x0
    108c:	54001203 	b.cc	12cc <init_buddy+0x41c>  // b.lo, b.ul, b.last
    1090:	aa0203f7 	mov	x23, x2
    1094:	aa0003eb 	mov	x11, x0
    1098:	aa1a03e2 	mov	x2, x26
    109c:	aa1003e0 	mov	x0, x16
    10a0:	7100183f 	cmp	w1, #0x6
    10a4:	54001220 	b.eq	12e8 <init_buddy+0x438>  // b.none
    10a8:	eb0003df 	cmp	x30, x0
    10ac:	54001243 	b.cc	12f4 <init_buddy+0x444>  // b.lo, b.ul, b.last
    10b0:	aa0203fa 	mov	x26, x2
    10b4:	aa0003f0 	mov	x16, x0
    10b8:	71001c3f 	cmp	w1, #0x7
    10bc:	aa1e03e0 	mov	x0, x30
    10c0:	f9403be2 	ldr	x2, [sp, #112]
    10c4:	54001280 	b.eq	1314 <init_buddy+0x464>  // b.none
    10c8:	eb16001f 	cmp	x0, x22
    10cc:	540012a8 	b.hi	1320 <init_buddy+0x470>  // b.pmore
    10d0:	f9003be2 	str	x2, [sp, #112]
    10d4:	aa0003fe 	mov	x30, x0
    10d8:	7100203f 	cmp	w1, #0x8
    10dc:	aa1603e0 	mov	x0, x22
    10e0:	f9403fe2 	ldr	x2, [sp, #120]
    10e4:	540012e0 	b.eq	1340 <init_buddy+0x490>  // b.none
    10e8:	eb19001f 	cmp	x0, x25
    10ec:	54001308 	b.hi	134c <init_buddy+0x49c>  // b.pmore
    10f0:	f9003fe2 	str	x2, [sp, #120]
    10f4:	aa0003f6 	mov	x22, x0
    10f8:	7100243f 	cmp	w1, #0x9
    10fc:	aa1903e0 	mov	x0, x25
    1100:	f94047e2 	ldr	x2, [sp, #136]
    1104:	54001380 	b.eq	1374 <init_buddy+0x4c4>  // b.none
    1108:	f94037fc 	ldr	x28, [sp, #104]
    110c:	eb1c001f 	cmp	x0, x28
    1110:	54001388 	b.hi	1380 <init_buddy+0x4d0>  // b.pmore
    1114:	f90047e2 	str	x2, [sp, #136]
    1118:	aa0003f9 	mov	x25, x0
    111c:	7100283f 	cmp	w1, #0xa
    1120:	aa1c03e0 	mov	x0, x28
    1124:	f9404fe2 	ldr	x2, [sp, #152]
    1128:	540013e0 	b.eq	13a4 <init_buddy+0x4f4>  // b.none
    112c:	f9404bfc 	ldr	x28, [sp, #144]
    1130:	eb1c001f 	cmp	x0, x28
    1134:	540013e8 	b.hi	13b0 <init_buddy+0x500>  // b.pmore
    1138:	f90037e0 	str	x0, [sp, #104]
    113c:	71002c3f 	cmp	w1, #0xb
    1140:	f9004fe2 	str	x2, [sp, #152]
    1144:	aa1c03e0 	mov	x0, x28
    1148:	f9405fe2 	ldr	x2, [sp, #184]
    114c:	54001480 	b.eq	13dc <init_buddy+0x52c>  // b.none
    1150:	f94053fc 	ldr	x28, [sp, #160]
    1154:	eb1c001f 	cmp	x0, x28
    1158:	54001488 	b.hi	13e8 <init_buddy+0x538>  // b.pmore
    115c:	f9004be0 	str	x0, [sp, #144]
    1160:	7100303f 	cmp	w1, #0xc
    1164:	f9005fe2 	str	x2, [sp, #184]
    1168:	aa1c03e0 	mov	x0, x28
    116c:	f94067e2 	ldr	x2, [sp, #200]
    1170:	54001520 	b.eq	1414 <init_buddy+0x564>  // b.none
    1174:	f94063fc 	ldr	x28, [sp, #192]
    1178:	eb1c001f 	cmp	x0, x28
    117c:	54003768 	b.hi	1868 <init_buddy+0x9b8>  // b.pmore
    1180:	f90053e0 	str	x0, [sp, #160]
    1184:	7100343f 	cmp	w1, #0xd
    1188:	f90067e2 	str	x2, [sp, #200]
    118c:	aa1c03e0 	mov	x0, x28
    1190:	f94077e2 	ldr	x2, [sp, #232]
    1194:	54003800 	b.eq	1894 <init_buddy+0x9e4>  // b.none
    1198:	f9405bfc 	ldr	x28, [sp, #176]
    119c:	eb1c001f 	cmp	x0, x28
    11a0:	54003808 	b.hi	18a0 <init_buddy+0x9f0>  // b.pmore
    11a4:	f90063e0 	str	x0, [sp, #192]
    11a8:	7100383f 	cmp	w1, #0xe
    11ac:	f90077e2 	str	x2, [sp, #232]
    11b0:	aa1c03e0 	mov	x0, x28
    11b4:	f9407be2 	ldr	x2, [sp, #240]
    11b8:	540038a0 	b.eq	18cc <init_buddy+0xa1c>  // b.none
    11bc:	f9406bfc 	ldr	x28, [sp, #208]
    11c0:	eb1c001f 	cmp	x0, x28
    11c4:	540038a8 	b.hi	18d8 <init_buddy+0xa28>  // b.pmore
    11c8:	f9007be2 	str	x2, [sp, #240]
    11cc:	f94083e2 	ldr	x2, [sp, #256]
    11d0:	f9005be0 	str	x0, [sp, #176]
    11d4:	aa1c03e0 	mov	x0, x28
    11d8:	f9006be0 	str	x0, [sp, #208]
    11dc:	f90083e2 	str	x2, [sp, #256]
    11e0:	aa0d03e2 	mov	x2, x13
    11e4:	aa0c03e0 	mov	x0, x12
    11e8:	51000421 	sub	w1, w1, #0x1
    11ec:	7100003f 	cmp	w1, #0x0
    11f0:	5400118d 	b.le	1420 <init_buddy+0x570>
    11f4:	eb00007f 	cmp	x3, x0
    11f8:	54ffefc2 	b.cs	ff0 <init_buddy+0x140>  // b.hs, b.nlast
    11fc:	52800025 	mov	w5, #0x1                   	// #1
    1200:	b90083e5 	str	w5, [sp, #128]
    1204:	291c17e5 	stp	w5, w5, [sp, #224]
    1208:	aa0903ed 	mov	x13, x9
    120c:	aa0303ec 	mov	x12, x3
    1210:	7100043f 	cmp	w1, #0x1
    1214:	54ffefa1 	b.ne	1008 <init_buddy+0x158>  // b.any
    1218:	aa0203e9 	mov	x9, x2
    121c:	aa0003e3 	mov	x3, x0
    1220:	17fffff0 	b	11e0 <init_buddy+0x330>
    1224:	52800027 	mov	w7, #0x1                   	// #1
    1228:	29101fe7 	stp	w7, w7, [sp, #128]
    122c:	aa0e03e9 	mov	x9, x14
    1230:	aa0403e3 	mov	x3, x4
    1234:	2a0703e5 	mov	w5, w7
    1238:	7100083f 	cmp	w1, #0x2
    123c:	54ffef61 	b.ne	1028 <init_buddy+0x178>  // b.any
    1240:	aa0203ee 	mov	x14, x2
    1244:	aa0003e4 	mov	x4, x0
    1248:	17ffffe6 	b	11e0 <init_buddy+0x330>
    124c:	5280002a 	mov	w10, #0x1                   	// #1
    1250:	b90087ea 	str	w10, [sp, #132]
    1254:	b900abea 	str	w10, [sp, #168]
    1258:	aa1103ee 	mov	x14, x17
    125c:	aa0603e4 	mov	x4, x6
    1260:	2a0a03e7 	mov	w7, w10
    1264:	71000c3f 	cmp	w1, #0x3
    1268:	54ffef01 	b.ne	1048 <init_buddy+0x198>  // b.any
    126c:	aa0203f1 	mov	x17, x2
    1270:	aa0003e6 	mov	x6, x0
    1274:	17ffffdb 	b	11e0 <init_buddy+0x330>
    1278:	5280002f 	mov	w15, #0x1                   	// #1
    127c:	29153fef 	stp	w15, w15, [sp, #168]
    1280:	aa1403f1 	mov	x17, x20
    1284:	aa0803e6 	mov	x6, x8
    1288:	2a0f03ea 	mov	w10, w15
    128c:	7100103f 	cmp	w1, #0x4
    1290:	54ffeec1 	b.ne	1068 <init_buddy+0x1b8>  // b.any
    1294:	aa0203f4 	mov	x20, x2
    1298:	aa0003e8 	mov	x8, x0
    129c:	17ffffd1 	b	11e0 <init_buddy+0x330>
    12a0:	52800032 	mov	w18, #0x1                   	// #1
    12a4:	b900aff2 	str	w18, [sp, #172]
    12a8:	b900dbf2 	str	w18, [sp, #216]
    12ac:	aa1703f4 	mov	x20, x23
    12b0:	aa0b03e8 	mov	x8, x11
    12b4:	2a1203ef 	mov	w15, w18
    12b8:	7100143f 	cmp	w1, #0x5
    12bc:	54ffee61 	b.ne	1088 <init_buddy+0x1d8>  // b.any
    12c0:	aa0203f7 	mov	x23, x2
    12c4:	aa0003eb 	mov	x11, x0
    12c8:	17ffffc6 	b	11e0 <init_buddy+0x330>
    12cc:	52800035 	mov	w21, #0x1                   	// #1
    12d0:	291b57f5 	stp	w21, w21, [sp, #216]
    12d4:	aa1a03f7 	mov	x23, x26
    12d8:	aa1003eb 	mov	x11, x16
    12dc:	2a1503f2 	mov	w18, w21
    12e0:	7100183f 	cmp	w1, #0x6
    12e4:	54ffee21 	b.ne	10a8 <init_buddy+0x1f8>  // b.any
    12e8:	aa0203fa 	mov	x26, x2
    12ec:	aa0003f0 	mov	x16, x0
    12f0:	17ffffbc 	b	11e0 <init_buddy+0x330>
    12f4:	52800038 	mov	w24, #0x1                   	// #1
    12f8:	b900dff8 	str	w24, [sp, #220]
    12fc:	b900fbf8 	str	w24, [sp, #248]
    1300:	aa1e03f0 	mov	x16, x30
    1304:	2a1803f5 	mov	w21, w24
    1308:	71001c3f 	cmp	w1, #0x7
    130c:	f9403bfa 	ldr	x26, [sp, #112]
    1310:	54ffedc1 	b.ne	10c8 <init_buddy+0x218>  // b.any
    1314:	aa0003fe 	mov	x30, x0
    1318:	f9003be2 	str	x2, [sp, #112]
    131c:	17ffffb1 	b	11e0 <init_buddy+0x330>
    1320:	f9403ff8 	ldr	x24, [sp, #120]
    1324:	5280003b 	mov	w27, #0x1                   	// #1
    1328:	f9003bf8 	str	x24, [sp, #112]
    132c:	aa1603fe 	mov	x30, x22
    1330:	291f6ffb 	stp	w27, w27, [sp, #248]
    1334:	2a1b03f8 	mov	w24, w27
    1338:	7100203f 	cmp	w1, #0x8
    133c:	54ffed61 	b.ne	10e8 <init_buddy+0x238>  // b.any
    1340:	aa0003f6 	mov	x22, x0
    1344:	f9003fe2 	str	x2, [sp, #120]
    1348:	17ffffa6 	b	11e0 <init_buddy+0x330>
    134c:	f94047f6 	ldr	x22, [sp, #136]
    1350:	f9003ff6 	str	x22, [sp, #120]
    1354:	aa1903f6 	mov	x22, x25
    1358:	52800039 	mov	w25, #0x1                   	// #1
    135c:	b900fff9 	str	w25, [sp, #252]
    1360:	2a1903fb 	mov	w27, w25
    1364:	b9010bf9 	str	w25, [sp, #264]
    1368:	7100243f 	cmp	w1, #0x9
    136c:	b9010ff9 	str	w25, [sp, #268]
    1370:	54ffecc1 	b.ne	1108 <init_buddy+0x258>  // b.any
    1374:	aa0003f9 	mov	x25, x0
    1378:	f90047e2 	str	x2, [sp, #136]
    137c:	17ffff99 	b	11e0 <init_buddy+0x330>
    1380:	f9404ff9 	ldr	x25, [sp, #152]
    1384:	f90047f9 	str	x25, [sp, #136]
    1388:	910443f9 	add	x25, sp, #0x110
    138c:	5280003c 	mov	w28, #0x1                   	// #1
    1390:	7100283f 	cmp	w1, #0xa
    1394:	293f733c 	stp	w28, w28, [x25, #-8]
    1398:	2900733c 	stp	w28, w28, [x25]
    139c:	f94037f9 	ldr	x25, [sp, #104]
    13a0:	54ffec61 	b.ne	112c <init_buddy+0x27c>  // b.any
    13a4:	f90037e0 	str	x0, [sp, #104]
    13a8:	f9004fe2 	str	x2, [sp, #152]
    13ac:	17ffff8d 	b	11e0 <init_buddy+0x330>
    13b0:	f9405ffc 	ldr	x28, [sp, #184]
    13b4:	f9004ffc 	str	x28, [sp, #152]
    13b8:	f9404bfc 	ldr	x28, [sp, #144]
    13bc:	f90037fc 	str	x28, [sp, #104]
    13c0:	5280003c 	mov	w28, #0x1                   	// #1
    13c4:	b90113fc 	str	w28, [sp, #272]
    13c8:	b90117fc 	str	w28, [sp, #276]
    13cc:	71002c3f 	cmp	w1, #0xb
    13d0:	b9011ffc 	str	w28, [sp, #284]
    13d4:	b90123fc 	str	w28, [sp, #288]
    13d8:	54ffebc1 	b.ne	1150 <init_buddy+0x2a0>  // b.any
    13dc:	f9004be0 	str	x0, [sp, #144]
    13e0:	f9005fe2 	str	x2, [sp, #184]
    13e4:	17ffff7f 	b	11e0 <init_buddy+0x330>
    13e8:	f94067fc 	ldr	x28, [sp, #200]
    13ec:	f9005ffc 	str	x28, [sp, #184]
    13f0:	f94053fc 	ldr	x28, [sp, #160]
    13f4:	f9004bfc 	str	x28, [sp, #144]
    13f8:	5280003c 	mov	w28, #0x1                   	// #1
    13fc:	b9011ffc 	str	w28, [sp, #284]
    1400:	b90123fc 	str	w28, [sp, #288]
    1404:	7100303f 	cmp	w1, #0xc
    1408:	b90127fc 	str	w28, [sp, #292]
    140c:	b9012bfc 	str	w28, [sp, #296]
    1410:	54ffeb21 	b.ne	1174 <init_buddy+0x2c4>  // b.any
    1414:	f90053e0 	str	x0, [sp, #160]
    1418:	f90067e2 	str	x2, [sp, #200]
    141c:	17ffff71 	b	11e0 <init_buddy+0x330>
    1420:	71000421 	subs	w1, w1, #0x1
    1424:	54ffee45 	b.pl	11ec <init_buddy+0x33c>  // b.nfrst
    1428:	b9411be1 	ldr	w1, [sp, #280]
    142c:	f94037fc 	ldr	x28, [sp, #104]
    1430:	340000a1 	cbz	w1, 1444 <init_buddy+0x594>
    1434:	90000001 	adrp	x1, 100 <alloc_page.constprop.0+0x100>
    1438:	f9405bec 	ldr	x12, [sp, #176]
    143c:	f9400021 	ldr	x1, [x1]
    1440:	f900382c 	str	x12, [x1, #112]
    1444:	b9413be1 	ldr	w1, [sp, #312]
    1448:	340000a1 	cbz	w1, 145c <init_buddy+0x5ac>
    144c:	90000001 	adrp	x1, 100 <alloc_page.constprop.0+0x100>
    1450:	f9406bec 	ldr	x12, [sp, #208]
    1454:	f9400021 	ldr	x1, [x1]
    1458:	f9003c2c 	str	x12, [x1, #120]
    145c:	b9412fe1 	ldr	w1, [sp, #300]
    1460:	340000a1 	cbz	w1, 1474 <init_buddy+0x5c4>
    1464:	90000001 	adrp	x1, 100 <alloc_page.constprop.0+0x100>
    1468:	f9407bec 	ldr	x12, [sp, #240]
    146c:	f9400021 	ldr	x1, [x1]
    1470:	f900782c 	str	x12, [x1, #240]
    1474:	b9413fe1 	ldr	w1, [sp, #316]
    1478:	340000a1 	cbz	w1, 148c <init_buddy+0x5dc>
    147c:	90000001 	adrp	x1, 100 <alloc_page.constprop.0+0x100>
    1480:	f94083ec 	ldr	x12, [sp, #256]
    1484:	f9400021 	ldr	x1, [x1]
    1488:	f9007c2c 	str	x12, [x1, #248]
    148c:	b940e3e1 	ldr	w1, [sp, #224]
    1490:	34000081 	cbz	w1, 14a0 <init_buddy+0x5f0>
    1494:	90000001 	adrp	x1, 100 <alloc_page.constprop.0+0x100>
    1498:	f9400021 	ldr	x1, [x1]
    149c:	f9000020 	str	x0, [x1]
    14a0:	b94083e0 	ldr	w0, [sp, #128]
    14a4:	34000080 	cbz	w0, 14b4 <init_buddy+0x604>
    14a8:	90000000 	adrp	x0, 100 <alloc_page.constprop.0+0x100>
    14ac:	f9400000 	ldr	x0, [x0]
    14b0:	f9000403 	str	x3, [x0, #8]
    14b4:	b940e7e0 	ldr	w0, [sp, #228]
    14b8:	34000080 	cbz	w0, 14c8 <init_buddy+0x618>
    14bc:	90000000 	adrp	x0, 100 <alloc_page.constprop.0+0x100>
    14c0:	f9400000 	ldr	x0, [x0]
    14c4:	f9004002 	str	x2, [x0, #128]
    14c8:	34000085 	cbz	w5, 14d8 <init_buddy+0x628>
    14cc:	90000000 	adrp	x0, 100 <alloc_page.constprop.0+0x100>
    14d0:	f9400000 	ldr	x0, [x0]
    14d4:	f9004409 	str	x9, [x0, #136]
    14d8:	b94087e0 	ldr	w0, [sp, #132]
    14dc:	34000080 	cbz	w0, 14ec <init_buddy+0x63c>
    14e0:	90000000 	adrp	x0, 100 <alloc_page.constprop.0+0x100>
    14e4:	f9400000 	ldr	x0, [x0]
    14e8:	f9000804 	str	x4, [x0, #16]
    14ec:	34000087 	cbz	w7, 14fc <init_buddy+0x64c>
    14f0:	90000000 	adrp	x0, 100 <alloc_page.constprop.0+0x100>
    14f4:	f9400000 	ldr	x0, [x0]
    14f8:	f900480e 	str	x14, [x0, #144]
    14fc:	b940abe0 	ldr	w0, [sp, #168]
    1500:	34000080 	cbz	w0, 1510 <init_buddy+0x660>
    1504:	90000000 	adrp	x0, 100 <alloc_page.constprop.0+0x100>
    1508:	f9400000 	ldr	x0, [x0]
    150c:	f9000c06 	str	x6, [x0, #24]
    1510:	3400008a 	cbz	w10, 1520 <init_buddy+0x670>
    1514:	90000000 	adrp	x0, 100 <alloc_page.constprop.0+0x100>
    1518:	f9400000 	ldr	x0, [x0]
    151c:	f9004c11 	str	x17, [x0, #152]
    1520:	b940afe0 	ldr	w0, [sp, #172]
    1524:	34000080 	cbz	w0, 1534 <init_buddy+0x684>
    1528:	90000000 	adrp	x0, 100 <alloc_page.constprop.0+0x100>
    152c:	f9400000 	ldr	x0, [x0]
    1530:	f9001008 	str	x8, [x0, #32]
    1534:	3400008f 	cbz	w15, 1544 <init_buddy+0x694>
    1538:	90000000 	adrp	x0, 100 <alloc_page.constprop.0+0x100>
    153c:	f9400000 	ldr	x0, [x0]
    1540:	f9005014 	str	x20, [x0, #160]
    1544:	b940dbe0 	ldr	w0, [sp, #216]
    1548:	34000080 	cbz	w0, 1558 <init_buddy+0x6a8>
    154c:	90000000 	adrp	x0, 100 <alloc_page.constprop.0+0x100>
    1550:	f9400000 	ldr	x0, [x0]
    1554:	f900140b 	str	x11, [x0, #40]
    1558:	34000092 	cbz	w18, 1568 <init_buddy+0x6b8>
    155c:	90000000 	adrp	x0, 100 <alloc_page.constprop.0+0x100>
    1560:	f9400000 	ldr	x0, [x0]
    1564:	f9005417 	str	x23, [x0, #168]
    1568:	b940dfe0 	ldr	w0, [sp, #220]
    156c:	34000080 	cbz	w0, 157c <init_buddy+0x6cc>
    1570:	90000000 	adrp	x0, 100 <alloc_page.constprop.0+0x100>
    1574:	f9400000 	ldr	x0, [x0]
    1578:	f9001810 	str	x16, [x0, #48]
    157c:	34000095 	cbz	w21, 158c <init_buddy+0x6dc>
    1580:	90000000 	adrp	x0, 100 <alloc_page.constprop.0+0x100>
    1584:	f9400000 	ldr	x0, [x0]
    1588:	f900581a 	str	x26, [x0, #176]
    158c:	b940fbe0 	ldr	w0, [sp, #248]
    1590:	34000080 	cbz	w0, 15a0 <init_buddy+0x6f0>
    1594:	90000000 	adrp	x0, 100 <alloc_page.constprop.0+0x100>
    1598:	f9400000 	ldr	x0, [x0]
    159c:	f9001c1e 	str	x30, [x0, #56]
    15a0:	340000b8 	cbz	w24, 15b4 <init_buddy+0x704>
    15a4:	90000000 	adrp	x0, 100 <alloc_page.constprop.0+0x100>
    15a8:	f9403be1 	ldr	x1, [sp, #112]
    15ac:	f9400000 	ldr	x0, [x0]
    15b0:	f9005c01 	str	x1, [x0, #184]
    15b4:	b940ffe0 	ldr	w0, [sp, #252]
    15b8:	34000080 	cbz	w0, 15c8 <init_buddy+0x718>
    15bc:	90000000 	adrp	x0, 100 <alloc_page.constprop.0+0x100>
    15c0:	f9400000 	ldr	x0, [x0]
    15c4:	f9002016 	str	x22, [x0, #64]
    15c8:	340000bb 	cbz	w27, 15dc <init_buddy+0x72c>
    15cc:	90000000 	adrp	x0, 100 <alloc_page.constprop.0+0x100>
    15d0:	f9403fe1 	ldr	x1, [sp, #120]
    15d4:	f9400000 	ldr	x0, [x0]
    15d8:	f9006001 	str	x1, [x0, #192]
    15dc:	b9410be0 	ldr	w0, [sp, #264]
    15e0:	34000080 	cbz	w0, 15f0 <init_buddy+0x740>
    15e4:	90000000 	adrp	x0, 100 <alloc_page.constprop.0+0x100>
    15e8:	f9400000 	ldr	x0, [x0]
    15ec:	f9002419 	str	x25, [x0, #72]
    15f0:	b9410fe0 	ldr	w0, [sp, #268]
    15f4:	340000a0 	cbz	w0, 1608 <init_buddy+0x758>
    15f8:	90000000 	adrp	x0, 100 <alloc_page.constprop.0+0x100>
    15fc:	f94047e1 	ldr	x1, [sp, #136]
    1600:	f9400000 	ldr	x0, [x0]
    1604:	f9006401 	str	x1, [x0, #200]
    1608:	b94113e0 	ldr	w0, [sp, #272]
    160c:	34000080 	cbz	w0, 161c <init_buddy+0x76c>
    1610:	90000000 	adrp	x0, 100 <alloc_page.constprop.0+0x100>
    1614:	f9400000 	ldr	x0, [x0]
    1618:	f900281c 	str	x28, [x0, #80]
    161c:	b94117e0 	ldr	w0, [sp, #276]
    1620:	340000a0 	cbz	w0, 1634 <init_buddy+0x784>
    1624:	90000000 	adrp	x0, 100 <alloc_page.constprop.0+0x100>
    1628:	f9404fe1 	ldr	x1, [sp, #152]
    162c:	f9400000 	ldr	x0, [x0]
    1630:	f9006801 	str	x1, [x0, #208]
    1634:	b9411fe0 	ldr	w0, [sp, #284]
    1638:	340000a0 	cbz	w0, 164c <init_buddy+0x79c>
    163c:	90000000 	adrp	x0, 100 <alloc_page.constprop.0+0x100>
    1640:	f9404be1 	ldr	x1, [sp, #144]
    1644:	f9400000 	ldr	x0, [x0]
    1648:	f9002c01 	str	x1, [x0, #88]
    164c:	b94123e0 	ldr	w0, [sp, #288]
    1650:	340000a0 	cbz	w0, 1664 <init_buddy+0x7b4>
    1654:	90000000 	adrp	x0, 100 <alloc_page.constprop.0+0x100>
    1658:	f9405fe1 	ldr	x1, [sp, #184]
    165c:	f9400000 	ldr	x0, [x0]
    1660:	f9006c01 	str	x1, [x0, #216]
    1664:	b94127e0 	ldr	w0, [sp, #292]
    1668:	340000a0 	cbz	w0, 167c <init_buddy+0x7cc>
    166c:	90000000 	adrp	x0, 100 <alloc_page.constprop.0+0x100>
    1670:	f94053e1 	ldr	x1, [sp, #160]
    1674:	f9400000 	ldr	x0, [x0]
    1678:	f9003001 	str	x1, [x0, #96]
    167c:	b9412be0 	ldr	w0, [sp, #296]
    1680:	340000a0 	cbz	w0, 1694 <init_buddy+0x7e4>
    1684:	90000000 	adrp	x0, 100 <alloc_page.constprop.0+0x100>
    1688:	f94067e1 	ldr	x1, [sp, #200]
    168c:	f9400000 	ldr	x0, [x0]
    1690:	f9007001 	str	x1, [x0, #224]
    1694:	b94133e0 	ldr	w0, [sp, #304]
    1698:	340000a0 	cbz	w0, 16ac <init_buddy+0x7fc>
    169c:	90000000 	adrp	x0, 100 <alloc_page.constprop.0+0x100>
    16a0:	f94063e1 	ldr	x1, [sp, #192]
    16a4:	f9400000 	ldr	x0, [x0]
    16a8:	f9003401 	str	x1, [x0, #104]
    16ac:	b94137e0 	ldr	w0, [sp, #308]
    16b0:	34001360 	cbz	w0, 191c <init_buddy+0xa6c>
    16b4:	90000000 	adrp	x0, 100 <alloc_page.constprop.0+0x100>
    16b8:	f94077e1 	ldr	x1, [sp, #232]
    16bc:	f9400000 	ldr	x0, [x0]
    16c0:	a94573fb 	ldp	x27, x28, [sp, #80]
    16c4:	f9007401 	str	x1, [x0, #232]
    16c8:	90000014 	adrp	x20, 100 <alloc_page.constprop.0+0x100>
    16cc:	f9400294 	ldr	x20, [x20]
    16d0:	91040295 	add	x21, x20, #0x100
    16d4:	d503201f 	nop
    16d8:	aa1403e0 	mov	x0, x20
    16dc:	91004294 	add	x20, x20, #0x10
    16e0:	94000000 	bl	0 <init_list>
    16e4:	eb15029f 	cmp	x20, x21
    16e8:	54ffff81 	b.ne	16d8 <init_buddy+0x828>  // b.any
    16ec:	90000014 	adrp	x20, 0 <alloc_page.constprop.0>
    16f0:	f9400281 	ldr	x1, [x20]
    16f4:	eb4133ff 	cmp	xzr, x1, lsr #12
    16f8:	54000180 	b.eq	1728 <init_buddy+0x878>  // b.none
    16fc:	90000000 	adrp	x0, 8 <alloc_page.constprop.0+0x8>
    1700:	52800402 	mov	w2, #0x20                  	// #32
    1704:	f9400003 	ldr	x3, [x0]
    1708:	d2800000 	mov	x0, #0x0                   	// #0
    170c:	d503201f 	nop
    1710:	f9400061 	ldr	x1, [x3]
    1714:	38206822 	strb	w2, [x1, x0]
    1718:	91000400 	add	x0, x0, #0x1
    171c:	f9400281 	ldr	x1, [x20]
    1720:	eb41301f 	cmp	x0, x1, lsr #12
    1724:	54ffff63 	b.cc	1710 <init_buddy+0x860>  // b.lo, b.ul, b.last
    1728:	f9400260 	ldr	x0, [x19]
    172c:	b4000ea0 	cbz	x0, 1900 <init_buddy+0xa50>
    1730:	90000015 	adrp	x21, 100 <alloc_page.constprop.0+0x100>
    1734:	90000000 	adrp	x0, 8 <alloc_page.constprop.0+0x8>
    1738:	d2800018 	mov	x24, #0x0                   	// #0
    173c:	528001f9 	mov	w25, #0xf                   	// #15
    1740:	f94002b5 	ldr	x21, [x21]
    1744:	52800037 	mov	w23, #0x1                   	// #1
    1748:	f9400016 	ldr	x22, [x0]
    174c:	d2800000 	mov	x0, #0x0                   	// #0
    1750:	f94002a1 	ldr	x1, [x21]
    1754:	97fffa81 	bl	158 <place_buddy.constprop.1>
    1758:	f94002a1 	ldr	x1, [x21]
    175c:	f94042a0 	ldr	x0, [x21, #128]
    1760:	8b000020 	add	x0, x1, x0
    1764:	eb00003f 	cmp	x1, x0
    1768:	54000680 	b.eq	1838 <init_buddy+0x988>  // b.none
    176c:	dac00027 	rbit	x7, x1
    1770:	dac00006 	rbit	x6, x0
    1774:	dac010e7 	clz	x7, x7
    1778:	dac010c6 	clz	x6, x6
    177c:	1400000f 	b	17b8 <init_buddy+0x908>
    1780:	386468a2 	ldrb	w2, [x5, x4]
    1784:	8b29c021 	add	x1, x1, w9, sxtw
    1788:	dac00027 	rbit	x7, x1
    178c:	eb00003f 	cmp	x1, x0
    1790:	121b6842 	and	w2, w2, #0xffffffe0
    1794:	dac010e7 	clz	x7, x7
    1798:	2a030043 	orr	w3, w2, w3
    179c:	382468a3 	strb	w3, [x5, x4]
    17a0:	f94002c3 	ldr	x3, [x22]
    17a4:	38646862 	ldrb	w2, [x3, x4]
    17a8:	12001042 	and	w2, w2, #0x1f
    17ac:	321b0442 	orr	w2, w2, #0x60
    17b0:	38246862 	strb	w2, [x3, x4]
    17b4:	540003c0 	b.eq	182c <init_buddy+0x97c>  // b.none
    17b8:	510030e3 	sub	w3, w7, #0xc
    17bc:	510030c2 	sub	w2, w6, #0xc
    17c0:	71003c7f 	cmp	w3, #0xf
    17c4:	d34cfc24 	lsr	x4, x1, #12
    17c8:	1a99d063 	csel	w3, w3, w25, le
    17cc:	71003c5f 	cmp	w2, #0xf
    17d0:	1a99d042 	csel	w2, w2, w25, le
    17d4:	11003069 	add	w9, w3, #0xc
    17d8:	11003048 	add	w8, w2, #0xc
    17dc:	6b02007f 	cmp	w3, w2
    17e0:	1ac922e9 	lsl	w9, w23, w9
    17e4:	1ac822e8 	lsl	w8, w23, w8
    17e8:	f94002c5 	ldr	x5, [x22]
    17ec:	54fffcad 	b.le	1780 <init_buddy+0x8d0>
    17f0:	cb28c000 	sub	x0, x0, w8, sxtw
    17f4:	dac00006 	rbit	x6, x0
    17f8:	eb01001f 	cmp	x0, x1
    17fc:	d34cfc04 	lsr	x4, x0, #12
    1800:	dac010c6 	clz	x6, x6
    1804:	386468a3 	ldrb	w3, [x5, x4]
    1808:	121b6863 	and	w3, w3, #0xffffffe0
    180c:	2a020062 	orr	w2, w3, w2
    1810:	382468a2 	strb	w2, [x5, x4]
    1814:	f94002c3 	ldr	x3, [x22]
    1818:	38646862 	ldrb	w2, [x3, x4]
    181c:	12001042 	and	w2, w2, #0x1f
    1820:	321b0442 	orr	w2, w2, #0x60
    1824:	38246862 	strb	w2, [x3, x4]
    1828:	54fffc81 	b.ne	17b8 <init_buddy+0x908>  // b.any
    182c:	f94002a1 	ldr	x1, [x21]
    1830:	f94042a0 	ldr	x0, [x21, #128]
    1834:	8b000020 	add	x0, x1, x0
    1838:	f9400261 	ldr	x1, [x19]
    183c:	91000718 	add	x24, x24, #0x1
    1840:	910022b5 	add	x21, x21, #0x8
    1844:	eb18003f 	cmp	x1, x24
    1848:	54fff848 	b.hi	1750 <init_buddy+0x8a0>  // b.pmore
    184c:	f9400281 	ldr	x1, [x20]
    1850:	a94153f3 	ldp	x19, x20, [sp, #16]
    1854:	a9425bf5 	ldp	x21, x22, [sp, #32]
    1858:	a94363f7 	ldp	x23, x24, [sp, #48]
    185c:	a9446bf9 	ldp	x25, x26, [sp, #64]
    1860:	a8d47bfd 	ldp	x29, x30, [sp], #320
    1864:	17fffa3d 	b	158 <place_buddy.constprop.1>
    1868:	f94077fc 	ldr	x28, [sp, #232]
    186c:	f90067fc 	str	x28, [sp, #200]
    1870:	f94063fc 	ldr	x28, [sp, #192]
    1874:	f90053fc 	str	x28, [sp, #160]
    1878:	5280003c 	mov	w28, #0x1                   	// #1
    187c:	b90127fc 	str	w28, [sp, #292]
    1880:	b9012bfc 	str	w28, [sp, #296]
    1884:	7100343f 	cmp	w1, #0xd
    1888:	b90133fc 	str	w28, [sp, #304]
    188c:	b90137fc 	str	w28, [sp, #308]
    1890:	54ffc841 	b.ne	1198 <init_buddy+0x2e8>  // b.any
    1894:	f90063e0 	str	x0, [sp, #192]
    1898:	f90077e2 	str	x2, [sp, #232]
    189c:	17fffe51 	b	11e0 <init_buddy+0x330>
    18a0:	f9407bfc 	ldr	x28, [sp, #240]
    18a4:	f90077fc 	str	x28, [sp, #232]
    18a8:	f9405bfc 	ldr	x28, [sp, #176]
    18ac:	f90063fc 	str	x28, [sp, #192]
    18b0:	5280003c 	mov	w28, #0x1                   	// #1
    18b4:	b9011bfc 	str	w28, [sp, #280]
    18b8:	b9012ffc 	str	w28, [sp, #300]
    18bc:	7100383f 	cmp	w1, #0xe
    18c0:	b90133fc 	str	w28, [sp, #304]
    18c4:	b90137fc 	str	w28, [sp, #308]
    18c8:	54ffc7a1 	b.ne	11bc <init_buddy+0x30c>  // b.any
    18cc:	f9005be0 	str	x0, [sp, #176]
    18d0:	f9007be2 	str	x2, [sp, #240]
    18d4:	17fffe43 	b	11e0 <init_buddy+0x330>
    18d8:	f94083fc 	ldr	x28, [sp, #256]
    18dc:	f9007bfc 	str	x28, [sp, #240]
    18e0:	f9406bfc 	ldr	x28, [sp, #208]
    18e4:	f9005bfc 	str	x28, [sp, #176]
    18e8:	5280003c 	mov	w28, #0x1                   	// #1
    18ec:	b9011bfc 	str	w28, [sp, #280]
    18f0:	b9012ffc 	str	w28, [sp, #300]
    18f4:	b9013bfc 	str	w28, [sp, #312]
    18f8:	b9013ffc 	str	w28, [sp, #316]
    18fc:	17fffe37 	b	11d8 <init_buddy+0x328>
    1900:	a94153f3 	ldp	x19, x20, [sp, #16]
    1904:	d2800000 	mov	x0, #0x0                   	// #0
    1908:	a9425bf5 	ldp	x21, x22, [sp, #32]
    190c:	a94363f7 	ldp	x23, x24, [sp, #48]
    1910:	a9446bf9 	ldp	x25, x26, [sp, #64]
    1914:	a8d47bfd 	ldp	x29, x30, [sp], #320
    1918:	17fffa10 	b	158 <place_buddy.constprop.1>
    191c:	a94573fb 	ldp	x27, x28, [sp, #80]
    1920:	17ffff6a 	b	16c8 <init_buddy+0x818>
    1924:	d503201f 	nop

0000000000001928 <alloc_page>:
    1928:	a9bb7bfd 	stp	x29, x30, [sp, #-80]!
    192c:	90000001 	adrp	x1, 0 <alloc_page.constprop.0>
    1930:	910003fd 	mov	x29, sp
    1934:	a90153f3 	stp	x19, x20, [sp, #16]
    1938:	aa0003f3 	mov	x19, x0
    193c:	91000020 	add	x0, x1, #0x0
    1940:	a9025bf5 	stp	x21, x22, [sp, #32]
    1944:	52800674 	mov	w20, #0x33                  	// #51
    1948:	a90363f7 	stp	x23, x24, [sp, #48]
    194c:	90000018 	adrp	x24, 100 <alloc_page.constprop.0+0x100>
    1950:	a9046bf9 	stp	x25, x26, [sp, #64]
    1954:	94000000 	bl	0 <log>
    1958:	aa1303e0 	mov	x0, x19
    195c:	913ffe73 	add	x19, x19, #0xfff
    1960:	94000000 	bl	0 <log_hex>
    1964:	9274ce73 	and	x19, x19, #0xfffffffffffff000
    1968:	90000000 	adrp	x0, 0 <alloc_page.constprop.0>
    196c:	91000000 	add	x0, x0, #0x0
    1970:	94000000 	bl	0 <log>
    1974:	dac01261 	clz	x1, x19
    1978:	52800020 	mov	w0, #0x1                   	// #1
    197c:	4b010294 	sub	w20, w20, w1
    1980:	11003281 	add	w1, w20, #0xc
    1984:	f9400315 	ldr	x21, [x24]
    1988:	1ac12000 	lsl	w0, w0, w1
    198c:	51000400 	sub	w0, w0, #0x1
    1990:	93407c00 	sxtw	x0, w0
    1994:	ea13001f 	tst	x0, x19
    1998:	9a9f07e0 	cset	x0, ne  // ne = any
    199c:	8b34c014 	add	x20, x0, w20, sxtw
    19a0:	aa1403f9 	mov	x25, x20
    19a4:	8b1412b5 	add	x21, x21, x20, lsl #4
    19a8:	14000005 	b	19bc <alloc_page+0x94>
    19ac:	91000739 	add	x25, x25, #0x1
    19b0:	910042b5 	add	x21, x21, #0x10
    19b4:	f1003f3f 	cmp	x25, #0xf
    19b8:	54000748 	b.hi	1aa0 <alloc_page+0x178>  // b.pmore
    19bc:	aa1503e0 	mov	x0, x21
    19c0:	94000000 	bl	0 <list_empty>
    19c4:	35ffff40 	cbnz	w0, 19ac <alloc_page+0x84>
    19c8:	f9400318 	ldr	x24, [x24]
    19cc:	d37cef20 	lsl	x0, x25, #4
    19d0:	9000001a 	adrp	x26, 8 <alloc_page.constprop.0+0x8>
    19d4:	f8606b17 	ldr	x23, [x24, x0]
    19d8:	aa1703e0 	mov	x0, x23
    19dc:	94000000 	bl	0 <pop_list>
    19e0:	f940035a 	ldr	x26, [x26]
    19e4:	d34cfef5 	lsr	x21, x23, #12
    19e8:	eb19029f 	cmp	x20, x25
    19ec:	f9400341 	ldr	x1, [x26]
    19f0:	38756820 	ldrb	w0, [x1, x21]
    19f4:	12001000 	and	w0, w0, #0x1f
    19f8:	321b0000 	orr	w0, w0, #0x20
    19fc:	38356820 	strb	w0, [x1, x21]
    1a00:	f9400341 	ldr	x1, [x26]
    1a04:	38756820 	ldrb	w0, [x1, x21]
    1a08:	121b6800 	and	w0, w0, #0xffffffe0
    1a0c:	2a140000 	orr	w0, w0, w20
    1a10:	38356820 	strb	w0, [x1, x21]
    1a14:	54000382 	b.cs	1a84 <alloc_page+0x15c>  // b.hs, b.nlast
    1a18:	d1000739 	sub	x25, x25, #0x1
    1a1c:	90000016 	adrp	x22, 0 <alloc_page.constprop.0>
    1a20:	910002d6 	add	x22, x22, #0x0
    1a24:	8b191313 	add	x19, x24, x25, lsl #4
    1a28:	52800038 	mov	w24, #0x1                   	// #1
    1a2c:	14000002 	b	1a34 <alloc_page+0x10c>
    1a30:	d1000739 	sub	x25, x25, #0x1
    1a34:	aa1603e0 	mov	x0, x22
    1a38:	94000000 	bl	0 <log>
    1a3c:	1ad92302 	lsl	w2, w24, w25
    1a40:	aa1303e0 	mov	x0, x19
    1a44:	93407c42 	sxtw	x2, w2
    1a48:	d1004273 	sub	x19, x19, #0x10
    1a4c:	f9400344 	ldr	x4, [x26]
    1a50:	ca150042 	eor	x2, x2, x21
    1a54:	d374cc41 	lsl	x1, x2, #12
    1a58:	38626883 	ldrb	w3, [x4, x2]
    1a5c:	12001063 	and	w3, w3, #0x1f
    1a60:	38226883 	strb	w3, [x4, x2]
    1a64:	f9400344 	ldr	x4, [x26]
    1a68:	38626883 	ldrb	w3, [x4, x2]
    1a6c:	121b6863 	and	w3, w3, #0xffffffe0
    1a70:	2a190063 	orr	w3, w3, w25
    1a74:	38226883 	strb	w3, [x4, x2]
    1a78:	94000000 	bl	0 <push_list>
    1a7c:	eb19029f 	cmp	x20, x25
    1a80:	54fffd81 	b.ne	1a30 <alloc_page+0x108>  // b.any
    1a84:	aa1703e0 	mov	x0, x23
    1a88:	a94153f3 	ldp	x19, x20, [sp, #16]
    1a8c:	a9425bf5 	ldp	x21, x22, [sp, #32]
    1a90:	a94363f7 	ldp	x23, x24, [sp, #48]
    1a94:	a9446bf9 	ldp	x25, x26, [sp, #64]
    1a98:	a8c57bfd 	ldp	x29, x30, [sp], #80
    1a9c:	d65f03c0 	ret
    1aa0:	d2800017 	mov	x23, #0x0                   	// #0
    1aa4:	90000000 	adrp	x0, 0 <alloc_page.constprop.0>
    1aa8:	91000000 	add	x0, x0, #0x0
    1aac:	94000000 	bl	0 <log>
    1ab0:	aa1703e0 	mov	x0, x23
    1ab4:	a94153f3 	ldp	x19, x20, [sp, #16]
    1ab8:	a9425bf5 	ldp	x21, x22, [sp, #32]
    1abc:	a94363f7 	ldp	x23, x24, [sp, #48]
    1ac0:	a9446bf9 	ldp	x25, x26, [sp, #64]
    1ac4:	a8c57bfd 	ldp	x29, x30, [sp], #80
    1ac8:	d65f03c0 	ret
    1acc:	d503201f 	nop

0000000000001ad0 <free_page>:
    1ad0:	a9bb7bfd 	stp	x29, x30, [sp, #-80]!
    1ad4:	910003fd 	mov	x29, sp
    1ad8:	a90153f3 	stp	x19, x20, [sp, #16]
    1adc:	a9025bf5 	stp	x21, x22, [sp, #32]
    1ae0:	aa0003f5 	mov	x21, x0
    1ae4:	90000000 	adrp	x0, 0 <alloc_page.constprop.0>
    1ae8:	91000000 	add	x0, x0, #0x0
    1aec:	a90363f7 	stp	x23, x24, [sp, #48]
    1af0:	90000018 	adrp	x24, 8 <alloc_page.constprop.0+0x8>
    1af4:	a9046bf9 	stp	x25, x26, [sp, #64]
    1af8:	94000000 	bl	0 <log>
    1afc:	aa1503e0 	mov	x0, x21
    1b00:	94000000 	bl	0 <log_hex>
    1b04:	d34cfeb5 	lsr	x21, x21, #12
    1b08:	90000000 	adrp	x0, 0 <alloc_page.constprop.0>
    1b0c:	91000000 	add	x0, x0, #0x0
    1b10:	94000000 	bl	0 <log>
    1b14:	52800416 	mov	w22, #0x20                  	// #32
    1b18:	f940031a 	ldr	x26, [x24]
    1b1c:	f9400340 	ldr	x0, [x26]
    1b20:	38756814 	ldrb	w20, [x0, x21]
    1b24:	38356816 	strb	w22, [x0, x21]
    1b28:	12001283 	and	w3, w20, #0x1f
    1b2c:	92401294 	and	x20, x20, #0x1f
    1b30:	7100387f 	cmp	w3, #0xe
    1b34:	54000608 	b.hi	1bf4 <free_page+0x124>  // b.pmore
    1b38:	90000017 	adrp	x23, 0 <alloc_page.constprop.0>
    1b3c:	52800039 	mov	w25, #0x1                   	// #1
    1b40:	910002f7 	add	x23, x23, #0x0
    1b44:	1400000d 	b	1b78 <free_page+0xa8>
    1b48:	eb21029f 	cmp	x20, w1, uxtb
    1b4c:	54000261 	b.ne	1b98 <free_page+0xc8>  // b.any
    1b50:	94000000 	bl	0 <log>
    1b54:	91000694 	add	x20, x20, #0x1
    1b58:	d374ce60 	lsl	x0, x19, #12
    1b5c:	94000000 	bl	0 <pop_list>
    1b60:	f9400340 	ldr	x0, [x26]
    1b64:	eb1302bf 	cmp	x21, x19
    1b68:	9a9392b5 	csel	x21, x21, x19, ls  // ls = plast
    1b6c:	f1003e9f 	cmp	x20, #0xf
    1b70:	38336816 	strb	w22, [x0, x19]
    1b74:	540003a0 	b.eq	1be8 <free_page+0x118>  // b.none
    1b78:	1ad42333 	lsl	w19, w25, w20
    1b7c:	aa1703e0 	mov	x0, x23
    1b80:	93407e73 	sxtw	x19, w19
    1b84:	f9400342 	ldr	x2, [x26]
    1b88:	ca150273 	eor	x19, x19, x21
    1b8c:	38736841 	ldrb	w1, [x2, x19]
    1b90:	6b4117ff 	cmp	wzr, w1, lsr #5
    1b94:	54fffda0 	b.eq	1b48 <free_page+0x78>  // b.none
    1b98:	12001e83 	and	w3, w20, #0xff
    1b9c:	38756844 	ldrb	w4, [x2, x21]
    1ba0:	90000000 	adrp	x0, 100 <alloc_page.constprop.0+0x100>
    1ba4:	f9400318 	ldr	x24, [x24]
    1ba8:	12001084 	and	w4, w4, #0x1f
    1bac:	38356844 	strb	w4, [x2, x21]
    1bb0:	d374cea1 	lsl	x1, x21, #12
    1bb4:	f9400000 	ldr	x0, [x0]
    1bb8:	f9400304 	ldr	x4, [x24]
    1bbc:	8b141000 	add	x0, x0, x20, lsl #4
    1bc0:	38756882 	ldrb	w2, [x4, x21]
    1bc4:	121b6842 	and	w2, w2, #0xffffffe0
    1bc8:	2a020063 	orr	w3, w3, w2
    1bcc:	38356883 	strb	w3, [x4, x21]
    1bd0:	a94153f3 	ldp	x19, x20, [sp, #16]
    1bd4:	a9425bf5 	ldp	x21, x22, [sp, #32]
    1bd8:	a94363f7 	ldp	x23, x24, [sp, #48]
    1bdc:	a9446bf9 	ldp	x25, x26, [sp, #64]
    1be0:	a8c57bfd 	ldp	x29, x30, [sp], #80
    1be4:	14000000 	b	0 <push_list>
    1be8:	2a1403e3 	mov	w3, w20
    1bec:	f9400342 	ldr	x2, [x26]
    1bf0:	17ffffeb 	b	1b9c <free_page+0xcc>
    1bf4:	f9400342 	ldr	x2, [x26]
    1bf8:	17ffffe9 	b	1b9c <free_page+0xcc>
    1bfc:	d503201f 	nop

0000000000001c00 <free_reserve>:
    1c00:	a9bb7bfd 	stp	x29, x30, [sp, #-80]!
    1c04:	90000001 	adrp	x1, 0 <alloc_page.constprop.0>
    1c08:	910003fd 	mov	x29, sp
    1c0c:	a90153f3 	stp	x19, x20, [sp, #16]
    1c10:	aa0003f4 	mov	x20, x0
    1c14:	91000020 	add	x0, x1, #0x0
    1c18:	f90023f9 	str	x25, [sp, #64]
    1c1c:	94000000 	bl	0 <log>
    1c20:	aa1403e0 	mov	x0, x20
    1c24:	94000000 	bl	0 <log_hex>
    1c28:	90000000 	adrp	x0, 0 <alloc_page.constprop.0>
    1c2c:	91000000 	add	x0, x0, #0x0
    1c30:	94000000 	bl	0 <log>
    1c34:	90000000 	adrp	x0, 0 <alloc_page.constprop.0>
    1c38:	f9400000 	ldr	x0, [x0]
    1c3c:	b4000c20 	cbz	x0, 1dc0 <free_reserve+0x1c0>
    1c40:	90000001 	adrp	x1, 100 <alloc_page.constprop.0+0x100>
    1c44:	f9400022 	ldr	x2, [x1]
    1c48:	f9400043 	ldr	x3, [x2]
    1c4c:	eb03029f 	cmp	x20, x3
    1c50:	54001140 	b.eq	1e78 <free_reserve+0x278>  // b.none
    1c54:	f100041f 	cmp	x0, #0x1
    1c58:	54000b49 	b.ls	1dc0 <free_reserve+0x1c0>  // b.plast
    1c5c:	f9400022 	ldr	x2, [x1]
    1c60:	f9400443 	ldr	x3, [x2, #8]
    1c64:	eb03029f 	cmp	x20, x3
    1c68:	540010e0 	b.eq	1e84 <free_reserve+0x284>  // b.none
    1c6c:	f100081f 	cmp	x0, #0x2
    1c70:	54000a80 	b.eq	1dc0 <free_reserve+0x1c0>  // b.none
    1c74:	f9400022 	ldr	x2, [x1]
    1c78:	f9400843 	ldr	x3, [x2, #16]
    1c7c:	eb03029f 	cmp	x20, x3
    1c80:	54000f60 	b.eq	1e6c <free_reserve+0x26c>  // b.none
    1c84:	f1000c1f 	cmp	x0, #0x3
    1c88:	540009c0 	b.eq	1dc0 <free_reserve+0x1c0>  // b.none
    1c8c:	f9400022 	ldr	x2, [x1]
    1c90:	f9400c43 	ldr	x3, [x2, #24]
    1c94:	eb14007f 	cmp	x3, x20
    1c98:	54000fc0 	b.eq	1e90 <free_reserve+0x290>  // b.none
    1c9c:	f100101f 	cmp	x0, #0x4
    1ca0:	54000900 	b.eq	1dc0 <free_reserve+0x1c0>  // b.none
    1ca4:	f9400022 	ldr	x2, [x1]
    1ca8:	f9401043 	ldr	x3, [x2, #32]
    1cac:	eb03029f 	cmp	x20, x3
    1cb0:	54000f60 	b.eq	1e9c <free_reserve+0x29c>  // b.none
    1cb4:	f100141f 	cmp	x0, #0x5
    1cb8:	54000840 	b.eq	1dc0 <free_reserve+0x1c0>  // b.none
    1cbc:	f9400022 	ldr	x2, [x1]
    1cc0:	f9401443 	ldr	x3, [x2, #40]
    1cc4:	eb03029f 	cmp	x20, x3
    1cc8:	54001060 	b.eq	1ed4 <free_reserve+0x2d4>  // b.none
    1ccc:	f100181f 	cmp	x0, #0x6
    1cd0:	54000780 	b.eq	1dc0 <free_reserve+0x1c0>  // b.none
    1cd4:	f9400022 	ldr	x2, [x1]
    1cd8:	f9401843 	ldr	x3, [x2, #48]
    1cdc:	eb03029f 	cmp	x20, x3
    1ce0:	54001000 	b.eq	1ee0 <free_reserve+0x2e0>  // b.none
    1ce4:	f1001c1f 	cmp	x0, #0x7
    1ce8:	540006c0 	b.eq	1dc0 <free_reserve+0x1c0>  // b.none
    1cec:	f9400022 	ldr	x2, [x1]
    1cf0:	f9401c43 	ldr	x3, [x2, #56]
    1cf4:	eb03029f 	cmp	x20, x3
    1cf8:	54000fa0 	b.eq	1eec <free_reserve+0x2ec>  // b.none
    1cfc:	f100201f 	cmp	x0, #0x8
    1d00:	54000600 	b.eq	1dc0 <free_reserve+0x1c0>  // b.none
    1d04:	f9400022 	ldr	x2, [x1]
    1d08:	f9402043 	ldr	x3, [x2, #64]
    1d0c:	eb03029f 	cmp	x20, x3
    1d10:	54000f40 	b.eq	1ef8 <free_reserve+0x2f8>  // b.none
    1d14:	f100241f 	cmp	x0, #0x9
    1d18:	54000540 	b.eq	1dc0 <free_reserve+0x1c0>  // b.none
    1d1c:	f9400022 	ldr	x2, [x1]
    1d20:	f9402443 	ldr	x3, [x2, #72]
    1d24:	eb03029f 	cmp	x20, x3
    1d28:	54000ee0 	b.eq	1f04 <free_reserve+0x304>  // b.none
    1d2c:	f100281f 	cmp	x0, #0xa
    1d30:	54000480 	b.eq	1dc0 <free_reserve+0x1c0>  // b.none
    1d34:	f9400022 	ldr	x2, [x1]
    1d38:	f9402843 	ldr	x3, [x2, #80]
    1d3c:	eb03029f 	cmp	x20, x3
    1d40:	54000b80 	b.eq	1eb0 <free_reserve+0x2b0>  // b.none
    1d44:	f1002c1f 	cmp	x0, #0xb
    1d48:	540003c0 	b.eq	1dc0 <free_reserve+0x1c0>  // b.none
    1d4c:	f9400022 	ldr	x2, [x1]
    1d50:	f9402c43 	ldr	x3, [x2, #88]
    1d54:	eb03029f 	cmp	x20, x3
    1d58:	54000b20 	b.eq	1ebc <free_reserve+0x2bc>  // b.none
    1d5c:	f100301f 	cmp	x0, #0xc
    1d60:	54000300 	b.eq	1dc0 <free_reserve+0x1c0>  // b.none
    1d64:	f9400022 	ldr	x2, [x1]
    1d68:	f9403043 	ldr	x3, [x2, #96]
    1d6c:	eb03029f 	cmp	x20, x3
    1d70:	54000ac0 	b.eq	1ec8 <free_reserve+0x2c8>  // b.none
    1d74:	f100341f 	cmp	x0, #0xd
    1d78:	54000240 	b.eq	1dc0 <free_reserve+0x1c0>  // b.none
    1d7c:	f9400022 	ldr	x2, [x1]
    1d80:	f9403443 	ldr	x3, [x2, #104]
    1d84:	eb03029f 	cmp	x20, x3
    1d88:	54000c40 	b.eq	1f10 <free_reserve+0x310>  // b.none
    1d8c:	f100381f 	cmp	x0, #0xe
    1d90:	54000180 	b.eq	1dc0 <free_reserve+0x1c0>  // b.none
    1d94:	f9400022 	ldr	x2, [x1]
    1d98:	f9403843 	ldr	x3, [x2, #112]
    1d9c:	eb03029f 	cmp	x20, x3
    1da0:	54000be0 	b.eq	1f1c <free_reserve+0x31c>  // b.none
    1da4:	f1003c1f 	cmp	x0, #0xf
    1da8:	540000c0 	b.eq	1dc0 <free_reserve+0x1c0>  // b.none
    1dac:	f9400021 	ldr	x1, [x1]
    1db0:	f9403c20 	ldr	x0, [x1, #120]
    1db4:	eb00029f 	cmp	x20, x0
    1db8:	54000b80 	b.eq	1f28 <free_reserve+0x328>  // b.none
    1dbc:	d503201f 	nop
    1dc0:	eb19029f 	cmp	x20, x25
    1dc4:	540003a0 	b.eq	1e38 <free_reserve+0x238>  // b.none
    1dc8:	a9025bf5 	stp	x21, x22, [sp, #32]
    1dcc:	dac00336 	rbit	x22, x25
    1dd0:	dac012d6 	clz	x22, x22
    1dd4:	a90363f7 	stp	x23, x24, [sp, #48]
    1dd8:	dac00298 	rbit	x24, x20
    1ddc:	dac01318 	clz	x24, x24
    1de0:	528001f7 	mov	w23, #0xf                   	// #15
    1de4:	52800035 	mov	w21, #0x1                   	// #1
    1de8:	51003301 	sub	w1, w24, #0xc
    1dec:	510032c2 	sub	w2, w22, #0xc
    1df0:	71003c3f 	cmp	w1, #0xf
    1df4:	aa1403e0 	mov	x0, x20
    1df8:	1a97d033 	csel	w19, w1, w23, le
    1dfc:	71003c5f 	cmp	w2, #0xf
    1e00:	1a97d041 	csel	w1, w2, w23, le
    1e04:	11003022 	add	w2, w1, #0xc
    1e08:	6b13003f 	cmp	w1, w19
    1e0c:	540001eb 	b.lt	1e48 <free_reserve+0x248>  // b.tstop
    1e10:	94000000 	bl	1ad0 <free_page>
    1e14:	11003261 	add	w1, w19, #0xc
    1e18:	1ac122a1 	lsl	w1, w21, w1
    1e1c:	8b21c294 	add	x20, x20, w1, sxtw
    1e20:	dac00298 	rbit	x24, x20
    1e24:	eb19029f 	cmp	x20, x25
    1e28:	dac01318 	clz	x24, x24
    1e2c:	54fffde1 	b.ne	1de8 <free_reserve+0x1e8>  // b.any
    1e30:	a9425bf5 	ldp	x21, x22, [sp, #32]
    1e34:	a94363f7 	ldp	x23, x24, [sp, #48]
    1e38:	a94153f3 	ldp	x19, x20, [sp, #16]
    1e3c:	f94023f9 	ldr	x25, [sp, #64]
    1e40:	a8c57bfd 	ldp	x29, x30, [sp], #80
    1e44:	d65f03c0 	ret
    1e48:	1ac222a2 	lsl	w2, w21, w2
    1e4c:	cb22c339 	sub	x25, x25, w2, sxtw
    1e50:	dac00336 	rbit	x22, x25
    1e54:	aa1903e0 	mov	x0, x25
    1e58:	94000000 	bl	1ad0 <free_page>
    1e5c:	dac012d6 	clz	x22, x22
    1e60:	eb14033f 	cmp	x25, x20
    1e64:	54fffc21 	b.ne	1de8 <free_reserve+0x1e8>  // b.any
    1e68:	17fffff2 	b	1e30 <free_reserve+0x230>
    1e6c:	f9404859 	ldr	x25, [x2, #144]
    1e70:	8b190299 	add	x25, x20, x25
    1e74:	17ffff84 	b	1c84 <free_reserve+0x84>
    1e78:	f9404059 	ldr	x25, [x2, #128]
    1e7c:	8b190299 	add	x25, x20, x25
    1e80:	17ffff75 	b	1c54 <free_reserve+0x54>
    1e84:	f9404459 	ldr	x25, [x2, #136]
    1e88:	8b190299 	add	x25, x20, x25
    1e8c:	17ffff78 	b	1c6c <free_reserve+0x6c>
    1e90:	f9404c59 	ldr	x25, [x2, #152]
    1e94:	8b190299 	add	x25, x20, x25
    1e98:	17ffff81 	b	1c9c <free_reserve+0x9c>
    1e9c:	f9405059 	ldr	x25, [x2, #160]
    1ea0:	f100141f 	cmp	x0, #0x5
    1ea4:	8b190299 	add	x25, x20, x25
    1ea8:	54fff0a1 	b.ne	1cbc <free_reserve+0xbc>  // b.any
    1eac:	17ffffc5 	b	1dc0 <free_reserve+0x1c0>
    1eb0:	f9406859 	ldr	x25, [x2, #208]
    1eb4:	8b190299 	add	x25, x20, x25
    1eb8:	17ffffa3 	b	1d44 <free_reserve+0x144>
    1ebc:	f9406c59 	ldr	x25, [x2, #216]
    1ec0:	8b190299 	add	x25, x20, x25
    1ec4:	17ffffa6 	b	1d5c <free_reserve+0x15c>
    1ec8:	f9407059 	ldr	x25, [x2, #224]
    1ecc:	8b190299 	add	x25, x20, x25
    1ed0:	17ffffa9 	b	1d74 <free_reserve+0x174>
    1ed4:	f9405459 	ldr	x25, [x2, #168]
    1ed8:	8b190299 	add	x25, x20, x25
    1edc:	17ffff7c 	b	1ccc <free_reserve+0xcc>
    1ee0:	f9405859 	ldr	x25, [x2, #176]
    1ee4:	8b190299 	add	x25, x20, x25
    1ee8:	17ffff7f 	b	1ce4 <free_reserve+0xe4>
    1eec:	f9405c59 	ldr	x25, [x2, #184]
    1ef0:	8b190299 	add	x25, x20, x25
    1ef4:	17ffff82 	b	1cfc <free_reserve+0xfc>
    1ef8:	f9406059 	ldr	x25, [x2, #192]
    1efc:	8b190299 	add	x25, x20, x25
    1f00:	17ffff85 	b	1d14 <free_reserve+0x114>
    1f04:	f9406459 	ldr	x25, [x2, #200]
    1f08:	8b190299 	add	x25, x20, x25
    1f0c:	17ffff88 	b	1d2c <free_reserve+0x12c>
    1f10:	f9407459 	ldr	x25, [x2, #232]
    1f14:	8b190299 	add	x25, x20, x25
    1f18:	17ffff9d 	b	1d8c <free_reserve+0x18c>
    1f1c:	f9407859 	ldr	x25, [x2, #240]
    1f20:	8b190299 	add	x25, x20, x25
    1f24:	17ffffa0 	b	1da4 <free_reserve+0x1a4>
    1f28:	f9407c39 	ldr	x25, [x1, #248]
    1f2c:	8b190299 	add	x25, x20, x25
    1f30:	17ffffa4 	b	1dc0 <free_reserve+0x1c0>
    1f34:	d503201f 	nop

0000000000001f38 <kfree>:
    1f38:	a9bd7bfd 	stp	x29, x30, [sp, #-48]!
    1f3c:	90000001 	adrp	x1, 8 <alloc_page.constprop.0+0x8>
    1f40:	910003fd 	mov	x29, sp
    1f44:	f9400021 	ldr	x1, [x1]
    1f48:	a9025bf5 	stp	x21, x22, [sp, #32]
    1f4c:	d34cfc15 	lsr	x21, x0, #12
    1f50:	f9400021 	ldr	x1, [x1]
    1f54:	38756821 	ldrb	w1, [x1, x21]
    1f58:	53057c21 	lsr	w1, w1, #5
    1f5c:	7100043f 	cmp	w1, #0x1
    1f60:	54000100 	b.eq	1f80 <kfree+0x48>  // b.none
    1f64:	71000c3f 	cmp	w1, #0x3
    1f68:	54000120 	b.eq	1f8c <kfree+0x54>  // b.none
    1f6c:	7100083f 	cmp	w1, #0x2
    1f70:	54000140 	b.eq	1f98 <kfree+0x60>  // b.none
    1f74:	a9425bf5 	ldp	x21, x22, [sp, #32]
    1f78:	a8c37bfd 	ldp	x29, x30, [sp], #48
    1f7c:	d65f03c0 	ret
    1f80:	a9425bf5 	ldp	x21, x22, [sp, #32]
    1f84:	a8c37bfd 	ldp	x29, x30, [sp], #48
    1f88:	14000000 	b	1ad0 <free_page>
    1f8c:	a9425bf5 	ldp	x21, x22, [sp, #32]
    1f90:	a8c37bfd 	ldp	x29, x30, [sp], #48
    1f94:	14000000 	b	1c00 <free_reserve>
    1f98:	a90153f3 	stp	x19, x20, [sp, #16]
    1f9c:	aa0003f4 	mov	x20, x0
    1fa0:	90000000 	adrp	x0, 0 <alloc_page.constprop.0>
    1fa4:	91000000 	add	x0, x0, #0x0
    1fa8:	94000000 	bl	0 <log>
    1fac:	90000000 	adrp	x0, 8 <alloc_page.constprop.0+0x8>
    1fb0:	f9400000 	ldr	x0, [x0]
    1fb4:	f9400016 	ldr	x22, [x0]
    1fb8:	b4000316 	cbz	x22, 2018 <kfree+0xe0>
    1fbc:	f94006d3 	ldr	x19, [x22, #8]
    1fc0:	b5000093 	cbnz	x19, 1fd0 <kfree+0x98>
    1fc4:	14000017 	b	2020 <kfree+0xe8>
    1fc8:	f9400673 	ldr	x19, [x19, #8]
    1fcc:	b40002b3 	cbz	x19, 2020 <kfree+0xe8>
    1fd0:	f9400260 	ldr	x0, [x19]
    1fd4:	eb4032bf 	cmp	x21, x0, lsr #12
    1fd8:	54ffff81 	b.ne	1fc8 <kfree+0x90>  // b.any
    1fdc:	90000000 	adrp	x0, 0 <alloc_page.constprop.0>
    1fe0:	91000000 	add	x0, x0, #0x0
    1fe4:	94000000 	bl	0 <log>
    1fe8:	f9400a60 	ldr	x0, [x19, #16]
    1fec:	f9400ac2 	ldr	x2, [x22, #16]
    1ff0:	b9401a61 	ldr	w1, [x19, #24]
    1ff4:	f9000280 	str	x0, [x20]
    1ff8:	b94026c0 	ldr	w0, [x22, #36]
    1ffc:	11000421 	add	w1, w1, #0x1
    2000:	f9000a74 	str	x20, [x19, #16]
    2004:	b9001a61 	str	w1, [x19, #24]
    2008:	11000400 	add	w0, w0, #0x1
    200c:	f9400841 	ldr	x1, [x2, #16]
    2010:	b90026c0 	str	w0, [x22, #36]
    2014:	b40000e1 	cbz	x1, 2030 <kfree+0xf8>
    2018:	a94153f3 	ldp	x19, x20, [sp, #16]
    201c:	17ffffd6 	b	1f74 <kfree+0x3c>
    2020:	f94002d6 	ldr	x22, [x22]
    2024:	b5fffcd6 	cbnz	x22, 1fbc <kfree+0x84>
    2028:	a94153f3 	ldp	x19, x20, [sp, #16]
    202c:	17ffffd2 	b	1f74 <kfree+0x3c>
    2030:	f9000ad3 	str	x19, [x22, #16]
    2034:	a94153f3 	ldp	x19, x20, [sp, #16]
    2038:	17ffffcf 	b	1f74 <kfree+0x3c>
    203c:	d503201f 	nop

0000000000002040 <log_buddy>:
    2040:	a9bb7bfd 	stp	x29, x30, [sp, #-80]!
    2044:	910003fd 	mov	x29, sp
    2048:	a9025bf5 	stp	x21, x22, [sp, #32]
    204c:	90000015 	adrp	x21, 100 <alloc_page.constprop.0+0x100>
    2050:	90000016 	adrp	x22, 0 <alloc_page.constprop.0>
    2054:	f94002b5 	ldr	x21, [x21]
    2058:	910002d6 	add	x22, x22, #0x0
    205c:	a90363f7 	stp	x23, x24, [sp, #48]
    2060:	90000017 	adrp	x23, 0 <alloc_page.constprop.0>
    2064:	910002f7 	add	x23, x23, #0x0
    2068:	a9046bf9 	stp	x25, x26, [sp, #64]
    206c:	90000019 	adrp	x25, 0 <alloc_page.constprop.0>
    2070:	91000339 	add	x25, x25, #0x0
    2074:	d2800018 	mov	x24, #0x0                   	// #0
    2078:	9000001a 	adrp	x26, 0 <alloc_page.constprop.0>
    207c:	a90153f3 	stp	x19, x20, [sp, #16]
    2080:	aa1903e0 	mov	x0, x25
    2084:	94000000 	bl	0 <log>
    2088:	aa1803e0 	mov	x0, x24
    208c:	94000000 	bl	0 <log_hex>
    2090:	aa1603e0 	mov	x0, x22
    2094:	94000000 	bl	0 <log>
    2098:	f94002a0 	ldr	x0, [x21]
    209c:	eb0002bf 	cmp	x21, x0
    20a0:	54000400 	b.eq	2120 <log_buddy+0xe0>  // b.none
    20a4:	aa1503f3 	mov	x19, x21
    20a8:	52800014 	mov	w20, #0x0                   	// #0
    20ac:	d503201f 	nop
    20b0:	aa1703e0 	mov	x0, x23
    20b4:	94000000 	bl	0 <log>
    20b8:	f9400260 	ldr	x0, [x19]
    20bc:	11000694 	add	w20, w20, #0x1
    20c0:	94000000 	bl	0 <log_hex>
    20c4:	aa1603e0 	mov	x0, x22
    20c8:	94000000 	bl	0 <log>
    20cc:	f9400273 	ldr	x19, [x19]
    20d0:	f9400260 	ldr	x0, [x19]
    20d4:	eb15001f 	cmp	x0, x21
    20d8:	54fffec1 	b.ne	20b0 <log_buddy+0x70>  // b.any
    20dc:	93407e94 	sxtw	x20, w20
    20e0:	91000340 	add	x0, x26, #0x0
    20e4:	94000000 	bl	0 <log>
    20e8:	aa1403e0 	mov	x0, x20
    20ec:	94000000 	bl	0 <log_hex>
    20f0:	91000718 	add	x24, x24, #0x1
    20f4:	aa1603e0 	mov	x0, x22
    20f8:	94000000 	bl	0 <log>
    20fc:	910042b5 	add	x21, x21, #0x10
    2100:	f100431f 	cmp	x24, #0x10
    2104:	54fffbe1 	b.ne	2080 <log_buddy+0x40>  // b.any
    2108:	a94153f3 	ldp	x19, x20, [sp, #16]
    210c:	a9425bf5 	ldp	x21, x22, [sp, #32]
    2110:	a94363f7 	ldp	x23, x24, [sp, #48]
    2114:	a9446bf9 	ldp	x25, x26, [sp, #64]
    2118:	a8c57bfd 	ldp	x29, x30, [sp], #80
    211c:	d65f03c0 	ret
    2120:	d2800014 	mov	x20, #0x0                   	// #0
    2124:	17ffffef 	b	20e0 <log_buddy+0xa0>

0000000000002128 <check_buddy_stat>:
    2128:	a9bc7bfd 	stp	x29, x30, [sp, #-64]!
    212c:	910003fd 	mov	x29, sp
    2130:	a9025bf5 	stp	x21, x22, [sp, #32]
    2134:	90000016 	adrp	x22, 0 <alloc_page.constprop.0>
    2138:	f94002c1 	ldr	x1, [x22]
    213c:	eb4133ff 	cmp	xzr, x1, lsr #12
    2140:	54000500 	b.eq	21e0 <check_buddy_stat+0xb8>  // b.none
    2144:	a90153f3 	stp	x19, x20, [sp, #16]
    2148:	90000014 	adrp	x20, 8 <alloc_page.constprop.0+0x8>
    214c:	90000015 	adrp	x21, 0 <alloc_page.constprop.0>
    2150:	f9400294 	ldr	x20, [x20]
    2154:	d34cfc21 	lsr	x1, x1, #12
    2158:	910002b5 	add	x21, x21, #0x0
    215c:	d2800013 	mov	x19, #0x0                   	// #0
    2160:	f9001bf7 	str	x23, [sp, #48]
    2164:	90000017 	adrp	x23, 0 <alloc_page.constprop.0>
    2168:	910002f7 	add	x23, x23, #0x0
    216c:	14000010 	b	21ac <check_buddy_stat+0x84>
    2170:	71000c1f 	cmp	w0, #0x3
    2174:	54000440 	b.eq	21fc <check_buddy_stat+0xd4>  // b.none
    2178:	7100041f 	cmp	w0, #0x1
    217c:	54000380 	b.eq	21ec <check_buddy_stat+0xc4>  // b.none
    2180:	aa1703e0 	mov	x0, x23
    2184:	94000000 	bl	0 <log>
    2188:	aa1303e0 	mov	x0, x19
    218c:	94000000 	bl	0 <log_hex>
    2190:	aa1503e0 	mov	x0, x21
    2194:	94000000 	bl	0 <log>
    2198:	f94002c1 	ldr	x1, [x22]
    219c:	d34cfc21 	lsr	x1, x1, #12
    21a0:	91000673 	add	x19, x19, #0x1
    21a4:	eb13003f 	cmp	x1, x19
    21a8:	54000189 	b.ls	21d8 <check_buddy_stat+0xb0>  // b.plast
    21ac:	f9400280 	ldr	x0, [x20]
    21b0:	38736800 	ldrb	w0, [x0, x19]
    21b4:	7100801f 	cmp	w0, #0x20
    21b8:	54ffff40 	b.eq	21a0 <check_buddy_stat+0x78>  // b.none
    21bc:	6b4017ff 	cmp	wzr, w0, lsr #5
    21c0:	53057c00 	lsr	w0, w0, #5
    21c4:	54fffd61 	b.ne	2170 <check_buddy_stat+0x48>  // b.any
    21c8:	90000000 	adrp	x0, 0 <alloc_page.constprop.0>
    21cc:	91000000 	add	x0, x0, #0x0
    21d0:	94000000 	bl	0 <log>
    21d4:	17ffffed 	b	2188 <check_buddy_stat+0x60>
    21d8:	a94153f3 	ldp	x19, x20, [sp, #16]
    21dc:	f9401bf7 	ldr	x23, [sp, #48]
    21e0:	a9425bf5 	ldp	x21, x22, [sp, #32]
    21e4:	a8c47bfd 	ldp	x29, x30, [sp], #64
    21e8:	d65f03c0 	ret
    21ec:	90000000 	adrp	x0, 0 <alloc_page.constprop.0>
    21f0:	91000000 	add	x0, x0, #0x0
    21f4:	94000000 	bl	0 <log>
    21f8:	17ffffe4 	b	2188 <check_buddy_stat+0x60>
    21fc:	90000000 	adrp	x0, 0 <alloc_page.constprop.0>
    2200:	91000000 	add	x0, x0, #0x0
    2204:	94000000 	bl	0 <log>
    2208:	17ffffe0 	b	2188 <check_buddy_stat+0x60>
    220c:	d503201f 	nop

0000000000002210 <init_slab>:
    2210:	a9be7bfd 	stp	x29, x30, [sp, #-32]!
    2214:	910003fd 	mov	x29, sp
    2218:	f9000bf3 	str	x19, [sp, #16]
    221c:	97fff779 	bl	0 <alloc_page.constprop.0>
    2220:	aa0003f3 	mov	x19, x0
    2224:	97fff777 	bl	0 <alloc_page.constprop.0>
    2228:	90000004 	adrp	x4, 8 <alloc_page.constprop.0+0x8>
    222c:	d34cfc08 	lsr	x8, x0, #12
    2230:	d34cfe69 	lsr	x9, x19, #12
    2234:	90000007 	adrp	x7, 8 <alloc_page.constprop.0+0x8>
    2238:	f9400084 	ldr	x4, [x4]
    223c:	90000006 	adrp	x6, 8 <alloc_page.constprop.0+0x8>
    2240:	90000005 	adrp	x5, 8 <alloc_page.constprop.0+0x8>
    2244:	9100c261 	add	x1, x19, #0x30
    2248:	f94000e7 	ldr	x7, [x7]
    224c:	91018270 	add	x16, x19, #0x60
    2250:	f940008a 	ldr	x10, [x4]
    2254:	91008002 	add	x2, x0, #0x20
    2258:	f94000c6 	ldr	x6, [x6]
    225c:	9101000d 	add	x13, x0, #0x40
    2260:	38696943 	ldrb	w3, [x10, x9]
    2264:	d280060f 	mov	x15, #0x30                  	// #48
    2268:	5281f40e 	mov	w14, #0xfa0                 	// #4000
    226c:	d280040c 	mov	x12, #0x20                  	// #32
    2270:	12001063 	and	w3, w3, #0x1f
    2274:	5281f80b 	mov	w11, #0xfc0                 	// #4032
    2278:	321a0063 	orr	w3, w3, #0x40
    227c:	38296943 	strb	w3, [x10, x9]
    2280:	f9400089 	ldr	x9, [x4]
    2284:	f94000a4 	ldr	x4, [x5]
    2288:	38686923 	ldrb	w3, [x9, x8]
    228c:	12001063 	and	w3, w3, #0x1f
    2290:	321a0063 	orr	w3, w3, #0x40
    2294:	38286923 	strb	w3, [x9, x8]
    2298:	a9000261 	stp	x1, x0, [x19]
    229c:	a9014260 	stp	x0, x16, [x19, #16]
    22a0:	f900126f 	str	x15, [x19, #32]
    22a4:	b9002a6e 	str	w14, [x19, #40]
    22a8:	a9030a7f 	stp	xzr, x2, [x19, #48]
    22ac:	a9043662 	stp	x2, x13, [x19, #64]
    22b0:	f9002a6c 	str	x12, [x19, #80]
    22b4:	b9005a6b 	str	w11, [x19, #88]
    22b8:	a9007c13 	stp	x19, xzr, [x0]
    22bc:	f90000d3 	str	x19, [x6]
    22c0:	f90000f3 	str	x19, [x7]
    22c4:	f900081f 	str	xzr, [x0, #16]
    22c8:	b900181f 	str	wzr, [x0, #24]
    22cc:	a9027c00 	stp	x0, xzr, [x0, #32]
    22d0:	f900181f 	str	xzr, [x0, #48]
    22d4:	b900381f 	str	wzr, [x0, #56]
    22d8:	f9000081 	str	x1, [x4]
    22dc:	f9400bf3 	ldr	x19, [sp, #16]
    22e0:	a8c27bfd 	ldp	x29, x30, [sp], #32
    22e4:	d65f03c0 	ret

00000000000022e8 <pd_self_alloc>:
    22e8:	a9bf7bfd 	stp	x29, x30, [sp, #-16]!
    22ec:	910003fd 	mov	x29, sp
    22f0:	97fff744 	bl	0 <alloc_page.constprop.0>
    22f4:	d34cfc04 	lsr	x4, x0, #12
    22f8:	90000002 	adrp	x2, 8 <alloc_page.constprop.0+0x8>
    22fc:	90000003 	adrp	x3, 8 <alloc_page.constprop.0+0x8>
    2300:	aa0003e1 	mov	x1, x0
    2304:	91008007 	add	x7, x0, #0x20
    2308:	f9400042 	ldr	x2, [x2]
    230c:	5281fc06 	mov	w6, #0xfe0                 	// #4064
    2310:	f9400063 	ldr	x3, [x3]
    2314:	90000000 	adrp	x0, 0 <alloc_page.constprop.0>
    2318:	f9400045 	ldr	x5, [x2]
    231c:	91000000 	add	x0, x0, #0x0
    2320:	386468a2 	ldrb	w2, [x5, x4]
    2324:	12001042 	and	w2, w2, #0x1f
    2328:	321a0042 	orr	w2, w2, #0x40
    232c:	382468a2 	strb	w2, [x5, x4]
    2330:	f9400062 	ldr	x2, [x3]
    2334:	f9400443 	ldr	x3, [x2, #8]
    2338:	a9000c21 	stp	x1, x3, [x1]
    233c:	f900083f 	str	xzr, [x1, #16]
    2340:	b900183f 	str	wzr, [x1, #24]
    2344:	f9000441 	str	x1, [x2, #8]
    2348:	f9000c47 	str	x7, [x2, #24]
    234c:	b9002846 	str	w6, [x2, #40]
    2350:	a8c17bfd 	ldp	x29, x30, [sp], #16
    2354:	14000000 	b	0 <log>

0000000000002358 <new_pd>:
    2358:	a9be7bfd 	stp	x29, x30, [sp, #-32]!
    235c:	910003fd 	mov	x29, sp
    2360:	a90153f3 	stp	x19, x20, [sp, #16]
    2364:	90000013 	adrp	x19, 8 <alloc_page.constprop.0+0x8>
    2368:	f9400273 	ldr	x19, [x19]
    236c:	f9400261 	ldr	x1, [x19]
    2370:	b9402420 	ldr	w0, [x1, #36]
    2374:	35000740 	cbnz	w0, 245c <new_pd+0x104>
    2378:	b9402820 	ldr	w0, [x1, #40]
    237c:	90000014 	adrp	x20, 8 <alloc_page.constprop.0+0x8>
    2380:	71007c1f 	cmp	w0, #0x1f
    2384:	540003a9 	b.ls	23f8 <new_pd+0xa0>  // b.plast
    2388:	f9400c33 	ldr	x19, [x1, #24]
    238c:	51008000 	sub	w0, w0, #0x20
    2390:	b9002820 	str	w0, [x1, #40]
    2394:	91008260 	add	x0, x19, #0x20
    2398:	f9000c20 	str	x0, [x1, #24]
    239c:	a900fe7f 	stp	xzr, xzr, [x19, #8]
    23a0:	b9001a7f 	str	wzr, [x19, #24]
    23a4:	97fff717 	bl	0 <alloc_page.constprop.0>
    23a8:	d34cfc01 	lsr	x1, x0, #12
    23ac:	f9400294 	ldr	x20, [x20]
    23b0:	90000002 	adrp	x2, 0 <alloc_page.constprop.0>
    23b4:	f9400283 	ldr	x3, [x20]
    23b8:	f9000260 	str	x0, [x19]
    23bc:	91000040 	add	x0, x2, #0x0
    23c0:	38616862 	ldrb	w2, [x3, x1]
    23c4:	12001042 	and	w2, w2, #0x1f
    23c8:	321a0042 	orr	w2, w2, #0x40
    23cc:	38216862 	strb	w2, [x3, x1]
    23d0:	94000000 	bl	0 <log>
    23d4:	f9400260 	ldr	x0, [x19]
    23d8:	94000000 	bl	0 <log_hex>
    23dc:	90000000 	adrp	x0, 0 <alloc_page.constprop.0>
    23e0:	91000000 	add	x0, x0, #0x0
    23e4:	94000000 	bl	0 <log>
    23e8:	aa1303e0 	mov	x0, x19
    23ec:	a94153f3 	ldp	x19, x20, [sp, #16]
    23f0:	a8c27bfd 	ldp	x29, x30, [sp], #32
    23f4:	d65f03c0 	ret
    23f8:	97fff702 	bl	0 <alloc_page.constprop.0>
    23fc:	d34cfc03 	lsr	x3, x0, #12
    2400:	f9400282 	ldr	x2, [x20]
    2404:	aa0003e1 	mov	x1, x0
    2408:	91008006 	add	x6, x0, #0x20
    240c:	5281fc05 	mov	w5, #0xfe0                 	// #4064
    2410:	90000000 	adrp	x0, 0 <alloc_page.constprop.0>
    2414:	91000000 	add	x0, x0, #0x0
    2418:	f9400044 	ldr	x4, [x2]
    241c:	38636882 	ldrb	w2, [x4, x3]
    2420:	12001042 	and	w2, w2, #0x1f
    2424:	321a0042 	orr	w2, w2, #0x40
    2428:	38236882 	strb	w2, [x4, x3]
    242c:	f9400262 	ldr	x2, [x19]
    2430:	f9400443 	ldr	x3, [x2, #8]
    2434:	a9000c21 	stp	x1, x3, [x1]
    2438:	f900083f 	str	xzr, [x1, #16]
    243c:	b900183f 	str	wzr, [x1, #24]
    2440:	f9000441 	str	x1, [x2, #8]
    2444:	f9000c46 	str	x6, [x2, #24]
    2448:	b9002845 	str	w5, [x2, #40]
    244c:	94000000 	bl	0 <log>
    2450:	f9400261 	ldr	x1, [x19]
    2454:	b9402820 	ldr	w0, [x1, #40]
    2458:	17ffffcc 	b	2388 <new_pd+0x30>
    245c:	f9400822 	ldr	x2, [x1, #16]
    2460:	f9400853 	ldr	x19, [x2, #16]
    2464:	b40001b3 	cbz	x19, 2498 <new_pd+0x140>
    2468:	b9401844 	ldr	w4, [x2, #24]
    246c:	51000403 	sub	w3, w0, #0x1
    2470:	f9400260 	ldr	x0, [x19]
    2474:	51000484 	sub	w4, w4, #0x1
    2478:	f9000840 	str	x0, [x2, #16]
    247c:	90000014 	adrp	x20, 8 <alloc_page.constprop.0+0x8>
    2480:	b9001844 	str	w4, [x2, #24]
    2484:	90000000 	adrp	x0, 0 <alloc_page.constprop.0>
    2488:	b9002423 	str	w3, [x1, #36]
    248c:	91000000 	add	x0, x0, #0x0
    2490:	94000000 	bl	0 <log>
    2494:	17ffffc2 	b	239c <new_pd+0x44>
    2498:	f9400422 	ldr	x2, [x1, #8]
    249c:	f9400853 	ldr	x19, [x2, #16]
    24a0:	b50000b3 	cbnz	x19, 24b4 <new_pd+0x15c>
    24a4:	d503201f 	nop
    24a8:	f9400442 	ldr	x2, [x2, #8]
    24ac:	f9400853 	ldr	x19, [x2, #16]
    24b0:	b4ffffd3 	cbz	x19, 24a8 <new_pd+0x150>
    24b4:	f9000822 	str	x2, [x1, #16]
    24b8:	17ffffec 	b	2468 <new_pd+0x110>
    24bc:	d503201f 	nop

00000000000024c0 <register_slab>:
    24c0:	a9bd7bfd 	stp	x29, x30, [sp, #-48]!
    24c4:	910003fd 	mov	x29, sp
    24c8:	a9025bf5 	stp	x21, x22, [sp, #32]
    24cc:	90000016 	adrp	x22, 8 <alloc_page.constprop.0+0x8>
    24d0:	a90153f3 	stp	x19, x20, [sp, #16]
    24d4:	aa0003f4 	mov	x20, x0
    24d8:	f94002c0 	ldr	x0, [x22]
    24dc:	f9400013 	ldr	x19, [x0]
    24e0:	b5000093 	cbnz	x19, 24f0 <register_slab+0x30>
    24e4:	1400000e 	b	251c <register_slab+0x5c>
    24e8:	f9400273 	ldr	x19, [x19]
    24ec:	b4000193 	cbz	x19, 251c <register_slab+0x5c>
    24f0:	b9402261 	ldr	w1, [x19, #32]
    24f4:	eb14003f 	cmp	x1, x20
    24f8:	54ffff81 	b.ne	24e8 <register_slab+0x28>  // b.any
    24fc:	90000000 	adrp	x0, 0 <alloc_page.constprop.0>
    2500:	91000000 	add	x0, x0, #0x0
    2504:	94000000 	bl	0 <log>
    2508:	aa1303e0 	mov	x0, x19
    250c:	a94153f3 	ldp	x19, x20, [sp, #16]
    2510:	a9425bf5 	ldp	x21, x22, [sp, #32]
    2514:	a8c37bfd 	ldp	x29, x30, [sp], #48
    2518:	d65f03c0 	ret
    251c:	90000000 	adrp	x0, 8 <alloc_page.constprop.0+0x8>
    2520:	f9400000 	ldr	x0, [x0]
    2524:	f9400015 	ldr	x21, [x0]
    2528:	b94026a0 	ldr	w0, [x21, #36]
    252c:	35000640 	cbnz	w0, 25f4 <register_slab+0x134>
    2530:	b94022a1 	ldr	w1, [x21, #32]
    2534:	b9402aa2 	ldr	w2, [x21, #40]
    2538:	6b01005f 	cmp	w2, w1
    253c:	54000423 	b.cc	25c0 <register_slab+0x100>  // b.lo, b.ul, b.last
    2540:	f9400eb3 	ldr	x19, [x21, #24]
    2544:	4b010042 	sub	w2, w2, w1
    2548:	8b214261 	add	x1, x19, w1, uxtw
    254c:	f9000ea1 	str	x1, [x21, #24]
    2550:	b9002aa2 	str	w2, [x21, #40]
    2554:	90000000 	adrp	x0, 0 <alloc_page.constprop.0>
    2558:	91000000 	add	x0, x0, #0x0
    255c:	94000000 	bl	0 <log>
    2560:	b9402aa0 	ldr	w0, [x21, #40]
    2564:	94000000 	bl	0 <log_hex>
    2568:	90000000 	adrp	x0, 0 <alloc_page.constprop.0>
    256c:	91000000 	add	x0, x0, #0x0
    2570:	94000000 	bl	0 <log>
    2574:	94000000 	bl	2358 <new_pd>
    2578:	a9008260 	stp	x0, x0, [x19, #8]
    257c:	d2c20001 	mov	x1, #0x100000000000        	// #17592186044416
    2580:	f94002d6 	ldr	x22, [x22]
    2584:	90000002 	adrp	x2, 0 <alloc_page.constprop.0>
    2588:	f9400000 	ldr	x0, [x0]
    258c:	f9000e60 	str	x0, [x19, #24]
    2590:	f94002c0 	ldr	x0, [x22]
    2594:	f9000260 	str	x0, [x19]
    2598:	b9002274 	str	w20, [x19, #32]
    259c:	91000040 	add	x0, x2, #0x0
    25a0:	f8024261 	stur	x1, [x19, #36]
    25a4:	f90002d3 	str	x19, [x22]
    25a8:	94000000 	bl	0 <log>
    25ac:	aa1303e0 	mov	x0, x19
    25b0:	a94153f3 	ldp	x19, x20, [sp, #16]
    25b4:	a9425bf5 	ldp	x21, x22, [sp, #32]
    25b8:	a8c37bfd 	ldp	x29, x30, [sp], #48
    25bc:	d65f03c0 	ret
    25c0:	90000013 	adrp	x19, 8 <alloc_page.constprop.0+0x8>
    25c4:	f9400273 	ldr	x19, [x19]
    25c8:	f9400260 	ldr	x0, [x19]
    25cc:	eb0002bf 	cmp	x21, x0
    25d0:	540002e0 	b.eq	262c <register_slab+0x16c>  // b.none
    25d4:	94000000 	bl	2358 <new_pd>
    25d8:	f94006a3 	ldr	x3, [x21, #8]
    25dc:	52820002 	mov	w2, #0x1000                	// #4096
    25e0:	b94022a1 	ldr	w1, [x21, #32]
    25e4:	f9000403 	str	x3, [x0, #8]
    25e8:	f9400013 	ldr	x19, [x0]
    25ec:	f90006a0 	str	x0, [x21, #8]
    25f0:	17ffffd5 	b	2544 <register_slab+0x84>
    25f4:	f9400aa1 	ldr	x1, [x21, #16]
    25f8:	f9400833 	ldr	x19, [x1, #16]
    25fc:	b40004f3 	cbz	x19, 2698 <register_slab+0x1d8>
    2600:	b9401823 	ldr	w3, [x1, #24]
    2604:	51000402 	sub	w2, w0, #0x1
    2608:	f9400260 	ldr	x0, [x19]
    260c:	51000463 	sub	w3, w3, #0x1
    2610:	f9000820 	str	x0, [x1, #16]
    2614:	90000000 	adrp	x0, 0 <alloc_page.constprop.0>
    2618:	b9001823 	str	w3, [x1, #24]
    261c:	91000000 	add	x0, x0, #0x0
    2620:	b90026a2 	str	w2, [x21, #36]
    2624:	94000000 	bl	0 <log>
    2628:	17ffffd3 	b	2574 <register_slab+0xb4>
    262c:	97fff675 	bl	0 <alloc_page.constprop.0>
    2630:	d34cfc03 	lsr	x3, x0, #12
    2634:	90000002 	adrp	x2, 8 <alloc_page.constprop.0+0x8>
    2638:	aa0003e1 	mov	x1, x0
    263c:	91008006 	add	x6, x0, #0x20
    2640:	5281fc05 	mov	w5, #0xfe0                 	// #4064
    2644:	f9400042 	ldr	x2, [x2]
    2648:	90000000 	adrp	x0, 0 <alloc_page.constprop.0>
    264c:	91000000 	add	x0, x0, #0x0
    2650:	f9400044 	ldr	x4, [x2]
    2654:	38636882 	ldrb	w2, [x4, x3]
    2658:	12001042 	and	w2, w2, #0x1f
    265c:	321a0042 	orr	w2, w2, #0x40
    2660:	38236882 	strb	w2, [x4, x3]
    2664:	f9400262 	ldr	x2, [x19]
    2668:	f9400443 	ldr	x3, [x2, #8]
    266c:	a9000c21 	stp	x1, x3, [x1]
    2670:	f900083f 	str	xzr, [x1, #16]
    2674:	b900183f 	str	wzr, [x1, #24]
    2678:	f9000441 	str	x1, [x2, #8]
    267c:	f9000c46 	str	x6, [x2, #24]
    2680:	b9002845 	str	w5, [x2, #40]
    2684:	94000000 	bl	0 <log>
    2688:	b94022a1 	ldr	w1, [x21, #32]
    268c:	b9402aa2 	ldr	w2, [x21, #40]
    2690:	f9400eb3 	ldr	x19, [x21, #24]
    2694:	17ffffac 	b	2544 <register_slab+0x84>
    2698:	f94006a1 	ldr	x1, [x21, #8]
    269c:	f9400833 	ldr	x19, [x1, #16]
    26a0:	b50000b3 	cbnz	x19, 26b4 <register_slab+0x1f4>
    26a4:	d503201f 	nop
    26a8:	f9400421 	ldr	x1, [x1, #8]
    26ac:	f9400833 	ldr	x19, [x1, #16]
    26b0:	b4ffffd3 	cbz	x19, 26a8 <register_slab+0x1e8>
    26b4:	f9000aa1 	str	x1, [x21, #16]
    26b8:	17ffffd2 	b	2600 <register_slab+0x140>
    26bc:	d503201f 	nop

00000000000026c0 <alloc_slab>:
    26c0:	a9be7bfd 	stp	x29, x30, [sp, #-32]!
    26c4:	910003fd 	mov	x29, sp
    26c8:	a90153f3 	stp	x19, x20, [sp, #16]
    26cc:	aa0003f3 	mov	x19, x0
    26d0:	b9402400 	ldr	w0, [x0, #36]
    26d4:	35000460 	cbnz	w0, 2760 <alloc_slab+0xa0>
    26d8:	b9402261 	ldr	w1, [x19, #32]
    26dc:	b9402a62 	ldr	w2, [x19, #40]
    26e0:	6b01005f 	cmp	w2, w1
    26e4:	54000243 	b.cc	272c <alloc_slab+0x6c>  // b.lo, b.ul, b.last
    26e8:	f9400e74 	ldr	x20, [x19, #24]
    26ec:	4b010042 	sub	w2, w2, w1
    26f0:	8b214281 	add	x1, x20, w1, uxtw
    26f4:	f9000e61 	str	x1, [x19, #24]
    26f8:	b9002a62 	str	w2, [x19, #40]
    26fc:	90000000 	adrp	x0, 0 <alloc_page.constprop.0>
    2700:	91000000 	add	x0, x0, #0x0
    2704:	94000000 	bl	0 <log>
    2708:	b9402a60 	ldr	w0, [x19, #40]
    270c:	94000000 	bl	0 <log_hex>
    2710:	90000000 	adrp	x0, 0 <alloc_page.constprop.0>
    2714:	91000000 	add	x0, x0, #0x0
    2718:	94000000 	bl	0 <log>
    271c:	aa1403e0 	mov	x0, x20
    2720:	a94153f3 	ldp	x19, x20, [sp, #16]
    2724:	a8c27bfd 	ldp	x29, x30, [sp], #32
    2728:	d65f03c0 	ret
    272c:	90000014 	adrp	x20, 8 <alloc_page.constprop.0+0x8>
    2730:	f9400294 	ldr	x20, [x20]
    2734:	f9400280 	ldr	x0, [x20]
    2738:	eb13001f 	cmp	x0, x19
    273c:	54000440 	b.eq	27c4 <alloc_slab+0x104>  // b.none
    2740:	94000000 	bl	2358 <new_pd>
    2744:	f9400663 	ldr	x3, [x19, #8]
    2748:	52820002 	mov	w2, #0x1000                	// #4096
    274c:	b9402261 	ldr	w1, [x19, #32]
    2750:	f9000403 	str	x3, [x0, #8]
    2754:	f9400014 	ldr	x20, [x0]
    2758:	f9000660 	str	x0, [x19, #8]
    275c:	17ffffe4 	b	26ec <alloc_slab+0x2c>
    2760:	f9400a61 	ldr	x1, [x19, #16]
    2764:	f9400834 	ldr	x20, [x1, #16]
    2768:	b40001f4 	cbz	x20, 27a4 <alloc_slab+0xe4>
    276c:	b9401823 	ldr	w3, [x1, #24]
    2770:	51000402 	sub	w2, w0, #0x1
    2774:	f9400280 	ldr	x0, [x20]
    2778:	51000463 	sub	w3, w3, #0x1
    277c:	f9000820 	str	x0, [x1, #16]
    2780:	90000000 	adrp	x0, 0 <alloc_page.constprop.0>
    2784:	b9001823 	str	w3, [x1, #24]
    2788:	91000000 	add	x0, x0, #0x0
    278c:	b9002662 	str	w2, [x19, #36]
    2790:	94000000 	bl	0 <log>
    2794:	aa1403e0 	mov	x0, x20
    2798:	a94153f3 	ldp	x19, x20, [sp, #16]
    279c:	a8c27bfd 	ldp	x29, x30, [sp], #32
    27a0:	d65f03c0 	ret
    27a4:	f9400661 	ldr	x1, [x19, #8]
    27a8:	f9400834 	ldr	x20, [x1, #16]
    27ac:	b5000094 	cbnz	x20, 27bc <alloc_slab+0xfc>
    27b0:	f9400421 	ldr	x1, [x1, #8]
    27b4:	f9400834 	ldr	x20, [x1, #16]
    27b8:	b4ffffd4 	cbz	x20, 27b0 <alloc_slab+0xf0>
    27bc:	f9000a61 	str	x1, [x19, #16]
    27c0:	17ffffeb 	b	276c <alloc_slab+0xac>
    27c4:	97fff60f 	bl	0 <alloc_page.constprop.0>
    27c8:	d34cfc03 	lsr	x3, x0, #12
    27cc:	90000002 	adrp	x2, 8 <alloc_page.constprop.0+0x8>
    27d0:	aa0003e1 	mov	x1, x0
    27d4:	91008006 	add	x6, x0, #0x20
    27d8:	5281fc05 	mov	w5, #0xfe0                 	// #4064
    27dc:	f9400042 	ldr	x2, [x2]
    27e0:	90000000 	adrp	x0, 0 <alloc_page.constprop.0>
    27e4:	91000000 	add	x0, x0, #0x0
    27e8:	f9400044 	ldr	x4, [x2]
    27ec:	38636882 	ldrb	w2, [x4, x3]
    27f0:	12001042 	and	w2, w2, #0x1f
    27f4:	321a0042 	orr	w2, w2, #0x40
    27f8:	38236882 	strb	w2, [x4, x3]
    27fc:	f9400282 	ldr	x2, [x20]
    2800:	f9400443 	ldr	x3, [x2, #8]
    2804:	a9000c21 	stp	x1, x3, [x1]
    2808:	f900083f 	str	xzr, [x1, #16]
    280c:	b900183f 	str	wzr, [x1, #24]
    2810:	f9000441 	str	x1, [x2, #8]
    2814:	f9000c46 	str	x6, [x2, #24]
    2818:	b9002845 	str	w5, [x2, #40]
    281c:	94000000 	bl	0 <log>
    2820:	b9402261 	ldr	w1, [x19, #32]
    2824:	b9402a62 	ldr	w2, [x19, #40]
    2828:	f9400e74 	ldr	x20, [x19, #24]
    282c:	17ffffb0 	b	26ec <alloc_slab+0x2c>

0000000000002830 <kmalloc>:
    2830:	a9bd7bfd 	stp	x29, x30, [sp, #-48]!
    2834:	910003fd 	mov	x29, sp
    2838:	a90153f3 	stp	x19, x20, [sp, #16]
    283c:	91003c14 	add	x20, x0, #0xf
    2840:	927cee94 	and	x20, x20, #0xfffffffffffffff0
    2844:	f120029f 	cmp	x20, #0x800
    2848:	540000a9 	b.ls	285c <kmalloc+0x2c>  // b.plast
    284c:	aa1403e0 	mov	x0, x20
    2850:	a94153f3 	ldp	x19, x20, [sp, #16]
    2854:	a8c37bfd 	ldp	x29, x30, [sp], #48
    2858:	14000000 	b	1928 <alloc_page>
    285c:	f90013f5 	str	x21, [sp, #32]
    2860:	90000015 	adrp	x21, 8 <alloc_page.constprop.0+0x8>
    2864:	f94002a0 	ldr	x0, [x21]
    2868:	f9400013 	ldr	x19, [x0]
    286c:	b5000573 	cbnz	x19, 2918 <kmalloc+0xe8>
    2870:	90000000 	adrp	x0, 8 <alloc_page.constprop.0+0x8>
    2874:	f9400000 	ldr	x0, [x0]
    2878:	f9400000 	ldr	x0, [x0]
    287c:	94000000 	bl	26c0 <alloc_slab>
    2880:	aa0003f3 	mov	x19, x0
    2884:	94000000 	bl	2358 <new_pd>
    2888:	aa0003e1 	mov	x1, x0
    288c:	f94002b5 	ldr	x21, [x21]
    2890:	a9008661 	stp	x1, x1, [x19, #8]
    2894:	d2c20002 	mov	x2, #0x100000000000        	// #17592186044416
    2898:	f9400021 	ldr	x1, [x1]
    289c:	f9000e61 	str	x1, [x19, #24]
    28a0:	f94002a1 	ldr	x1, [x21]
    28a4:	f9000261 	str	x1, [x19]
    28a8:	b9002274 	str	w20, [x19, #32]
    28ac:	90000000 	adrp	x0, 0 <alloc_page.constprop.0>
    28b0:	f8024262 	stur	x2, [x19, #36]
    28b4:	91000000 	add	x0, x0, #0x0
    28b8:	f90002b3 	str	x19, [x21]
    28bc:	94000000 	bl	0 <log>
    28c0:	b9402660 	ldr	w0, [x19, #36]
    28c4:	340003a0 	cbz	w0, 2938 <kmalloc+0x108>
    28c8:	f9400a61 	ldr	x1, [x19, #16]
    28cc:	f9400834 	ldr	x20, [x1, #16]
    28d0:	b4000b14 	cbz	x20, 2a30 <kmalloc+0x200>
    28d4:	b9401823 	ldr	w3, [x1, #24]
    28d8:	51000402 	sub	w2, w0, #0x1
    28dc:	f9400280 	ldr	x0, [x20]
    28e0:	51000463 	sub	w3, w3, #0x1
    28e4:	f9000820 	str	x0, [x1, #16]
    28e8:	90000000 	adrp	x0, 0 <alloc_page.constprop.0>
    28ec:	b9001823 	str	w3, [x1, #24]
    28f0:	91000000 	add	x0, x0, #0x0
    28f4:	b9002662 	str	w2, [x19, #36]
    28f8:	94000000 	bl	0 <log>
    28fc:	aa1403e0 	mov	x0, x20
    2900:	a94153f3 	ldp	x19, x20, [sp, #16]
    2904:	f94013f5 	ldr	x21, [sp, #32]
    2908:	a8c37bfd 	ldp	x29, x30, [sp], #48
    290c:	d65f03c0 	ret
    2910:	f9400273 	ldr	x19, [x19]
    2914:	b4fffaf3 	cbz	x19, 2870 <kmalloc+0x40>
    2918:	b9402260 	ldr	w0, [x19, #32]
    291c:	eb00029f 	cmp	x20, x0
    2920:	54ffff81 	b.ne	2910 <kmalloc+0xe0>  // b.any
    2924:	90000000 	adrp	x0, 0 <alloc_page.constprop.0>
    2928:	91000000 	add	x0, x0, #0x0
    292c:	94000000 	bl	0 <log>
    2930:	b9402660 	ldr	w0, [x19, #36]
    2934:	35fffca0 	cbnz	w0, 28c8 <kmalloc+0x98>
    2938:	b9402261 	ldr	w1, [x19, #32]
    293c:	b9402a62 	ldr	w2, [x19, #40]
    2940:	6b01005f 	cmp	w2, w1
    2944:	54000263 	b.cc	2990 <kmalloc+0x160>  // b.lo, b.ul, b.last
    2948:	f9400e74 	ldr	x20, [x19, #24]
    294c:	4b010042 	sub	w2, w2, w1
    2950:	8b214281 	add	x1, x20, w1, uxtw
    2954:	f9000e61 	str	x1, [x19, #24]
    2958:	b9002a62 	str	w2, [x19, #40]
    295c:	90000000 	adrp	x0, 0 <alloc_page.constprop.0>
    2960:	91000000 	add	x0, x0, #0x0
    2964:	94000000 	bl	0 <log>
    2968:	b9402a60 	ldr	w0, [x19, #40]
    296c:	94000000 	bl	0 <log_hex>
    2970:	90000000 	adrp	x0, 0 <alloc_page.constprop.0>
    2974:	91000000 	add	x0, x0, #0x0
    2978:	94000000 	bl	0 <log>
    297c:	aa1403e0 	mov	x0, x20
    2980:	a94153f3 	ldp	x19, x20, [sp, #16]
    2984:	f94013f5 	ldr	x21, [sp, #32]
    2988:	a8c37bfd 	ldp	x29, x30, [sp], #48
    298c:	d65f03c0 	ret
    2990:	90000014 	adrp	x20, 8 <alloc_page.constprop.0+0x8>
    2994:	f9400294 	ldr	x20, [x20]
    2998:	f9400280 	ldr	x0, [x20]
    299c:	eb13001f 	cmp	x0, x19
    29a0:	54000120 	b.eq	29c4 <kmalloc+0x194>  // b.none
    29a4:	94000000 	bl	2358 <new_pd>
    29a8:	f9400663 	ldr	x3, [x19, #8]
    29ac:	52820002 	mov	w2, #0x1000                	// #4096
    29b0:	b9402261 	ldr	w1, [x19, #32]
    29b4:	f9000403 	str	x3, [x0, #8]
    29b8:	f9400014 	ldr	x20, [x0]
    29bc:	f9000660 	str	x0, [x19, #8]
    29c0:	17ffffe3 	b	294c <kmalloc+0x11c>
    29c4:	97fff58f 	bl	0 <alloc_page.constprop.0>
    29c8:	d34cfc03 	lsr	x3, x0, #12
    29cc:	90000002 	adrp	x2, 8 <alloc_page.constprop.0+0x8>
    29d0:	aa0003e1 	mov	x1, x0
    29d4:	91008006 	add	x6, x0, #0x20
    29d8:	5281fc05 	mov	w5, #0xfe0                 	// #4064
    29dc:	f9400042 	ldr	x2, [x2]
    29e0:	90000000 	adrp	x0, 0 <alloc_page.constprop.0>
    29e4:	91000000 	add	x0, x0, #0x0
    29e8:	f9400044 	ldr	x4, [x2]
    29ec:	38636882 	ldrb	w2, [x4, x3]
    29f0:	12001042 	and	w2, w2, #0x1f
    29f4:	321a0042 	orr	w2, w2, #0x40
    29f8:	38236882 	strb	w2, [x4, x3]
    29fc:	f9400282 	ldr	x2, [x20]
    2a00:	f9400443 	ldr	x3, [x2, #8]
    2a04:	a9000c21 	stp	x1, x3, [x1]
    2a08:	f900083f 	str	xzr, [x1, #16]
    2a0c:	b900183f 	str	wzr, [x1, #24]
    2a10:	f9000441 	str	x1, [x2, #8]
    2a14:	f9000c46 	str	x6, [x2, #24]
    2a18:	b9002845 	str	w5, [x2, #40]
    2a1c:	94000000 	bl	0 <log>
    2a20:	b9402261 	ldr	w1, [x19, #32]
    2a24:	b9402a62 	ldr	w2, [x19, #40]
    2a28:	f9400e74 	ldr	x20, [x19, #24]
    2a2c:	17ffffc8 	b	294c <kmalloc+0x11c>
    2a30:	f9400661 	ldr	x1, [x19, #8]
    2a34:	f9400834 	ldr	x20, [x1, #16]
    2a38:	b50000b4 	cbnz	x20, 2a4c <kmalloc+0x21c>
    2a3c:	d503201f 	nop
    2a40:	f9400421 	ldr	x1, [x1, #8]
    2a44:	f9400834 	ldr	x20, [x1, #16]
    2a48:	b4ffffd4 	cbz	x20, 2a40 <kmalloc+0x210>
    2a4c:	f9000a61 	str	x1, [x19, #16]
    2a50:	17ffffa1 	b	28d4 <kmalloc+0xa4>
    2a54:	d503201f 	nop

0000000000002a58 <_free_slab>:
    2a58:	a9bd7bfd 	stp	x29, x30, [sp, #-48]!
    2a5c:	910003fd 	mov	x29, sp
    2a60:	a90153f3 	stp	x19, x20, [sp, #16]
    2a64:	aa0203f3 	mov	x19, x2
    2a68:	aa0103f4 	mov	x20, x1
    2a6c:	90000001 	adrp	x1, 0 <alloc_page.constprop.0>
    2a70:	f90013f5 	str	x21, [sp, #32]
    2a74:	aa0003f5 	mov	x21, x0
    2a78:	91000020 	add	x0, x1, #0x0
    2a7c:	94000000 	bl	0 <log>
    2a80:	f9400a60 	ldr	x0, [x19, #16]
    2a84:	f9400a82 	ldr	x2, [x20, #16]
    2a88:	b9401a61 	ldr	w1, [x19, #24]
    2a8c:	f90002a0 	str	x0, [x21]
    2a90:	b9402680 	ldr	w0, [x20, #36]
    2a94:	11000421 	add	w1, w1, #0x1
    2a98:	f9000a75 	str	x21, [x19, #16]
    2a9c:	b9001a61 	str	w1, [x19, #24]
    2aa0:	11000400 	add	w0, w0, #0x1
    2aa4:	f9400841 	ldr	x1, [x2, #16]
    2aa8:	b9002680 	str	w0, [x20, #36]
    2aac:	b40000a1 	cbz	x1, 2ac0 <_free_slab+0x68>
    2ab0:	a94153f3 	ldp	x19, x20, [sp, #16]
    2ab4:	f94013f5 	ldr	x21, [sp, #32]
    2ab8:	a8c37bfd 	ldp	x29, x30, [sp], #48
    2abc:	d65f03c0 	ret
    2ac0:	f9000a93 	str	x19, [x20, #16]
    2ac4:	a94153f3 	ldp	x19, x20, [sp, #16]
    2ac8:	f94013f5 	ldr	x21, [sp, #32]
    2acc:	a8c37bfd 	ldp	x29, x30, [sp], #48
    2ad0:	d65f03c0 	ret
    2ad4:	d503201f 	nop

0000000000002ad8 <free_unknow_slab>:
    2ad8:	a9bd7bfd 	stp	x29, x30, [sp, #-48]!
    2adc:	90000001 	adrp	x1, 0 <alloc_page.constprop.0>
    2ae0:	910003fd 	mov	x29, sp
    2ae4:	a90153f3 	stp	x19, x20, [sp, #16]
    2ae8:	f90013f5 	str	x21, [sp, #32]
    2aec:	aa0003f5 	mov	x21, x0
    2af0:	91000020 	add	x0, x1, #0x0
    2af4:	94000000 	bl	0 <log>
    2af8:	90000000 	adrp	x0, 8 <alloc_page.constprop.0+0x8>
    2afc:	f9400000 	ldr	x0, [x0]
    2b00:	f9400014 	ldr	x20, [x0]
    2b04:	b4000334 	cbz	x20, 2b68 <free_unknow_slab+0x90>
    2b08:	d34cfea2 	lsr	x2, x21, #12
    2b0c:	f9400693 	ldr	x19, [x20, #8]
    2b10:	b5000093 	cbnz	x19, 2b20 <free_unknow_slab+0x48>
    2b14:	14000019 	b	2b78 <free_unknow_slab+0xa0>
    2b18:	f9400673 	ldr	x19, [x19, #8]
    2b1c:	b40002f3 	cbz	x19, 2b78 <free_unknow_slab+0xa0>
    2b20:	f9400261 	ldr	x1, [x19]
    2b24:	eb41305f 	cmp	x2, x1, lsr #12
    2b28:	54ffff81 	b.ne	2b18 <free_unknow_slab+0x40>  // b.any
    2b2c:	90000000 	adrp	x0, 0 <alloc_page.constprop.0>
    2b30:	91000000 	add	x0, x0, #0x0
    2b34:	94000000 	bl	0 <log>
    2b38:	f9400a60 	ldr	x0, [x19, #16]
    2b3c:	f9400a82 	ldr	x2, [x20, #16]
    2b40:	b9401a61 	ldr	w1, [x19, #24]
    2b44:	f90002a0 	str	x0, [x21]
    2b48:	b9402680 	ldr	w0, [x20, #36]
    2b4c:	11000421 	add	w1, w1, #0x1
    2b50:	f9000a75 	str	x21, [x19, #16]
    2b54:	b9001a61 	str	w1, [x19, #24]
    2b58:	11000400 	add	w0, w0, #0x1
    2b5c:	f9400841 	ldr	x1, [x2, #16]
    2b60:	b9002680 	str	w0, [x20, #36]
    2b64:	b4000101 	cbz	x1, 2b84 <free_unknow_slab+0xac>
    2b68:	a94153f3 	ldp	x19, x20, [sp, #16]
    2b6c:	f94013f5 	ldr	x21, [sp, #32]
    2b70:	a8c37bfd 	ldp	x29, x30, [sp], #48
    2b74:	d65f03c0 	ret
    2b78:	f9400294 	ldr	x20, [x20]
    2b7c:	b5fffc94 	cbnz	x20, 2b0c <free_unknow_slab+0x34>
    2b80:	17fffffa 	b	2b68 <free_unknow_slab+0x90>
    2b84:	f9000a93 	str	x19, [x20, #16]
    2b88:	a94153f3 	ldp	x19, x20, [sp, #16]
    2b8c:	f94013f5 	ldr	x21, [sp, #32]
    2b90:	a8c37bfd 	ldp	x29, x30, [sp], #48
    2b94:	d65f03c0 	ret

0000000000002b98 <free_slab>:
    2b98:	a9bd7bfd 	stp	x29, x30, [sp, #-48]!
    2b9c:	910003fd 	mov	x29, sp
    2ba0:	a90153f3 	stp	x19, x20, [sp, #16]
    2ba4:	aa0103f4 	mov	x20, x1
    2ba8:	f90013f5 	str	x21, [sp, #32]
    2bac:	aa0003f5 	mov	x21, x0
    2bb0:	90000000 	adrp	x0, 0 <alloc_page.constprop.0>
    2bb4:	91000000 	add	x0, x0, #0x0
    2bb8:	94000000 	bl	0 <log>
    2bbc:	f9400693 	ldr	x19, [x20, #8]
    2bc0:	b40002f3 	cbz	x19, 2c1c <free_slab+0x84>
    2bc4:	d34cfea3 	lsr	x3, x21, #12
    2bc8:	14000003 	b	2bd4 <free_slab+0x3c>
    2bcc:	f9400673 	ldr	x19, [x19, #8]
    2bd0:	b4000273 	cbz	x19, 2c1c <free_slab+0x84>
    2bd4:	f9400262 	ldr	x2, [x19]
    2bd8:	eb42307f 	cmp	x3, x2, lsr #12
    2bdc:	54ffff81 	b.ne	2bcc <free_slab+0x34>  // b.any
    2be0:	90000000 	adrp	x0, 0 <alloc_page.constprop.0>
    2be4:	91000000 	add	x0, x0, #0x0
    2be8:	94000000 	bl	0 <log>
    2bec:	f9400a60 	ldr	x0, [x19, #16]
    2bf0:	f9400a82 	ldr	x2, [x20, #16]
    2bf4:	b9401a61 	ldr	w1, [x19, #24]
    2bf8:	f90002a0 	str	x0, [x21]
    2bfc:	b9402680 	ldr	w0, [x20, #36]
    2c00:	11000421 	add	w1, w1, #0x1
    2c04:	f9000a75 	str	x21, [x19, #16]
    2c08:	b9001a61 	str	w1, [x19, #24]
    2c0c:	11000400 	add	w0, w0, #0x1
    2c10:	f9400841 	ldr	x1, [x2, #16]
    2c14:	b9002680 	str	w0, [x20, #36]
    2c18:	b40000a1 	cbz	x1, 2c2c <free_slab+0x94>
    2c1c:	a94153f3 	ldp	x19, x20, [sp, #16]
    2c20:	f94013f5 	ldr	x21, [sp, #32]
    2c24:	a8c37bfd 	ldp	x29, x30, [sp], #48
    2c28:	d65f03c0 	ret
    2c2c:	f9000a93 	str	x19, [x20, #16]
    2c30:	a94153f3 	ldp	x19, x20, [sp, #16]
    2c34:	f94013f5 	ldr	x21, [sp, #32]
    2c38:	a8c37bfd 	ldp	x29, x30, [sp], #48
    2c3c:	d65f03c0 	ret

0000000000002c40 <check_slab>:
    2c40:	a9bd7bfd 	stp	x29, x30, [sp, #-48]!
    2c44:	90000000 	adrp	x0, 8 <alloc_page.constprop.0+0x8>
    2c48:	910003fd 	mov	x29, sp
    2c4c:	f9400000 	ldr	x0, [x0]
    2c50:	a90153f3 	stp	x19, x20, [sp, #16]
    2c54:	f9400013 	ldr	x19, [x0]
    2c58:	b4000273 	cbz	x19, 2ca4 <check_slab+0x64>
    2c5c:	90000014 	adrp	x20, 0 <alloc_page.constprop.0>
    2c60:	91000294 	add	x20, x20, #0x0
    2c64:	a9025bf5 	stp	x21, x22, [sp, #32]
    2c68:	90000016 	adrp	x22, 0 <alloc_page.constprop.0>
    2c6c:	90000015 	adrp	x21, 0 <alloc_page.constprop.0>
    2c70:	910002d6 	add	x22, x22, #0x0
    2c74:	910002b5 	add	x21, x21, #0x0
    2c78:	aa1603e0 	mov	x0, x22
    2c7c:	94000000 	bl	0 <log>
    2c80:	aa1503e0 	mov	x0, x21
    2c84:	94000000 	bl	0 <log>
    2c88:	b9402260 	ldr	w0, [x19, #32]
    2c8c:	94000000 	bl	0 <log_hex>
    2c90:	aa1403e0 	mov	x0, x20
    2c94:	94000000 	bl	0 <log>
    2c98:	f9400273 	ldr	x19, [x19]
    2c9c:	b5fffef3 	cbnz	x19, 2c78 <check_slab+0x38>
    2ca0:	a9425bf5 	ldp	x21, x22, [sp, #32]
    2ca4:	a94153f3 	ldp	x19, x20, [sp, #16]
    2ca8:	a8c37bfd 	ldp	x29, x30, [sp], #48
    2cac:	d65f03c0 	ret
