
build/kernel8.elf:     file format elf64-littleaarch64


Disassembly of section .text:

0000000000080000 <_start>:
   80000:	58000180 	ldr	x0, 80030 <memzero+0x20>
   80004:	580001a1 	ldr	x1, 80038 <memzero+0x28>
   80008:	eb000021 	subs	x1, x1, x0
   8000c:	54000089 	b.ls	8001c <memzero+0xc>  // b.plast

0000000000080010 <memzero>:
   80010:	f800841f 	str	xzr, [x0], #8
   80014:	f1002021 	subs	x1, x1, #0x8
   80018:	54ffffcc 	b.gt	80010 <memzero>
   8001c:	58000120 	ldr	x0, 80040 <memzero+0x30>
   80020:	9100001f 	mov	sp, x0
   80024:	940000d9 	bl	80388 <main>
   80028:	14000000 	b	80028 <memzero+0x18>
   8002c:	00000000 	.inst	0x00000000 ; undefined
   80030:	00082250 	.word	0x00082250
   80034:	00000000 	.word	0x00000000
   80038:	00082250 	.word	0x00082250
   8003c:	00000000 	.word	0x00000000
   80040:	00083250 	.word	0x00083250
   80044:	00000000 	.word	0x00000000

0000000000080048 <uart_init>:
   80048:	f81e0ff3 	str	x19, [sp, #-32]!
   8004c:	d28a0080 	mov	x0, #0x5004                	// #20484
   80050:	f2a7e420 	movk	x0, #0x3f21, lsl #16
   80054:	b9400001 	ldr	w1, [x0]
   80058:	d28a0080 	mov	x0, #0x5004                	// #20484
   8005c:	f2a7e420 	movk	x0, #0x3f21, lsl #16
   80060:	32000021 	orr	w1, w1, #0x1
   80064:	b9000001 	str	w1, [x0]
   80068:	d28a0c00 	mov	x0, #0x5060                	// #20576
   8006c:	f2a7e420 	movk	x0, #0x3f21, lsl #16
   80070:	b900001f 	str	wzr, [x0]
   80074:	d28a0980 	mov	x0, #0x504c                	// #20556
   80078:	f2a7e420 	movk	x0, #0x3f21, lsl #16
   8007c:	52800061 	mov	w1, #0x3                   	// #3
   80080:	b9000001 	str	w1, [x0]
   80084:	d28a0a00 	mov	x0, #0x5050                	// #20560
   80088:	f2a7e420 	movk	x0, #0x3f21, lsl #16
   8008c:	b900001f 	str	wzr, [x0]
   80090:	d28a0880 	mov	x0, #0x5044                	// #20548
   80094:	f2a7e420 	movk	x0, #0x3f21, lsl #16
   80098:	b900001f 	str	wzr, [x0]
   8009c:	d28a0900 	mov	x0, #0x5048                	// #20552
   800a0:	f2a7e420 	movk	x0, #0x3f21, lsl #16
   800a4:	528018c1 	mov	w1, #0xc6                  	// #198
   800a8:	b9000001 	str	w1, [x0]
   800ac:	d28a0d00 	mov	x0, #0x5068                	// #20584
   800b0:	f2a7e420 	movk	x0, #0x3f21, lsl #16
   800b4:	528021c1 	mov	w1, #0x10e                 	// #270
   800b8:	b9000001 	str	w1, [x0]
   800bc:	d2800080 	mov	x0, #0x4                   	// #4
   800c0:	f2a7e400 	movk	x0, #0x3f20, lsl #16
   800c4:	b9400013 	ldr	w19, [x0]
   800c8:	120e6673 	and	w19, w19, #0xfffc0fff
   800cc:	52840000 	mov	w0, #0x2000                	// #8192
   800d0:	72a00020 	movk	w0, #0x1, lsl #16
   800d4:	2a000273 	orr	w19, w19, w0
   800d8:	d2800080 	mov	x0, #0x4                   	// #4
   800dc:	f2a7e400 	movk	x0, #0x3f20, lsl #16
   800e0:	b9000013 	str	w19, [x0]
   800e4:	d2801280 	mov	x0, #0x94                  	// #148
   800e8:	f2a7e400 	movk	x0, #0x3f20, lsl #16
   800ec:	b900001f 	str	wzr, [x0]
   800f0:	528012d3 	mov	w19, #0x96                  	// #150
   800f4:	14000002 	b	800fc <uart_init+0xb4>
   800f8:	d503201f 	nop
   800fc:	2a1303e0 	mov	w0, w19
   80100:	51000413 	sub	w19, w0, #0x1
   80104:	7100001f 	cmp	w0, #0x0
   80108:	54ffff81 	b.ne	800f8 <uart_init+0xb0>  // b.any
   8010c:	d2801300 	mov	x0, #0x98                  	// #152
   80110:	f2a7e400 	movk	x0, #0x3f20, lsl #16
   80114:	52980001 	mov	w1, #0xc000                	// #49152
   80118:	b9000001 	str	w1, [x0]
   8011c:	528012d3 	mov	w19, #0x96                  	// #150
   80120:	14000002 	b	80128 <uart_init+0xe0>
   80124:	d503201f 	nop
   80128:	2a1303e0 	mov	w0, w19
   8012c:	51000413 	sub	w19, w0, #0x1
   80130:	7100001f 	cmp	w0, #0x0
   80134:	54ffff81 	b.ne	80124 <uart_init+0xdc>  // b.any
   80138:	d2801300 	mov	x0, #0x98                  	// #152
   8013c:	f2a7e400 	movk	x0, #0x3f20, lsl #16
   80140:	b900001f 	str	wzr, [x0]
   80144:	d28a0c00 	mov	x0, #0x5060                	// #20576
   80148:	f2a7e420 	movk	x0, #0x3f21, lsl #16
   8014c:	52800061 	mov	w1, #0x3                   	// #3
   80150:	b9000001 	str	w1, [x0]
   80154:	14000005 	b	80168 <uart_init+0x120>
   80158:	d28a0800 	mov	x0, #0x5040                	// #20544
   8015c:	f2a7e420 	movk	x0, #0x3f21, lsl #16
   80160:	b9400000 	ldr	w0, [x0]
   80164:	39007fe0 	strb	w0, [sp, #31]
   80168:	d28a0a80 	mov	x0, #0x5054                	// #20564
   8016c:	f2a7e420 	movk	x0, #0x3f21, lsl #16
   80170:	b9400000 	ldr	w0, [x0]
   80174:	12000000 	and	w0, w0, #0x1
   80178:	7100001f 	cmp	w0, #0x0
   8017c:	54fffee1 	b.ne	80158 <uart_init+0x110>  // b.any
   80180:	d503201f 	nop
   80184:	f84207f3 	ldr	x19, [sp], #32
   80188:	d65f03c0 	ret

000000000008018c <uart_send>:
   8018c:	d10043ff 	sub	sp, sp, #0x10
   80190:	b9000fe0 	str	w0, [sp, #12]
   80194:	d503201f 	nop
   80198:	d28a0a80 	mov	x0, #0x5054                	// #20564
   8019c:	f2a7e420 	movk	x0, #0x3f21, lsl #16
   801a0:	b9400000 	ldr	w0, [x0]
   801a4:	121b0000 	and	w0, w0, #0x20
   801a8:	7100001f 	cmp	w0, #0x0
   801ac:	54ffff40 	b.eq	80194 <uart_send+0x8>  // b.none
   801b0:	d28a0800 	mov	x0, #0x5040                	// #20544
   801b4:	f2a7e420 	movk	x0, #0x3f21, lsl #16
   801b8:	b9400fe1 	ldr	w1, [sp, #12]
   801bc:	b9000001 	str	w1, [x0]
   801c0:	d503201f 	nop
   801c4:	910043ff 	add	sp, sp, #0x10
   801c8:	d65f03c0 	ret

00000000000801cc <uart_getc>:
   801cc:	d10043ff 	sub	sp, sp, #0x10
   801d0:	d503201f 	nop
   801d4:	d28a0a80 	mov	x0, #0x5054                	// #20564
   801d8:	f2a7e420 	movk	x0, #0x3f21, lsl #16
   801dc:	b9400000 	ldr	w0, [x0]
   801e0:	12000000 	and	w0, w0, #0x1
   801e4:	7100001f 	cmp	w0, #0x0
   801e8:	54ffff40 	b.eq	801d0 <uart_getc+0x4>  // b.none
   801ec:	d503201f 	nop
   801f0:	d503201f 	nop
   801f4:	d503201f 	nop
   801f8:	d503201f 	nop
   801fc:	d503201f 	nop
   80200:	d28a0800 	mov	x0, #0x5040                	// #20544
   80204:	f2a7e420 	movk	x0, #0x3f21, lsl #16
   80208:	b9400000 	ldr	w0, [x0]
   8020c:	39003fe0 	strb	w0, [sp, #15]
   80210:	39403fe0 	ldrb	w0, [sp, #15]
   80214:	7100341f 	cmp	w0, #0xd
   80218:	54000060 	b.eq	80224 <uart_getc+0x58>  // b.none
   8021c:	39403fe0 	ldrb	w0, [sp, #15]
   80220:	14000002 	b	80228 <uart_getc+0x5c>
   80224:	52800140 	mov	w0, #0xa                   	// #10
   80228:	910043ff 	add	sp, sp, #0x10
   8022c:	d65f03c0 	ret

0000000000080230 <uart_puts>:
   80230:	a9be7bfd 	stp	x29, x30, [sp, #-32]!
   80234:	910003fd 	mov	x29, sp
   80238:	f9000fa0 	str	x0, [x29, #24]
   8023c:	1400000c 	b	8026c <uart_puts+0x3c>
   80240:	f9400fa0 	ldr	x0, [x29, #24]
   80244:	39400000 	ldrb	w0, [x0]
   80248:	7100281f 	cmp	w0, #0xa
   8024c:	54000061 	b.ne	80258 <uart_puts+0x28>  // b.any
   80250:	528001a0 	mov	w0, #0xd                   	// #13
   80254:	97ffffce 	bl	8018c <uart_send>
   80258:	f9400fa0 	ldr	x0, [x29, #24]
   8025c:	91000401 	add	x1, x0, #0x1
   80260:	f9000fa1 	str	x1, [x29, #24]
   80264:	39400000 	ldrb	w0, [x0]
   80268:	97ffffc9 	bl	8018c <uart_send>
   8026c:	f9400fa0 	ldr	x0, [x29, #24]
   80270:	39400000 	ldrb	w0, [x0]
   80274:	7100001f 	cmp	w0, #0x0
   80278:	54fffe41 	b.ne	80240 <uart_puts+0x10>  // b.any
   8027c:	d503201f 	nop
   80280:	a8c27bfd 	ldp	x29, x30, [sp], #32
   80284:	d65f03c0 	ret

0000000000080288 <strcmp>:
   80288:	d10043ff 	sub	sp, sp, #0x10
   8028c:	f90007e0 	str	x0, [sp, #8]
   80290:	f90003e1 	str	x1, [sp]
   80294:	1400000f 	b	802d0 <strcmp+0x48>
   80298:	f94007e0 	ldr	x0, [sp, #8]
   8029c:	39400001 	ldrb	w1, [x0]
   802a0:	f94003e0 	ldr	x0, [sp]
   802a4:	39400000 	ldrb	w0, [x0]
   802a8:	6b00003f 	cmp	w1, w0
   802ac:	54000060 	b.eq	802b8 <strcmp+0x30>  // b.none
   802b0:	52800020 	mov	w0, #0x1                   	// #1
   802b4:	14000014 	b	80304 <strcmp+0x7c>
   802b8:	f94007e0 	ldr	x0, [sp, #8]
   802bc:	91000400 	add	x0, x0, #0x1
   802c0:	f90007e0 	str	x0, [sp, #8]
   802c4:	f94003e0 	ldr	x0, [sp]
   802c8:	91000400 	add	x0, x0, #0x1
   802cc:	f90003e0 	str	x0, [sp]
   802d0:	f94007e0 	ldr	x0, [sp, #8]
   802d4:	39400000 	ldrb	w0, [x0]
   802d8:	7100001f 	cmp	w0, #0x0
   802dc:	54fffde1 	b.ne	80298 <strcmp+0x10>  // b.any
   802e0:	f94007e0 	ldr	x0, [sp, #8]
   802e4:	39400001 	ldrb	w1, [x0]
   802e8:	f94003e0 	ldr	x0, [sp]
   802ec:	39400000 	ldrb	w0, [x0]
   802f0:	6b00003f 	cmp	w1, w0
   802f4:	54000060 	b.eq	80300 <strcmp+0x78>  // b.none
   802f8:	52800020 	mov	w0, #0x1                   	// #1
   802fc:	14000002 	b	80304 <strcmp+0x7c>
   80300:	52800000 	mov	w0, #0x0                   	// #0
   80304:	910043ff 	add	sp, sp, #0x10
   80308:	d65f03c0 	ret

000000000008030c <shell>:
   8030c:	a9bd7bfd 	stp	x29, x30, [sp, #-48]!
   80310:	910003fd 	mov	x29, sp
   80314:	f9000fa0 	str	x0, [x29, #24]
   80318:	b9002fbf 	str	wzr, [x29, #44]
   8031c:	97ffffac 	bl	801cc <uart_getc>
   80320:	3900afa0 	strb	w0, [x29, #43]
   80324:	3940afa0 	ldrb	w0, [x29, #43]
   80328:	7100281f 	cmp	w0, #0xa
   8032c:	54000060 	b.eq	80338 <shell+0x2c>  // b.none
   80330:	3940afa2 	ldrb	w2, [x29, #43]
   80334:	14000002 	b	8033c <shell+0x30>
   80338:	52800002 	mov	w2, #0x0                   	// #0
   8033c:	b9402fa0 	ldr	w0, [x29, #44]
   80340:	11000401 	add	w1, w0, #0x1
   80344:	b9002fa1 	str	w1, [x29, #44]
   80348:	93407c00 	sxtw	x0, w0
   8034c:	f9400fa1 	ldr	x1, [x29, #24]
   80350:	8b000020 	add	x0, x1, x0
   80354:	2a0203e1 	mov	w1, w2
   80358:	39000001 	strb	w1, [x0]
   8035c:	3940afa0 	ldrb	w0, [x29, #43]
   80360:	97ffff8b 	bl	8018c <uart_send>
   80364:	3940afa0 	ldrb	w0, [x29, #43]
   80368:	7100281f 	cmp	w0, #0xa
   8036c:	54fffd81 	b.ne	8031c <shell+0x10>  // b.any
   80370:	d0000000 	adrp	x0, 82000 <cancel_reset+0x1ad8>
   80374:	91000000 	add	x0, x0, #0x0
   80378:	97ffffae 	bl	80230 <uart_puts>
   8037c:	d503201f 	nop
   80380:	a8c37bfd 	ldp	x29, x30, [sp], #48
   80384:	d65f03c0 	ret

0000000000080388 <main>:
   80388:	a9bd7bfd 	stp	x29, x30, [sp, #-48]!
   8038c:	910003fd 	mov	x29, sp
   80390:	97ffff2e 	bl	80048 <uart_init>
   80394:	9400003f 	bl	80490 <print_welcome>
   80398:	d0000000 	adrp	x0, 82000 <cancel_reset+0x1ad8>
   8039c:	91002000 	add	x0, x0, #0x8
   803a0:	97ffffa4 	bl	80230 <uart_puts>
   803a4:	910063a0 	add	x0, x29, #0x18
   803a8:	97ffffd9 	bl	8030c <shell>
   803ac:	d0000000 	adrp	x0, 82000 <cancel_reset+0x1ad8>
   803b0:	91004001 	add	x1, x0, #0x10
   803b4:	910063a0 	add	x0, x29, #0x18
   803b8:	97ffffb4 	bl	80288 <strcmp>
   803bc:	7100001f 	cmp	w0, #0x0
   803c0:	540000a1 	b.ne	803d4 <main+0x4c>  // b.any
   803c4:	d0000000 	adrp	x0, 82000 <cancel_reset+0x1ad8>
   803c8:	91006000 	add	x0, x0, #0x18
   803cc:	97ffff99 	bl	80230 <uart_puts>
   803d0:	17fffff2 	b	80398 <main+0x10>
   803d4:	d0000000 	adrp	x0, 82000 <cancel_reset+0x1ad8>
   803d8:	9100a001 	add	x1, x0, #0x28
   803dc:	910063a0 	add	x0, x29, #0x18
   803e0:	97ffffaa 	bl	80288 <strcmp>
   803e4:	7100001f 	cmp	w0, #0x0
   803e8:	54000161 	b.ne	80414 <main+0x8c>  // b.any
   803ec:	d0000000 	adrp	x0, 82000 <cancel_reset+0x1ad8>
   803f0:	9100c000 	add	x0, x0, #0x30
   803f4:	97ffff8f 	bl	80230 <uart_puts>
   803f8:	d0000000 	adrp	x0, 82000 <cancel_reset+0x1ad8>
   803fc:	91014000 	add	x0, x0, #0x50
   80400:	97ffff8c 	bl	80230 <uart_puts>
   80404:	d0000000 	adrp	x0, 82000 <cancel_reset+0x1ad8>
   80408:	9101e000 	add	x0, x0, #0x78
   8040c:	97ffff89 	bl	80230 <uart_puts>
   80410:	17ffffe2 	b	80398 <main+0x10>
   80414:	d0000000 	adrp	x0, 82000 <cancel_reset+0x1ad8>
   80418:	91024001 	add	x1, x0, #0x90
   8041c:	910063a0 	add	x0, x29, #0x18
   80420:	97ffff9a 	bl	80288 <strcmp>
   80424:	7100001f 	cmp	w0, #0x0
   80428:	54000221 	b.ne	8046c <main+0xe4>  // b.any
   8042c:	5290d400 	mov	w0, #0x86a0                	// #34464
   80430:	72a00020 	movk	w0, #0x1, lsl #16
   80434:	9400002b 	bl	804e0 <reset>
   80438:	d0000000 	adrp	x0, 82000 <cancel_reset+0x1ad8>
   8043c:	91026000 	add	x0, x0, #0x98
   80440:	97ffff7c 	bl	80230 <uart_puts>
   80444:	910063a0 	add	x0, x29, #0x18
   80448:	97ffffb1 	bl	8030c <shell>
   8044c:	d0000000 	adrp	x0, 82000 <cancel_reset+0x1ad8>
   80450:	9102e001 	add	x1, x0, #0xb8
   80454:	910063a0 	add	x0, x29, #0x18
   80458:	97ffff8c 	bl	80288 <strcmp>
   8045c:	7100001f 	cmp	w0, #0x0
   80460:	54fff9c1 	b.ne	80398 <main+0x10>  // b.any
   80464:	94000031 	bl	80528 <cancel_reset>
   80468:	17ffffcc 	b	80398 <main+0x10>
   8046c:	d0000000 	adrp	x0, 82000 <cancel_reset+0x1ad8>
   80470:	91030000 	add	x0, x0, #0xc0
   80474:	97ffff6f 	bl	80230 <uart_puts>
   80478:	910063a0 	add	x0, x29, #0x18
   8047c:	97ffff6d 	bl	80230 <uart_puts>
   80480:	d0000000 	adrp	x0, 82000 <cancel_reset+0x1ad8>
   80484:	91032000 	add	x0, x0, #0xc8
   80488:	97ffff6a 	bl	80230 <uart_puts>
   8048c:	17ffffc3 	b	80398 <main+0x10>

0000000000080490 <print_welcome>:
   80490:	a9be7bfd 	stp	x29, x30, [sp, #-32]!
   80494:	910003fd 	mov	x29, sp
   80498:	d0000000 	adrp	x0, 82000 <cancel_reset+0x1ad8>
   8049c:	91042000 	add	x0, x0, #0x108
   804a0:	f9000fa0 	str	x0, [x29, #24]
   804a4:	f9400fa0 	ldr	x0, [x29, #24]
   804a8:	97ffff62 	bl	80230 <uart_puts>
   804ac:	d503201f 	nop
   804b0:	a8c27bfd 	ldp	x29, x30, [sp], #32
   804b4:	d65f03c0 	ret

00000000000804b8 <set>:
   804b8:	d10043ff 	sub	sp, sp, #0x10
   804bc:	b9000fe0 	str	w0, [sp, #12]
   804c0:	b9000be1 	str	w1, [sp, #8]
   804c4:	b9400fe0 	ldr	w0, [sp, #12]
   804c8:	aa0003e1 	mov	x1, x0
   804cc:	b9400be0 	ldr	w0, [sp, #8]
   804d0:	b9000020 	str	w0, [x1]
   804d4:	d503201f 	nop
   804d8:	910043ff 	add	sp, sp, #0x10
   804dc:	d65f03c0 	ret

00000000000804e0 <reset>:
   804e0:	a9be7bfd 	stp	x29, x30, [sp, #-32]!
   804e4:	910003fd 	mov	x29, sp
   804e8:	b9001fa0 	str	w0, [x29, #28]
   804ec:	52800401 	mov	w1, #0x20                  	// #32
   804f0:	72ab4001 	movk	w1, #0x5a00, lsl #16
   804f4:	52800380 	mov	w0, #0x1c                  	// #28
   804f8:	72a7e200 	movk	w0, #0x3f10, lsl #16
   804fc:	97ffffef 	bl	804b8 <set>
   80500:	b9401fa1 	ldr	w1, [x29, #28]
   80504:	52ab4000 	mov	w0, #0x5a000000            	// #1509949440
   80508:	2a000020 	orr	w0, w1, w0
   8050c:	2a0003e1 	mov	w1, w0
   80510:	52800480 	mov	w0, #0x24                  	// #36
   80514:	72a7e200 	movk	w0, #0x3f10, lsl #16
   80518:	97ffffe8 	bl	804b8 <set>
   8051c:	d503201f 	nop
   80520:	a8c27bfd 	ldp	x29, x30, [sp], #32
   80524:	d65f03c0 	ret

0000000000080528 <cancel_reset>:
   80528:	a9bf7bfd 	stp	x29, x30, [sp, #-16]!
   8052c:	910003fd 	mov	x29, sp
   80530:	52ab4001 	mov	w1, #0x5a000000            	// #1509949440
   80534:	52800380 	mov	w0, #0x1c                  	// #28
   80538:	72a7e200 	movk	w0, #0x3f10, lsl #16
   8053c:	97ffffdf 	bl	804b8 <set>
   80540:	52ab4001 	mov	w1, #0x5a000000            	// #1509949440
   80544:	52800480 	mov	w0, #0x24                  	// #36
   80548:	72a7e200 	movk	w0, #0x3f10, lsl #16
   8054c:	97ffffdb 	bl	804b8 <set>
   80550:	d503201f 	nop
   80554:	a8c17bfd 	ldp	x29, x30, [sp], #16
   80558:	d65f03c0 	ret

Disassembly of section .data:

0000000000082000 <bss_begin-0x250>:
   82000:	0000000d 	.word	0x0000000d
   82004:	00000000 	.word	0x00000000
   82008:	00000023 	.word	0x00000023
   8200c:	00000000 	.word	0x00000000
   82010:	6c6c6568 	.word	0x6c6c6568
   82014:	0000006f 	.word	0x0000006f
   82018:	6c6c6548 	.word	0x6c6c6548
   8201c:	6f57206f 	.word	0x6f57206f
   82020:	21646c72 	.word	0x21646c72
   82024:	0000000a 	.word	0x0000000a
   82028:	706c6568 	.word	0x706c6568
   8202c:	00000000 	.word	0x00000000
   82030:	6c6c6568 	.word	0x6c6c6568
   82034:	70203a6f 	.word	0x70203a6f
   82038:	746e6972 	.word	0x746e6972
   8203c:	6c654820 	.word	0x6c654820
   82040:	57206f6c 	.word	0x57206f6c
   82044:	646c726f 	.word	0x646c726f
   82048:	00000a21 	.word	0x00000a21
   8204c:	00000000 	.word	0x00000000
   82050:	706c6568 	.word	0x706c6568
   82054:	7270203a 	.word	0x7270203a
   82058:	20746e69 	.word	0x20746e69
   8205c:	206c6c61 	.word	0x206c6c61
   82060:	69617661 	.word	0x69617661
   82064:	6c62616c 	.word	0x6c62616c
   82068:	6f632065 	.word	0x6f632065
   8206c:	6e616d6d 	.word	0x6e616d6d
   82070:	000a7364 	.word	0x000a7364
   82074:	00000000 	.word	0x00000000
   82078:	6f626572 	.word	0x6f626572
   8207c:	203a746f 	.word	0x203a746f
   82080:	6f626572 	.word	0x6f626572
   82084:	7320746f 	.word	0x7320746f
   82088:	65747379 	.word	0x65747379
   8208c:	00000a6d 	.word	0x00000a6d
   82090:	6f626572 	.word	0x6f626572
   82094:	0000746f 	.word	0x0000746f
   82098:	75706e69 	.word	0x75706e69
   8209c:	20632074 	.word	0x20632074
   820a0:	63206f74 	.word	0x63206f74
   820a4:	65636e61 	.word	0x65636e61
   820a8:	6572206c 	.word	0x6572206c
   820ac:	0a746573 	.word	0x0a746573
	...
   820b8:	00000063 	.word	0x00000063
   820bc:	00000000 	.word	0x00000000
   820c0:	6f727245 	.word	0x6f727245
   820c4:	00203a72 	.word	0x00203a72
   820c8:	6d6f6320 	.word	0x6d6f6320
   820cc:	646e616d 	.word	0x646e616d
   820d0:	746f6e20 	.word	0x746f6e20
   820d4:	756f6620 	.word	0x756f6620
   820d8:	2021646e 	.word	0x2021646e
   820dc:	20797254 	.word	0x20797254
   820e0:	6c65683c 	.word	0x6c65683c
   820e4:	74203e70 	.word	0x74203e70
   820e8:	6863206f 	.word	0x6863206f
   820ec:	206b6365 	.word	0x206b6365
   820f0:	206c6c61 	.word	0x206c6c61
   820f4:	69617661 	.word	0x69617661
   820f8:	6c62616c 	.word	0x6c62616c
   820fc:	6f632065 	.word	0x6f632065
   82100:	6e616d6d 	.word	0x6e616d6d
   82104:	000a7364 	.word	0x000a7364
   82108:	205f200a 	.word	0x205f200a
   8210c:	205f2020 	.word	0x205f2020
   82110:	20202020 	.word	0x20202020
   82114:	5f205f20 	.word	0x5f205f20
   82118:	20202020 	.word	0x20202020
   8211c:	20202020 	.word	0x20202020
   82120:	205f5f20 	.word	0x205f5f20
   82124:	20202020 	.word	0x20202020
   82128:	5f202020 	.word	0x5f202020
   8212c:	2020205f 	.word	0x2020205f
   82130:	20202020 	.word	0x20202020
   82134:	205f2020 	.word	0x205f2020
   82138:	20202020 	.word	0x20202020
   8213c:	7c0a205f 	.word	0x7c0a205f
   82140:	7c207c20 	.word	0x7c207c20
   82144:	5f207c20 	.word	0x5f207c20
   82148:	207c5f5f 	.word	0x207c5f5f
   8214c:	207c207c 	.word	0x207c207c
   82150:	205f5f5f 	.word	0x205f5f5f
   82154:	5c202020 	.word	0x5c202020
   82158:	20205c20 	.word	0x20205c20
   8215c:	20202020 	.word	0x20202020
   82160:	5f2f202f 	.word	0x5f2f202f
   82164:	5f20205f 	.word	0x5f20205f
   82168:	7c5f5f20 	.word	0x7c5f5f20
   8216c:	5f207c20 	.word	0x5f207c20
   82170:	7c207c5f 	.word	0x7c207c5f
   82174:	7c207c0a 	.word	0x7c207c0a
   82178:	7c207c5f 	.word	0x7c207c5f
   8217c:	205f202f 	.word	0x205f202f
   82180:	207c205c 	.word	0x207c205c
   82184:	5f202f7c 	.word	0x5f202f7c
   82188:	20205c20 	.word	0x20205c20
   8218c:	205c2020 	.word	0x205c2020
   82190:	5c2f205c 	.word	0x5c2f205c
   82194:	2f202f20 	.word	0x2f202f20
   82198:	5c205f20 	.word	0x5c205f20
   8219c:	5f27207c 	.word	0x5f27207c
   821a0:	7c207c5f 	.word	0x7c207c5f
   821a4:	605f202f 	.word	0x605f202f
   821a8:	7c0a7c20 	.word	0x7c0a7c20
   821ac:	205f2020 	.word	0x205f2020
   821b0:	20207c20 	.word	0x20207c20
   821b4:	202f5f5f 	.word	0x202f5f5f
   821b8:	207c207c 	.word	0x207c207c
   821bc:	20295f28 	.word	0x20295f28
   821c0:	2020207c 	.word	0x2020207c
   821c4:	56205c20 	.word	0x56205c20
   821c8:	20562020 	.word	0x20562020
   821cc:	5f28202f 	.word	0x5f28202f
   821d0:	207c2029 	.word	0x207c2029
   821d4:	7c20207c 	.word	0x7c20207c
   821d8:	28207c20 	.word	0x28207c20
   821dc:	7c207c5f 	.word	0x7c207c5f
   821e0:	7c5f7c0a 	.word	0x7c5f7c0a
   821e4:	7c5f7c20 	.word	0x7c5f7c20
   821e8:	5f5f5f5c 	.word	0x5f5f5f5c
   821ec:	5f7c5f7c 	.word	0x5f7c5f7c
   821f0:	5f5f5c7c 	.word	0x5f5f5c7c
   821f4:	2920285f 	.word	0x2920285f
   821f8:	20202020 	.word	0x20202020
   821fc:	5c2f5f5c 	.word	0x5c2f5f5c
   82200:	5c202f5f 	.word	0x5c202f5f
   82204:	2f5f5f5f 	.word	0x2f5f5f5f
   82208:	207c5f7c 	.word	0x207c5f7c
   8220c:	7c5f7c20 	.word	0x7c5f7c20
   82210:	2c5f5f5c 	.word	0x2c5f5f5c
   82214:	200a7c5f 	.word	0x200a7c5f
   82218:	20202020 	.word	0x20202020
   8221c:	20202020 	.word	0x20202020
   82220:	20202020 	.word	0x20202020
   82224:	20202020 	.word	0x20202020
   82228:	7c202020 	.word	0x7c202020
   8222c:	2020202f 	.word	0x2020202f
   82230:	20202020 	.word	0x20202020
   82234:	20202020 	.word	0x20202020
   82238:	20202020 	.word	0x20202020
   8223c:	20202020 	.word	0x20202020
   82240:	20202020 	.word	0x20202020
   82244:	20202020 	.word	0x20202020
   82248:	20202020 	.word	0x20202020
   8224c:	0000000a 	.word	0x0000000a

Disassembly of section .comment:

0000000000000000 <.comment>:
   0:	3a434347 	ccmn	w26, w3, #0x7, mi  // mi = first
   4:	694c2820 	ldpsw	x0, x10, [x1, #96]
   8:	6f72616e 	umlsl2	v14.4s, v11.8h, v2.h[3]
   c:	43434720 	.inst	0x43434720 ; undefined
  10:	352e3720 	cbnz	w0, 5c6f4 <_start-0x2390c>
  14:	3130322d 	adds	w13, w17, #0xc0c
  18:	32312e39 	orr	w25, w17, #0x7ff8000
  1c:	2e372029 	usubl	v9.8h, v1.8b, v23.8b
  20:	00302e35 	.inst	0x00302e35 ; NYI
