
build/kernel8.elf:     file format elf64-littleaarch64


Disassembly of section .text:

0000000000080000 <_start>:
   80000:	d53800a0 	mrs	x0, mpidr_el1
   80004:	92400400 	and	x0, x0, #0x3
   80008:	b4000060 	cbz	x0, 80014 <_start+0x14>
   8000c:	d503205f 	wfe
   80010:	17ffffff 	b	8000c <_start+0xc>
   80014:	94001373 	bl	84de0 <from_el2_to_el1>
   80018:	94000bfa 	bl	83000 <set_exception_vector_table>
   8001c:	58000160 	ldr	x0, 80048 <memzero+0x1c>
   80020:	58000181 	ldr	x1, 80050 <memzero+0x24>
   80024:	cb000021 	sub	x1, x1, x0
   80028:	b4000081 	cbz	x1, 80038 <memzero+0xc>

000000000008002c <memzero>:
   8002c:	f800841f 	str	xzr, [x0], #8
   80030:	f1002021 	subs	x1, x1, #0x8
   80034:	54ffffcc 	b.gt	8002c <memzero>
   80038:	58000100 	ldr	x0, 80058 <memzero+0x2c>
   8003c:	9100001f 	mov	sp, x0
   80040:	94000f17 	bl	83c9c <main>
   80044:	17fffff2 	b	8000c <_start+0xc>
   80048:	00085788 	.word	0x00085788
   8004c:	00000000 	.word	0x00000000
   80050:	00085ec8 	.word	0x00085ec8
   80054:	00000000 	.word	0x00000000
   80058:	000a0000 	.word	0x000a0000
   8005c:	00000000 	.word	0x00000000

0000000000080060 <register_filesystem>:
   80060:	a9bd7bfd 	stp	x29, x30, [sp, #-48]!
   80064:	910003fd 	mov	x29, sp
   80068:	f9000fa0 	str	x0, [x29, #24]
   8006c:	528000c0 	mov	w0, #0x6                   	// #6
   80070:	9400032a 	bl	80d18 <kmalloc>
   80074:	f90017a0 	str	x0, [x29, #40]
   80078:	f94017a0 	ldr	x0, [x29, #40]
   8007c:	52800e81 	mov	w1, #0x74                  	// #116
   80080:	39000001 	strb	w1, [x0]
   80084:	f94017a0 	ldr	x0, [x29, #40]
   80088:	91000400 	add	x0, x0, #0x1
   8008c:	52800da1 	mov	w1, #0x6d                  	// #109
   80090:	39000001 	strb	w1, [x0]
   80094:	f94017a0 	ldr	x0, [x29, #40]
   80098:	91000800 	add	x0, x0, #0x2
   8009c:	52800e01 	mov	w1, #0x70                  	// #112
   800a0:	39000001 	strb	w1, [x0]
   800a4:	f94017a0 	ldr	x0, [x29, #40]
   800a8:	91000c00 	add	x0, x0, #0x3
   800ac:	52800cc1 	mov	w1, #0x66                  	// #102
   800b0:	39000001 	strb	w1, [x0]
   800b4:	f94017a0 	ldr	x0, [x29, #40]
   800b8:	91001000 	add	x0, x0, #0x4
   800bc:	52800e61 	mov	w1, #0x73                  	// #115
   800c0:	39000001 	strb	w1, [x0]
   800c4:	f94017a0 	ldr	x0, [x29, #40]
   800c8:	91001400 	add	x0, x0, #0x5
   800cc:	3900001f 	strb	wzr, [x0]
   800d0:	f9400fa0 	ldr	x0, [x29, #24]
   800d4:	f94017a1 	ldr	x1, [x29, #40]
   800d8:	f9000001 	str	x1, [x0]
   800dc:	b0000020 	adrp	x0, 85000 <core_timer_enable+0x1b8>
   800e0:	911e6000 	add	x0, x0, #0x798
   800e4:	aa0003e1 	mov	x1, x0
   800e8:	f9400fa0 	ldr	x0, [x29, #24]
   800ec:	94001322 	bl	84d74 <tmpfs_setup>
   800f0:	93407c00 	sxtw	x0, w0
   800f4:	aa0003e1 	mov	x1, x0
   800f8:	f9400fa0 	ldr	x0, [x29, #24]
   800fc:	f9000401 	str	x1, [x0, #8]
   80100:	b0000020 	adrp	x0, 85000 <core_timer_enable+0x1b8>
   80104:	911e2000 	add	x0, x0, #0x788
   80108:	90000021 	adrp	x1, 84000 <sys_fork+0xc>
   8010c:	91192021 	add	x1, x1, #0x648
   80110:	f9000001 	str	x1, [x0]
   80114:	b0000020 	adrp	x0, 85000 <core_timer_enable+0x1b8>
   80118:	911e4000 	add	x0, x0, #0x790
   8011c:	90000021 	adrp	x1, 84000 <sys_fork+0xc>
   80120:	911f2021 	add	x1, x1, #0x7c8
   80124:	f9000001 	str	x1, [x0]
   80128:	52800000 	mov	w0, #0x0                   	// #0
   8012c:	a8c37bfd 	ldp	x29, x30, [sp], #48
   80130:	d65f03c0 	ret

0000000000080134 <vfs_open>:
   80134:	a9bc7bfd 	stp	x29, x30, [sp, #-64]!
   80138:	910003fd 	mov	x29, sp
   8013c:	f9000fa0 	str	x0, [x29, #24]
   80140:	b90017a1 	str	w1, [x29, #20]
   80144:	b0000020 	adrp	x0, 85000 <core_timer_enable+0x1b8>
   80148:	911e6000 	add	x0, x0, #0x798
   8014c:	f9400000 	ldr	x0, [x0]
   80150:	f9001fa0 	str	x0, [x29, #56]
   80154:	52800400 	mov	w0, #0x20                  	// #32
   80158:	940002f0 	bl	80d18 <kmalloc>
   8015c:	f90013a0 	str	x0, [x29, #32]
   80160:	910083a0 	add	x0, x29, #0x20
   80164:	f9400fa2 	ldr	x2, [x29, #24]
   80168:	aa0003e1 	mov	x1, x0
   8016c:	f9401fa0 	ldr	x0, [x29, #56]
   80170:	94001224 	bl	84a00 <tmpfs_lookup>
   80174:	b90037a0 	str	w0, [x29, #52]
   80178:	b94037a0 	ldr	w0, [x29, #52]
   8017c:	7100001f 	cmp	w0, #0x0
   80180:	5400024a 	b.ge	801c8 <vfs_open+0x94>  // b.tcont
   80184:	b94017a0 	ldr	w0, [x29, #20]
   80188:	12000000 	and	w0, w0, #0x1
   8018c:	7100001f 	cmp	w0, #0x0
   80190:	540000a1 	b.ne	801a4 <vfs_open+0x70>  // b.any
   80194:	90000020 	adrp	x0, 84000 <sys_fork+0xc>
   80198:	9139c000 	add	x0, x0, #0xe70
   8019c:	940000c9 	bl	804c0 <uart_puts>
   801a0:	1400000b 	b	801cc <vfs_open+0x98>
   801a4:	f9401fa0 	ldr	x0, [x29, #56]
   801a8:	f9400400 	ldr	x0, [x0, #8]
   801ac:	f9400403 	ldr	x3, [x0, #8]
   801b0:	910083a0 	add	x0, x29, #0x20
   801b4:	f9400fa2 	ldr	x2, [x29, #24]
   801b8:	aa0003e1 	mov	x1, x0
   801bc:	f9401fa0 	ldr	x0, [x29, #56]
   801c0:	d63f0060 	blr	x3
   801c4:	14000002 	b	801cc <vfs_open+0x98>
   801c8:	d503201f 	nop
   801cc:	52800400 	mov	w0, #0x20                  	// #32
   801d0:	940002d2 	bl	80d18 <kmalloc>
   801d4:	f90017a0 	str	x0, [x29, #40]
   801d8:	f94013a1 	ldr	x1, [x29, #32]
   801dc:	f94017a0 	ldr	x0, [x29, #40]
   801e0:	f9000001 	str	x1, [x0]
   801e4:	f94017a0 	ldr	x0, [x29, #40]
   801e8:	f900041f 	str	xzr, [x0, #8]
   801ec:	52800200 	mov	w0, #0x10                  	// #16
   801f0:	940002ca 	bl	80d18 <kmalloc>
   801f4:	aa0003e1 	mov	x1, x0
   801f8:	f94017a0 	ldr	x0, [x29, #40]
   801fc:	f9000801 	str	x1, [x0, #16]
   80200:	f94017a0 	ldr	x0, [x29, #40]
   80204:	f9400800 	ldr	x0, [x0, #16]
   80208:	b0000021 	adrp	x1, 85000 <core_timer_enable+0x1b8>
   8020c:	911e4021 	add	x1, x1, #0x790
   80210:	f9400021 	ldr	x1, [x1]
   80214:	f9000401 	str	x1, [x0, #8]
   80218:	f94017a0 	ldr	x0, [x29, #40]
   8021c:	f9400800 	ldr	x0, [x0, #16]
   80220:	b0000021 	adrp	x1, 85000 <core_timer_enable+0x1b8>
   80224:	911e2021 	add	x1, x1, #0x788
   80228:	f9400021 	ldr	x1, [x1]
   8022c:	f9000001 	str	x1, [x0]
   80230:	f94017a0 	ldr	x0, [x29, #40]
   80234:	b94017a1 	ldr	w1, [x29, #20]
   80238:	b9001801 	str	w1, [x0, #24]
   8023c:	f94017a0 	ldr	x0, [x29, #40]
   80240:	a8c47bfd 	ldp	x29, x30, [sp], #64
   80244:	d65f03c0 	ret

0000000000080248 <vfs_close>:
   80248:	a9be7bfd 	stp	x29, x30, [sp, #-32]!
   8024c:	910003fd 	mov	x29, sp
   80250:	f9000fa0 	str	x0, [x29, #24]
   80254:	f9400fa0 	ldr	x0, [x29, #24]
   80258:	f9400800 	ldr	x0, [x0, #16]
   8025c:	52800201 	mov	w1, #0x10                  	// #16
   80260:	94000363 	bl	80fec <free_page>
   80264:	f9400fa0 	ldr	x0, [x29, #24]
   80268:	52800101 	mov	w1, #0x8                   	// #8
   8026c:	94000360 	bl	80fec <free_page>
   80270:	52800000 	mov	w0, #0x0                   	// #0
   80274:	a8c27bfd 	ldp	x29, x30, [sp], #32
   80278:	d65f03c0 	ret

000000000008027c <vfs_write>:
   8027c:	a9bd7bfd 	stp	x29, x30, [sp, #-48]!
   80280:	910003fd 	mov	x29, sp
   80284:	f90017a0 	str	x0, [x29, #40]
   80288:	f90013a1 	str	x1, [x29, #32]
   8028c:	f9000fa2 	str	x2, [x29, #24]
   80290:	f94017a0 	ldr	x0, [x29, #40]
   80294:	f9400800 	ldr	x0, [x0, #16]
   80298:	f9400003 	ldr	x3, [x0]
   8029c:	f9400fa2 	ldr	x2, [x29, #24]
   802a0:	f94013a1 	ldr	x1, [x29, #32]
   802a4:	f94017a0 	ldr	x0, [x29, #40]
   802a8:	d63f0060 	blr	x3
   802ac:	a8c37bfd 	ldp	x29, x30, [sp], #48
   802b0:	d65f03c0 	ret

00000000000802b4 <vfs_read>:
   802b4:	a9bd7bfd 	stp	x29, x30, [sp, #-48]!
   802b8:	910003fd 	mov	x29, sp
   802bc:	f90017a0 	str	x0, [x29, #40]
   802c0:	f90013a1 	str	x1, [x29, #32]
   802c4:	f9000fa2 	str	x2, [x29, #24]
   802c8:	f94017a0 	ldr	x0, [x29, #40]
   802cc:	f9400800 	ldr	x0, [x0, #16]
   802d0:	f9400403 	ldr	x3, [x0, #8]
   802d4:	f9400fa2 	ldr	x2, [x29, #24]
   802d8:	f94013a1 	ldr	x1, [x29, #32]
   802dc:	f94017a0 	ldr	x0, [x29, #40]
   802e0:	d63f0060 	blr	x3
   802e4:	a8c37bfd 	ldp	x29, x30, [sp], #48
   802e8:	d65f03c0 	ret

00000000000802ec <uart_init>:
   802ec:	f81e0ff3 	str	x19, [sp, #-32]!
   802f0:	d28a0080 	mov	x0, #0x5004                	// #20484
   802f4:	f2a7e420 	movk	x0, #0x3f21, lsl #16
   802f8:	d28a0081 	mov	x1, #0x5004                	// #20484
   802fc:	f2a7e421 	movk	x1, #0x3f21, lsl #16
   80300:	b9400021 	ldr	w1, [x1]
   80304:	32000021 	orr	w1, w1, #0x1
   80308:	b9000001 	str	w1, [x0]
   8030c:	d28a0c00 	mov	x0, #0x5060                	// #20576
   80310:	f2a7e420 	movk	x0, #0x3f21, lsl #16
   80314:	b900001f 	str	wzr, [x0]
   80318:	d28a0980 	mov	x0, #0x504c                	// #20556
   8031c:	f2a7e420 	movk	x0, #0x3f21, lsl #16
   80320:	52800061 	mov	w1, #0x3                   	// #3
   80324:	b9000001 	str	w1, [x0]
   80328:	d28a0a00 	mov	x0, #0x5050                	// #20560
   8032c:	f2a7e420 	movk	x0, #0x3f21, lsl #16
   80330:	b900001f 	str	wzr, [x0]
   80334:	d28a0880 	mov	x0, #0x5044                	// #20548
   80338:	f2a7e420 	movk	x0, #0x3f21, lsl #16
   8033c:	b900001f 	str	wzr, [x0]
   80340:	d28a0900 	mov	x0, #0x5048                	// #20552
   80344:	f2a7e420 	movk	x0, #0x3f21, lsl #16
   80348:	528018c1 	mov	w1, #0xc6                  	// #198
   8034c:	b9000001 	str	w1, [x0]
   80350:	d28a0d00 	mov	x0, #0x5068                	// #20584
   80354:	f2a7e420 	movk	x0, #0x3f21, lsl #16
   80358:	528021c1 	mov	w1, #0x10e                 	// #270
   8035c:	b9000001 	str	w1, [x0]
   80360:	d2800080 	mov	x0, #0x4                   	// #4
   80364:	f2a7e400 	movk	x0, #0x3f20, lsl #16
   80368:	b9400013 	ldr	w19, [x0]
   8036c:	120e6673 	and	w19, w19, #0xfffc0fff
   80370:	52840000 	mov	w0, #0x2000                	// #8192
   80374:	72a00020 	movk	w0, #0x1, lsl #16
   80378:	2a000273 	orr	w19, w19, w0
   8037c:	d2800080 	mov	x0, #0x4                   	// #4
   80380:	f2a7e400 	movk	x0, #0x3f20, lsl #16
   80384:	b9000013 	str	w19, [x0]
   80388:	d2801280 	mov	x0, #0x94                  	// #148
   8038c:	f2a7e400 	movk	x0, #0x3f20, lsl #16
   80390:	b900001f 	str	wzr, [x0]
   80394:	528012d3 	mov	w19, #0x96                  	// #150
   80398:	14000002 	b	803a0 <uart_init+0xb4>
   8039c:	d503201f 	nop
   803a0:	2a1303e0 	mov	w0, w19
   803a4:	51000413 	sub	w19, w0, #0x1
   803a8:	7100001f 	cmp	w0, #0x0
   803ac:	54ffff81 	b.ne	8039c <uart_init+0xb0>  // b.any
   803b0:	d2801300 	mov	x0, #0x98                  	// #152
   803b4:	f2a7e400 	movk	x0, #0x3f20, lsl #16
   803b8:	52980001 	mov	w1, #0xc000                	// #49152
   803bc:	b9000001 	str	w1, [x0]
   803c0:	528012d3 	mov	w19, #0x96                  	// #150
   803c4:	14000002 	b	803cc <uart_init+0xe0>
   803c8:	d503201f 	nop
   803cc:	2a1303e0 	mov	w0, w19
   803d0:	51000413 	sub	w19, w0, #0x1
   803d4:	7100001f 	cmp	w0, #0x0
   803d8:	54ffff81 	b.ne	803c8 <uart_init+0xdc>  // b.any
   803dc:	d2801300 	mov	x0, #0x98                  	// #152
   803e0:	f2a7e400 	movk	x0, #0x3f20, lsl #16
   803e4:	b900001f 	str	wzr, [x0]
   803e8:	d28a0c00 	mov	x0, #0x5060                	// #20576
   803ec:	f2a7e420 	movk	x0, #0x3f21, lsl #16
   803f0:	52800061 	mov	w1, #0x3                   	// #3
   803f4:	b9000001 	str	w1, [x0]
   803f8:	14000005 	b	8040c <uart_init+0x120>
   803fc:	d28a0800 	mov	x0, #0x5040                	// #20544
   80400:	f2a7e420 	movk	x0, #0x3f21, lsl #16
   80404:	b9400000 	ldr	w0, [x0]
   80408:	39007fe0 	strb	w0, [sp, #31]
   8040c:	d28a0a80 	mov	x0, #0x5054                	// #20564
   80410:	f2a7e420 	movk	x0, #0x3f21, lsl #16
   80414:	b9400000 	ldr	w0, [x0]
   80418:	12000000 	and	w0, w0, #0x1
   8041c:	7100001f 	cmp	w0, #0x0
   80420:	54fffee1 	b.ne	803fc <uart_init+0x110>  // b.any
   80424:	d503201f 	nop
   80428:	f84207f3 	ldr	x19, [sp], #32
   8042c:	d65f03c0 	ret

0000000000080430 <uart_send>:
   80430:	d10043ff 	sub	sp, sp, #0x10
   80434:	b9000fe0 	str	w0, [sp, #12]
   80438:	d503201f 	nop
   8043c:	d28a0a80 	mov	x0, #0x5054                	// #20564
   80440:	f2a7e420 	movk	x0, #0x3f21, lsl #16
   80444:	b9400000 	ldr	w0, [x0]
   80448:	121b0000 	and	w0, w0, #0x20
   8044c:	7100001f 	cmp	w0, #0x0
   80450:	54ffff40 	b.eq	80438 <uart_send+0x8>  // b.none
   80454:	d28a0800 	mov	x0, #0x5040                	// #20544
   80458:	f2a7e420 	movk	x0, #0x3f21, lsl #16
   8045c:	b9400fe1 	ldr	w1, [sp, #12]
   80460:	b9000001 	str	w1, [x0]
   80464:	d503201f 	nop
   80468:	910043ff 	add	sp, sp, #0x10
   8046c:	d65f03c0 	ret

0000000000080470 <uart_getc>:
   80470:	d10043ff 	sub	sp, sp, #0x10
   80474:	d503201f 	nop
   80478:	d28a0a80 	mov	x0, #0x5054                	// #20564
   8047c:	f2a7e420 	movk	x0, #0x3f21, lsl #16
   80480:	b9400000 	ldr	w0, [x0]
   80484:	12000000 	and	w0, w0, #0x1
   80488:	7100001f 	cmp	w0, #0x0
   8048c:	54ffff40 	b.eq	80474 <uart_getc+0x4>  // b.none
   80490:	d28a0800 	mov	x0, #0x5040                	// #20544
   80494:	f2a7e420 	movk	x0, #0x3f21, lsl #16
   80498:	b9400000 	ldr	w0, [x0]
   8049c:	39003fe0 	strb	w0, [sp, #15]
   804a0:	39403fe0 	ldrb	w0, [sp, #15]
   804a4:	7100341f 	cmp	w0, #0xd
   804a8:	54000060 	b.eq	804b4 <uart_getc+0x44>  // b.none
   804ac:	39403fe0 	ldrb	w0, [sp, #15]
   804b0:	14000002 	b	804b8 <uart_getc+0x48>
   804b4:	52800140 	mov	w0, #0xa                   	// #10
   804b8:	910043ff 	add	sp, sp, #0x10
   804bc:	d65f03c0 	ret

00000000000804c0 <uart_puts>:
   804c0:	a9be7bfd 	stp	x29, x30, [sp, #-32]!
   804c4:	910003fd 	mov	x29, sp
   804c8:	f9000fa0 	str	x0, [x29, #24]
   804cc:	1400000c 	b	804fc <uart_puts+0x3c>
   804d0:	f9400fa0 	ldr	x0, [x29, #24]
   804d4:	39400000 	ldrb	w0, [x0]
   804d8:	7100281f 	cmp	w0, #0xa
   804dc:	54000061 	b.ne	804e8 <uart_puts+0x28>  // b.any
   804e0:	528001a0 	mov	w0, #0xd                   	// #13
   804e4:	97ffffd3 	bl	80430 <uart_send>
   804e8:	f9400fa0 	ldr	x0, [x29, #24]
   804ec:	91000401 	add	x1, x0, #0x1
   804f0:	f9000fa1 	str	x1, [x29, #24]
   804f4:	39400000 	ldrb	w0, [x0]
   804f8:	97ffffce 	bl	80430 <uart_send>
   804fc:	f9400fa0 	ldr	x0, [x29, #24]
   80500:	39400000 	ldrb	w0, [x0]
   80504:	7100001f 	cmp	w0, #0x0
   80508:	54fffe41 	b.ne	804d0 <uart_puts+0x10>  // b.any
   8050c:	d503201f 	nop
   80510:	a8c27bfd 	ldp	x29, x30, [sp], #32
   80514:	d65f03c0 	ret

0000000000080518 <uart_read_line>:
   80518:	a9bd7bfd 	stp	x29, x30, [sp, #-48]!
   8051c:	910003fd 	mov	x29, sp
   80520:	f9000fa0 	str	x0, [x29, #24]
   80524:	b90017a1 	str	w1, [x29, #20]
   80528:	b9002fbf 	str	wzr, [x29, #44]
   8052c:	14000018 	b	8058c <uart_read_line+0x74>
   80530:	97ffffd0 	bl	80470 <uart_getc>
   80534:	3900afa0 	strb	w0, [x29, #43]
   80538:	b94017a0 	ldr	w0, [x29, #20]
   8053c:	7100001f 	cmp	w0, #0x0
   80540:	54000060 	b.eq	8054c <uart_read_line+0x34>  // b.none
   80544:	3940afa0 	ldrb	w0, [x29, #43]
   80548:	97ffffba 	bl	80430 <uart_send>
   8054c:	3940afa0 	ldrb	w0, [x29, #43]
   80550:	7100281f 	cmp	w0, #0xa
   80554:	54000140 	b.eq	8057c <uart_read_line+0x64>  // b.none
   80558:	b9802fa0 	ldrsw	x0, [x29, #44]
   8055c:	f9400fa1 	ldr	x1, [x29, #24]
   80560:	8b000020 	add	x0, x1, x0
   80564:	3940afa1 	ldrb	w1, [x29, #43]
   80568:	39000001 	strb	w1, [x0]
   8056c:	b9402fa0 	ldr	w0, [x29, #44]
   80570:	11000400 	add	w0, w0, #0x1
   80574:	b9002fa0 	str	w0, [x29, #44]
   80578:	14000005 	b	8058c <uart_read_line+0x74>
   8057c:	b9802fa0 	ldrsw	x0, [x29, #44]
   80580:	f9400fa1 	ldr	x1, [x29, #24]
   80584:	8b000020 	add	x0, x1, x0
   80588:	3900001f 	strb	wzr, [x0]
   8058c:	3940afa0 	ldrb	w0, [x29, #43]
   80590:	7100281f 	cmp	w0, #0xa
   80594:	54fffce1 	b.ne	80530 <uart_read_line+0x18>  // b.any
   80598:	d503201f 	nop
   8059c:	a8c37bfd 	ldp	x29, x30, [sp], #48
   805a0:	d65f03c0 	ret

00000000000805a4 <uart_puts_int>:
   805a4:	a9bd7bfd 	stp	x29, x30, [sp, #-48]!
   805a8:	910003fd 	mov	x29, sp
   805ac:	b9001fa0 	str	w0, [x29, #28]
   805b0:	f90017bf 	str	xzr, [x29, #40]
   805b4:	f94017a1 	ldr	x1, [x29, #40]
   805b8:	b9401fa0 	ldr	w0, [x29, #28]
   805bc:	94000f60 	bl	8433c <itoa>
   805c0:	f94017a0 	ldr	x0, [x29, #40]
   805c4:	97ffffbf 	bl	804c0 <uart_puts>
   805c8:	d503201f 	nop
   805cc:	a8c37bfd 	ldp	x29, x30, [sp], #48
   805d0:	d65f03c0 	ret

00000000000805d4 <uart_puts_hex>:
   805d4:	a9bd7bfd 	stp	x29, x30, [sp, #-48]!
   805d8:	910003fd 	mov	x29, sp
   805dc:	f9000fa0 	str	x0, [x29, #24]
   805e0:	b9002bbf 	str	wzr, [x29, #40]
   805e4:	52800380 	mov	w0, #0x1c                  	// #28
   805e8:	b9002fa0 	str	w0, [x29, #44]
   805ec:	1400001c 	b	8065c <uart_puts_hex+0x88>
   805f0:	b9402fa0 	ldr	w0, [x29, #44]
   805f4:	f9400fa1 	ldr	x1, [x29, #24]
   805f8:	9ac02420 	lsr	x0, x1, x0
   805fc:	12000c00 	and	w0, w0, #0xf
   80600:	b90027a0 	str	w0, [x29, #36]
   80604:	b94027a0 	ldr	w0, [x29, #36]
   80608:	7100001f 	cmp	w0, #0x0
   8060c:	54000060 	b.eq	80618 <uart_puts_hex+0x44>  // b.none
   80610:	52800020 	mov	w0, #0x1                   	// #1
   80614:	b9002ba0 	str	w0, [x29, #40]
   80618:	b94027a0 	ldr	w0, [x29, #36]
   8061c:	7100241f 	cmp	w0, #0x9
   80620:	54000069 	b.ls	8062c <uart_puts_hex+0x58>  // b.plast
   80624:	528006e0 	mov	w0, #0x37                  	// #55
   80628:	14000002 	b	80630 <uart_puts_hex+0x5c>
   8062c:	52800600 	mov	w0, #0x30                  	// #48
   80630:	b94027a1 	ldr	w1, [x29, #36]
   80634:	0b000020 	add	w0, w1, w0
   80638:	b90027a0 	str	w0, [x29, #36]
   8063c:	b9402ba0 	ldr	w0, [x29, #40]
   80640:	7100001f 	cmp	w0, #0x0
   80644:	54000060 	b.eq	80650 <uart_puts_hex+0x7c>  // b.none
   80648:	b94027a0 	ldr	w0, [x29, #36]
   8064c:	97ffff79 	bl	80430 <uart_send>
   80650:	b9402fa0 	ldr	w0, [x29, #44]
   80654:	51001000 	sub	w0, w0, #0x4
   80658:	b9002fa0 	str	w0, [x29, #44]
   8065c:	b9402fa0 	ldr	w0, [x29, #44]
   80660:	7100001f 	cmp	w0, #0x0
   80664:	54fffc6a 	b.ge	805f0 <uart_puts_hex+0x1c>  // b.tcont
   80668:	d503201f 	nop
   8066c:	a8c37bfd 	ldp	x29, x30, [sp], #48
   80670:	d65f03c0 	ret

0000000000080674 <uart_read_buff>:
   80674:	a9bc7bfd 	stp	x29, x30, [sp, #-64]!
   80678:	910003fd 	mov	x29, sp
   8067c:	f9000bf3 	str	x19, [sp, #16]
   80680:	f90017a0 	str	x0, [x29, #40]
   80684:	b90027a1 	str	w1, [x29, #36]
   80688:	b90023a2 	str	w2, [x29, #32]
   8068c:	b9003fbf 	str	wzr, [x29, #60]
   80690:	b9403fa1 	ldr	w1, [x29, #60]
   80694:	b94027a0 	ldr	w0, [x29, #36]
   80698:	6b00003f 	cmp	w1, w0
   8069c:	540000c1 	b.ne	806b4 <uart_read_buff+0x40>  // b.any
   806a0:	90000020 	adrp	x0, 84000 <sys_fork+0xc>
   806a4:	913a6000 	add	x0, x0, #0xe98
   806a8:	97ffff86 	bl	804c0 <uart_puts>
   806ac:	b9403fa0 	ldr	w0, [x29, #60]
   806b0:	1400001f 	b	8072c <uart_read_buff+0xb8>
   806b4:	b9803fa0 	ldrsw	x0, [x29, #60]
   806b8:	f94017a1 	ldr	x1, [x29, #40]
   806bc:	8b000033 	add	x19, x1, x0
   806c0:	97ffff6c 	bl	80470 <uart_getc>
   806c4:	53001c00 	uxtb	w0, w0
   806c8:	39000260 	strb	w0, [x19]
   806cc:	b94023a0 	ldr	w0, [x29, #32]
   806d0:	7100001f 	cmp	w0, #0x0
   806d4:	540000c0 	b.eq	806ec <uart_read_buff+0x78>  // b.none
   806d8:	b9803fa0 	ldrsw	x0, [x29, #60]
   806dc:	f94017a1 	ldr	x1, [x29, #40]
   806e0:	8b000020 	add	x0, x1, x0
   806e4:	39400000 	ldrb	w0, [x0]
   806e8:	97ffff52 	bl	80430 <uart_send>
   806ec:	b9803fa0 	ldrsw	x0, [x29, #60]
   806f0:	f94017a1 	ldr	x1, [x29, #40]
   806f4:	8b000020 	add	x0, x1, x0
   806f8:	39400000 	ldrb	w0, [x0]
   806fc:	7100281f 	cmp	w0, #0xa
   80700:	540000e1 	b.ne	8071c <uart_read_buff+0xa8>  // b.any
   80704:	b9803fa0 	ldrsw	x0, [x29, #60]
   80708:	f94017a1 	ldr	x1, [x29, #40]
   8070c:	8b000020 	add	x0, x1, x0
   80710:	3900001f 	strb	wzr, [x0]
   80714:	b9403fa0 	ldr	w0, [x29, #60]
   80718:	14000005 	b	8072c <uart_read_buff+0xb8>
   8071c:	b9403fa0 	ldr	w0, [x29, #60]
   80720:	11000400 	add	w0, w0, #0x1
   80724:	b9003fa0 	str	w0, [x29, #60]
   80728:	17ffffda 	b	80690 <uart_read_buff+0x1c>
   8072c:	f9400bf3 	ldr	x19, [sp, #16]
   80730:	a8c47bfd 	ldp	x29, x30, [sp], #64
   80734:	d65f03c0 	ret

0000000000080738 <uart_getX>:
   80738:	a9bd7bfd 	stp	x29, x30, [sp, #-48]!
   8073c:	910003fd 	mov	x29, sp
   80740:	b9001fa0 	str	w0, [x29, #28]
   80744:	f90017bf 	str	xzr, [x29, #40]
   80748:	97ffff4a 	bl	80470 <uart_getc>
   8074c:	39009fa0 	strb	w0, [x29, #39]
   80750:	b9401fa0 	ldr	w0, [x29, #28]
   80754:	7100001f 	cmp	w0, #0x0
   80758:	54000060 	b.eq	80764 <uart_getX+0x2c>  // b.none
   8075c:	39409fa0 	ldrb	w0, [x29, #39]
   80760:	97ffff34 	bl	80430 <uart_send>
   80764:	39409fa0 	ldrb	w0, [x29, #39]
   80768:	7100281f 	cmp	w0, #0xa
   8076c:	54000500 	b.eq	8080c <uart_getX+0xd4>  // b.none
   80770:	39409fa0 	ldrb	w0, [x29, #39]
   80774:	7100bc1f 	cmp	w0, #0x2f
   80778:	54000169 	b.ls	807a4 <uart_getX+0x6c>  // b.plast
   8077c:	39409fa0 	ldrb	w0, [x29, #39]
   80780:	7100e41f 	cmp	w0, #0x39
   80784:	54000108 	b.hi	807a4 <uart_getX+0x6c>  // b.pmore
   80788:	f94017a0 	ldr	x0, [x29, #40]
   8078c:	d37cec01 	lsl	x1, x0, #4
   80790:	39409fa0 	ldrb	w0, [x29, #39]
   80794:	8b000020 	add	x0, x1, x0
   80798:	d100c000 	sub	x0, x0, #0x30
   8079c:	f90017a0 	str	x0, [x29, #40]
   807a0:	1400001a 	b	80808 <uart_getX+0xd0>
   807a4:	39409fa0 	ldrb	w0, [x29, #39]
   807a8:	7101801f 	cmp	w0, #0x60
   807ac:	54000169 	b.ls	807d8 <uart_getX+0xa0>  // b.plast
   807b0:	39409fa0 	ldrb	w0, [x29, #39]
   807b4:	7101981f 	cmp	w0, #0x66
   807b8:	54000108 	b.hi	807d8 <uart_getX+0xa0>  // b.pmore
   807bc:	f94017a0 	ldr	x0, [x29, #40]
   807c0:	d37cec01 	lsl	x1, x0, #4
   807c4:	39409fa0 	ldrb	w0, [x29, #39]
   807c8:	8b000020 	add	x0, x1, x0
   807cc:	d1015c00 	sub	x0, x0, #0x57
   807d0:	f90017a0 	str	x0, [x29, #40]
   807d4:	1400000d 	b	80808 <uart_getX+0xd0>
   807d8:	39409fa0 	ldrb	w0, [x29, #39]
   807dc:	7101001f 	cmp	w0, #0x40
   807e0:	54fffb49 	b.ls	80748 <uart_getX+0x10>  // b.plast
   807e4:	39409fa0 	ldrb	w0, [x29, #39]
   807e8:	7101181f 	cmp	w0, #0x46
   807ec:	54fffae8 	b.hi	80748 <uart_getX+0x10>  // b.pmore
   807f0:	f94017a0 	ldr	x0, [x29, #40]
   807f4:	d37cec01 	lsl	x1, x0, #4
   807f8:	39409fa0 	ldrb	w0, [x29, #39]
   807fc:	8b000020 	add	x0, x1, x0
   80800:	d100dc00 	sub	x0, x0, #0x37
   80804:	f90017a0 	str	x0, [x29, #40]
   80808:	17ffffd0 	b	80748 <uart_getX+0x10>
   8080c:	d503201f 	nop
   80810:	f94017a0 	ldr	x0, [x29, #40]
   80814:	a8c37bfd 	ldp	x29, x30, [sp], #48
   80818:	d65f03c0 	ret

000000000008081c <node_init>:
   8081c:	d10043ff 	sub	sp, sp, #0x10
   80820:	f90007e0 	str	x0, [sp, #8]
   80824:	b90007e1 	str	w1, [sp, #4]
   80828:	f94007e0 	ldr	x0, [sp, #8]
   8082c:	b94007e1 	ldr	w1, [sp, #4]
   80830:	b9000001 	str	w1, [x0]
   80834:	f94007e0 	ldr	x0, [sp, #8]
   80838:	f900041f 	str	xzr, [x0, #8]
   8083c:	d503201f 	nop
   80840:	910043ff 	add	sp, sp, #0x10
   80844:	d65f03c0 	ret

0000000000080848 <list_push>:
   80848:	d10083ff 	sub	sp, sp, #0x20
   8084c:	f90007e0 	str	x0, [sp, #8]
   80850:	f90003e1 	str	x1, [sp]
   80854:	f94007e0 	ldr	x0, [sp, #8]
   80858:	f9000fe0 	str	x0, [sp, #24]
   8085c:	14000004 	b	8086c <list_push+0x24>
   80860:	f9400fe0 	ldr	x0, [sp, #24]
   80864:	f9400400 	ldr	x0, [x0, #8]
   80868:	f9000fe0 	str	x0, [sp, #24]
   8086c:	f9400fe0 	ldr	x0, [sp, #24]
   80870:	f9400400 	ldr	x0, [x0, #8]
   80874:	f100001f 	cmp	x0, #0x0
   80878:	54ffff41 	b.ne	80860 <list_push+0x18>  // b.any
   8087c:	f9400fe0 	ldr	x0, [sp, #24]
   80880:	f94003e1 	ldr	x1, [sp]
   80884:	f9000401 	str	x1, [x0, #8]
   80888:	d503201f 	nop
   8088c:	910083ff 	add	sp, sp, #0x20
   80890:	d65f03c0 	ret

0000000000080894 <list_remove>:
   80894:	d10083ff 	sub	sp, sp, #0x20
   80898:	f90007e0 	str	x0, [sp, #8]
   8089c:	f90003e1 	str	x1, [sp]
   808a0:	f94007e0 	ldr	x0, [sp, #8]
   808a4:	f9000fe0 	str	x0, [sp, #24]
   808a8:	14000004 	b	808b8 <list_remove+0x24>
   808ac:	f9400fe0 	ldr	x0, [sp, #24]
   808b0:	f9400400 	ldr	x0, [x0, #8]
   808b4:	f9000fe0 	str	x0, [sp, #24]
   808b8:	f9400fe0 	ldr	x0, [sp, #24]
   808bc:	f9400401 	ldr	x1, [x0, #8]
   808c0:	f94003e0 	ldr	x0, [sp]
   808c4:	eb00003f 	cmp	x1, x0
   808c8:	54ffff21 	b.ne	808ac <list_remove+0x18>  // b.any
   808cc:	f94003e0 	ldr	x0, [sp]
   808d0:	f9400401 	ldr	x1, [x0, #8]
   808d4:	f9400fe0 	ldr	x0, [sp, #24]
   808d8:	f9000401 	str	x1, [x0, #8]
   808dc:	f94003e0 	ldr	x0, [sp]
   808e0:	f900041f 	str	xzr, [x0, #8]
   808e4:	d503201f 	nop
   808e8:	910083ff 	add	sp, sp, #0x20
   808ec:	d65f03c0 	ret

00000000000808f0 <list_remove_index>:
   808f0:	d10083ff 	sub	sp, sp, #0x20
   808f4:	f90007e0 	str	x0, [sp, #8]
   808f8:	b90007e1 	str	w1, [sp, #4]
   808fc:	f94007e0 	ldr	x0, [sp, #8]
   80900:	f9000fe0 	str	x0, [sp, #24]
   80904:	14000004 	b	80914 <list_remove_index+0x24>
   80908:	f9400fe0 	ldr	x0, [sp, #24]
   8090c:	f9400400 	ldr	x0, [x0, #8]
   80910:	f9000fe0 	str	x0, [sp, #24]
   80914:	f9400fe0 	ldr	x0, [sp, #24]
   80918:	f9400400 	ldr	x0, [x0, #8]
   8091c:	b9400001 	ldr	w1, [x0]
   80920:	b94007e0 	ldr	w0, [sp, #4]
   80924:	6b00003f 	cmp	w1, w0
   80928:	54000080 	b.eq	80938 <list_remove_index+0x48>  // b.none
   8092c:	f9400fe0 	ldr	x0, [sp, #24]
   80930:	f100001f 	cmp	x0, #0x0
   80934:	54fffea1 	b.ne	80908 <list_remove_index+0x18>  // b.any
   80938:	f9400fe0 	ldr	x0, [sp, #24]
   8093c:	f9400400 	ldr	x0, [x0, #8]
   80940:	f9400401 	ldr	x1, [x0, #8]
   80944:	f9400fe0 	ldr	x0, [sp, #24]
   80948:	f9000401 	str	x1, [x0, #8]
   8094c:	f9400fe0 	ldr	x0, [sp, #24]
   80950:	f9400400 	ldr	x0, [x0, #8]
   80954:	f900041f 	str	xzr, [x0, #8]
   80958:	d503201f 	nop
   8095c:	910083ff 	add	sp, sp, #0x20
   80960:	d65f03c0 	ret

0000000000080964 <print_free_list>:
   80964:	a9bc7bfd 	stp	x29, x30, [sp, #-64]!
   80968:	910003fd 	mov	x29, sp
   8096c:	b9003fbf 	str	wzr, [x29, #60]
   80970:	1400002b 	b	80a1c <print_free_list+0xb8>
   80974:	b9403fa0 	ldr	w0, [x29, #60]
   80978:	7100001f 	cmp	w0, #0x0
   8097c:	54000081 	b.ne	8098c <print_free_list+0x28>  // b.any
   80980:	90000020 	adrp	x0, 84000 <sys_fork+0xc>
   80984:	913ac000 	add	x0, x0, #0xeb0
   80988:	97fffece 	bl	804c0 <uart_puts>
   8098c:	90000020 	adrp	x0, 84000 <sys_fork+0xc>
   80990:	913b0000 	add	x0, x0, #0xec0
   80994:	97fffecb 	bl	804c0 <uart_puts>
   80998:	b9403fa0 	ldr	w0, [x29, #60]
   8099c:	97ffff02 	bl	805a4 <uart_puts_int>
   809a0:	90000020 	adrp	x0, 84000 <sys_fork+0xc>
   809a4:	913b2000 	add	x0, x0, #0xec8
   809a8:	97fffec6 	bl	804c0 <uart_puts>
   809ac:	b9803fa0 	ldrsw	x0, [x29, #60]
   809b0:	d37cec01 	lsl	x1, x0, #4
   809b4:	b0000020 	adrp	x0, 85000 <core_timer_enable+0x1b8>
   809b8:	911ea000 	add	x0, x0, #0x7a8
   809bc:	8b000020 	add	x0, x1, x0
   809c0:	f9000fa0 	str	x0, [x29, #24]
   809c4:	f9400fa0 	ldr	x0, [x29, #24]
   809c8:	f9400400 	ldr	x0, [x0, #8]
   809cc:	f9001ba0 	str	x0, [x29, #48]
   809d0:	1400000a 	b	809f8 <print_free_list+0x94>
   809d4:	f9401ba0 	ldr	x0, [x29, #48]
   809d8:	b9400000 	ldr	w0, [x0]
   809dc:	97fffef2 	bl	805a4 <uart_puts_int>
   809e0:	90000020 	adrp	x0, 84000 <sys_fork+0xc>
   809e4:	913b4000 	add	x0, x0, #0xed0
   809e8:	97fffeb6 	bl	804c0 <uart_puts>
   809ec:	f9401ba0 	ldr	x0, [x29, #48]
   809f0:	f9400400 	ldr	x0, [x0, #8]
   809f4:	f9001ba0 	str	x0, [x29, #48]
   809f8:	f9401ba0 	ldr	x0, [x29, #48]
   809fc:	f100001f 	cmp	x0, #0x0
   80a00:	54fffea1 	b.ne	809d4 <print_free_list+0x70>  // b.any
   80a04:	90000020 	adrp	x0, 84000 <sys_fork+0xc>
   80a08:	913b6000 	add	x0, x0, #0xed8
   80a0c:	97fffead 	bl	804c0 <uart_puts>
   80a10:	b9403fa0 	ldr	w0, [x29, #60]
   80a14:	11000400 	add	w0, w0, #0x1
   80a18:	b9003fa0 	str	w0, [x29, #60]
   80a1c:	b9403fa0 	ldr	w0, [x29, #60]
   80a20:	71001c1f 	cmp	w0, #0x7
   80a24:	54fffa8d 	b.le	80974 <print_free_list+0x10>
   80a28:	52800100 	mov	w0, #0x8                   	// #8
   80a2c:	b9002fa0 	str	w0, [x29, #44]
   80a30:	1400002d 	b	80ae4 <print_free_list+0x180>
   80a34:	b9402fa0 	ldr	w0, [x29, #44]
   80a38:	7100201f 	cmp	w0, #0x8
   80a3c:	54000081 	b.ne	80a4c <print_free_list+0xe8>  // b.any
   80a40:	90000020 	adrp	x0, 84000 <sys_fork+0xc>
   80a44:	913b8000 	add	x0, x0, #0xee0
   80a48:	97fffe9e 	bl	804c0 <uart_puts>
   80a4c:	90000020 	adrp	x0, 84000 <sys_fork+0xc>
   80a50:	913bc000 	add	x0, x0, #0xef0
   80a54:	97fffe9b 	bl	804c0 <uart_puts>
   80a58:	b9402fa0 	ldr	w0, [x29, #44]
   80a5c:	51002000 	sub	w0, w0, #0x8
   80a60:	97fffed1 	bl	805a4 <uart_puts_int>
   80a64:	90000020 	adrp	x0, 84000 <sys_fork+0xc>
   80a68:	913b2000 	add	x0, x0, #0xec8
   80a6c:	97fffe95 	bl	804c0 <uart_puts>
   80a70:	b9802fa0 	ldrsw	x0, [x29, #44]
   80a74:	d37cec01 	lsl	x1, x0, #4
   80a78:	b0000020 	adrp	x0, 85000 <core_timer_enable+0x1b8>
   80a7c:	911ea000 	add	x0, x0, #0x7a8
   80a80:	8b000020 	add	x0, x1, x0
   80a84:	f9000ba0 	str	x0, [x29, #16]
   80a88:	f9400ba0 	ldr	x0, [x29, #16]
   80a8c:	f9400400 	ldr	x0, [x0, #8]
   80a90:	f90013a0 	str	x0, [x29, #32]
   80a94:	1400000b 	b	80ac0 <print_free_list+0x15c>
   80a98:	f94013a0 	ldr	x0, [x29, #32]
   80a9c:	b9400000 	ldr	w0, [x0]
   80aa0:	13087c00 	asr	w0, w0, #8
   80aa4:	97fffec0 	bl	805a4 <uart_puts_int>
   80aa8:	90000020 	adrp	x0, 84000 <sys_fork+0xc>
   80aac:	913b4000 	add	x0, x0, #0xed0
   80ab0:	97fffe84 	bl	804c0 <uart_puts>
   80ab4:	f94013a0 	ldr	x0, [x29, #32]
   80ab8:	f9400400 	ldr	x0, [x0, #8]
   80abc:	f90013a0 	str	x0, [x29, #32]
   80ac0:	f94013a0 	ldr	x0, [x29, #32]
   80ac4:	f100001f 	cmp	x0, #0x0
   80ac8:	54fffe81 	b.ne	80a98 <print_free_list+0x134>  // b.any
   80acc:	90000020 	adrp	x0, 84000 <sys_fork+0xc>
   80ad0:	913b6000 	add	x0, x0, #0xed8
   80ad4:	97fffe7b 	bl	804c0 <uart_puts>
   80ad8:	b9402fa0 	ldr	w0, [x29, #44]
   80adc:	11000400 	add	w0, w0, #0x1
   80ae0:	b9002fa0 	str	w0, [x29, #44]
   80ae4:	b9402fa0 	ldr	w0, [x29, #44]
   80ae8:	7100401f 	cmp	w0, #0x10
   80aec:	54fffa4d 	b.le	80a34 <print_free_list+0xd0>
   80af0:	90000020 	adrp	x0, 84000 <sys_fork+0xc>
   80af4:	913b6000 	add	x0, x0, #0xed8
   80af8:	97fffe72 	bl	804c0 <uart_puts>
   80afc:	d503201f 	nop
   80b00:	a8c47bfd 	ldp	x29, x30, [sp], #64
   80b04:	d65f03c0 	ret

0000000000080b08 <init_buckets>:
   80b08:	a9bd7bfd 	stp	x29, x30, [sp, #-48]!
   80b0c:	910003fd 	mov	x29, sp
   80b10:	b9002fbf 	str	wzr, [x29, #44]
   80b14:	1400000f 	b	80b50 <init_buckets+0x48>
   80b18:	b9802fa0 	ldrsw	x0, [x29, #44]
   80b1c:	d37cec01 	lsl	x1, x0, #4
   80b20:	b0000020 	adrp	x0, 85000 <core_timer_enable+0x1b8>
   80b24:	911ea000 	add	x0, x0, #0x7a8
   80b28:	8b000020 	add	x0, x1, x0
   80b2c:	f90013a0 	str	x0, [x29, #32]
   80b30:	f94013a0 	ldr	x0, [x29, #32]
   80b34:	f900041f 	str	xzr, [x0, #8]
   80b38:	f94013a0 	ldr	x0, [x29, #32]
   80b3c:	12800001 	mov	w1, #0xffffffff            	// #-1
   80b40:	b9000001 	str	w1, [x0]
   80b44:	b9402fa0 	ldr	w0, [x29, #44]
   80b48:	11000400 	add	w0, w0, #0x1
   80b4c:	b9002fa0 	str	w0, [x29, #44]
   80b50:	b9402fa0 	ldr	w0, [x29, #44]
   80b54:	7100401f 	cmp	w0, #0x10
   80b58:	54fffe0d 	b.le	80b18 <init_buckets+0x10>
   80b5c:	d2a02000 	mov	x0, #0x1000000             	// #16777216
   80b60:	f9000fa0 	str	x0, [x29, #24]
   80b64:	52800001 	mov	w1, #0x0                   	// #0
   80b68:	f9400fa0 	ldr	x0, [x29, #24]
   80b6c:	97ffff2c 	bl	8081c <node_init>
   80b70:	b0000020 	adrp	x0, 85000 <core_timer_enable+0x1b8>
   80b74:	9122a000 	add	x0, x0, #0x8a8
   80b78:	f9400fa1 	ldr	x1, [x29, #24]
   80b7c:	97ffff33 	bl	80848 <list_push>
   80b80:	90000020 	adrp	x0, 84000 <sys_fork+0xc>
   80b84:	913be000 	add	x0, x0, #0xef8
   80b88:	97fffe4e 	bl	804c0 <uart_puts>
   80b8c:	d503201f 	nop
   80b90:	a8c37bfd 	ldp	x29, x30, [sp], #48
   80b94:	d65f03c0 	ret

0000000000080b98 <split_block>:
   80b98:	a9bc7bfd 	stp	x29, x30, [sp, #-64]!
   80b9c:	910003fd 	mov	x29, sp
   80ba0:	f9000fa0 	str	x0, [x29, #24]
   80ba4:	b90017a1 	str	w1, [x29, #20]
   80ba8:	b90013a2 	str	w2, [x29, #16]
   80bac:	f9400fa0 	ldr	x0, [x29, #24]
   80bb0:	b9400001 	ldr	w1, [x0]
   80bb4:	b94013a0 	ldr	w0, [x29, #16]
   80bb8:	52800022 	mov	w2, #0x1                   	// #1
   80bbc:	1ac02040 	lsl	w0, w2, w0
   80bc0:	0b000020 	add	w0, w1, w0
   80bc4:	b9003fa0 	str	w0, [x29, #60]
   80bc8:	f9400fa0 	ldr	x0, [x29, #24]
   80bcc:	b9400000 	ldr	w0, [x0]
   80bd0:	b9003ba0 	str	w0, [x29, #56]
   80bd4:	14000020 	b	80c54 <split_block+0xbc>
   80bd8:	b9403fa1 	ldr	w1, [x29, #60]
   80bdc:	b9403ba0 	ldr	w0, [x29, #56]
   80be0:	4b000020 	sub	w0, w1, w0
   80be4:	531f7c01 	lsr	w1, w0, #31
   80be8:	0b000020 	add	w0, w1, w0
   80bec:	13017c00 	asr	w0, w0, #1
   80bf0:	2a0003e1 	mov	w1, w0
   80bf4:	b9403ba0 	ldr	w0, [x29, #56]
   80bf8:	0b000020 	add	w0, w1, w0
   80bfc:	b90037a0 	str	w0, [x29, #52]
   80c00:	b94013a0 	ldr	w0, [x29, #16]
   80c04:	51000400 	sub	w0, w0, #0x1
   80c08:	b90013a0 	str	w0, [x29, #16]
   80c0c:	b94037a0 	ldr	w0, [x29, #52]
   80c10:	531c6c00 	lsl	w0, w0, #4
   80c14:	93407c01 	sxtw	x1, w0
   80c18:	d2a02000 	mov	x0, #0x1000000             	// #16777216
   80c1c:	8b000020 	add	x0, x1, x0
   80c20:	f90017a0 	str	x0, [x29, #40]
   80c24:	b94037a1 	ldr	w1, [x29, #52]
   80c28:	f94017a0 	ldr	x0, [x29, #40]
   80c2c:	97fffefc 	bl	8081c <node_init>
   80c30:	b98013a0 	ldrsw	x0, [x29, #16]
   80c34:	d37cec01 	lsl	x1, x0, #4
   80c38:	b0000020 	adrp	x0, 85000 <core_timer_enable+0x1b8>
   80c3c:	911ea000 	add	x0, x0, #0x7a8
   80c40:	8b000020 	add	x0, x1, x0
   80c44:	f94017a1 	ldr	x1, [x29, #40]
   80c48:	97ffff00 	bl	80848 <list_push>
   80c4c:	b94037a0 	ldr	w0, [x29, #52]
   80c50:	b9003fa0 	str	w0, [x29, #60]
   80c54:	b94013a1 	ldr	w1, [x29, #16]
   80c58:	b94017a0 	ldr	w0, [x29, #20]
   80c5c:	6b00003f 	cmp	w1, w0
   80c60:	54fffbcc 	b.gt	80bd8 <split_block+0x40>
   80c64:	d503201f 	nop
   80c68:	a8c47bfd 	ldp	x29, x30, [sp], #64
   80c6c:	d65f03c0 	ret

0000000000080c70 <get_page_from_buckets>:
   80c70:	a9bc7bfd 	stp	x29, x30, [sp, #-64]!
   80c74:	910003fd 	mov	x29, sp
   80c78:	f9000fa0 	str	x0, [x29, #24]
   80c7c:	b90017a1 	str	w1, [x29, #20]
   80c80:	b90013a2 	str	w2, [x29, #16]
   80c84:	b94017a0 	ldr	w0, [x29, #20]
   80c88:	b9003fa0 	str	w0, [x29, #60]
   80c8c:	1400001d 	b	80d00 <get_page_from_buckets+0x90>
   80c90:	b9803fa0 	ldrsw	x0, [x29, #60]
   80c94:	d37cec01 	lsl	x1, x0, #4
   80c98:	b0000020 	adrp	x0, 85000 <core_timer_enable+0x1b8>
   80c9c:	911ea000 	add	x0, x0, #0x7a8
   80ca0:	8b000020 	add	x0, x1, x0
   80ca4:	f9001ba0 	str	x0, [x29, #48]
   80ca8:	f9401ba0 	ldr	x0, [x29, #48]
   80cac:	f9400400 	ldr	x0, [x0, #8]
   80cb0:	f90017a0 	str	x0, [x29, #40]
   80cb4:	f94017a0 	ldr	x0, [x29, #40]
   80cb8:	f100001f 	cmp	x0, #0x0
   80cbc:	540001c0 	b.eq	80cf4 <get_page_from_buckets+0x84>  // b.none
   80cc0:	f94017a1 	ldr	x1, [x29, #40]
   80cc4:	f9401ba0 	ldr	x0, [x29, #48]
   80cc8:	97fffef3 	bl	80894 <list_remove>
   80ccc:	b9403fa1 	ldr	w1, [x29, #60]
   80cd0:	b94013a0 	ldr	w0, [x29, #16]
   80cd4:	6b00003f 	cmp	w1, w0
   80cd8:	540000ad 	b.le	80cec <get_page_from_buckets+0x7c>
   80cdc:	b9403fa2 	ldr	w2, [x29, #60]
   80ce0:	b94013a1 	ldr	w1, [x29, #16]
   80ce4:	f94017a0 	ldr	x0, [x29, #40]
   80ce8:	97ffffac 	bl	80b98 <split_block>
   80cec:	f94017a0 	ldr	x0, [x29, #40]
   80cf0:	14000008 	b	80d10 <get_page_from_buckets+0xa0>
   80cf4:	b9403fa0 	ldr	w0, [x29, #60]
   80cf8:	11000400 	add	w0, w0, #0x1
   80cfc:	b9003fa0 	str	w0, [x29, #60]
   80d00:	b9403fa0 	ldr	w0, [x29, #60]
   80d04:	7100401f 	cmp	w0, #0x10
   80d08:	54fffc4d 	b.le	80c90 <get_page_from_buckets+0x20>
   80d0c:	d2800000 	mov	x0, #0x0                   	// #0
   80d10:	a8c47bfd 	ldp	x29, x30, [sp], #64
   80d14:	d65f03c0 	ret

0000000000080d18 <kmalloc>:
   80d18:	a9bb7bfd 	stp	x29, x30, [sp, #-80]!
   80d1c:	910003fd 	mov	x29, sp
   80d20:	b9001fa0 	str	w0, [x29, #28]
   80d24:	b9401fa0 	ldr	w0, [x29, #28]
   80d28:	53047c00 	lsr	w0, w0, #4
   80d2c:	b90043a0 	str	w0, [x29, #64]
   80d30:	b9401fa0 	ldr	w0, [x29, #28]
   80d34:	12000c00 	and	w0, w0, #0xf
   80d38:	7100001f 	cmp	w0, #0x0
   80d3c:	1a9f07e0 	cset	w0, ne  // ne = any
   80d40:	53001c00 	uxtb	w0, w0
   80d44:	2a0003e1 	mov	w1, w0
   80d48:	b94043a0 	ldr	w0, [x29, #64]
   80d4c:	0b010000 	add	w0, w0, w1
   80d50:	b90043a0 	str	w0, [x29, #64]
   80d54:	b9401fa0 	ldr	w0, [x29, #28]
   80d58:	530c7c00 	lsr	w0, w0, #12
   80d5c:	b9003fa0 	str	w0, [x29, #60]
   80d60:	b9401fa0 	ldr	w0, [x29, #28]
   80d64:	12002c00 	and	w0, w0, #0xfff
   80d68:	7100001f 	cmp	w0, #0x0
   80d6c:	1a9f07e0 	cset	w0, ne  // ne = any
   80d70:	53001c00 	uxtb	w0, w0
   80d74:	2a0003e1 	mov	w1, w0
   80d78:	b9403fa0 	ldr	w0, [x29, #60]
   80d7c:	0b010000 	add	w0, w0, w1
   80d80:	b9003fa0 	str	w0, [x29, #60]
   80d84:	b9004fbf 	str	wzr, [x29, #76]
   80d88:	b94043a0 	ldr	w0, [x29, #64]
   80d8c:	b9004ba0 	str	w0, [x29, #72]
   80d90:	14000007 	b	80dac <kmalloc+0x94>
   80d94:	b9404fa0 	ldr	w0, [x29, #76]
   80d98:	11000400 	add	w0, w0, #0x1
   80d9c:	b9004fa0 	str	w0, [x29, #76]
   80da0:	b9404ba0 	ldr	w0, [x29, #72]
   80da4:	13017c00 	asr	w0, w0, #1
   80da8:	b9004ba0 	str	w0, [x29, #72]
   80dac:	b9404ba0 	ldr	w0, [x29, #72]
   80db0:	13017c00 	asr	w0, w0, #1
   80db4:	7100001f 	cmp	w0, #0x0
   80db8:	54fffee1 	b.ne	80d94 <kmalloc+0x7c>  // b.any
   80dbc:	b94043a0 	ldr	w0, [x29, #64]
   80dc0:	51000401 	sub	w1, w0, #0x1
   80dc4:	b94043a0 	ldr	w0, [x29, #64]
   80dc8:	0a000020 	and	w0, w1, w0
   80dcc:	7100001f 	cmp	w0, #0x0
   80dd0:	54000060 	b.eq	80ddc <kmalloc+0xc4>  // b.none
   80dd4:	52800020 	mov	w0, #0x1                   	// #1
   80dd8:	14000002 	b	80de0 <kmalloc+0xc8>
   80ddc:	52800000 	mov	w0, #0x0                   	// #0
   80de0:	b9404fa1 	ldr	w1, [x29, #76]
   80de4:	0b000020 	add	w0, w1, w0
   80de8:	b9004fa0 	str	w0, [x29, #76]
   80dec:	b9404fa0 	ldr	w0, [x29, #76]
   80df0:	b90047a0 	str	w0, [x29, #68]
   80df4:	14000016 	b	80e4c <kmalloc+0x134>
   80df8:	b98047a0 	ldrsw	x0, [x29, #68]
   80dfc:	d37cec01 	lsl	x1, x0, #4
   80e00:	b0000020 	adrp	x0, 85000 <core_timer_enable+0x1b8>
   80e04:	911ea000 	add	x0, x0, #0x7a8
   80e08:	8b000020 	add	x0, x1, x0
   80e0c:	f9001ba0 	str	x0, [x29, #48]
   80e10:	f9401ba0 	ldr	x0, [x29, #48]
   80e14:	f9400400 	ldr	x0, [x0, #8]
   80e18:	f100001f 	cmp	x0, #0x0
   80e1c:	54000120 	b.eq	80e40 <kmalloc+0x128>  // b.none
   80e20:	b9404fa0 	ldr	w0, [x29, #76]
   80e24:	2a0003e2 	mov	w2, w0
   80e28:	b94047a1 	ldr	w1, [x29, #68]
   80e2c:	f9401ba0 	ldr	x0, [x29, #48]
   80e30:	97ffff90 	bl	80c70 <get_page_from_buckets>
   80e34:	f90017a0 	str	x0, [x29, #40]
   80e38:	f94017a0 	ldr	x0, [x29, #40]
   80e3c:	1400000b 	b	80e68 <kmalloc+0x150>
   80e40:	b94047a0 	ldr	w0, [x29, #68]
   80e44:	11000400 	add	w0, w0, #0x1
   80e48:	b90047a0 	str	w0, [x29, #68]
   80e4c:	b94047a0 	ldr	w0, [x29, #68]
   80e50:	7100401f 	cmp	w0, #0x10
   80e54:	54fffd2d 	b.le	80df8 <kmalloc+0xe0>
   80e58:	90000020 	adrp	x0, 84000 <sys_fork+0xc>
   80e5c:	913c6000 	add	x0, x0, #0xf18
   80e60:	97fffd98 	bl	804c0 <uart_puts>
   80e64:	d2800000 	mov	x0, #0x0                   	// #0
   80e68:	a8c57bfd 	ldp	x29, x30, [sp], #80
   80e6c:	d65f03c0 	ret

0000000000080e70 <merge_block>:
   80e70:	a9ba7bfd 	stp	x29, x30, [sp, #-96]!
   80e74:	910003fd 	mov	x29, sp
   80e78:	b9001fa0 	str	w0, [x29, #28]
   80e7c:	b9001ba1 	str	w1, [x29, #24]
   80e80:	b9005fbf 	str	wzr, [x29, #92]
   80e84:	b9401ba0 	ldr	w0, [x29, #24]
   80e88:	b9005ba0 	str	w0, [x29, #88]
   80e8c:	1400004b 	b	80fb8 <merge_block+0x148>
   80e90:	b90057bf 	str	wzr, [x29, #84]
   80e94:	b9405ba0 	ldr	w0, [x29, #88]
   80e98:	52800021 	mov	w1, #0x1                   	// #1
   80e9c:	1ac02021 	lsl	w1, w1, w0
   80ea0:	b9401fa0 	ldr	w0, [x29, #28]
   80ea4:	4a000020 	eor	w0, w1, w0
   80ea8:	b90047a0 	str	w0, [x29, #68]
   80eac:	b9805ba0 	ldrsw	x0, [x29, #88]
   80eb0:	d37cec01 	lsl	x1, x0, #4
   80eb4:	b0000020 	adrp	x0, 85000 <core_timer_enable+0x1b8>
   80eb8:	911ea000 	add	x0, x0, #0x7a8
   80ebc:	8b000020 	add	x0, x1, x0
   80ec0:	f9001fa0 	str	x0, [x29, #56]
   80ec4:	f9401fa0 	ldr	x0, [x29, #56]
   80ec8:	f9400400 	ldr	x0, [x0, #8]
   80ecc:	f90027a0 	str	x0, [x29, #72]
   80ed0:	14000031 	b	80f94 <merge_block+0x124>
   80ed4:	f94027a0 	ldr	x0, [x29, #72]
   80ed8:	b9400001 	ldr	w1, [x0]
   80edc:	b94047a0 	ldr	w0, [x29, #68]
   80ee0:	6b00003f 	cmp	w1, w0
   80ee4:	54000521 	b.ne	80f88 <merge_block+0x118>  // b.any
   80ee8:	52800020 	mov	w0, #0x1                   	// #1
   80eec:	b90057a0 	str	w0, [x29, #84]
   80ef0:	52800020 	mov	w0, #0x1                   	// #1
   80ef4:	b9005fa0 	str	w0, [x29, #92]
   80ef8:	f94027a1 	ldr	x1, [x29, #72]
   80efc:	f9401fa0 	ldr	x0, [x29, #56]
   80f00:	97fffe65 	bl	80894 <list_remove>
   80f04:	b9405ba1 	ldr	w1, [x29, #88]
   80f08:	b9401ba0 	ldr	w0, [x29, #24]
   80f0c:	6b00003f 	cmp	w1, w0
   80f10:	5400008d 	b.le	80f20 <merge_block+0xb0>
   80f14:	b9401fa1 	ldr	w1, [x29, #28]
   80f18:	f9401fa0 	ldr	x0, [x29, #56]
   80f1c:	97fffe75 	bl	808f0 <list_remove_index>
   80f20:	b9401fa0 	ldr	w0, [x29, #28]
   80f24:	b94047a2 	ldr	w2, [x29, #68]
   80f28:	b94047a1 	ldr	w1, [x29, #68]
   80f2c:	6b00005f 	cmp	w2, w0
   80f30:	1a80d020 	csel	w0, w1, w0, le
   80f34:	b9001fa0 	str	w0, [x29, #28]
   80f38:	b9405ba0 	ldr	w0, [x29, #88]
   80f3c:	11000400 	add	w0, w0, #0x1
   80f40:	93407c00 	sxtw	x0, w0
   80f44:	d37cec01 	lsl	x1, x0, #4
   80f48:	b0000020 	adrp	x0, 85000 <core_timer_enable+0x1b8>
   80f4c:	911ea000 	add	x0, x0, #0x7a8
   80f50:	8b000020 	add	x0, x1, x0
   80f54:	f9001ba0 	str	x0, [x29, #48]
   80f58:	b9401fa0 	ldr	w0, [x29, #28]
   80f5c:	531c6c00 	lsl	w0, w0, #4
   80f60:	93407c01 	sxtw	x1, w0
   80f64:	d2a02000 	mov	x0, #0x1000000             	// #16777216
   80f68:	8b000020 	add	x0, x1, x0
   80f6c:	f90017a0 	str	x0, [x29, #40]
   80f70:	b9401fa1 	ldr	w1, [x29, #28]
   80f74:	f94017a0 	ldr	x0, [x29, #40]
   80f78:	97fffe29 	bl	8081c <node_init>
   80f7c:	f94017a1 	ldr	x1, [x29, #40]
   80f80:	f9401ba0 	ldr	x0, [x29, #48]
   80f84:	97fffe31 	bl	80848 <list_push>
   80f88:	f94027a0 	ldr	x0, [x29, #72]
   80f8c:	f9400400 	ldr	x0, [x0, #8]
   80f90:	f90027a0 	str	x0, [x29, #72]
   80f94:	f94027a0 	ldr	x0, [x29, #72]
   80f98:	f100001f 	cmp	x0, #0x0
   80f9c:	54fff9c1 	b.ne	80ed4 <merge_block+0x64>  // b.any
   80fa0:	b94057a0 	ldr	w0, [x29, #84]
   80fa4:	7100001f 	cmp	w0, #0x0
   80fa8:	54000100 	b.eq	80fc8 <merge_block+0x158>  // b.none
   80fac:	b9405ba0 	ldr	w0, [x29, #88]
   80fb0:	11000400 	add	w0, w0, #0x1
   80fb4:	b9005ba0 	str	w0, [x29, #88]
   80fb8:	b9405ba0 	ldr	w0, [x29, #88]
   80fbc:	71003c1f 	cmp	w0, #0xf
   80fc0:	54fff68d 	b.le	80e90 <merge_block+0x20>
   80fc4:	14000002 	b	80fcc <merge_block+0x15c>
   80fc8:	d503201f 	nop
   80fcc:	b9405fa0 	ldr	w0, [x29, #92]
   80fd0:	7100001f 	cmp	w0, #0x0
   80fd4:	54000060 	b.eq	80fe0 <merge_block+0x170>  // b.none
   80fd8:	b9401fa0 	ldr	w0, [x29, #28]
   80fdc:	14000002 	b	80fe4 <merge_block+0x174>
   80fe0:	12800000 	mov	w0, #0xffffffff            	// #-1
   80fe4:	a8c67bfd 	ldp	x29, x30, [sp], #96
   80fe8:	d65f03c0 	ret

0000000000080fec <free_page>:
   80fec:	a9bb7bfd 	stp	x29, x30, [sp, #-80]!
   80ff0:	910003fd 	mov	x29, sp
   80ff4:	f9000fa0 	str	x0, [x29, #24]
   80ff8:	b90017a1 	str	w1, [x29, #20]
   80ffc:	f9400fa1 	ldr	x1, [x29, #24]
   81000:	b2689fe0 	mov	x0, #0xffffffffff000000    	// #-16777216
   81004:	8b000020 	add	x0, x1, x0
   81008:	d344fc00 	lsr	x0, x0, #4
   8100c:	b90047a0 	str	w0, [x29, #68]
   81010:	b94017a0 	ldr	w0, [x29, #20]
   81014:	53047c00 	lsr	w0, w0, #4
   81018:	b90043a0 	str	w0, [x29, #64]
   8101c:	b94017a0 	ldr	w0, [x29, #20]
   81020:	12000c00 	and	w0, w0, #0xf
   81024:	7100001f 	cmp	w0, #0x0
   81028:	1a9f07e0 	cset	w0, ne  // ne = any
   8102c:	53001c00 	uxtb	w0, w0
   81030:	2a0003e1 	mov	w1, w0
   81034:	b94043a0 	ldr	w0, [x29, #64]
   81038:	0b010000 	add	w0, w0, w1
   8103c:	b90043a0 	str	w0, [x29, #64]
   81040:	b9004fbf 	str	wzr, [x29, #76]
   81044:	b94043a0 	ldr	w0, [x29, #64]
   81048:	b9004ba0 	str	w0, [x29, #72]
   8104c:	14000007 	b	81068 <free_page+0x7c>
   81050:	b9404fa0 	ldr	w0, [x29, #76]
   81054:	11000400 	add	w0, w0, #0x1
   81058:	b9004fa0 	str	w0, [x29, #76]
   8105c:	b9404ba0 	ldr	w0, [x29, #72]
   81060:	13017c00 	asr	w0, w0, #1
   81064:	b9004ba0 	str	w0, [x29, #72]
   81068:	b9404ba0 	ldr	w0, [x29, #72]
   8106c:	13017c00 	asr	w0, w0, #1
   81070:	7100001f 	cmp	w0, #0x0
   81074:	54fffee1 	b.ne	81050 <free_page+0x64>  // b.any
   81078:	b94043a0 	ldr	w0, [x29, #64]
   8107c:	51000401 	sub	w1, w0, #0x1
   81080:	b94043a0 	ldr	w0, [x29, #64]
   81084:	0a000020 	and	w0, w1, w0
   81088:	7100001f 	cmp	w0, #0x0
   8108c:	54000060 	b.eq	81098 <free_page+0xac>  // b.none
   81090:	52800020 	mov	w0, #0x1                   	// #1
   81094:	14000002 	b	8109c <free_page+0xb0>
   81098:	52800000 	mov	w0, #0x0                   	// #0
   8109c:	b9404fa1 	ldr	w1, [x29, #76]
   810a0:	0b000020 	add	w0, w1, w0
   810a4:	b9004fa0 	str	w0, [x29, #76]
   810a8:	12800000 	mov	w0, #0xffffffff            	// #-1
   810ac:	b9003fa0 	str	w0, [x29, #60]
   810b0:	b9404fa0 	ldr	w0, [x29, #76]
   810b4:	2a0003e1 	mov	w1, w0
   810b8:	b94047a0 	ldr	w0, [x29, #68]
   810bc:	97ffff6d 	bl	80e70 <merge_block>
   810c0:	b9003fa0 	str	w0, [x29, #60]
   810c4:	b9403fa0 	ldr	w0, [x29, #60]
   810c8:	3100041f 	cmn	w0, #0x1
   810cc:	540001e1 	b.ne	81108 <free_page+0x11c>  // b.any
   810d0:	b9404fa0 	ldr	w0, [x29, #76]
   810d4:	d37cec01 	lsl	x1, x0, #4
   810d8:	90000020 	adrp	x0, 85000 <core_timer_enable+0x1b8>
   810dc:	911ea000 	add	x0, x0, #0x7a8
   810e0:	8b000020 	add	x0, x1, x0
   810e4:	f9001ba0 	str	x0, [x29, #48]
   810e8:	f9400fa0 	ldr	x0, [x29, #24]
   810ec:	f90017a0 	str	x0, [x29, #40]
   810f0:	b94047a1 	ldr	w1, [x29, #68]
   810f4:	f94017a0 	ldr	x0, [x29, #40]
   810f8:	97fffdc9 	bl	8081c <node_init>
   810fc:	f94017a1 	ldr	x1, [x29, #40]
   81100:	f9401ba0 	ldr	x0, [x29, #48]
   81104:	97fffdd1 	bl	80848 <list_push>
   81108:	d503201f 	nop
   8110c:	a8c57bfd 	ldp	x29, x30, [sp], #80
   81110:	d65f03c0 	ret

0000000000081114 <dumpState>:
   81114:	a9bd7bfd 	stp	x29, x30, [sp, #-48]!
   81118:	910003fd 	mov	x29, sp
   8111c:	d5384000 	mrs	x0, spsr_el1
   81120:	f90017a0 	str	x0, [x29, #40]
   81124:	d5384020 	mrs	x0, elr_el1
   81128:	f90013a0 	str	x0, [x29, #32]
   8112c:	d5385200 	mrs	x0, esr_el1
   81130:	f9000fa0 	str	x0, [x29, #24]
   81134:	f0000000 	adrp	x0, 84000 <sys_fork+0xc>
   81138:	913cc000 	add	x0, x0, #0xf30
   8113c:	97fffce1 	bl	804c0 <uart_puts>
   81140:	f0000000 	adrp	x0, 84000 <sys_fork+0xc>
   81144:	913d2000 	add	x0, x0, #0xf48
   81148:	97fffcde 	bl	804c0 <uart_puts>
   8114c:	f94017a0 	ldr	x0, [x29, #40]
   81150:	97fffd21 	bl	805d4 <uart_puts_hex>
   81154:	f0000000 	adrp	x0, 84000 <sys_fork+0xc>
   81158:	913d6000 	add	x0, x0, #0xf58
   8115c:	97fffcd9 	bl	804c0 <uart_puts>
   81160:	f0000000 	adrp	x0, 84000 <sys_fork+0xc>
   81164:	913d8000 	add	x0, x0, #0xf60
   81168:	97fffcd6 	bl	804c0 <uart_puts>
   8116c:	f94013a0 	ldr	x0, [x29, #32]
   81170:	97fffd19 	bl	805d4 <uart_puts_hex>
   81174:	f0000000 	adrp	x0, 84000 <sys_fork+0xc>
   81178:	913d6000 	add	x0, x0, #0xf58
   8117c:	97fffcd1 	bl	804c0 <uart_puts>
   81180:	f0000000 	adrp	x0, 84000 <sys_fork+0xc>
   81184:	913dc000 	add	x0, x0, #0xf70
   81188:	97fffcce 	bl	804c0 <uart_puts>
   8118c:	f9400fa0 	ldr	x0, [x29, #24]
   81190:	97fffd11 	bl	805d4 <uart_puts_hex>
   81194:	f0000000 	adrp	x0, 84000 <sys_fork+0xc>
   81198:	913d6000 	add	x0, x0, #0xf58
   8119c:	97fffcc9 	bl	804c0 <uart_puts>
   811a0:	f0000000 	adrp	x0, 84000 <sys_fork+0xc>
   811a4:	913e0000 	add	x0, x0, #0xf80
   811a8:	97fffcc6 	bl	804c0 <uart_puts>
   811ac:	14000000 	b	811ac <dumpState+0x98>

00000000000811b0 <dumpTimer>:
   811b0:	a9bd7bfd 	stp	x29, x30, [sp, #-48]!
   811b4:	910003fd 	mov	x29, sp
   811b8:	d53be000 	mrs	x0, cntfrq_el0
   811bc:	8b000000 	add	x0, x0, x0
   811c0:	d51be200 	msr	cntp_tval_el0, x0
   811c4:	9400018d 	bl	817f8 <timer_tick>
   811c8:	d53be020 	mrs	x0, cntpct_el0
   811cc:	f90017a0 	str	x0, [x29, #40]
   811d0:	d53be000 	mrs	x0, cntfrq_el0
   811d4:	f90013a0 	str	x0, [x29, #32]
   811d8:	f94017a1 	ldr	x1, [x29, #40]
   811dc:	f94013a0 	ldr	x0, [x29, #32]
   811e0:	9ac00820 	udiv	x0, x1, x0
   811e4:	f9000fa0 	str	x0, [x29, #24]
   811e8:	f0000000 	adrp	x0, 84000 <sys_fork+0xc>
   811ec:	913e6000 	add	x0, x0, #0xf98
   811f0:	97fffcb4 	bl	804c0 <uart_puts>
   811f4:	f0000000 	adrp	x0, 84000 <sys_fork+0xc>
   811f8:	913ec000 	add	x0, x0, #0xfb0
   811fc:	97fffcb1 	bl	804c0 <uart_puts>
   81200:	f9400fa0 	ldr	x0, [x29, #24]
   81204:	97fffce8 	bl	805a4 <uart_puts_int>
   81208:	f0000000 	adrp	x0, 84000 <sys_fork+0xc>
   8120c:	913d6000 	add	x0, x0, #0xf58
   81210:	97fffcac 	bl	804c0 <uart_puts>
   81214:	f0000000 	adrp	x0, 84000 <sys_fork+0xc>
   81218:	913f0000 	add	x0, x0, #0xfc0
   8121c:	97fffca9 	bl	804c0 <uart_puts>
   81220:	d503201f 	nop
   81224:	a8c37bfd 	ldp	x29, x30, [sp], #48
   81228:	d65f03c0 	ret

000000000008122c <memcpy>:
   8122c:	f8408423 	ldr	x3, [x1], #8
   81230:	f8008403 	str	x3, [x0], #8
   81234:	f1002042 	subs	x2, x2, #0x8
   81238:	54ffffac 	b.gt	8122c <memcpy>
   8123c:	d65f03c0 	ret

0000000000081240 <memzero>:
   81240:	f800841f 	str	xzr, [x0], #8
   81244:	f1002021 	subs	x1, x1, #0x8
   81248:	54ffffcc 	b.gt	81240 <memzero>
   8124c:	d65f03c0 	ret

0000000000081250 <preempt_disable>:
   81250:	90000020 	adrp	x0, 85000 <core_timer_enable+0x1b8>
   81254:	912ae000 	add	x0, x0, #0xab8
   81258:	f9400000 	ldr	x0, [x0]
   8125c:	f100001f 	cmp	x0, #0x0
   81260:	540000e0 	b.eq	8127c <preempt_disable+0x2c>  // b.none
   81264:	90000020 	adrp	x0, 85000 <core_timer_enable+0x1b8>
   81268:	912ae000 	add	x0, x0, #0xab8
   8126c:	f9400000 	ldr	x0, [x0]
   81270:	b9418801 	ldr	w1, [x0, #392]
   81274:	11000421 	add	w1, w1, #0x1
   81278:	b9018801 	str	w1, [x0, #392]
   8127c:	d503201f 	nop
   81280:	d65f03c0 	ret

0000000000081284 <preempt_enable>:
   81284:	90000020 	adrp	x0, 85000 <core_timer_enable+0x1b8>
   81288:	912ae000 	add	x0, x0, #0xab8
   8128c:	f9400000 	ldr	x0, [x0]
   81290:	f100001f 	cmp	x0, #0x0
   81294:	540000e0 	b.eq	812b0 <preempt_enable+0x2c>  // b.none
   81298:	90000020 	adrp	x0, 85000 <core_timer_enable+0x1b8>
   8129c:	912ae000 	add	x0, x0, #0xab8
   812a0:	f9400000 	ldr	x0, [x0]
   812a4:	b9418801 	ldr	w1, [x0, #392]
   812a8:	51000421 	sub	w1, w1, #0x1
   812ac:	b9018801 	str	w1, [x0, #392]
   812b0:	d503201f 	nop
   812b4:	d65f03c0 	ret

00000000000812b8 <delay>:
   812b8:	d10043ff 	sub	sp, sp, #0x10
   812bc:	f90007e0 	str	x0, [sp, #8]
   812c0:	f94007e0 	ldr	x0, [sp, #8]
   812c4:	d1000400 	sub	x0, x0, #0x1
   812c8:	f90007e0 	str	x0, [sp, #8]
   812cc:	f94007e0 	ldr	x0, [sp, #8]
   812d0:	f100001f 	cmp	x0, #0x0
   812d4:	54ffff61 	b.ne	812c0 <delay+0x8>  // b.any
   812d8:	d503201f 	nop
   812dc:	910043ff 	add	sp, sp, #0x10
   812e0:	d65f03c0 	ret

00000000000812e4 <switch_to>:
   812e4:	a9bd7bfd 	stp	x29, x30, [sp, #-48]!
   812e8:	910003fd 	mov	x29, sp
   812ec:	f9000fa0 	str	x0, [x29, #24]
   812f0:	90000020 	adrp	x0, 85000 <core_timer_enable+0x1b8>
   812f4:	912ae000 	add	x0, x0, #0xab8
   812f8:	f9400000 	ldr	x0, [x0]
   812fc:	f90017a0 	str	x0, [x29, #40]
   81300:	90000020 	adrp	x0, 85000 <core_timer_enable+0x1b8>
   81304:	912ae000 	add	x0, x0, #0xab8
   81308:	f9400fa1 	ldr	x1, [x29, #24]
   8130c:	f9000001 	str	x1, [x0]
   81310:	f9400fa1 	ldr	x1, [x29, #24]
   81314:	f94017a0 	ldr	x0, [x29, #40]
   81318:	940002f8 	bl	81ef8 <cpu_switch_to>
   8131c:	d503201f 	nop
   81320:	a8c37bfd 	ldp	x29, x30, [sp], #48
   81324:	d65f03c0 	ret

0000000000081328 <task_pt_regs>:
   81328:	d10083ff 	sub	sp, sp, #0x20
   8132c:	f90007e0 	str	x0, [sp, #8]
   81330:	f94007e0 	ldr	x0, [sp, #8]
   81334:	913bc000 	add	x0, x0, #0xef0
   81338:	f9000fe0 	str	x0, [sp, #24]
   8133c:	f9400fe0 	ldr	x0, [sp, #24]
   81340:	910083ff 	add	sp, sp, #0x20
   81344:	d65f03c0 	ret

0000000000081348 <create_thread>:
   81348:	a9b97bfd 	stp	x29, x30, [sp, #-112]!
   8134c:	910003fd 	mov	x29, sp
   81350:	f90017a0 	str	x0, [x29, #40]
   81354:	f90013a1 	str	x1, [x29, #32]
   81358:	f9000fa2 	str	x2, [x29, #24]
   8135c:	f9000ba3 	str	x3, [x29, #16]
   81360:	97ffffbc 	bl	81250 <preempt_disable>
   81364:	52820000 	mov	w0, #0x1000                	// #4096
   81368:	97fffe6c 	bl	80d18 <kmalloc>
   8136c:	f9002fa0 	str	x0, [x29, #88]
   81370:	f9402fa0 	ldr	x0, [x29, #88]
   81374:	f100001f 	cmp	x0, #0x0
   81378:	54000061 	b.ne	81384 <create_thread+0x3c>  // b.any
   8137c:	52800020 	mov	w0, #0x1                   	// #1
   81380:	140000a6 	b	81618 <create_thread+0x2d0>
   81384:	f94017a0 	ldr	x0, [x29, #40]
   81388:	927f0000 	and	x0, x0, #0x2
   8138c:	f100001f 	cmp	x0, #0x0
   81390:	54000380 	b.eq	81400 <create_thread+0xb8>  // b.none
   81394:	f9402fa0 	ldr	x0, [x29, #88]
   81398:	f9400fa1 	ldr	x1, [x29, #24]
   8139c:	f9000401 	str	x1, [x0, #8]
   813a0:	f9402fa0 	ldr	x0, [x29, #88]
   813a4:	91400401 	add	x1, x0, #0x1, lsl #12
   813a8:	f9402fa0 	ldr	x0, [x29, #88]
   813ac:	f9003001 	str	x1, [x0, #96]
   813b0:	f9402fa0 	ldr	x0, [x29, #88]
   813b4:	91400401 	add	x1, x0, #0x1, lsl #12
   813b8:	f9402fa0 	ldr	x0, [x29, #88]
   813bc:	f9002801 	str	x1, [x0, #80]
   813c0:	f9402fa0 	ldr	x0, [x29, #88]
   813c4:	f94013a1 	ldr	x1, [x29, #32]
   813c8:	f9002c01 	str	x1, [x0, #88]
   813cc:	b9006fbf 	str	wzr, [x29, #108]
   813d0:	14000008 	b	813f0 <create_thread+0xa8>
   813d4:	f9402fa0 	ldr	x0, [x29, #88]
   813d8:	b9806fa1 	ldrsw	x1, [x29, #108]
   813dc:	9100c821 	add	x1, x1, #0x32
   813e0:	f821781f 	str	xzr, [x0, x1, lsl #3]
   813e4:	b9406fa0 	ldr	w0, [x29, #108]
   813e8:	11000400 	add	w0, w0, #0x1
   813ec:	b9006fa0 	str	w0, [x29, #108]
   813f0:	b9406fa0 	ldr	w0, [x29, #108]
   813f4:	7100101f 	cmp	w0, #0x4
   813f8:	54fffeed 	b.le	813d4 <create_thread+0x8c>
   813fc:	14000069 	b	815a0 <create_thread+0x258>
   81400:	f9402fa0 	ldr	x0, [x29, #88]
   81404:	f9002ba0 	str	x0, [x29, #80]
   81408:	90000020 	adrp	x0, 85000 <core_timer_enable+0x1b8>
   8140c:	912ae000 	add	x0, x0, #0xab8
   81410:	f9400000 	ldr	x0, [x0]
   81414:	f90027a0 	str	x0, [x29, #72]
   81418:	b9006bbf 	str	wzr, [x29, #104]
   8141c:	1400000c 	b	8144c <create_thread+0x104>
   81420:	b9806ba0 	ldrsw	x0, [x29, #104]
   81424:	f9402ba1 	ldr	x1, [x29, #80]
   81428:	8b000020 	add	x0, x1, x0
   8142c:	b9806ba1 	ldrsw	x1, [x29, #104]
   81430:	f94027a2 	ldr	x2, [x29, #72]
   81434:	8b010041 	add	x1, x2, x1
   81438:	39400021 	ldrb	w1, [x1]
   8143c:	39000001 	strb	w1, [x0]
   81440:	b9406ba0 	ldr	w0, [x29, #104]
   81444:	11000400 	add	w0, w0, #0x1
   81448:	b9006ba0 	str	w0, [x29, #104]
   8144c:	b9406ba0 	ldr	w0, [x29, #104]
   81450:	713ffc1f 	cmp	w0, #0xfff
   81454:	54fffe6d 	b.le	81420 <create_thread+0xd8>
   81458:	b90067bf 	str	wzr, [x29, #100]
   8145c:	1400000e 	b	81494 <create_thread+0x14c>
   81460:	90000020 	adrp	x0, 85000 <core_timer_enable+0x1b8>
   81464:	912ae000 	add	x0, x0, #0xab8
   81468:	f9400000 	ldr	x0, [x0]
   8146c:	b98067a1 	ldrsw	x1, [x29, #100]
   81470:	9100c821 	add	x1, x1, #0x32
   81474:	f8617802 	ldr	x2, [x0, x1, lsl #3]
   81478:	f9402fa0 	ldr	x0, [x29, #88]
   8147c:	b98067a1 	ldrsw	x1, [x29, #100]
   81480:	9100c821 	add	x1, x1, #0x32
   81484:	f8217802 	str	x2, [x0, x1, lsl #3]
   81488:	b94067a0 	ldr	w0, [x29, #100]
   8148c:	11000400 	add	w0, w0, #0x1
   81490:	b90067a0 	str	w0, [x29, #100]
   81494:	b94067a0 	ldr	w0, [x29, #100]
   81498:	7100101f 	cmp	w0, #0x4
   8149c:	54fffe2d 	b.le	81460 <create_thread+0x118>
   814a0:	f9402fa0 	ldr	x0, [x29, #88]
   814a4:	90000021 	adrp	x1, 85000 <core_timer_enable+0x1b8>
   814a8:	912ae021 	add	x1, x1, #0xab8
   814ac:	f9400021 	ldr	x1, [x1]
   814b0:	cb010000 	sub	x0, x0, x1
   814b4:	f90023a0 	str	x0, [x29, #64]
   814b8:	f9402fa0 	ldr	x0, [x29, #88]
   814bc:	f900401f 	str	xzr, [x0, #128]
   814c0:	f9402fa0 	ldr	x0, [x29, #88]
   814c4:	f9402801 	ldr	x1, [x0, #80]
   814c8:	f94023a0 	ldr	x0, [x29, #64]
   814cc:	8b000021 	add	x1, x1, x0
   814d0:	f9402fa0 	ldr	x0, [x29, #88]
   814d4:	f9002801 	str	x1, [x0, #80]
   814d8:	f9402fa0 	ldr	x0, [x29, #88]
   814dc:	f9403001 	ldr	x1, [x0, #96]
   814e0:	f94023a0 	ldr	x0, [x29, #64]
   814e4:	8b000021 	add	x1, x1, x0
   814e8:	f9402fa0 	ldr	x0, [x29, #88]
   814ec:	f9003001 	str	x1, [x0, #96]
   814f0:	f9402fa0 	ldr	x0, [x29, #88]
   814f4:	f9403800 	ldr	x0, [x0, #112]
   814f8:	91440001 	add	x1, x0, #0x100, lsl #12
   814fc:	f9402fa0 	ldr	x0, [x29, #88]
   81500:	f9003801 	str	x1, [x0, #112]
   81504:	f9402fa0 	ldr	x0, [x29, #88]
   81508:	f9403c00 	ldr	x0, [x0, #120]
   8150c:	91440001 	add	x1, x0, #0x100, lsl #12
   81510:	f9402fa0 	ldr	x0, [x29, #88]
   81514:	f9003c01 	str	x1, [x0, #120]
   81518:	f9402fa0 	ldr	x0, [x29, #88]
   8151c:	f940b400 	ldr	x0, [x0, #360]
   81520:	91440001 	add	x1, x0, #0x100, lsl #12
   81524:	f9402fa0 	ldr	x0, [x29, #88]
   81528:	f900b401 	str	x1, [x0, #360]
   8152c:	f9402fa0 	ldr	x0, [x29, #88]
   81530:	f940b800 	ldr	x0, [x0, #368]
   81534:	91440001 	add	x1, x0, #0x100, lsl #12
   81538:	f9402fa0 	ldr	x0, [x29, #88]
   8153c:	f900b801 	str	x1, [x0, #368]
   81540:	90000020 	adrp	x0, 85000 <core_timer_enable+0x1b8>
   81544:	912ae000 	add	x0, x0, #0xab8
   81548:	f9400000 	ldr	x0, [x0]
   8154c:	f9403c00 	ldr	x0, [x0, #120]
   81550:	f9001fa0 	str	x0, [x29, #56]
   81554:	f9402fa0 	ldr	x0, [x29, #88]
   81558:	f9403c00 	ldr	x0, [x0, #120]
   8155c:	f9001ba0 	str	x0, [x29, #48]
   81560:	b90063bf 	str	wzr, [x29, #96]
   81564:	1400000c 	b	81594 <create_thread+0x24c>
   81568:	b98063a0 	ldrsw	x0, [x29, #96]
   8156c:	f9401ba1 	ldr	x1, [x29, #48]
   81570:	8b000020 	add	x0, x1, x0
   81574:	b98063a1 	ldrsw	x1, [x29, #96]
   81578:	f9401fa2 	ldr	x2, [x29, #56]
   8157c:	8b010041 	add	x1, x2, x1
   81580:	39400021 	ldrb	w1, [x1]
   81584:	39000001 	strb	w1, [x0]
   81588:	b94063a0 	ldr	w0, [x29, #96]
   8158c:	11000400 	add	w0, w0, #0x1
   81590:	b90063a0 	str	w0, [x29, #96]
   81594:	b94063a0 	ldr	w0, [x29, #96]
   81598:	713ffc1f 	cmp	w0, #0xfff
   8159c:	54fffe6d 	b.le	81568 <create_thread+0x220>
   815a0:	90000020 	adrp	x0, 85000 <core_timer_enable+0x1b8>
   815a4:	912b0000 	add	x0, x0, #0xac0
   815a8:	b9400000 	ldr	w0, [x0]
   815ac:	11000402 	add	w2, w0, #0x1
   815b0:	90000021 	adrp	x1, 85000 <core_timer_enable+0x1b8>
   815b4:	912b0021 	add	x1, x1, #0xac0
   815b8:	b9000022 	str	w2, [x1]
   815bc:	2a0003e1 	mov	w1, w0
   815c0:	f9402fa0 	ldr	x0, [x29, #88]
   815c4:	b9017801 	str	w1, [x0, #376]
   815c8:	f9402fa0 	ldr	x0, [x29, #88]
   815cc:	52800021 	mov	w1, #0x1                   	// #1
   815d0:	b9017c01 	str	w1, [x0, #380]
   815d4:	f9402fa0 	ldr	x0, [x29, #88]
   815d8:	52800041 	mov	w1, #0x2                   	// #2
   815dc:	b9018001 	str	w1, [x0, #384]
   815e0:	f9402fa0 	ldr	x0, [x29, #88]
   815e4:	b9418001 	ldr	w1, [x0, #384]
   815e8:	f9402fa0 	ldr	x0, [x29, #88]
   815ec:	b9018401 	str	w1, [x0, #388]
   815f0:	f9402fa0 	ldr	x0, [x29, #88]
   815f4:	b9417801 	ldr	w1, [x0, #376]
   815f8:	90000020 	adrp	x0, 85000 <core_timer_enable+0x1b8>
   815fc:	9122e000 	add	x0, x0, #0x8b8
   81600:	2a0103e1 	mov	w1, w1
   81604:	f9402fa2 	ldr	x2, [x29, #88]
   81608:	f8217802 	str	x2, [x0, x1, lsl #3]
   8160c:	97ffff1e 	bl	81284 <preempt_enable>
   81610:	f9402fa0 	ldr	x0, [x29, #88]
   81614:	b9417800 	ldr	w0, [x0, #376]
   81618:	a8c77bfd 	ldp	x29, x30, [sp], #112
   8161c:	d65f03c0 	ret

0000000000081620 <scheduler>:
   81620:	a9bd7bfd 	stp	x29, x30, [sp, #-48]!
   81624:	910003fd 	mov	x29, sp
   81628:	97ffff0a 	bl	81250 <preempt_disable>
   8162c:	f9000fbf 	str	xzr, [x29, #24]
   81630:	b9002bbf 	str	wzr, [x29, #40]
   81634:	90000020 	adrp	x0, 85000 <core_timer_enable+0x1b8>
   81638:	912ae000 	add	x0, x0, #0xab8
   8163c:	f9400000 	ldr	x0, [x0]
   81640:	f100001f 	cmp	x0, #0x0
   81644:	54000200 	b.eq	81684 <scheduler+0x64>  // b.none
   81648:	90000020 	adrp	x0, 85000 <core_timer_enable+0x1b8>
   8164c:	912ae000 	add	x0, x0, #0xab8
   81650:	f9400000 	ldr	x0, [x0]
   81654:	b9417c00 	ldr	w0, [x0, #380]
   81658:	7100081f 	cmp	w0, #0x2
   8165c:	54000140 	b.eq	81684 <scheduler+0x64>  // b.none
   81660:	90000020 	adrp	x0, 85000 <core_timer_enable+0x1b8>
   81664:	912ae000 	add	x0, x0, #0xab8
   81668:	f9400000 	ldr	x0, [x0]
   8166c:	52800021 	mov	w1, #0x1                   	// #1
   81670:	b9017c01 	str	w1, [x0, #380]
   81674:	90000020 	adrp	x0, 85000 <core_timer_enable+0x1b8>
   81678:	912ae000 	add	x0, x0, #0xab8
   8167c:	f9400000 	ldr	x0, [x0]
   81680:	b901841f 	str	wzr, [x0, #388]
   81684:	b90027bf 	str	wzr, [x29, #36]
   81688:	14000022 	b	81710 <scheduler+0xf0>
   8168c:	90000020 	adrp	x0, 85000 <core_timer_enable+0x1b8>
   81690:	911de000 	add	x0, x0, #0x778
   81694:	b9400000 	ldr	w0, [x0]
   81698:	11000400 	add	w0, w0, #0x1
   8169c:	90000021 	adrp	x1, 85000 <core_timer_enable+0x1b8>
   816a0:	912b0021 	add	x1, x1, #0xac0
   816a4:	b9400021 	ldr	w1, [x1]
   816a8:	1ac10c02 	sdiv	w2, w0, w1
   816ac:	1b017c41 	mul	w1, w2, w1
   816b0:	4b010000 	sub	w0, w0, w1
   816b4:	b9002fa0 	str	w0, [x29, #44]
   816b8:	90000020 	adrp	x0, 85000 <core_timer_enable+0x1b8>
   816bc:	9122e000 	add	x0, x0, #0x8b8
   816c0:	b9802fa1 	ldrsw	x1, [x29, #44]
   816c4:	f8617800 	ldr	x0, [x0, x1, lsl #3]
   816c8:	f9000fa0 	str	x0, [x29, #24]
   816cc:	f9400fa0 	ldr	x0, [x29, #24]
   816d0:	f100001f 	cmp	x0, #0x0
   816d4:	54000180 	b.eq	81704 <scheduler+0xe4>  // b.none
   816d8:	f9400fa0 	ldr	x0, [x29, #24]
   816dc:	b9417c00 	ldr	w0, [x0, #380]
   816e0:	7100041f 	cmp	w0, #0x1
   816e4:	54000101 	b.ne	81704 <scheduler+0xe4>  // b.any
   816e8:	f9400fa0 	ldr	x0, [x29, #24]
   816ec:	b9418400 	ldr	w0, [x0, #388]
   816f0:	7100001f 	cmp	w0, #0x0
   816f4:	54000080 	b.eq	81704 <scheduler+0xe4>  // b.none
   816f8:	52800020 	mov	w0, #0x1                   	// #1
   816fc:	b9002ba0 	str	w0, [x29, #40]
   81700:	1400000a 	b	81728 <scheduler+0x108>
   81704:	b94027a0 	ldr	w0, [x29, #36]
   81708:	11000400 	add	w0, w0, #0x1
   8170c:	b90027a0 	str	w0, [x29, #36]
   81710:	90000020 	adrp	x0, 85000 <core_timer_enable+0x1b8>
   81714:	912b0000 	add	x0, x0, #0xac0
   81718:	b9400000 	ldr	w0, [x0]
   8171c:	b94027a1 	ldr	w1, [x29, #36]
   81720:	6b00003f 	cmp	w1, w0
   81724:	54fffb4b 	b.lt	8168c <scheduler+0x6c>  // b.tstop
   81728:	b9402ba0 	ldr	w0, [x29, #40]
   8172c:	7100001f 	cmp	w0, #0x0
   81730:	54000341 	b.ne	81798 <scheduler+0x178>  // b.any
   81734:	b90023bf 	str	wzr, [x29, #32]
   81738:	14000011 	b	8177c <scheduler+0x15c>
   8173c:	90000020 	adrp	x0, 85000 <core_timer_enable+0x1b8>
   81740:	9122e000 	add	x0, x0, #0x8b8
   81744:	b98023a1 	ldrsw	x1, [x29, #32]
   81748:	f8617800 	ldr	x0, [x0, x1, lsl #3]
   8174c:	f9000fa0 	str	x0, [x29, #24]
   81750:	f9400fa0 	ldr	x0, [x29, #24]
   81754:	b9418400 	ldr	w0, [x0, #388]
   81758:	53017c01 	lsr	w1, w0, #1
   8175c:	f9400fa0 	ldr	x0, [x29, #24]
   81760:	b9418000 	ldr	w0, [x0, #384]
   81764:	0b000021 	add	w1, w1, w0
   81768:	f9400fa0 	ldr	x0, [x29, #24]
   8176c:	b9018401 	str	w1, [x0, #388]
   81770:	b94023a0 	ldr	w0, [x29, #32]
   81774:	11000400 	add	w0, w0, #0x1
   81778:	b90023a0 	str	w0, [x29, #32]
   8177c:	90000020 	adrp	x0, 85000 <core_timer_enable+0x1b8>
   81780:	912b0000 	add	x0, x0, #0xac0
   81784:	b9400000 	ldr	w0, [x0]
   81788:	b94023a1 	ldr	w1, [x29, #32]
   8178c:	6b00003f 	cmp	w1, w0
   81790:	54fffd6b 	b.lt	8173c <scheduler+0x11c>  // b.tstop
   81794:	b9002fbf 	str	wzr, [x29, #44]
   81798:	90000020 	adrp	x0, 85000 <core_timer_enable+0x1b8>
   8179c:	9122e000 	add	x0, x0, #0x8b8
   817a0:	b9802fa1 	ldrsw	x1, [x29, #44]
   817a4:	f8617800 	ldr	x0, [x0, x1, lsl #3]
   817a8:	b9017c1f 	str	wzr, [x0, #380]
   817ac:	90000020 	adrp	x0, 85000 <core_timer_enable+0x1b8>
   817b0:	911de000 	add	x0, x0, #0x778
   817b4:	b9402fa1 	ldr	w1, [x29, #44]
   817b8:	b9000001 	str	w1, [x0]
   817bc:	90000020 	adrp	x0, 85000 <core_timer_enable+0x1b8>
   817c0:	9122e000 	add	x0, x0, #0x8b8
   817c4:	b9802fa1 	ldrsw	x1, [x29, #44]
   817c8:	f8617800 	ldr	x0, [x0, x1, lsl #3]
   817cc:	97fffec6 	bl	812e4 <switch_to>
   817d0:	97fffead 	bl	81284 <preempt_enable>
   817d4:	d503201f 	nop
   817d8:	a8c37bfd 	ldp	x29, x30, [sp], #48
   817dc:	d65f03c0 	ret

00000000000817e0 <schedule_tail>:
   817e0:	a9bf7bfd 	stp	x29, x30, [sp, #-16]!
   817e4:	910003fd 	mov	x29, sp
   817e8:	97fffea7 	bl	81284 <preempt_enable>
   817ec:	d503201f 	nop
   817f0:	a8c17bfd 	ldp	x29, x30, [sp], #16
   817f4:	d65f03c0 	ret

00000000000817f8 <timer_tick>:
   817f8:	a9bf7bfd 	stp	x29, x30, [sp, #-16]!
   817fc:	910003fd 	mov	x29, sp
   81800:	90000020 	adrp	x0, 85000 <core_timer_enable+0x1b8>
   81804:	912ae000 	add	x0, x0, #0xab8
   81808:	f9400000 	ldr	x0, [x0]
   8180c:	b9418401 	ldr	w1, [x0, #388]
   81810:	51000421 	sub	w1, w1, #0x1
   81814:	b9018401 	str	w1, [x0, #388]
   81818:	90000020 	adrp	x0, 85000 <core_timer_enable+0x1b8>
   8181c:	912ae000 	add	x0, x0, #0xab8
   81820:	f9400000 	ldr	x0, [x0]
   81824:	b9418400 	ldr	w0, [x0, #388]
   81828:	7100001f 	cmp	w0, #0x0
   8182c:	54000141 	b.ne	81854 <timer_tick+0x5c>  // b.any
   81830:	90000020 	adrp	x0, 85000 <core_timer_enable+0x1b8>
   81834:	912ae000 	add	x0, x0, #0xab8
   81838:	f9400000 	ldr	x0, [x0]
   8183c:	b901841f 	str	wzr, [x0, #388]
   81840:	f0000000 	adrp	x0, 84000 <sys_fork+0xc>
   81844:	913f6000 	add	x0, x0, #0xfd8
   81848:	97fffb1e 	bl	804c0 <uart_puts>
   8184c:	97ffff75 	bl	81620 <scheduler>
   81850:	14000002 	b	81858 <timer_tick+0x60>
   81854:	d503201f 	nop
   81858:	a8c17bfd 	ldp	x29, x30, [sp], #16
   8185c:	d65f03c0 	ret

0000000000081860 <_exit>:
   81860:	a9bf7bfd 	stp	x29, x30, [sp, #-16]!
   81864:	910003fd 	mov	x29, sp
   81868:	97fffe7a 	bl	81250 <preempt_disable>
   8186c:	90000020 	adrp	x0, 85000 <core_timer_enable+0x1b8>
   81870:	912ae000 	add	x0, x0, #0xab8
   81874:	f9400000 	ldr	x0, [x0]
   81878:	52800041 	mov	w1, #0x2                   	// #2
   8187c:	b9017c01 	str	w1, [x0, #380]
   81880:	f0000000 	adrp	x0, 84000 <sys_fork+0xc>
   81884:	913fa000 	add	x0, x0, #0xfe8
   81888:	97fffb0e 	bl	804c0 <uart_puts>
   8188c:	90000020 	adrp	x0, 85000 <core_timer_enable+0x1b8>
   81890:	912ae000 	add	x0, x0, #0xab8
   81894:	f9400000 	ldr	x0, [x0]
   81898:	b9417800 	ldr	w0, [x0, #376]
   8189c:	97fffb42 	bl	805a4 <uart_puts_int>
   818a0:	f0000000 	adrp	x0, 84000 <sys_fork+0xc>
   818a4:	913fc000 	add	x0, x0, #0xff0
   818a8:	97fffb06 	bl	804c0 <uart_puts>
   818ac:	97fffe76 	bl	81284 <preempt_enable>
   818b0:	97ffff5c 	bl	81620 <scheduler>
   818b4:	d503201f 	nop
   818b8:	a8c17bfd 	ldp	x29, x30, [sp], #16
   818bc:	d65f03c0 	ret

00000000000818c0 <relocate_queue>:
   818c0:	a9bc7bfd 	stp	x29, x30, [sp, #-64]!
   818c4:	910003fd 	mov	x29, sp
   818c8:	b9003fbf 	str	wzr, [x29, #60]
   818cc:	1400002f 	b	81988 <relocate_queue+0xc8>
   818d0:	90000020 	adrp	x0, 85000 <core_timer_enable+0x1b8>
   818d4:	9122e000 	add	x0, x0, #0x8b8
   818d8:	b9803fa1 	ldrsw	x1, [x29, #60]
   818dc:	f8617800 	ldr	x0, [x0, x1, lsl #3]
   818e0:	f90017a0 	str	x0, [x29, #40]
   818e4:	f94017a0 	ldr	x0, [x29, #40]
   818e8:	b9417c00 	ldr	w0, [x0, #380]
   818ec:	7100081f 	cmp	w0, #0x2
   818f0:	54000461 	b.ne	8197c <relocate_queue+0xbc>  // b.any
   818f4:	90000020 	adrp	x0, 85000 <core_timer_enable+0x1b8>
   818f8:	91000000 	add	x0, x0, #0x0
   818fc:	97fffaf1 	bl	804c0 <uart_puts>
   81900:	b9403fa0 	ldr	w0, [x29, #60]
   81904:	11000400 	add	w0, w0, #0x1
   81908:	b9003ba0 	str	w0, [x29, #56]
   8190c:	14000019 	b	81970 <relocate_queue+0xb0>
   81910:	90000020 	adrp	x0, 85000 <core_timer_enable+0x1b8>
   81914:	9122e000 	add	x0, x0, #0x8b8
   81918:	b9803ba1 	ldrsw	x1, [x29, #56]
   8191c:	f8617800 	ldr	x0, [x0, x1, lsl #3]
   81920:	f90013a0 	str	x0, [x29, #32]
   81924:	f94013a0 	ldr	x0, [x29, #32]
   81928:	f100001f 	cmp	x0, #0x0
   8192c:	540001c0 	b.eq	81964 <relocate_queue+0xa4>  // b.none
   81930:	f94013a0 	ldr	x0, [x29, #32]
   81934:	b9417c00 	ldr	w0, [x0, #380]
   81938:	7100081f 	cmp	w0, #0x2
   8193c:	54000140 	b.eq	81964 <relocate_queue+0xa4>  // b.none
   81940:	90000020 	adrp	x0, 85000 <core_timer_enable+0x1b8>
   81944:	9122e000 	add	x0, x0, #0x8b8
   81948:	b9803fa1 	ldrsw	x1, [x29, #60]
   8194c:	f94013a2 	ldr	x2, [x29, #32]
   81950:	f8217802 	str	x2, [x0, x1, lsl #3]
   81954:	90000020 	adrp	x0, 85000 <core_timer_enable+0x1b8>
   81958:	9122e000 	add	x0, x0, #0x8b8
   8195c:	b9803ba1 	ldrsw	x1, [x29, #56]
   81960:	f821781f 	str	xzr, [x0, x1, lsl #3]
   81964:	b9403ba0 	ldr	w0, [x29, #56]
   81968:	11000400 	add	w0, w0, #0x1
   8196c:	b9003ba0 	str	w0, [x29, #56]
   81970:	b9403ba0 	ldr	w0, [x29, #56]
   81974:	7100fc1f 	cmp	w0, #0x3f
   81978:	54fffccd 	b.le	81910 <relocate_queue+0x50>
   8197c:	b9403fa0 	ldr	w0, [x29, #60]
   81980:	11000400 	add	w0, w0, #0x1
   81984:	b9003fa0 	str	w0, [x29, #60]
   81988:	90000020 	adrp	x0, 85000 <core_timer_enable+0x1b8>
   8198c:	912b0000 	add	x0, x0, #0xac0
   81990:	b9400000 	ldr	w0, [x0]
   81994:	b9403fa1 	ldr	w1, [x29, #60]
   81998:	6b00003f 	cmp	w1, w0
   8199c:	54fff9ab 	b.lt	818d0 <relocate_queue+0x10>  // b.tstop
   819a0:	b90037bf 	str	wzr, [x29, #52]
   819a4:	14000014 	b	819f4 <relocate_queue+0x134>
   819a8:	90000020 	adrp	x0, 85000 <core_timer_enable+0x1b8>
   819ac:	9122e000 	add	x0, x0, #0x8b8
   819b0:	b98037a1 	ldrsw	x1, [x29, #52]
   819b4:	f8617800 	ldr	x0, [x0, x1, lsl #3]
   819b8:	f9000fa0 	str	x0, [x29, #24]
   819bc:	f9400fa0 	ldr	x0, [x29, #24]
   819c0:	f100001f 	cmp	x0, #0x0
   819c4:	54000120 	b.eq	819e8 <relocate_queue+0x128>  // b.none
   819c8:	f9400fa0 	ldr	x0, [x29, #24]
   819cc:	b9417c00 	ldr	w0, [x0, #380]
   819d0:	7100081f 	cmp	w0, #0x2
   819d4:	540000a1 	b.ne	819e8 <relocate_queue+0x128>  // b.any
   819d8:	90000020 	adrp	x0, 85000 <core_timer_enable+0x1b8>
   819dc:	9122e000 	add	x0, x0, #0x8b8
   819e0:	b98037a1 	ldrsw	x1, [x29, #52]
   819e4:	f821781f 	str	xzr, [x0, x1, lsl #3]
   819e8:	b94037a0 	ldr	w0, [x29, #52]
   819ec:	11000400 	add	w0, w0, #0x1
   819f0:	b90037a0 	str	w0, [x29, #52]
   819f4:	b94037a0 	ldr	w0, [x29, #52]
   819f8:	7100fc1f 	cmp	w0, #0x3f
   819fc:	54fffd6d 	b.le	819a8 <relocate_queue+0xe8>
   81a00:	d503201f 	nop
   81a04:	a8c47bfd 	ldp	x29, x30, [sp], #64
   81a08:	d65f03c0 	ret

0000000000081a0c <idle>:
   81a0c:	a9be7bfd 	stp	x29, x30, [sp, #-32]!
   81a10:	910003fd 	mov	x29, sp
   81a14:	97fffe0f 	bl	81250 <preempt_disable>
   81a18:	b9001fbf 	str	wzr, [x29, #28]
   81a1c:	1400002d 	b	81ad0 <idle+0xc4>
   81a20:	90000020 	adrp	x0, 85000 <core_timer_enable+0x1b8>
   81a24:	9122e000 	add	x0, x0, #0x8b8
   81a28:	b9801fa1 	ldrsw	x1, [x29, #28]
   81a2c:	f8617800 	ldr	x0, [x0, x1, lsl #3]
   81a30:	f9000ba0 	str	x0, [x29, #16]
   81a34:	f9400ba0 	ldr	x0, [x29, #16]
   81a38:	f100001f 	cmp	x0, #0x0
   81a3c:	54000440 	b.eq	81ac4 <idle+0xb8>  // b.none
   81a40:	f9400ba0 	ldr	x0, [x29, #16]
   81a44:	b9417c00 	ldr	w0, [x0, #380]
   81a48:	7100081f 	cmp	w0, #0x2
   81a4c:	540003c1 	b.ne	81ac4 <idle+0xb8>  // b.any
   81a50:	b9001bbf 	str	wzr, [x29, #24]
   81a54:	1400000f 	b	81a90 <idle+0x84>
   81a58:	f9400ba0 	ldr	x0, [x29, #16]
   81a5c:	b9801ba1 	ldrsw	x1, [x29, #24]
   81a60:	9100c821 	add	x1, x1, #0x32
   81a64:	f8617800 	ldr	x0, [x0, x1, lsl #3]
   81a68:	f100001f 	cmp	x0, #0x0
   81a6c:	540000c0 	b.eq	81a84 <idle+0x78>  // b.none
   81a70:	f9400ba0 	ldr	x0, [x29, #16]
   81a74:	b9801ba1 	ldrsw	x1, [x29, #24]
   81a78:	9100c821 	add	x1, x1, #0x32
   81a7c:	f8617800 	ldr	x0, [x0, x1, lsl #3]
   81a80:	97fff9f2 	bl	80248 <vfs_close>
   81a84:	b9401ba0 	ldr	w0, [x29, #24]
   81a88:	11000400 	add	w0, w0, #0x1
   81a8c:	b9001ba0 	str	w0, [x29, #24]
   81a90:	b9401ba0 	ldr	w0, [x29, #24]
   81a94:	7100101f 	cmp	w0, #0x4
   81a98:	54fffe0d 	b.le	81a58 <idle+0x4c>
   81a9c:	f9400ba0 	ldr	x0, [x29, #16]
   81aa0:	52820001 	mov	w1, #0x1000                	// #4096
   81aa4:	97fffd52 	bl	80fec <free_page>
   81aa8:	90000020 	adrp	x0, 85000 <core_timer_enable+0x1b8>
   81aac:	912b0000 	add	x0, x0, #0xac0
   81ab0:	b9400000 	ldr	w0, [x0]
   81ab4:	51000401 	sub	w1, w0, #0x1
   81ab8:	90000020 	adrp	x0, 85000 <core_timer_enable+0x1b8>
   81abc:	912b0000 	add	x0, x0, #0xac0
   81ac0:	b9000001 	str	w1, [x0]
   81ac4:	b9401fa0 	ldr	w0, [x29, #28]
   81ac8:	11000400 	add	w0, w0, #0x1
   81acc:	b9001fa0 	str	w0, [x29, #28]
   81ad0:	b9401fa0 	ldr	w0, [x29, #28]
   81ad4:	7100fc1f 	cmp	w0, #0x3f
   81ad8:	54fffa4d 	b.le	81a20 <idle+0x14>
   81adc:	97ffff79 	bl	818c0 <relocate_queue>
   81ae0:	97fffde9 	bl	81284 <preempt_enable>
   81ae4:	90000020 	adrp	x0, 85000 <core_timer_enable+0x1b8>
   81ae8:	91004000 	add	x0, x0, #0x10
   81aec:	97fffa75 	bl	804c0 <uart_puts>
   81af0:	90000020 	adrp	x0, 85000 <core_timer_enable+0x1b8>
   81af4:	912b0000 	add	x0, x0, #0xac0
   81af8:	b9400000 	ldr	w0, [x0]
   81afc:	97fffaaa 	bl	805a4 <uart_puts_int>
   81b00:	90000020 	adrp	x0, 85000 <core_timer_enable+0x1b8>
   81b04:	9100c000 	add	x0, x0, #0x30
   81b08:	97fffa6e 	bl	804c0 <uart_puts>
   81b0c:	d2884800 	mov	x0, #0x4240                	// #16960
   81b10:	f2a001e0 	movk	x0, #0xf, lsl #16
   81b14:	97fffde9 	bl	812b8 <delay>
   81b18:	97fffec2 	bl	81620 <scheduler>
   81b1c:	17ffffbe 	b	81a14 <idle+0x8>

0000000000081b20 <_exec>:
   81b20:	a9bd7bfd 	stp	x29, x30, [sp, #-48]!
   81b24:	910003fd 	mov	x29, sp
   81b28:	f9000fa0 	str	x0, [x29, #24]
   81b2c:	f9000ba1 	str	x1, [x29, #16]
   81b30:	f9400ba1 	ldr	x1, [x29, #16]
   81b34:	f9400fa0 	ldr	x0, [x29, #24]
   81b38:	9400071b 	bl	837a4 <load_user_program_withArgv>
   81b3c:	f90017a0 	str	x0, [x29, #40]
   81b40:	f94017a0 	ldr	x0, [x29, #40]
   81b44:	f100001f 	cmp	x0, #0x0
   81b48:	540000c1 	b.ne	81b60 <_exec+0x40>  // b.any
   81b4c:	90000020 	adrp	x0, 85000 <core_timer_enable+0x1b8>
   81b50:	91010000 	add	x0, x0, #0x40
   81b54:	97fffa5b 	bl	804c0 <uart_puts>
   81b58:	97ffff42 	bl	81860 <_exit>
   81b5c:	14000004 	b	81b6c <_exec+0x4c>
   81b60:	90000020 	adrp	x0, 85000 <core_timer_enable+0x1b8>
   81b64:	91018000 	add	x0, x0, #0x60
   81b68:	97fffa56 	bl	804c0 <uart_puts>
   81b6c:	a8c37bfd 	ldp	x29, x30, [sp], #48
   81b70:	d65f03c0 	ret

0000000000081b74 <lab3>:
   81b74:	a9bd7bfd 	stp	x29, x30, [sp, #-48]!
   81b78:	910003fd 	mov	x29, sp
   81b7c:	52800200 	mov	w0, #0x10                  	// #16
   81b80:	97fffc66 	bl	80d18 <kmalloc>
   81b84:	f90017a0 	str	x0, [x29, #40]
   81b88:	52800500 	mov	w0, #0x28                  	// #40
   81b8c:	97fffc63 	bl	80d18 <kmalloc>
   81b90:	f90013a0 	str	x0, [x29, #32]
   81b94:	52820000 	mov	w0, #0x1000                	// #4096
   81b98:	97fffc60 	bl	80d18 <kmalloc>
   81b9c:	f9000fa0 	str	x0, [x29, #24]
   81ba0:	52808000 	mov	w0, #0x400                 	// #1024
   81ba4:	97fffc5d 	bl	80d18 <kmalloc>
   81ba8:	f9000ba0 	str	x0, [x29, #16]
   81bac:	52820001 	mov	w1, #0x1000                	// #4096
   81bb0:	f9400fa0 	ldr	x0, [x29, #24]
   81bb4:	97fffd0e 	bl	80fec <free_page>
   81bb8:	52808001 	mov	w1, #0x400                 	// #1024
   81bbc:	f9400ba0 	ldr	x0, [x29, #16]
   81bc0:	97fffd0b 	bl	80fec <free_page>
   81bc4:	52800501 	mov	w1, #0x28                  	// #40
   81bc8:	f94013a0 	ldr	x0, [x29, #32]
   81bcc:	97fffd08 	bl	80fec <free_page>
   81bd0:	52800201 	mov	w1, #0x10                  	// #16
   81bd4:	f94017a0 	ldr	x0, [x29, #40]
   81bd8:	97fffd05 	bl	80fec <free_page>
   81bdc:	d503201f 	nop
   81be0:	a8c37bfd 	ldp	x29, x30, [sp], #48
   81be4:	d65f03c0 	ret

0000000000081be8 <foo>:
   81be8:	a9be7bfd 	stp	x29, x30, [sp, #-32]!
   81bec:	910003fd 	mov	x29, sp
   81bf0:	b9001fbf 	str	wzr, [x29, #28]
   81bf4:	14000018 	b	81c54 <foo+0x6c>
   81bf8:	90000020 	adrp	x0, 85000 <core_timer_enable+0x1b8>
   81bfc:	91020000 	add	x0, x0, #0x80
   81c00:	97fffa30 	bl	804c0 <uart_puts>
   81c04:	90000020 	adrp	x0, 85000 <core_timer_enable+0x1b8>
   81c08:	912ae000 	add	x0, x0, #0xab8
   81c0c:	f9400000 	ldr	x0, [x0]
   81c10:	b9417800 	ldr	w0, [x0, #376]
   81c14:	97fffa64 	bl	805a4 <uart_puts_int>
   81c18:	90000020 	adrp	x0, 85000 <core_timer_enable+0x1b8>
   81c1c:	91024000 	add	x0, x0, #0x90
   81c20:	97fffa28 	bl	804c0 <uart_puts>
   81c24:	b9401fa0 	ldr	w0, [x29, #28]
   81c28:	97fffa5f 	bl	805a4 <uart_puts_int>
   81c2c:	90000020 	adrp	x0, 85000 <core_timer_enable+0x1b8>
   81c30:	91026000 	add	x0, x0, #0x98
   81c34:	97fffa23 	bl	804c0 <uart_puts>
   81c38:	d2884800 	mov	x0, #0x4240                	// #16960
   81c3c:	f2a001e0 	movk	x0, #0xf, lsl #16
   81c40:	97fffd9e 	bl	812b8 <delay>
   81c44:	97fffe77 	bl	81620 <scheduler>
   81c48:	b9401fa0 	ldr	w0, [x29, #28]
   81c4c:	11000400 	add	w0, w0, #0x1
   81c50:	b9001fa0 	str	w0, [x29, #28]
   81c54:	b9401fa0 	ldr	w0, [x29, #28]
   81c58:	7100241f 	cmp	w0, #0x9
   81c5c:	54fffced 	b.le	81bf8 <foo+0x10>
   81c60:	97ffff00 	bl	81860 <_exit>
   81c64:	d503201f 	nop
   81c68:	a8c27bfd 	ldp	x29, x30, [sp], #32
   81c6c:	d65f03c0 	ret

0000000000081c70 <lab5_required_1>:
   81c70:	a9bd7bfd 	stp	x29, x30, [sp, #-48]!
   81c74:	910003fd 	mov	x29, sp
   81c78:	b9001fa0 	str	w0, [x29, #28]
   81c7c:	b9002bbf 	str	wzr, [x29, #40]
   81c80:	b9002fbf 	str	wzr, [x29, #44]
   81c84:	1400000c 	b	81cb4 <lab5_required_1+0x44>
   81c88:	90000000 	adrp	x0, 81000 <free_page+0x14>
   81c8c:	912fa000 	add	x0, x0, #0xbe8
   81c90:	d2800003 	mov	x3, #0x0                   	// #0
   81c94:	d2800002 	mov	x2, #0x0                   	// #0
   81c98:	aa0003e1 	mov	x1, x0
   81c9c:	d2800040 	mov	x0, #0x2                   	// #2
   81ca0:	97fffdaa 	bl	81348 <create_thread>
   81ca4:	b9002ba0 	str	w0, [x29, #40]
   81ca8:	b9402fa0 	ldr	w0, [x29, #44]
   81cac:	11000400 	add	w0, w0, #0x1
   81cb0:	b9002fa0 	str	w0, [x29, #44]
   81cb4:	b9402fa1 	ldr	w1, [x29, #44]
   81cb8:	b9401fa0 	ldr	w0, [x29, #28]
   81cbc:	6b00003f 	cmp	w1, w0
   81cc0:	54fffe4b 	b.lt	81c88 <lab5_required_1+0x18>  // b.tstop
   81cc4:	90000000 	adrp	x0, 81000 <free_page+0x14>
   81cc8:	91283000 	add	x0, x0, #0xa0c
   81ccc:	d2800003 	mov	x3, #0x0                   	// #0
   81cd0:	d2800002 	mov	x2, #0x0                   	// #0
   81cd4:	aa0003e1 	mov	x1, x0
   81cd8:	d2800040 	mov	x0, #0x2                   	// #2
   81cdc:	97fffd9b 	bl	81348 <create_thread>
   81ce0:	b9002ba0 	str	w0, [x29, #40]
   81ce4:	97fffe4f 	bl	81620 <scheduler>
   81ce8:	17ffffff 	b	81ce4 <lab5_required_1+0x74>

0000000000081cec <foo2>:
   81cec:	a9bd7bfd 	stp	x29, x30, [sp, #-48]!
   81cf0:	910003fd 	mov	x29, sp
   81cf4:	910043a0 	add	x0, x29, #0x10
   81cf8:	90000021 	adrp	x1, 85000 <core_timer_enable+0x1b8>
   81cfc:	91034021 	add	x1, x1, #0xd0
   81d00:	4c40a020 	ld1	{v0.16b, v1.16b}, [x1]
   81d04:	4c00a000 	st1	{v0.16b, v1.16b}, [x0]
   81d08:	910043a1 	add	x1, x29, #0x10
   81d0c:	90000020 	adrp	x0, 85000 <core_timer_enable+0x1b8>
   81d10:	91028000 	add	x0, x0, #0xa0
   81d14:	97ffff83 	bl	81b20 <_exec>
   81d18:	97fffe42 	bl	81620 <scheduler>
   81d1c:	d503201f 	nop
   81d20:	a8c37bfd 	ldp	x29, x30, [sp], #48
   81d24:	d65f03c0 	ret

0000000000081d28 <lab5_required_2>:
   81d28:	a9be7bfd 	stp	x29, x30, [sp, #-32]!
   81d2c:	910003fd 	mov	x29, sp
   81d30:	90000000 	adrp	x0, 81000 <free_page+0x14>
   81d34:	9133b000 	add	x0, x0, #0xcec
   81d38:	d2800003 	mov	x3, #0x0                   	// #0
   81d3c:	d2800002 	mov	x2, #0x0                   	// #0
   81d40:	aa0003e1 	mov	x1, x0
   81d44:	d2800040 	mov	x0, #0x2                   	// #2
   81d48:	97fffd80 	bl	81348 <create_thread>
   81d4c:	b9001fa0 	str	w0, [x29, #28]
   81d50:	97fffe34 	bl	81620 <scheduler>
   81d54:	17ffffff 	b	81d50 <lab5_required_2+0x28>

0000000000081d58 <lab6_required_1>:
   81d58:	a9b77bfd 	stp	x29, x30, [sp, #-144]!
   81d5c:	910003fd 	mov	x29, sp
   81d60:	90000020 	adrp	x0, 85000 <core_timer_enable+0x1b8>
   81d64:	9103c000 	add	x0, x0, #0xf0
   81d68:	52800021 	mov	w1, #0x1                   	// #1
   81d6c:	97fff8f2 	bl	80134 <vfs_open>
   81d70:	f90047a0 	str	x0, [x29, #136]
   81d74:	90000020 	adrp	x0, 85000 <core_timer_enable+0x1b8>
   81d78:	9103e000 	add	x0, x0, #0xf8
   81d7c:	52800021 	mov	w1, #0x1                   	// #1
   81d80:	97fff8ed 	bl	80134 <vfs_open>
   81d84:	f90043a0 	str	x0, [x29, #128]
   81d88:	90000020 	adrp	x0, 85000 <core_timer_enable+0x1b8>
   81d8c:	91040000 	add	x0, x0, #0x100
   81d90:	d28000c2 	mov	x2, #0x6                   	// #6
   81d94:	aa0003e1 	mov	x1, x0
   81d98:	f94047a0 	ldr	x0, [x29, #136]
   81d9c:	97fff938 	bl	8027c <vfs_write>
   81da0:	7100001f 	cmp	w0, #0x0
   81da4:	54000081 	b.ne	81db4 <lab6_required_1+0x5c>  // b.any
   81da8:	90000020 	adrp	x0, 85000 <core_timer_enable+0x1b8>
   81dac:	91042000 	add	x0, x0, #0x108
   81db0:	97fff9c4 	bl	804c0 <uart_puts>
   81db4:	90000020 	adrp	x0, 85000 <core_timer_enable+0x1b8>
   81db8:	91048000 	add	x0, x0, #0x120
   81dbc:	d28000c2 	mov	x2, #0x6                   	// #6
   81dc0:	aa0003e1 	mov	x1, x0
   81dc4:	f94043a0 	ldr	x0, [x29, #128]
   81dc8:	97fff92d 	bl	8027c <vfs_write>
   81dcc:	7100001f 	cmp	w0, #0x0
   81dd0:	54000081 	b.ne	81de0 <lab6_required_1+0x88>  // b.any
   81dd4:	90000020 	adrp	x0, 85000 <core_timer_enable+0x1b8>
   81dd8:	9104a000 	add	x0, x0, #0x128
   81ddc:	97fff9b9 	bl	804c0 <uart_puts>
   81de0:	f94047a0 	ldr	x0, [x29, #136]
   81de4:	97fff919 	bl	80248 <vfs_close>
   81de8:	f94043a0 	ldr	x0, [x29, #128]
   81dec:	97fff917 	bl	80248 <vfs_close>
   81df0:	90000020 	adrp	x0, 85000 <core_timer_enable+0x1b8>
   81df4:	9103c000 	add	x0, x0, #0xf0
   81df8:	52800001 	mov	w1, #0x0                   	// #0
   81dfc:	97fff8ce 	bl	80134 <vfs_open>
   81e00:	f90043a0 	str	x0, [x29, #128]
   81e04:	90000020 	adrp	x0, 85000 <core_timer_enable+0x1b8>
   81e08:	9103e000 	add	x0, x0, #0xf8
   81e0c:	52800001 	mov	w1, #0x0                   	// #0
   81e10:	97fff8c9 	bl	80134 <vfs_open>
   81e14:	f90047a0 	str	x0, [x29, #136]
   81e18:	b9007fbf 	str	wzr, [x29, #124]
   81e1c:	910063a0 	add	x0, x29, #0x18
   81e20:	d2800c82 	mov	x2, #0x64                  	// #100
   81e24:	aa0003e1 	mov	x1, x0
   81e28:	f94043a0 	ldr	x0, [x29, #128]
   81e2c:	97fff922 	bl	802b4 <vfs_read>
   81e30:	b9007fa0 	str	w0, [x29, #124]
   81e34:	b9807fa0 	ldrsw	x0, [x29, #124]
   81e38:	910063a1 	add	x1, x29, #0x18
   81e3c:	8b000020 	add	x0, x1, x0
   81e40:	d2800c82 	mov	x2, #0x64                  	// #100
   81e44:	aa0003e1 	mov	x1, x0
   81e48:	f94047a0 	ldr	x0, [x29, #136]
   81e4c:	97fff91a 	bl	802b4 <vfs_read>
   81e50:	2a0003e1 	mov	w1, w0
   81e54:	b9407fa0 	ldr	w0, [x29, #124]
   81e58:	0b010000 	add	w0, w0, w1
   81e5c:	b9007fa0 	str	w0, [x29, #124]
   81e60:	b9807fa0 	ldrsw	x0, [x29, #124]
   81e64:	d13dc3a1 	sub	x1, x29, #0xf70
   81e68:	8b000020 	add	x0, x1, x0
   81e6c:	393e201f 	strb	wzr, [x0, #3976]
   81e70:	910063a0 	add	x0, x29, #0x18
   81e74:	97fff993 	bl	804c0 <uart_puts>
   81e78:	90000020 	adrp	x0, 85000 <core_timer_enable+0x1b8>
   81e7c:	91026000 	add	x0, x0, #0x98
   81e80:	97fff990 	bl	804c0 <uart_puts>
   81e84:	d503201f 	nop
   81e88:	a8c97bfd 	ldp	x29, x30, [sp], #144
   81e8c:	d65f03c0 	ret

0000000000081e90 <foo3>:
   81e90:	a9bd7bfd 	stp	x29, x30, [sp, #-48]!
   81e94:	910003fd 	mov	x29, sp
   81e98:	910043a0 	add	x0, x29, #0x10
   81e9c:	90000021 	adrp	x1, 85000 <core_timer_enable+0x1b8>
   81ea0:	91034021 	add	x1, x1, #0xd0
   81ea4:	4c40a020 	ld1	{v0.16b, v1.16b}, [x1]
   81ea8:	4c00a000 	st1	{v0.16b, v1.16b}, [x0]
   81eac:	910043a1 	add	x1, x29, #0x10
   81eb0:	90000020 	adrp	x0, 85000 <core_timer_enable+0x1b8>
   81eb4:	91050000 	add	x0, x0, #0x140
   81eb8:	97ffff1a 	bl	81b20 <_exec>
   81ebc:	97fffdd9 	bl	81620 <scheduler>
   81ec0:	d503201f 	nop
   81ec4:	a8c37bfd 	ldp	x29, x30, [sp], #48
   81ec8:	d65f03c0 	ret

0000000000081ecc <lab6_required_2>:
   81ecc:	a9bf7bfd 	stp	x29, x30, [sp, #-16]!
   81ed0:	910003fd 	mov	x29, sp
   81ed4:	90000000 	adrp	x0, 81000 <free_page+0x14>
   81ed8:	913a4000 	add	x0, x0, #0xe90
   81edc:	d2800003 	mov	x3, #0x0                   	// #0
   81ee0:	d2800002 	mov	x2, #0x0                   	// #0
   81ee4:	aa0003e1 	mov	x1, x0
   81ee8:	d2800040 	mov	x0, #0x2                   	// #2
   81eec:	97fffd17 	bl	81348 <create_thread>
   81ef0:	97fffdcc 	bl	81620 <scheduler>
   81ef4:	17ffffff 	b	81ef0 <lab6_required_2+0x24>

0000000000081ef8 <cpu_switch_to>:
   81ef8:	a9005013 	stp	x19, x20, [x0]
   81efc:	a9015815 	stp	x21, x22, [x0, #16]
   81f00:	a9026017 	stp	x23, x24, [x0, #32]
   81f04:	a9036819 	stp	x25, x26, [x0, #48]
   81f08:	a904701b 	stp	x27, x28, [x0, #64]
   81f0c:	a905781d 	stp	x29, x30, [x0, #80]
   81f10:	910003e9 	mov	x9, sp
   81f14:	f9003009 	str	x9, [x0, #96]
   81f18:	a9405033 	ldp	x19, x20, [x1]
   81f1c:	a9415835 	ldp	x21, x22, [x1, #16]
   81f20:	a9426037 	ldp	x23, x24, [x1, #32]
   81f24:	a9436839 	ldp	x25, x26, [x1, #48]
   81f28:	a944703b 	ldp	x27, x28, [x1, #64]
   81f2c:	a945783d 	ldp	x29, x30, [x1, #80]
   81f30:	f9403029 	ldr	x9, [x1, #96]
   81f34:	9100013f 	mov	sp, x9
   81f38:	d518d081 	msr	tpidr_el1, x1
   81f3c:	d65f03c0 	ret

0000000000081f40 <get_current>:
   81f40:	d538d080 	mrs	x0, tpidr_el1
   81f44:	d65f03c0 	ret
	...

0000000000082000 <exception_handler>:
   82000:	d10443ff 	sub	sp, sp, #0x110
   82004:	a90007e0 	stp	x0, x1, [sp]
   82008:	a9010fe2 	stp	x2, x3, [sp, #16]
   8200c:	a90217e4 	stp	x4, x5, [sp, #32]
   82010:	a9031fe6 	stp	x6, x7, [sp, #48]
   82014:	a90427e8 	stp	x8, x9, [sp, #64]
   82018:	a9052fea 	stp	x10, x11, [sp, #80]
   8201c:	a90637ec 	stp	x12, x13, [sp, #96]
   82020:	a9073fee 	stp	x14, x15, [sp, #112]
   82024:	a90847f0 	stp	x16, x17, [sp, #128]
   82028:	a9094ff2 	stp	x18, x19, [sp, #144]
   8202c:	a90a57f4 	stp	x20, x21, [sp, #160]
   82030:	a90b5ff6 	stp	x22, x23, [sp, #176]
   82034:	a90c67f8 	stp	x24, x25, [sp, #192]
   82038:	a90d6ffa 	stp	x26, x27, [sp, #208]
   8203c:	a90e77fc 	stp	x28, x29, [sp, #224]
   82040:	d5384115 	mrs	x21, sp_el0
   82044:	d5384036 	mrs	x22, elr_el1
   82048:	d5384017 	mrs	x23, spsr_el1
   8204c:	a90f57fe 	stp	x30, x21, [sp, #240]
   82050:	a9105ff6 	stp	x22, x23, [sp, #256]
   82054:	97fffc30 	bl	81114 <dumpState>
   82058:	a9505ff6 	ldp	x22, x23, [sp, #256]
   8205c:	a94f57fe 	ldp	x30, x21, [sp, #240]
   82060:	d5184115 	msr	sp_el0, x21
   82064:	d5184036 	msr	elr_el1, x22
   82068:	d5184017 	msr	spsr_el1, x23
   8206c:	a94007e0 	ldp	x0, x1, [sp]
   82070:	a9410fe2 	ldp	x2, x3, [sp, #16]
   82074:	a94217e4 	ldp	x4, x5, [sp, #32]
   82078:	a9431fe6 	ldp	x6, x7, [sp, #48]
   8207c:	a94427e8 	ldp	x8, x9, [sp, #64]
   82080:	a9452fea 	ldp	x10, x11, [sp, #80]
   82084:	a94637ec 	ldp	x12, x13, [sp, #96]
   82088:	a9473fee 	ldp	x14, x15, [sp, #112]
   8208c:	a94847f0 	ldp	x16, x17, [sp, #128]
   82090:	a9494ff2 	ldp	x18, x19, [sp, #144]
   82094:	a94a57f4 	ldp	x20, x21, [sp, #160]
   82098:	a94b5ff6 	ldp	x22, x23, [sp, #176]
   8209c:	a94c67f8 	ldp	x24, x25, [sp, #192]
   820a0:	a94d6ffa 	ldp	x26, x27, [sp, #208]
   820a4:	a94e77fc 	ldp	x28, x29, [sp, #224]
   820a8:	910443ff 	add	sp, sp, #0x110
   820ac:	d69f03e0 	eret

00000000000820b0 <core_timer_handler>:
   820b0:	f81f83e0 	stur	x0, [sp, #-8]
   820b4:	d538d080 	mrs	x0, tpidr_el1
   820b8:	a9090c02 	stp	x2, x3, [x0, #144]
   820bc:	a90a1404 	stp	x4, x5, [x0, #160]
   820c0:	a90b1c06 	stp	x6, x7, [x0, #176]
   820c4:	a90c2408 	stp	x8, x9, [x0, #192]
   820c8:	a90d2c0a 	stp	x10, x11, [x0, #208]
   820cc:	a90e340c 	stp	x12, x13, [x0, #224]
   820d0:	a90f3c0e 	stp	x14, x15, [x0, #240]
   820d4:	a9104410 	stp	x16, x17, [x0, #256]
   820d8:	a9114c12 	stp	x18, x19, [x0, #272]
   820dc:	a9125414 	stp	x20, x21, [x0, #288]
   820e0:	a9135c16 	stp	x22, x23, [x0, #304]
   820e4:	a9146418 	stp	x24, x25, [x0, #320]
   820e8:	a9156c1a 	stp	x26, x27, [x0, #336]
   820ec:	a916741c 	stp	x28, x29, [x0, #352]
   820f0:	f900b81e 	str	x30, [x0, #368]
   820f4:	aa0003e9 	mov	x9, x0
   820f8:	f85f83e0 	ldur	x0, [sp, #-8]
   820fc:	a9080520 	stp	x0, x1, [x9, #128]
   82100:	d538400a 	mrs	x10, spsr_el1
   82104:	d538402b 	mrs	x11, elr_el1
   82108:	d538410c 	mrs	x12, sp_el0
   8210c:	f900352a 	str	x10, [x9, #104]
   82110:	a907312b 	stp	x11, x12, [x9, #112]
   82114:	97fffc27 	bl	811b0 <dumpTimer>
   82118:	d538d089 	mrs	x9, tpidr_el1
   8211c:	f940352a 	ldr	x10, [x9, #104]
   82120:	a947312b 	ldp	x11, x12, [x9, #112]
   82124:	d518400a 	msr	spsr_el1, x10
   82128:	d518402b 	msr	elr_el1, x11
   8212c:	d518410c 	msr	sp_el0, x12
   82130:	aa0903e0 	mov	x0, x9
   82134:	a9490c02 	ldp	x2, x3, [x0, #144]
   82138:	a94a1404 	ldp	x4, x5, [x0, #160]
   8213c:	a94b1c06 	ldp	x6, x7, [x0, #176]
   82140:	a94c2408 	ldp	x8, x9, [x0, #192]
   82144:	a94d2c0a 	ldp	x10, x11, [x0, #208]
   82148:	a94e340c 	ldp	x12, x13, [x0, #224]
   8214c:	a94f3c0e 	ldp	x14, x15, [x0, #240]
   82150:	a9504410 	ldp	x16, x17, [x0, #256]
   82154:	a9514c12 	ldp	x18, x19, [x0, #272]
   82158:	a9525414 	ldp	x20, x21, [x0, #288]
   8215c:	a9535c16 	ldp	x22, x23, [x0, #304]
   82160:	a9546418 	ldp	x24, x25, [x0, #320]
   82164:	a9556c1a 	ldp	x26, x27, [x0, #336]
   82168:	a956741c 	ldp	x28, x29, [x0, #352]
   8216c:	f940b81e 	ldr	x30, [x0, #368]
   82170:	a9480400 	ldp	x0, x1, [x0, #128]
   82174:	d69f03e0 	eret

0000000000082178 <el0_sync>:
   82178:	f81f83e0 	stur	x0, [sp, #-8]
   8217c:	d538d080 	mrs	x0, tpidr_el1
   82180:	a9090c02 	stp	x2, x3, [x0, #144]
   82184:	a90a1404 	stp	x4, x5, [x0, #160]
   82188:	a90b1c06 	stp	x6, x7, [x0, #176]
   8218c:	a90c2408 	stp	x8, x9, [x0, #192]
   82190:	a90d2c0a 	stp	x10, x11, [x0, #208]
   82194:	a90e340c 	stp	x12, x13, [x0, #224]
   82198:	a90f3c0e 	stp	x14, x15, [x0, #240]
   8219c:	a9104410 	stp	x16, x17, [x0, #256]
   821a0:	a9114c12 	stp	x18, x19, [x0, #272]
   821a4:	a9125414 	stp	x20, x21, [x0, #288]
   821a8:	a9135c16 	stp	x22, x23, [x0, #304]
   821ac:	a9146418 	stp	x24, x25, [x0, #320]
   821b0:	a9156c1a 	stp	x26, x27, [x0, #336]
   821b4:	a916741c 	stp	x28, x29, [x0, #352]
   821b8:	f900b81e 	str	x30, [x0, #368]
   821bc:	aa0003e9 	mov	x9, x0
   821c0:	f85f83e0 	ldur	x0, [sp, #-8]
   821c4:	a9080520 	stp	x0, x1, [x9, #128]
   821c8:	d538400a 	mrs	x10, spsr_el1
   821cc:	d538402b 	mrs	x11, elr_el1
   821d0:	d538410c 	mrs	x12, sp_el0
   821d4:	f900352a 	str	x10, [x9, #104]
   821d8:	a907312b 	stp	x11, x12, [x9, #112]
   821dc:	d5385219 	mrs	x25, esr_el1
   821e0:	d35aff38 	lsr	x24, x25, #26
   821e4:	f100571f 	cmp	x24, #0x15
   821e8:	54000020 	b.eq	821ec <el0_svc>  // b.none

00000000000821ec <el0_svc>:
   821ec:	1001a1bb 	adr	x27, 85620 <sys_call_table>
   821f0:	2a0803fa 	mov	w26, w8
   821f4:	d2800079 	mov	x25, #0x3                   	// #3
   821f8:	eb19035f 	cmp	x26, x25
   821fc:	f87a7b70 	ldr	x16, [x27, x26, lsl #3]
   82200:	d63f0200 	blr	x16
   82204:	14000001 	b	82208 <ret_from_syscall>

0000000000082208 <ret_from_syscall>:
   82208:	f90003e0 	str	x0, [sp]
   8220c:	d538d089 	mrs	x9, tpidr_el1
   82210:	f940352a 	ldr	x10, [x9, #104]
   82214:	a947312b 	ldp	x11, x12, [x9, #112]
   82218:	d518400a 	msr	spsr_el1, x10
   8221c:	d518402b 	msr	elr_el1, x11
   82220:	d518410c 	msr	sp_el0, x12
   82224:	aa0903e0 	mov	x0, x9
   82228:	a9490c02 	ldp	x2, x3, [x0, #144]
   8222c:	a94a1404 	ldp	x4, x5, [x0, #160]
   82230:	a94b1c06 	ldp	x6, x7, [x0, #176]
   82234:	a94c2408 	ldp	x8, x9, [x0, #192]
   82238:	a94d2c0a 	ldp	x10, x11, [x0, #208]
   8223c:	a94e340c 	ldp	x12, x13, [x0, #224]
   82240:	a94f3c0e 	ldp	x14, x15, [x0, #240]
   82244:	a9504410 	ldp	x16, x17, [x0, #256]
   82248:	a9514c12 	ldp	x18, x19, [x0, #272]
   8224c:	a9525414 	ldp	x20, x21, [x0, #288]
   82250:	a9535c16 	ldp	x22, x23, [x0, #304]
   82254:	a9546418 	ldp	x24, x25, [x0, #320]
   82258:	a9556c1a 	ldp	x26, x27, [x0, #336]
   8225c:	a956741c 	ldp	x28, x29, [x0, #352]
   82260:	f940b81e 	ldr	x30, [x0, #368]
   82264:	a9480400 	ldp	x0, x1, [x0, #128]
   82268:	d69f03e0 	eret
   8226c:	d503201f 	nop
   82270:	d503201f 	nop
   82274:	d503201f 	nop
   82278:	d503201f 	nop
   8227c:	d503201f 	nop
   82280:	d503201f 	nop
   82284:	d503201f 	nop
   82288:	d503201f 	nop
   8228c:	d503201f 	nop
   82290:	d503201f 	nop
   82294:	d503201f 	nop
   82298:	d503201f 	nop
   8229c:	d503201f 	nop
   822a0:	d503201f 	nop
   822a4:	d503201f 	nop
   822a8:	d503201f 	nop
   822ac:	d503201f 	nop
   822b0:	d503201f 	nop
   822b4:	d503201f 	nop
   822b8:	d503201f 	nop
   822bc:	d503201f 	nop
   822c0:	d503201f 	nop
   822c4:	d503201f 	nop
   822c8:	d503201f 	nop
   822cc:	d503201f 	nop
   822d0:	d503201f 	nop
   822d4:	d503201f 	nop
   822d8:	d503201f 	nop
   822dc:	d503201f 	nop
   822e0:	d503201f 	nop
   822e4:	d503201f 	nop
   822e8:	d503201f 	nop
   822ec:	d503201f 	nop
   822f0:	d503201f 	nop
   822f4:	d503201f 	nop
   822f8:	d503201f 	nop
   822fc:	d503201f 	nop
   82300:	d503201f 	nop
   82304:	d503201f 	nop
   82308:	d503201f 	nop
   8230c:	d503201f 	nop
   82310:	d503201f 	nop
   82314:	d503201f 	nop
   82318:	d503201f 	nop
   8231c:	d503201f 	nop
   82320:	d503201f 	nop
   82324:	d503201f 	nop
   82328:	d503201f 	nop
   8232c:	d503201f 	nop
   82330:	d503201f 	nop
   82334:	d503201f 	nop
   82338:	d503201f 	nop
   8233c:	d503201f 	nop
   82340:	d503201f 	nop
   82344:	d503201f 	nop
   82348:	d503201f 	nop
   8234c:	d503201f 	nop
   82350:	d503201f 	nop
   82354:	d503201f 	nop
   82358:	d503201f 	nop
   8235c:	d503201f 	nop
   82360:	d503201f 	nop
   82364:	d503201f 	nop
   82368:	d503201f 	nop
   8236c:	d503201f 	nop
   82370:	d503201f 	nop
   82374:	d503201f 	nop
   82378:	d503201f 	nop
   8237c:	d503201f 	nop
   82380:	d503201f 	nop
   82384:	d503201f 	nop
   82388:	d503201f 	nop
   8238c:	d503201f 	nop
   82390:	d503201f 	nop
   82394:	d503201f 	nop
   82398:	d503201f 	nop
   8239c:	d503201f 	nop
   823a0:	d503201f 	nop
   823a4:	d503201f 	nop
   823a8:	d503201f 	nop
   823ac:	d503201f 	nop
   823b0:	d503201f 	nop
   823b4:	d503201f 	nop
   823b8:	d503201f 	nop
   823bc:	d503201f 	nop
   823c0:	d503201f 	nop
   823c4:	d503201f 	nop
   823c8:	d503201f 	nop
   823cc:	d503201f 	nop
   823d0:	d503201f 	nop
   823d4:	d503201f 	nop
   823d8:	d503201f 	nop
   823dc:	d503201f 	nop
   823e0:	d503201f 	nop
   823e4:	d503201f 	nop
   823e8:	d503201f 	nop
   823ec:	d503201f 	nop
   823f0:	d503201f 	nop
   823f4:	d503201f 	nop
   823f8:	d503201f 	nop
   823fc:	d503201f 	nop
   82400:	d503201f 	nop
   82404:	d503201f 	nop
   82408:	d503201f 	nop
   8240c:	d503201f 	nop
   82410:	d503201f 	nop
   82414:	d503201f 	nop
   82418:	d503201f 	nop
   8241c:	d503201f 	nop
   82420:	d503201f 	nop
   82424:	d503201f 	nop
   82428:	d503201f 	nop
   8242c:	d503201f 	nop
   82430:	d503201f 	nop
   82434:	d503201f 	nop
   82438:	d503201f 	nop
   8243c:	d503201f 	nop
   82440:	d503201f 	nop
   82444:	d503201f 	nop
   82448:	d503201f 	nop
   8244c:	d503201f 	nop
   82450:	d503201f 	nop
   82454:	d503201f 	nop
   82458:	d503201f 	nop
   8245c:	d503201f 	nop
   82460:	d503201f 	nop
   82464:	d503201f 	nop
   82468:	d503201f 	nop
   8246c:	d503201f 	nop
   82470:	d503201f 	nop
   82474:	d503201f 	nop
   82478:	d503201f 	nop
   8247c:	d503201f 	nop
   82480:	d503201f 	nop
   82484:	d503201f 	nop
   82488:	d503201f 	nop
   8248c:	d503201f 	nop
   82490:	d503201f 	nop
   82494:	d503201f 	nop
   82498:	d503201f 	nop
   8249c:	d503201f 	nop
   824a0:	d503201f 	nop
   824a4:	d503201f 	nop
   824a8:	d503201f 	nop
   824ac:	d503201f 	nop
   824b0:	d503201f 	nop
   824b4:	d503201f 	nop
   824b8:	d503201f 	nop
   824bc:	d503201f 	nop
   824c0:	d503201f 	nop
   824c4:	d503201f 	nop
   824c8:	d503201f 	nop
   824cc:	d503201f 	nop
   824d0:	d503201f 	nop
   824d4:	d503201f 	nop
   824d8:	d503201f 	nop
   824dc:	d503201f 	nop
   824e0:	d503201f 	nop
   824e4:	d503201f 	nop
   824e8:	d503201f 	nop
   824ec:	d503201f 	nop
   824f0:	d503201f 	nop
   824f4:	d503201f 	nop
   824f8:	d503201f 	nop
   824fc:	d503201f 	nop
   82500:	d503201f 	nop
   82504:	d503201f 	nop
   82508:	d503201f 	nop
   8250c:	d503201f 	nop
   82510:	d503201f 	nop
   82514:	d503201f 	nop
   82518:	d503201f 	nop
   8251c:	d503201f 	nop
   82520:	d503201f 	nop
   82524:	d503201f 	nop
   82528:	d503201f 	nop
   8252c:	d503201f 	nop
   82530:	d503201f 	nop
   82534:	d503201f 	nop
   82538:	d503201f 	nop
   8253c:	d503201f 	nop
   82540:	d503201f 	nop
   82544:	d503201f 	nop
   82548:	d503201f 	nop
   8254c:	d503201f 	nop
   82550:	d503201f 	nop
   82554:	d503201f 	nop
   82558:	d503201f 	nop
   8255c:	d503201f 	nop
   82560:	d503201f 	nop
   82564:	d503201f 	nop
   82568:	d503201f 	nop
   8256c:	d503201f 	nop
   82570:	d503201f 	nop
   82574:	d503201f 	nop
   82578:	d503201f 	nop
   8257c:	d503201f 	nop
   82580:	d503201f 	nop
   82584:	d503201f 	nop
   82588:	d503201f 	nop
   8258c:	d503201f 	nop
   82590:	d503201f 	nop
   82594:	d503201f 	nop
   82598:	d503201f 	nop
   8259c:	d503201f 	nop
   825a0:	d503201f 	nop
   825a4:	d503201f 	nop
   825a8:	d503201f 	nop
   825ac:	d503201f 	nop
   825b0:	d503201f 	nop
   825b4:	d503201f 	nop
   825b8:	d503201f 	nop
   825bc:	d503201f 	nop
   825c0:	d503201f 	nop
   825c4:	d503201f 	nop
   825c8:	d503201f 	nop
   825cc:	d503201f 	nop
   825d0:	d503201f 	nop
   825d4:	d503201f 	nop
   825d8:	d503201f 	nop
   825dc:	d503201f 	nop
   825e0:	d503201f 	nop
   825e4:	d503201f 	nop
   825e8:	d503201f 	nop
   825ec:	d503201f 	nop
   825f0:	d503201f 	nop
   825f4:	d503201f 	nop
   825f8:	d503201f 	nop
   825fc:	d503201f 	nop
   82600:	d503201f 	nop
   82604:	d503201f 	nop
   82608:	d503201f 	nop
   8260c:	d503201f 	nop
   82610:	d503201f 	nop
   82614:	d503201f 	nop
   82618:	d503201f 	nop
   8261c:	d503201f 	nop
   82620:	d503201f 	nop
   82624:	d503201f 	nop
   82628:	d503201f 	nop
   8262c:	d503201f 	nop
   82630:	d503201f 	nop
   82634:	d503201f 	nop
   82638:	d503201f 	nop
   8263c:	d503201f 	nop
   82640:	d503201f 	nop
   82644:	d503201f 	nop
   82648:	d503201f 	nop
   8264c:	d503201f 	nop
   82650:	d503201f 	nop
   82654:	d503201f 	nop
   82658:	d503201f 	nop
   8265c:	d503201f 	nop
   82660:	d503201f 	nop
   82664:	d503201f 	nop
   82668:	d503201f 	nop
   8266c:	d503201f 	nop
   82670:	d503201f 	nop
   82674:	d503201f 	nop
   82678:	d503201f 	nop
   8267c:	d503201f 	nop
   82680:	d503201f 	nop
   82684:	d503201f 	nop
   82688:	d503201f 	nop
   8268c:	d503201f 	nop
   82690:	d503201f 	nop
   82694:	d503201f 	nop
   82698:	d503201f 	nop
   8269c:	d503201f 	nop
   826a0:	d503201f 	nop
   826a4:	d503201f 	nop
   826a8:	d503201f 	nop
   826ac:	d503201f 	nop
   826b0:	d503201f 	nop
   826b4:	d503201f 	nop
   826b8:	d503201f 	nop
   826bc:	d503201f 	nop
   826c0:	d503201f 	nop
   826c4:	d503201f 	nop
   826c8:	d503201f 	nop
   826cc:	d503201f 	nop
   826d0:	d503201f 	nop
   826d4:	d503201f 	nop
   826d8:	d503201f 	nop
   826dc:	d503201f 	nop
   826e0:	d503201f 	nop
   826e4:	d503201f 	nop
   826e8:	d503201f 	nop
   826ec:	d503201f 	nop
   826f0:	d503201f 	nop
   826f4:	d503201f 	nop
   826f8:	d503201f 	nop
   826fc:	d503201f 	nop
   82700:	d503201f 	nop
   82704:	d503201f 	nop
   82708:	d503201f 	nop
   8270c:	d503201f 	nop
   82710:	d503201f 	nop
   82714:	d503201f 	nop
   82718:	d503201f 	nop
   8271c:	d503201f 	nop
   82720:	d503201f 	nop
   82724:	d503201f 	nop
   82728:	d503201f 	nop
   8272c:	d503201f 	nop
   82730:	d503201f 	nop
   82734:	d503201f 	nop
   82738:	d503201f 	nop
   8273c:	d503201f 	nop
   82740:	d503201f 	nop
   82744:	d503201f 	nop
   82748:	d503201f 	nop
   8274c:	d503201f 	nop
   82750:	d503201f 	nop
   82754:	d503201f 	nop
   82758:	d503201f 	nop
   8275c:	d503201f 	nop
   82760:	d503201f 	nop
   82764:	d503201f 	nop
   82768:	d503201f 	nop
   8276c:	d503201f 	nop
   82770:	d503201f 	nop
   82774:	d503201f 	nop
   82778:	d503201f 	nop
   8277c:	d503201f 	nop
   82780:	d503201f 	nop
   82784:	d503201f 	nop
   82788:	d503201f 	nop
   8278c:	d503201f 	nop
   82790:	d503201f 	nop
   82794:	d503201f 	nop
   82798:	d503201f 	nop
   8279c:	d503201f 	nop
   827a0:	d503201f 	nop
   827a4:	d503201f 	nop
   827a8:	d503201f 	nop
   827ac:	d503201f 	nop
   827b0:	d503201f 	nop
   827b4:	d503201f 	nop
   827b8:	d503201f 	nop
   827bc:	d503201f 	nop
   827c0:	d503201f 	nop
   827c4:	d503201f 	nop
   827c8:	d503201f 	nop
   827cc:	d503201f 	nop
   827d0:	d503201f 	nop
   827d4:	d503201f 	nop
   827d8:	d503201f 	nop
   827dc:	d503201f 	nop
   827e0:	d503201f 	nop
   827e4:	d503201f 	nop
   827e8:	d503201f 	nop
   827ec:	d503201f 	nop
   827f0:	d503201f 	nop
   827f4:	d503201f 	nop
   827f8:	d503201f 	nop
   827fc:	d503201f 	nop

0000000000082800 <exception_vector_table>:
   82800:	17fffe00 	b	82000 <exception_handler>
   82804:	d503201f 	nop
   82808:	d503201f 	nop
   8280c:	d503201f 	nop
   82810:	d503201f 	nop
   82814:	d503201f 	nop
   82818:	d503201f 	nop
   8281c:	d503201f 	nop
   82820:	d503201f 	nop
   82824:	d503201f 	nop
   82828:	d503201f 	nop
   8282c:	d503201f 	nop
   82830:	d503201f 	nop
   82834:	d503201f 	nop
   82838:	d503201f 	nop
   8283c:	d503201f 	nop
   82840:	d503201f 	nop
   82844:	d503201f 	nop
   82848:	d503201f 	nop
   8284c:	d503201f 	nop
   82850:	d503201f 	nop
   82854:	d503201f 	nop
   82858:	d503201f 	nop
   8285c:	d503201f 	nop
   82860:	d503201f 	nop
   82864:	d503201f 	nop
   82868:	d503201f 	nop
   8286c:	d503201f 	nop
   82870:	d503201f 	nop
   82874:	d503201f 	nop
   82878:	d503201f 	nop
   8287c:	d503201f 	nop
   82880:	17fffde0 	b	82000 <exception_handler>
   82884:	d503201f 	nop
   82888:	d503201f 	nop
   8288c:	d503201f 	nop
   82890:	d503201f 	nop
   82894:	d503201f 	nop
   82898:	d503201f 	nop
   8289c:	d503201f 	nop
   828a0:	d503201f 	nop
   828a4:	d503201f 	nop
   828a8:	d503201f 	nop
   828ac:	d503201f 	nop
   828b0:	d503201f 	nop
   828b4:	d503201f 	nop
   828b8:	d503201f 	nop
   828bc:	d503201f 	nop
   828c0:	d503201f 	nop
   828c4:	d503201f 	nop
   828c8:	d503201f 	nop
   828cc:	d503201f 	nop
   828d0:	d503201f 	nop
   828d4:	d503201f 	nop
   828d8:	d503201f 	nop
   828dc:	d503201f 	nop
   828e0:	d503201f 	nop
   828e4:	d503201f 	nop
   828e8:	d503201f 	nop
   828ec:	d503201f 	nop
   828f0:	d503201f 	nop
   828f4:	d503201f 	nop
   828f8:	d503201f 	nop
   828fc:	d503201f 	nop
   82900:	17fffdc0 	b	82000 <exception_handler>
   82904:	d503201f 	nop
   82908:	d503201f 	nop
   8290c:	d503201f 	nop
   82910:	d503201f 	nop
   82914:	d503201f 	nop
   82918:	d503201f 	nop
   8291c:	d503201f 	nop
   82920:	d503201f 	nop
   82924:	d503201f 	nop
   82928:	d503201f 	nop
   8292c:	d503201f 	nop
   82930:	d503201f 	nop
   82934:	d503201f 	nop
   82938:	d503201f 	nop
   8293c:	d503201f 	nop
   82940:	d503201f 	nop
   82944:	d503201f 	nop
   82948:	d503201f 	nop
   8294c:	d503201f 	nop
   82950:	d503201f 	nop
   82954:	d503201f 	nop
   82958:	d503201f 	nop
   8295c:	d503201f 	nop
   82960:	d503201f 	nop
   82964:	d503201f 	nop
   82968:	d503201f 	nop
   8296c:	d503201f 	nop
   82970:	d503201f 	nop
   82974:	d503201f 	nop
   82978:	d503201f 	nop
   8297c:	d503201f 	nop
   82980:	17fffda0 	b	82000 <exception_handler>
   82984:	d503201f 	nop
   82988:	d503201f 	nop
   8298c:	d503201f 	nop
   82990:	d503201f 	nop
   82994:	d503201f 	nop
   82998:	d503201f 	nop
   8299c:	d503201f 	nop
   829a0:	d503201f 	nop
   829a4:	d503201f 	nop
   829a8:	d503201f 	nop
   829ac:	d503201f 	nop
   829b0:	d503201f 	nop
   829b4:	d503201f 	nop
   829b8:	d503201f 	nop
   829bc:	d503201f 	nop
   829c0:	d503201f 	nop
   829c4:	d503201f 	nop
   829c8:	d503201f 	nop
   829cc:	d503201f 	nop
   829d0:	d503201f 	nop
   829d4:	d503201f 	nop
   829d8:	d503201f 	nop
   829dc:	d503201f 	nop
   829e0:	d503201f 	nop
   829e4:	d503201f 	nop
   829e8:	d503201f 	nop
   829ec:	d503201f 	nop
   829f0:	d503201f 	nop
   829f4:	d503201f 	nop
   829f8:	d503201f 	nop
   829fc:	d503201f 	nop
   82a00:	17fffd80 	b	82000 <exception_handler>
   82a04:	d503201f 	nop
   82a08:	d503201f 	nop
   82a0c:	d503201f 	nop
   82a10:	d503201f 	nop
   82a14:	d503201f 	nop
   82a18:	d503201f 	nop
   82a1c:	d503201f 	nop
   82a20:	d503201f 	nop
   82a24:	d503201f 	nop
   82a28:	d503201f 	nop
   82a2c:	d503201f 	nop
   82a30:	d503201f 	nop
   82a34:	d503201f 	nop
   82a38:	d503201f 	nop
   82a3c:	d503201f 	nop
   82a40:	d503201f 	nop
   82a44:	d503201f 	nop
   82a48:	d503201f 	nop
   82a4c:	d503201f 	nop
   82a50:	d503201f 	nop
   82a54:	d503201f 	nop
   82a58:	d503201f 	nop
   82a5c:	d503201f 	nop
   82a60:	d503201f 	nop
   82a64:	d503201f 	nop
   82a68:	d503201f 	nop
   82a6c:	d503201f 	nop
   82a70:	d503201f 	nop
   82a74:	d503201f 	nop
   82a78:	d503201f 	nop
   82a7c:	d503201f 	nop
   82a80:	17fffd60 	b	82000 <exception_handler>
   82a84:	d503201f 	nop
   82a88:	d503201f 	nop
   82a8c:	d503201f 	nop
   82a90:	d503201f 	nop
   82a94:	d503201f 	nop
   82a98:	d503201f 	nop
   82a9c:	d503201f 	nop
   82aa0:	d503201f 	nop
   82aa4:	d503201f 	nop
   82aa8:	d503201f 	nop
   82aac:	d503201f 	nop
   82ab0:	d503201f 	nop
   82ab4:	d503201f 	nop
   82ab8:	d503201f 	nop
   82abc:	d503201f 	nop
   82ac0:	d503201f 	nop
   82ac4:	d503201f 	nop
   82ac8:	d503201f 	nop
   82acc:	d503201f 	nop
   82ad0:	d503201f 	nop
   82ad4:	d503201f 	nop
   82ad8:	d503201f 	nop
   82adc:	d503201f 	nop
   82ae0:	d503201f 	nop
   82ae4:	d503201f 	nop
   82ae8:	d503201f 	nop
   82aec:	d503201f 	nop
   82af0:	d503201f 	nop
   82af4:	d503201f 	nop
   82af8:	d503201f 	nop
   82afc:	d503201f 	nop
   82b00:	17fffd40 	b	82000 <exception_handler>
   82b04:	d503201f 	nop
   82b08:	d503201f 	nop
   82b0c:	d503201f 	nop
   82b10:	d503201f 	nop
   82b14:	d503201f 	nop
   82b18:	d503201f 	nop
   82b1c:	d503201f 	nop
   82b20:	d503201f 	nop
   82b24:	d503201f 	nop
   82b28:	d503201f 	nop
   82b2c:	d503201f 	nop
   82b30:	d503201f 	nop
   82b34:	d503201f 	nop
   82b38:	d503201f 	nop
   82b3c:	d503201f 	nop
   82b40:	d503201f 	nop
   82b44:	d503201f 	nop
   82b48:	d503201f 	nop
   82b4c:	d503201f 	nop
   82b50:	d503201f 	nop
   82b54:	d503201f 	nop
   82b58:	d503201f 	nop
   82b5c:	d503201f 	nop
   82b60:	d503201f 	nop
   82b64:	d503201f 	nop
   82b68:	d503201f 	nop
   82b6c:	d503201f 	nop
   82b70:	d503201f 	nop
   82b74:	d503201f 	nop
   82b78:	d503201f 	nop
   82b7c:	d503201f 	nop
   82b80:	17fffd20 	b	82000 <exception_handler>
   82b84:	d503201f 	nop
   82b88:	d503201f 	nop
   82b8c:	d503201f 	nop
   82b90:	d503201f 	nop
   82b94:	d503201f 	nop
   82b98:	d503201f 	nop
   82b9c:	d503201f 	nop
   82ba0:	d503201f 	nop
   82ba4:	d503201f 	nop
   82ba8:	d503201f 	nop
   82bac:	d503201f 	nop
   82bb0:	d503201f 	nop
   82bb4:	d503201f 	nop
   82bb8:	d503201f 	nop
   82bbc:	d503201f 	nop
   82bc0:	d503201f 	nop
   82bc4:	d503201f 	nop
   82bc8:	d503201f 	nop
   82bcc:	d503201f 	nop
   82bd0:	d503201f 	nop
   82bd4:	d503201f 	nop
   82bd8:	d503201f 	nop
   82bdc:	d503201f 	nop
   82be0:	d503201f 	nop
   82be4:	d503201f 	nop
   82be8:	d503201f 	nop
   82bec:	d503201f 	nop
   82bf0:	d503201f 	nop
   82bf4:	d503201f 	nop
   82bf8:	d503201f 	nop
   82bfc:	d503201f 	nop
   82c00:	17fffd5e 	b	82178 <el0_sync>
   82c04:	d503201f 	nop
   82c08:	d503201f 	nop
   82c0c:	d503201f 	nop
   82c10:	d503201f 	nop
   82c14:	d503201f 	nop
   82c18:	d503201f 	nop
   82c1c:	d503201f 	nop
   82c20:	d503201f 	nop
   82c24:	d503201f 	nop
   82c28:	d503201f 	nop
   82c2c:	d503201f 	nop
   82c30:	d503201f 	nop
   82c34:	d503201f 	nop
   82c38:	d503201f 	nop
   82c3c:	d503201f 	nop
   82c40:	d503201f 	nop
   82c44:	d503201f 	nop
   82c48:	d503201f 	nop
   82c4c:	d503201f 	nop
   82c50:	d503201f 	nop
   82c54:	d503201f 	nop
   82c58:	d503201f 	nop
   82c5c:	d503201f 	nop
   82c60:	d503201f 	nop
   82c64:	d503201f 	nop
   82c68:	d503201f 	nop
   82c6c:	d503201f 	nop
   82c70:	d503201f 	nop
   82c74:	d503201f 	nop
   82c78:	d503201f 	nop
   82c7c:	d503201f 	nop
   82c80:	17fffd0c 	b	820b0 <core_timer_handler>
   82c84:	d503201f 	nop
   82c88:	d503201f 	nop
   82c8c:	d503201f 	nop
   82c90:	d503201f 	nop
   82c94:	d503201f 	nop
   82c98:	d503201f 	nop
   82c9c:	d503201f 	nop
   82ca0:	d503201f 	nop
   82ca4:	d503201f 	nop
   82ca8:	d503201f 	nop
   82cac:	d503201f 	nop
   82cb0:	d503201f 	nop
   82cb4:	d503201f 	nop
   82cb8:	d503201f 	nop
   82cbc:	d503201f 	nop
   82cc0:	d503201f 	nop
   82cc4:	d503201f 	nop
   82cc8:	d503201f 	nop
   82ccc:	d503201f 	nop
   82cd0:	d503201f 	nop
   82cd4:	d503201f 	nop
   82cd8:	d503201f 	nop
   82cdc:	d503201f 	nop
   82ce0:	d503201f 	nop
   82ce4:	d503201f 	nop
   82ce8:	d503201f 	nop
   82cec:	d503201f 	nop
   82cf0:	d503201f 	nop
   82cf4:	d503201f 	nop
   82cf8:	d503201f 	nop
   82cfc:	d503201f 	nop
   82d00:	17fffcc0 	b	82000 <exception_handler>
   82d04:	d503201f 	nop
   82d08:	d503201f 	nop
   82d0c:	d503201f 	nop
   82d10:	d503201f 	nop
   82d14:	d503201f 	nop
   82d18:	d503201f 	nop
   82d1c:	d503201f 	nop
   82d20:	d503201f 	nop
   82d24:	d503201f 	nop
   82d28:	d503201f 	nop
   82d2c:	d503201f 	nop
   82d30:	d503201f 	nop
   82d34:	d503201f 	nop
   82d38:	d503201f 	nop
   82d3c:	d503201f 	nop
   82d40:	d503201f 	nop
   82d44:	d503201f 	nop
   82d48:	d503201f 	nop
   82d4c:	d503201f 	nop
   82d50:	d503201f 	nop
   82d54:	d503201f 	nop
   82d58:	d503201f 	nop
   82d5c:	d503201f 	nop
   82d60:	d503201f 	nop
   82d64:	d503201f 	nop
   82d68:	d503201f 	nop
   82d6c:	d503201f 	nop
   82d70:	d503201f 	nop
   82d74:	d503201f 	nop
   82d78:	d503201f 	nop
   82d7c:	d503201f 	nop
   82d80:	17fffca0 	b	82000 <exception_handler>
   82d84:	d503201f 	nop
   82d88:	d503201f 	nop
   82d8c:	d503201f 	nop
   82d90:	d503201f 	nop
   82d94:	d503201f 	nop
   82d98:	d503201f 	nop
   82d9c:	d503201f 	nop
   82da0:	d503201f 	nop
   82da4:	d503201f 	nop
   82da8:	d503201f 	nop
   82dac:	d503201f 	nop
   82db0:	d503201f 	nop
   82db4:	d503201f 	nop
   82db8:	d503201f 	nop
   82dbc:	d503201f 	nop
   82dc0:	d503201f 	nop
   82dc4:	d503201f 	nop
   82dc8:	d503201f 	nop
   82dcc:	d503201f 	nop
   82dd0:	d503201f 	nop
   82dd4:	d503201f 	nop
   82dd8:	d503201f 	nop
   82ddc:	d503201f 	nop
   82de0:	d503201f 	nop
   82de4:	d503201f 	nop
   82de8:	d503201f 	nop
   82dec:	d503201f 	nop
   82df0:	d503201f 	nop
   82df4:	d503201f 	nop
   82df8:	d503201f 	nop
   82dfc:	d503201f 	nop
   82e00:	17fffc80 	b	82000 <exception_handler>
   82e04:	d503201f 	nop
   82e08:	d503201f 	nop
   82e0c:	d503201f 	nop
   82e10:	d503201f 	nop
   82e14:	d503201f 	nop
   82e18:	d503201f 	nop
   82e1c:	d503201f 	nop
   82e20:	d503201f 	nop
   82e24:	d503201f 	nop
   82e28:	d503201f 	nop
   82e2c:	d503201f 	nop
   82e30:	d503201f 	nop
   82e34:	d503201f 	nop
   82e38:	d503201f 	nop
   82e3c:	d503201f 	nop
   82e40:	d503201f 	nop
   82e44:	d503201f 	nop
   82e48:	d503201f 	nop
   82e4c:	d503201f 	nop
   82e50:	d503201f 	nop
   82e54:	d503201f 	nop
   82e58:	d503201f 	nop
   82e5c:	d503201f 	nop
   82e60:	d503201f 	nop
   82e64:	d503201f 	nop
   82e68:	d503201f 	nop
   82e6c:	d503201f 	nop
   82e70:	d503201f 	nop
   82e74:	d503201f 	nop
   82e78:	d503201f 	nop
   82e7c:	d503201f 	nop
   82e80:	17fffc60 	b	82000 <exception_handler>
   82e84:	d503201f 	nop
   82e88:	d503201f 	nop
   82e8c:	d503201f 	nop
   82e90:	d503201f 	nop
   82e94:	d503201f 	nop
   82e98:	d503201f 	nop
   82e9c:	d503201f 	nop
   82ea0:	d503201f 	nop
   82ea4:	d503201f 	nop
   82ea8:	d503201f 	nop
   82eac:	d503201f 	nop
   82eb0:	d503201f 	nop
   82eb4:	d503201f 	nop
   82eb8:	d503201f 	nop
   82ebc:	d503201f 	nop
   82ec0:	d503201f 	nop
   82ec4:	d503201f 	nop
   82ec8:	d503201f 	nop
   82ecc:	d503201f 	nop
   82ed0:	d503201f 	nop
   82ed4:	d503201f 	nop
   82ed8:	d503201f 	nop
   82edc:	d503201f 	nop
   82ee0:	d503201f 	nop
   82ee4:	d503201f 	nop
   82ee8:	d503201f 	nop
   82eec:	d503201f 	nop
   82ef0:	d503201f 	nop
   82ef4:	d503201f 	nop
   82ef8:	d503201f 	nop
   82efc:	d503201f 	nop
   82f00:	17fffc40 	b	82000 <exception_handler>
   82f04:	d503201f 	nop
   82f08:	d503201f 	nop
   82f0c:	d503201f 	nop
   82f10:	d503201f 	nop
   82f14:	d503201f 	nop
   82f18:	d503201f 	nop
   82f1c:	d503201f 	nop
   82f20:	d503201f 	nop
   82f24:	d503201f 	nop
   82f28:	d503201f 	nop
   82f2c:	d503201f 	nop
   82f30:	d503201f 	nop
   82f34:	d503201f 	nop
   82f38:	d503201f 	nop
   82f3c:	d503201f 	nop
   82f40:	d503201f 	nop
   82f44:	d503201f 	nop
   82f48:	d503201f 	nop
   82f4c:	d503201f 	nop
   82f50:	d503201f 	nop
   82f54:	d503201f 	nop
   82f58:	d503201f 	nop
   82f5c:	d503201f 	nop
   82f60:	d503201f 	nop
   82f64:	d503201f 	nop
   82f68:	d503201f 	nop
   82f6c:	d503201f 	nop
   82f70:	d503201f 	nop
   82f74:	d503201f 	nop
   82f78:	d503201f 	nop
   82f7c:	d503201f 	nop
   82f80:	17fffc20 	b	82000 <exception_handler>
   82f84:	d503201f 	nop
   82f88:	d503201f 	nop
   82f8c:	d503201f 	nop
   82f90:	d503201f 	nop
   82f94:	d503201f 	nop
   82f98:	d503201f 	nop
   82f9c:	d503201f 	nop
   82fa0:	d503201f 	nop
   82fa4:	d503201f 	nop
   82fa8:	d503201f 	nop
   82fac:	d503201f 	nop
   82fb0:	d503201f 	nop
   82fb4:	d503201f 	nop
   82fb8:	d503201f 	nop
   82fbc:	d503201f 	nop
   82fc0:	d503201f 	nop
   82fc4:	d503201f 	nop
   82fc8:	d503201f 	nop
   82fcc:	d503201f 	nop
   82fd0:	d503201f 	nop
   82fd4:	d503201f 	nop
   82fd8:	d503201f 	nop
   82fdc:	d503201f 	nop
   82fe0:	d503201f 	nop
   82fe4:	d503201f 	nop
   82fe8:	d503201f 	nop
   82fec:	d503201f 	nop
   82ff0:	d503201f 	nop
   82ff4:	d503201f 	nop
   82ff8:	d503201f 	nop
   82ffc:	d503201f 	nop

0000000000083000 <set_exception_vector_table>:
   83000:	10ffc000 	adr	x0, 82800 <exception_vector_table>
   83004:	d518c000 	msr	vbar_el1, x0
   83008:	d65f03c0 	ret

000000000008300c <getFileData>:
   8300c:	a9bb7bfd 	stp	x29, x30, [sp, #-80]!
   83010:	910003fd 	mov	x29, sp
   83014:	f9000fa0 	str	x0, [x29, #24]
   83018:	d0000000 	adrp	x0, 85000 <core_timer_enable+0x1b8>
   8301c:	91054000 	add	x0, x0, #0x150
   83020:	97fff528 	bl	804c0 <uart_puts>
   83024:	52800021 	mov	w1, #0x1                   	// #1
   83028:	f9400fa0 	ldr	x0, [x29, #24]
   8302c:	97fff53b 	bl	80518 <uart_read_line>
   83030:	528001a0 	mov	w0, #0xd                   	// #13
   83034:	97fff4ff 	bl	80430 <uart_send>
   83038:	d0000000 	adrp	x0, 85000 <core_timer_enable+0x1b8>
   8303c:	911e0000 	add	x0, x0, #0x780
   83040:	f9400000 	ldr	x0, [x0]
   83044:	f90027a0 	str	x0, [x29, #72]
   83048:	b90043bf 	str	wzr, [x29, #64]
   8304c:	b9003fbf 	str	wzr, [x29, #60]
   83050:	f94027a0 	ldr	x0, [x29, #72]
   83054:	9100d800 	add	x0, x0, #0x36
   83058:	f90027a0 	str	x0, [x29, #72]
   8305c:	52800101 	mov	w1, #0x8                   	// #8
   83060:	f94027a0 	ldr	x0, [x29, #72]
   83064:	9400051b 	bl	844d0 <subStr>
   83068:	52800201 	mov	w1, #0x10                  	// #16
   8306c:	94000462 	bl	841f4 <atoi>
   83070:	b90043a0 	str	w0, [x29, #64]
   83074:	f94027a0 	ldr	x0, [x29, #72]
   83078:	9100a000 	add	x0, x0, #0x28
   8307c:	f90027a0 	str	x0, [x29, #72]
   83080:	52800101 	mov	w1, #0x8                   	// #8
   83084:	f94027a0 	ldr	x0, [x29, #72]
   83088:	94000512 	bl	844d0 <subStr>
   8308c:	52800201 	mov	w1, #0x10                  	// #16
   83090:	94000459 	bl	841f4 <atoi>
   83094:	b9003fa0 	str	w0, [x29, #60]
   83098:	b9403fa0 	ldr	w0, [x29, #60]
   8309c:	1101b800 	add	w0, w0, #0x6e
   830a0:	12000400 	and	w0, w0, #0x3
   830a4:	7100001f 	cmp	w0, #0x0
   830a8:	54000140 	b.eq	830d0 <getFileData+0xc4>  // b.none
   830ac:	b9403fa0 	ldr	w0, [x29, #60]
   830b0:	1101b800 	add	w0, w0, #0x6e
   830b4:	6b0003e1 	negs	w1, w0
   830b8:	12000400 	and	w0, w0, #0x3
   830bc:	12000421 	and	w1, w1, #0x3
   830c0:	5a814400 	csneg	w0, w0, w1, mi  // mi = first
   830c4:	52800081 	mov	w1, #0x4                   	// #4
   830c8:	4b000020 	sub	w0, w1, w0
   830cc:	14000002 	b	830d4 <getFileData+0xc8>
   830d0:	52800000 	mov	w0, #0x0                   	// #0
   830d4:	b9403fa1 	ldr	w1, [x29, #60]
   830d8:	0b000020 	add	w0, w1, w0
   830dc:	b9003fa0 	str	w0, [x29, #60]
   830e0:	b94043a0 	ldr	w0, [x29, #64]
   830e4:	12000400 	and	w0, w0, #0x3
   830e8:	7100001f 	cmp	w0, #0x0
   830ec:	54000120 	b.eq	83110 <getFileData+0x104>  // b.none
   830f0:	b94043a0 	ldr	w0, [x29, #64]
   830f4:	6b0003e1 	negs	w1, w0
   830f8:	12000400 	and	w0, w0, #0x3
   830fc:	12000421 	and	w1, w1, #0x3
   83100:	5a814400 	csneg	w0, w0, w1, mi  // mi = first
   83104:	52800081 	mov	w1, #0x4                   	// #4
   83108:	4b000020 	sub	w0, w1, w0
   8310c:	14000002 	b	83114 <getFileData+0x108>
   83110:	52800000 	mov	w0, #0x0                   	// #0
   83114:	b94043a1 	ldr	w1, [x29, #64]
   83118:	0b000020 	add	w0, w1, w0
   8311c:	b90043a0 	str	w0, [x29, #64]
   83120:	f94027a0 	ldr	x0, [x29, #72]
   83124:	91004000 	add	x0, x0, #0x10
   83128:	f90027a0 	str	x0, [x29, #72]
   8312c:	f94027a0 	ldr	x0, [x29, #72]
   83130:	f9001ba0 	str	x0, [x29, #48]
   83134:	d0000000 	adrp	x0, 85000 <core_timer_enable+0x1b8>
   83138:	9105c000 	add	x0, x0, #0x170
   8313c:	aa0003e1 	mov	x1, x0
   83140:	f9401ba0 	ldr	x0, [x29, #48]
   83144:	94000351 	bl	83e88 <strcmp>
   83148:	7100001f 	cmp	w0, #0x0
   8314c:	540000a1 	b.ne	83160 <getFileData+0x154>  // b.any
   83150:	d0000000 	adrp	x0, 85000 <core_timer_enable+0x1b8>
   83154:	91060000 	add	x0, x0, #0x180
   83158:	97fff4da 	bl	804c0 <uart_puts>
   8315c:	1400002b 	b	83208 <getFileData+0x1fc>
   83160:	b9803fa0 	ldrsw	x0, [x29, #60]
   83164:	f94027a1 	ldr	x1, [x29, #72]
   83168:	8b000020 	add	x0, x1, x0
   8316c:	f90027a0 	str	x0, [x29, #72]
   83170:	f94027a0 	ldr	x0, [x29, #72]
   83174:	f90017a0 	str	x0, [x29, #40]
   83178:	f9400fa1 	ldr	x1, [x29, #24]
   8317c:	f9401ba0 	ldr	x0, [x29, #48]
   83180:	94000342 	bl	83e88 <strcmp>
   83184:	7100001f 	cmp	w0, #0x0
   83188:	54000361 	b.ne	831f4 <getFileData+0x1e8>  // b.any
   8318c:	b90047bf 	str	wzr, [x29, #68]
   83190:	14000011 	b	831d4 <getFileData+0x1c8>
   83194:	b98047a0 	ldrsw	x0, [x29, #68]
   83198:	f94017a1 	ldr	x1, [x29, #40]
   8319c:	8b000020 	add	x0, x1, x0
   831a0:	39400000 	ldrb	w0, [x0]
   831a4:	7100281f 	cmp	w0, #0xa
   831a8:	54000061 	b.ne	831b4 <getFileData+0x1a8>  // b.any
   831ac:	528001a0 	mov	w0, #0xd                   	// #13
   831b0:	97fff4a0 	bl	80430 <uart_send>
   831b4:	b98047a0 	ldrsw	x0, [x29, #68]
   831b8:	f94017a1 	ldr	x1, [x29, #40]
   831bc:	8b000020 	add	x0, x1, x0
   831c0:	39400000 	ldrb	w0, [x0]
   831c4:	97fff49b 	bl	80430 <uart_send>
   831c8:	b94047a0 	ldr	w0, [x29, #68]
   831cc:	11000400 	add	w0, w0, #0x1
   831d0:	b90047a0 	str	w0, [x29, #68]
   831d4:	b94047a1 	ldr	w1, [x29, #68]
   831d8:	b94043a0 	ldr	w0, [x29, #64]
   831dc:	6b00003f 	cmp	w1, w0
   831e0:	54fffdab 	b.lt	83194 <getFileData+0x188>  // b.tstop
   831e4:	d0000000 	adrp	x0, 85000 <core_timer_enable+0x1b8>
   831e8:	91064000 	add	x0, x0, #0x190
   831ec:	97fff4b5 	bl	804c0 <uart_puts>
   831f0:	14000006 	b	83208 <getFileData+0x1fc>
   831f4:	b98043a0 	ldrsw	x0, [x29, #64]
   831f8:	f94027a1 	ldr	x1, [x29, #72]
   831fc:	8b000020 	add	x0, x1, x0
   83200:	f90027a0 	str	x0, [x29, #72]
   83204:	17ffff91 	b	83048 <getFileData+0x3c>
   83208:	d503201f 	nop
   8320c:	a8c57bfd 	ldp	x29, x30, [sp], #80
   83210:	d65f03c0 	ret

0000000000083214 <list_file>:
   83214:	a9b77bfd 	stp	x29, x30, [sp, #-144]!
   83218:	910003fd 	mov	x29, sp
   8321c:	d0000000 	adrp	x0, 85000 <core_timer_enable+0x1b8>
   83220:	911e0000 	add	x0, x0, #0x780
   83224:	f9400000 	ldr	x0, [x0]
   83228:	f90047a0 	str	x0, [x29, #136]
   8322c:	b90087bf 	str	wzr, [x29, #132]
   83230:	b90083bf 	str	wzr, [x29, #128]
   83234:	f94047a0 	ldr	x0, [x29, #136]
   83238:	9100d800 	add	x0, x0, #0x36
   8323c:	f90047a0 	str	x0, [x29, #136]
   83240:	52800101 	mov	w1, #0x8                   	// #8
   83244:	f94047a0 	ldr	x0, [x29, #136]
   83248:	940004a2 	bl	844d0 <subStr>
   8324c:	52800201 	mov	w1, #0x10                  	// #16
   83250:	940003e9 	bl	841f4 <atoi>
   83254:	b90087a0 	str	w0, [x29, #132]
   83258:	f94047a0 	ldr	x0, [x29, #136]
   8325c:	9100a000 	add	x0, x0, #0x28
   83260:	f90047a0 	str	x0, [x29, #136]
   83264:	52800101 	mov	w1, #0x8                   	// #8
   83268:	f94047a0 	ldr	x0, [x29, #136]
   8326c:	94000499 	bl	844d0 <subStr>
   83270:	52800201 	mov	w1, #0x10                  	// #16
   83274:	940003e0 	bl	841f4 <atoi>
   83278:	b90083a0 	str	w0, [x29, #128]
   8327c:	b94083a0 	ldr	w0, [x29, #128]
   83280:	1101b800 	add	w0, w0, #0x6e
   83284:	12000400 	and	w0, w0, #0x3
   83288:	7100001f 	cmp	w0, #0x0
   8328c:	54000140 	b.eq	832b4 <list_file+0xa0>  // b.none
   83290:	b94083a0 	ldr	w0, [x29, #128]
   83294:	1101b800 	add	w0, w0, #0x6e
   83298:	6b0003e1 	negs	w1, w0
   8329c:	12000400 	and	w0, w0, #0x3
   832a0:	12000421 	and	w1, w1, #0x3
   832a4:	5a814400 	csneg	w0, w0, w1, mi  // mi = first
   832a8:	52800081 	mov	w1, #0x4                   	// #4
   832ac:	4b000020 	sub	w0, w1, w0
   832b0:	14000002 	b	832b8 <list_file+0xa4>
   832b4:	52800000 	mov	w0, #0x0                   	// #0
   832b8:	b94083a1 	ldr	w1, [x29, #128]
   832bc:	0b000020 	add	w0, w1, w0
   832c0:	b90083a0 	str	w0, [x29, #128]
   832c4:	b94087a0 	ldr	w0, [x29, #132]
   832c8:	12000400 	and	w0, w0, #0x3
   832cc:	7100001f 	cmp	w0, #0x0
   832d0:	54000120 	b.eq	832f4 <list_file+0xe0>  // b.none
   832d4:	b94087a0 	ldr	w0, [x29, #132]
   832d8:	6b0003e1 	negs	w1, w0
   832dc:	12000400 	and	w0, w0, #0x3
   832e0:	12000421 	and	w1, w1, #0x3
   832e4:	5a814400 	csneg	w0, w0, w1, mi  // mi = first
   832e8:	52800081 	mov	w1, #0x4                   	// #4
   832ec:	4b000020 	sub	w0, w1, w0
   832f0:	14000002 	b	832f8 <list_file+0xe4>
   832f4:	52800000 	mov	w0, #0x0                   	// #0
   832f8:	b94087a1 	ldr	w1, [x29, #132]
   832fc:	0b000020 	add	w0, w1, w0
   83300:	b90087a0 	str	w0, [x29, #132]
   83304:	f94047a0 	ldr	x0, [x29, #136]
   83308:	91004000 	add	x0, x0, #0x10
   8330c:	f90047a0 	str	x0, [x29, #136]
   83310:	f94047a0 	ldr	x0, [x29, #136]
   83314:	f9003fa0 	str	x0, [x29, #120]
   83318:	d0000000 	adrp	x0, 85000 <core_timer_enable+0x1b8>
   8331c:	9105c000 	add	x0, x0, #0x170
   83320:	aa0003e1 	mov	x1, x0
   83324:	f9403fa0 	ldr	x0, [x29, #120]
   83328:	940002d8 	bl	83e88 <strcmp>
   8332c:	7100001f 	cmp	w0, #0x0
   83330:	540001e0 	b.eq	8336c <list_file+0x158>  // b.none
   83334:	f9403fa0 	ldr	x0, [x29, #120]
   83338:	97fff462 	bl	804c0 <uart_puts>
   8333c:	d0000000 	adrp	x0, 85000 <core_timer_enable+0x1b8>
   83340:	91064000 	add	x0, x0, #0x190
   83344:	97fff45f 	bl	804c0 <uart_puts>
   83348:	b98083a0 	ldrsw	x0, [x29, #128]
   8334c:	f94047a1 	ldr	x1, [x29, #136]
   83350:	8b000020 	add	x0, x1, x0
   83354:	f90047a0 	str	x0, [x29, #136]
   83358:	b98087a0 	ldrsw	x0, [x29, #132]
   8335c:	f94047a1 	ldr	x1, [x29, #136]
   83360:	8b000020 	add	x0, x1, x0
   83364:	f90047a0 	str	x0, [x29, #136]
   83368:	17ffffb1 	b	8322c <list_file+0x18>
   8336c:	d503201f 	nop
   83370:	910043a0 	add	x0, x29, #0x10
   83374:	97ffff26 	bl	8300c <getFileData>
   83378:	d503201f 	nop
   8337c:	a8c97bfd 	ldp	x29, x30, [sp], #144
   83380:	d65f03c0 	ret

0000000000083384 <load_user_program>:
   83384:	a9b57bfd 	stp	x29, x30, [sp, #-176]!
   83388:	910003fd 	mov	x29, sp
   8338c:	d0000000 	adrp	x0, 85000 <core_timer_enable+0x1b8>
   83390:	91054000 	add	x0, x0, #0x150
   83394:	97fff44b 	bl	804c0 <uart_puts>
   83398:	910043a0 	add	x0, x29, #0x10
   8339c:	52800021 	mov	w1, #0x1                   	// #1
   833a0:	97fff45e 	bl	80518 <uart_read_line>
   833a4:	528001a0 	mov	w0, #0xd                   	// #13
   833a8:	97fff422 	bl	80430 <uart_send>
   833ac:	d2a00200 	mov	x0, #0x100000              	// #1048576
   833b0:	f9004fa0 	str	x0, [x29, #152]
   833b4:	f9404fa0 	ldr	x0, [x29, #152]
   833b8:	91400400 	add	x0, x0, #0x1, lsl #12
   833bc:	f9004ba0 	str	x0, [x29, #144]
   833c0:	d0000000 	adrp	x0, 85000 <core_timer_enable+0x1b8>
   833c4:	911e0000 	add	x0, x0, #0x780
   833c8:	f9400000 	ldr	x0, [x0]
   833cc:	f90057a0 	str	x0, [x29, #168]
   833d0:	b9008fbf 	str	wzr, [x29, #140]
   833d4:	b9008bbf 	str	wzr, [x29, #136]
   833d8:	f94057a0 	ldr	x0, [x29, #168]
   833dc:	9100d800 	add	x0, x0, #0x36
   833e0:	f90057a0 	str	x0, [x29, #168]
   833e4:	52800101 	mov	w1, #0x8                   	// #8
   833e8:	f94057a0 	ldr	x0, [x29, #168]
   833ec:	94000439 	bl	844d0 <subStr>
   833f0:	52800201 	mov	w1, #0x10                  	// #16
   833f4:	94000380 	bl	841f4 <atoi>
   833f8:	b9008fa0 	str	w0, [x29, #140]
   833fc:	f94057a0 	ldr	x0, [x29, #168]
   83400:	9100a000 	add	x0, x0, #0x28
   83404:	f90057a0 	str	x0, [x29, #168]
   83408:	52800101 	mov	w1, #0x8                   	// #8
   8340c:	f94057a0 	ldr	x0, [x29, #168]
   83410:	94000430 	bl	844d0 <subStr>
   83414:	52800201 	mov	w1, #0x10                  	// #16
   83418:	94000377 	bl	841f4 <atoi>
   8341c:	b9008ba0 	str	w0, [x29, #136]
   83420:	b9408ba0 	ldr	w0, [x29, #136]
   83424:	1101b800 	add	w0, w0, #0x6e
   83428:	12000400 	and	w0, w0, #0x3
   8342c:	7100001f 	cmp	w0, #0x0
   83430:	54000140 	b.eq	83458 <load_user_program+0xd4>  // b.none
   83434:	b9408ba0 	ldr	w0, [x29, #136]
   83438:	1101b800 	add	w0, w0, #0x6e
   8343c:	6b0003e1 	negs	w1, w0
   83440:	12000400 	and	w0, w0, #0x3
   83444:	12000421 	and	w1, w1, #0x3
   83448:	5a814400 	csneg	w0, w0, w1, mi  // mi = first
   8344c:	52800081 	mov	w1, #0x4                   	// #4
   83450:	4b000020 	sub	w0, w1, w0
   83454:	14000002 	b	8345c <load_user_program+0xd8>
   83458:	52800000 	mov	w0, #0x0                   	// #0
   8345c:	b9408ba1 	ldr	w1, [x29, #136]
   83460:	0b000020 	add	w0, w1, w0
   83464:	b9008ba0 	str	w0, [x29, #136]
   83468:	b9408fa0 	ldr	w0, [x29, #140]
   8346c:	12000400 	and	w0, w0, #0x3
   83470:	7100001f 	cmp	w0, #0x0
   83474:	54000120 	b.eq	83498 <load_user_program+0x114>  // b.none
   83478:	b9408fa0 	ldr	w0, [x29, #140]
   8347c:	6b0003e1 	negs	w1, w0
   83480:	12000400 	and	w0, w0, #0x3
   83484:	12000421 	and	w1, w1, #0x3
   83488:	5a814400 	csneg	w0, w0, w1, mi  // mi = first
   8348c:	52800081 	mov	w1, #0x4                   	// #4
   83490:	4b000020 	sub	w0, w1, w0
   83494:	14000002 	b	8349c <load_user_program+0x118>
   83498:	52800000 	mov	w0, #0x0                   	// #0
   8349c:	b9408fa1 	ldr	w1, [x29, #140]
   834a0:	0b000020 	add	w0, w1, w0
   834a4:	b9008fa0 	str	w0, [x29, #140]
   834a8:	f94057a0 	ldr	x0, [x29, #168]
   834ac:	91004000 	add	x0, x0, #0x10
   834b0:	f90057a0 	str	x0, [x29, #168]
   834b4:	f94057a0 	ldr	x0, [x29, #168]
   834b8:	f90043a0 	str	x0, [x29, #128]
   834bc:	d0000000 	adrp	x0, 85000 <core_timer_enable+0x1b8>
   834c0:	9105c000 	add	x0, x0, #0x170
   834c4:	aa0003e1 	mov	x1, x0
   834c8:	f94043a0 	ldr	x0, [x29, #128]
   834cc:	9400026f 	bl	83e88 <strcmp>
   834d0:	7100001f 	cmp	w0, #0x0
   834d4:	540000a1 	b.ne	834e8 <load_user_program+0x164>  // b.any
   834d8:	d0000000 	adrp	x0, 85000 <core_timer_enable+0x1b8>
   834dc:	91060000 	add	x0, x0, #0x180
   834e0:	97fff3f8 	bl	804c0 <uart_puts>
   834e4:	14000029 	b	83588 <load_user_program+0x204>
   834e8:	b9808ba0 	ldrsw	x0, [x29, #136]
   834ec:	f94057a1 	ldr	x1, [x29, #168]
   834f0:	8b000020 	add	x0, x1, x0
   834f4:	f90057a0 	str	x0, [x29, #168]
   834f8:	f94057a0 	ldr	x0, [x29, #168]
   834fc:	f9003fa0 	str	x0, [x29, #120]
   83500:	910043a0 	add	x0, x29, #0x10
   83504:	aa0003e1 	mov	x1, x0
   83508:	f94043a0 	ldr	x0, [x29, #128]
   8350c:	9400025f 	bl	83e88 <strcmp>
   83510:	7100001f 	cmp	w0, #0x0
   83514:	54000301 	b.ne	83574 <load_user_program+0x1f0>  // b.any
   83518:	b900a7bf 	str	wzr, [x29, #164]
   8351c:	1400000c 	b	8354c <load_user_program+0x1c8>
   83520:	b980a7a0 	ldrsw	x0, [x29, #164]
   83524:	f9404fa1 	ldr	x1, [x29, #152]
   83528:	8b000020 	add	x0, x1, x0
   8352c:	b980a7a1 	ldrsw	x1, [x29, #164]
   83530:	f9403fa2 	ldr	x2, [x29, #120]
   83534:	8b010041 	add	x1, x2, x1
   83538:	39400021 	ldrb	w1, [x1]
   8353c:	39000001 	strb	w1, [x0]
   83540:	b940a7a0 	ldr	w0, [x29, #164]
   83544:	11000400 	add	w0, w0, #0x1
   83548:	b900a7a0 	str	w0, [x29, #164]
   8354c:	b940a7a1 	ldr	w1, [x29, #164]
   83550:	b9408fa0 	ldr	w0, [x29, #140]
   83554:	6b00003f 	cmp	w1, w0
   83558:	54fffe4b 	b.lt	83520 <load_user_program+0x19c>  // b.tstop
   8355c:	d0000000 	adrp	x0, 85000 <core_timer_enable+0x1b8>
   83560:	91066000 	add	x0, x0, #0x198
   83564:	97fff3d7 	bl	804c0 <uart_puts>
   83568:	f9404fa0 	ldr	x0, [x29, #152]
   8356c:	f9404ba1 	ldr	x1, [x29, #144]
   83570:	9400062c 	bl	84e20 <run_user_program>
   83574:	b9808fa0 	ldrsw	x0, [x29, #140]
   83578:	f94057a1 	ldr	x1, [x29, #168]
   8357c:	8b000020 	add	x0, x1, x0
   83580:	f90057a0 	str	x0, [x29, #168]
   83584:	17ffff93 	b	833d0 <load_user_program+0x4c>
   83588:	d503201f 	nop
   8358c:	a8cb7bfd 	ldp	x29, x30, [sp], #176
   83590:	d65f03c0 	ret

0000000000083594 <argv_puts>:
   83594:	d10103ff 	sub	sp, sp, #0x40
   83598:	f90007e0 	str	x0, [sp, #8]
   8359c:	f90003e1 	str	x1, [sp]
   835a0:	b9003fff 	str	wzr, [sp, #60]
   835a4:	b9003bff 	str	wzr, [sp, #56]
   835a8:	b90037ff 	str	wzr, [sp, #52]
   835ac:	b9403fe0 	ldr	w0, [sp, #60]
   835b0:	11000400 	add	w0, w0, #0x1
   835b4:	b9003fe0 	str	w0, [sp, #60]
   835b8:	b98037e0 	ldrsw	x0, [sp, #52]
   835bc:	d37df000 	lsl	x0, x0, #3
   835c0:	f94007e1 	ldr	x1, [sp, #8]
   835c4:	8b000020 	add	x0, x1, x0
   835c8:	f9400000 	ldr	x0, [x0]
   835cc:	f100001f 	cmp	x0, #0x0
   835d0:	54000300 	b.eq	83630 <argv_puts+0x9c>  // b.none
   835d4:	b90033ff 	str	wzr, [sp, #48]
   835d8:	b9403be0 	ldr	w0, [sp, #56]
   835dc:	11000400 	add	w0, w0, #0x1
   835e0:	b9003be0 	str	w0, [sp, #56]
   835e4:	b98037e0 	ldrsw	x0, [sp, #52]
   835e8:	d37df000 	lsl	x0, x0, #3
   835ec:	f94007e1 	ldr	x1, [sp, #8]
   835f0:	8b000020 	add	x0, x1, x0
   835f4:	f9400001 	ldr	x1, [x0]
   835f8:	b98033e0 	ldrsw	x0, [sp, #48]
   835fc:	8b000020 	add	x0, x1, x0
   83600:	39400000 	ldrb	w0, [x0]
   83604:	7100001f 	cmp	w0, #0x0
   83608:	540000a0 	b.eq	8361c <argv_puts+0x88>  // b.none
   8360c:	b94033e0 	ldr	w0, [sp, #48]
   83610:	11000400 	add	w0, w0, #0x1
   83614:	b90033e0 	str	w0, [sp, #48]
   83618:	17fffff0 	b	835d8 <argv_puts+0x44>
   8361c:	d503201f 	nop
   83620:	b94037e0 	ldr	w0, [sp, #52]
   83624:	11000400 	add	w0, w0, #0x1
   83628:	b90037e0 	str	w0, [sp, #52]
   8362c:	17ffffe0 	b	835ac <argv_puts+0x18>
   83630:	d503201f 	nop
   83634:	b9403fe0 	ldr	w0, [sp, #60]
   83638:	11000800 	add	w0, w0, #0x2
   8363c:	531d7001 	lsl	w1, w0, #3
   83640:	b9403be0 	ldr	w0, [sp, #56]
   83644:	0b000020 	add	w0, w1, w0
   83648:	b90017e0 	str	w0, [sp, #20]
   8364c:	b98017e0 	ldrsw	x0, [sp, #20]
   83650:	f94003e1 	ldr	x1, [sp]
   83654:	cb000020 	sub	x0, x1, x0
   83658:	f90003e0 	str	x0, [sp]
   8365c:	f94003e0 	ldr	x0, [sp]
   83660:	927cec00 	and	x0, x0, #0xfffffffffffffff0
   83664:	f90003e0 	str	x0, [sp]
   83668:	f94003e0 	ldr	x0, [sp]
   8366c:	f90017e0 	str	x0, [sp, #40]
   83670:	b9403fe0 	ldr	w0, [sp, #60]
   83674:	51000400 	sub	w0, w0, #0x1
   83678:	93407c01 	sxtw	x1, w0
   8367c:	f94017e0 	ldr	x0, [sp, #40]
   83680:	f9000001 	str	x1, [x0]
   83684:	f94017e0 	ldr	x0, [sp, #40]
   83688:	91002000 	add	x0, x0, #0x8
   8368c:	f90017e0 	str	x0, [sp, #40]
   83690:	f94017e0 	ldr	x0, [sp, #40]
   83694:	91002000 	add	x0, x0, #0x8
   83698:	aa0003e1 	mov	x1, x0
   8369c:	f94017e0 	ldr	x0, [sp, #40]
   836a0:	f9000001 	str	x1, [x0]
   836a4:	f94017e0 	ldr	x0, [sp, #40]
   836a8:	91002000 	add	x0, x0, #0x8
   836ac:	f90017e0 	str	x0, [sp, #40]
   836b0:	b9403fe0 	ldr	w0, [sp, #60]
   836b4:	531d7000 	lsl	w0, w0, #3
   836b8:	93407c00 	sxtw	x0, w0
   836bc:	f94017e1 	ldr	x1, [sp, #40]
   836c0:	8b000020 	add	x0, x1, x0
   836c4:	f90013e0 	str	x0, [sp, #32]
   836c8:	b9001fff 	str	wzr, [sp, #28]
   836cc:	1400002f 	b	83788 <argv_puts+0x1f4>
   836d0:	b9401fe0 	ldr	w0, [sp, #28]
   836d4:	11000401 	add	w1, w0, #0x1
   836d8:	b9403fe0 	ldr	w0, [sp, #60]
   836dc:	6b00003f 	cmp	w1, w0
   836e0:	54000081 	b.ne	836f0 <argv_puts+0x15c>  // b.any
   836e4:	f94017e0 	ldr	x0, [sp, #40]
   836e8:	f900001f 	str	xzr, [x0]
   836ec:	14000024 	b	8377c <argv_puts+0x1e8>
   836f0:	f94013e1 	ldr	x1, [sp, #32]
   836f4:	f94017e0 	ldr	x0, [sp, #40]
   836f8:	f9000001 	str	x1, [x0]
   836fc:	f94017e0 	ldr	x0, [sp, #40]
   83700:	91002000 	add	x0, x0, #0x8
   83704:	f90017e0 	str	x0, [sp, #40]
   83708:	b9001bff 	str	wzr, [sp, #24]
   8370c:	b9801fe0 	ldrsw	x0, [sp, #28]
   83710:	d37df000 	lsl	x0, x0, #3
   83714:	f94007e1 	ldr	x1, [sp, #8]
   83718:	8b000020 	add	x0, x1, x0
   8371c:	f9400001 	ldr	x1, [x0]
   83720:	b9801be0 	ldrsw	x0, [sp, #24]
   83724:	8b000020 	add	x0, x1, x0
   83728:	39400001 	ldrb	w1, [x0]
   8372c:	f94013e0 	ldr	x0, [sp, #32]
   83730:	39000001 	strb	w1, [x0]
   83734:	f94013e0 	ldr	x0, [sp, #32]
   83738:	91000400 	add	x0, x0, #0x1
   8373c:	f90013e0 	str	x0, [sp, #32]
   83740:	b9801fe0 	ldrsw	x0, [sp, #28]
   83744:	d37df000 	lsl	x0, x0, #3
   83748:	f94007e1 	ldr	x1, [sp, #8]
   8374c:	8b000020 	add	x0, x1, x0
   83750:	f9400001 	ldr	x1, [x0]
   83754:	b9801be0 	ldrsw	x0, [sp, #24]
   83758:	8b000020 	add	x0, x1, x0
   8375c:	39400000 	ldrb	w0, [x0]
   83760:	7100001f 	cmp	w0, #0x0
   83764:	540000a0 	b.eq	83778 <argv_puts+0x1e4>  // b.none
   83768:	b9401be0 	ldr	w0, [sp, #24]
   8376c:	11000400 	add	w0, w0, #0x1
   83770:	b9001be0 	str	w0, [sp, #24]
   83774:	17ffffe6 	b	8370c <argv_puts+0x178>
   83778:	d503201f 	nop
   8377c:	b9401fe0 	ldr	w0, [sp, #28]
   83780:	11000400 	add	w0, w0, #0x1
   83784:	b9001fe0 	str	w0, [sp, #28]
   83788:	b9401fe1 	ldr	w1, [sp, #28]
   8378c:	b9403fe0 	ldr	w0, [sp, #60]
   83790:	6b00003f 	cmp	w1, w0
   83794:	54fff9eb 	b.lt	836d0 <argv_puts+0x13c>  // b.tstop
   83798:	f94003e0 	ldr	x0, [sp]
   8379c:	910103ff 	add	sp, sp, #0x40
   837a0:	d65f03c0 	ret

00000000000837a4 <load_user_program_withArgv>:
   837a4:	a9ba7bfd 	stp	x29, x30, [sp, #-96]!
   837a8:	910003fd 	mov	x29, sp
   837ac:	f9000fa0 	str	x0, [x29, #24]
   837b0:	f9000ba1 	str	x1, [x29, #16]
   837b4:	d0000000 	adrp	x0, 85000 <core_timer_enable+0x1b8>
   837b8:	9106a000 	add	x0, x0, #0x1a8
   837bc:	97fff341 	bl	804c0 <uart_puts>
   837c0:	52800020 	mov	w0, #0x1                   	// #1
   837c4:	97fff3dd 	bl	80738 <uart_getX>
   837c8:	f90027a0 	str	x0, [x29, #72]
   837cc:	f94027a0 	ldr	x0, [x29, #72]
   837d0:	91400400 	add	x0, x0, #0x1, lsl #12
   837d4:	f90023a0 	str	x0, [x29, #64]
   837d8:	d0000000 	adrp	x0, 85000 <core_timer_enable+0x1b8>
   837dc:	911e0000 	add	x0, x0, #0x780
   837e0:	f9400000 	ldr	x0, [x0]
   837e4:	f9002fa0 	str	x0, [x29, #88]
   837e8:	f9001fbf 	str	xzr, [x29, #56]
   837ec:	b90037bf 	str	wzr, [x29, #52]
   837f0:	b90037bf 	str	wzr, [x29, #52]
   837f4:	b90033bf 	str	wzr, [x29, #48]
   837f8:	f9402fa0 	ldr	x0, [x29, #88]
   837fc:	9100d800 	add	x0, x0, #0x36
   83800:	f9002fa0 	str	x0, [x29, #88]
   83804:	52800101 	mov	w1, #0x8                   	// #8
   83808:	f9402fa0 	ldr	x0, [x29, #88]
   8380c:	94000331 	bl	844d0 <subStr>
   83810:	52800201 	mov	w1, #0x10                  	// #16
   83814:	94000278 	bl	841f4 <atoi>
   83818:	b90037a0 	str	w0, [x29, #52]
   8381c:	f9402fa0 	ldr	x0, [x29, #88]
   83820:	9100a000 	add	x0, x0, #0x28
   83824:	f9002fa0 	str	x0, [x29, #88]
   83828:	52800101 	mov	w1, #0x8                   	// #8
   8382c:	f9402fa0 	ldr	x0, [x29, #88]
   83830:	94000328 	bl	844d0 <subStr>
   83834:	52800201 	mov	w1, #0x10                  	// #16
   83838:	9400026f 	bl	841f4 <atoi>
   8383c:	b90033a0 	str	w0, [x29, #48]
   83840:	b94033a0 	ldr	w0, [x29, #48]
   83844:	1101b800 	add	w0, w0, #0x6e
   83848:	12000400 	and	w0, w0, #0x3
   8384c:	7100001f 	cmp	w0, #0x0
   83850:	54000140 	b.eq	83878 <load_user_program_withArgv+0xd4>  // b.none
   83854:	b94033a0 	ldr	w0, [x29, #48]
   83858:	1101b800 	add	w0, w0, #0x6e
   8385c:	6b0003e1 	negs	w1, w0
   83860:	12000400 	and	w0, w0, #0x3
   83864:	12000421 	and	w1, w1, #0x3
   83868:	5a814400 	csneg	w0, w0, w1, mi  // mi = first
   8386c:	52800081 	mov	w1, #0x4                   	// #4
   83870:	4b000020 	sub	w0, w1, w0
   83874:	14000002 	b	8387c <load_user_program_withArgv+0xd8>
   83878:	52800000 	mov	w0, #0x0                   	// #0
   8387c:	b94033a1 	ldr	w1, [x29, #48]
   83880:	0b000020 	add	w0, w1, w0
   83884:	b90033a0 	str	w0, [x29, #48]
   83888:	b94037a0 	ldr	w0, [x29, #52]
   8388c:	12000400 	and	w0, w0, #0x3
   83890:	7100001f 	cmp	w0, #0x0
   83894:	54000120 	b.eq	838b8 <load_user_program_withArgv+0x114>  // b.none
   83898:	b94037a0 	ldr	w0, [x29, #52]
   8389c:	6b0003e1 	negs	w1, w0
   838a0:	12000400 	and	w0, w0, #0x3
   838a4:	12000421 	and	w1, w1, #0x3
   838a8:	5a814400 	csneg	w0, w0, w1, mi  // mi = first
   838ac:	52800081 	mov	w1, #0x4                   	// #4
   838b0:	4b000020 	sub	w0, w1, w0
   838b4:	14000002 	b	838bc <load_user_program_withArgv+0x118>
   838b8:	52800000 	mov	w0, #0x0                   	// #0
   838bc:	b94037a1 	ldr	w1, [x29, #52]
   838c0:	0b000020 	add	w0, w1, w0
   838c4:	b90037a0 	str	w0, [x29, #52]
   838c8:	f9402fa0 	ldr	x0, [x29, #88]
   838cc:	91004000 	add	x0, x0, #0x10
   838d0:	f9002fa0 	str	x0, [x29, #88]
   838d4:	f9402fa0 	ldr	x0, [x29, #88]
   838d8:	f90017a0 	str	x0, [x29, #40]
   838dc:	d0000000 	adrp	x0, 85000 <core_timer_enable+0x1b8>
   838e0:	9105c000 	add	x0, x0, #0x170
   838e4:	aa0003e1 	mov	x1, x0
   838e8:	f94017a0 	ldr	x0, [x29, #40]
   838ec:	94000167 	bl	83e88 <strcmp>
   838f0:	7100001f 	cmp	w0, #0x0
   838f4:	540000c1 	b.ne	8390c <load_user_program_withArgv+0x168>  // b.any
   838f8:	d0000000 	adrp	x0, 85000 <core_timer_enable+0x1b8>
   838fc:	91060000 	add	x0, x0, #0x180
   83900:	97fff2f0 	bl	804c0 <uart_puts>
   83904:	d2800000 	mov	x0, #0x0                   	// #0
   83908:	14000038 	b	839e8 <load_user_program_withArgv+0x244>
   8390c:	b98033a0 	ldrsw	x0, [x29, #48]
   83910:	f9402fa1 	ldr	x1, [x29, #88]
   83914:	8b000020 	add	x0, x1, x0
   83918:	f9002fa0 	str	x0, [x29, #88]
   8391c:	f9402fa0 	ldr	x0, [x29, #88]
   83920:	f9001fa0 	str	x0, [x29, #56]
   83924:	f9400fa1 	ldr	x1, [x29, #24]
   83928:	f94017a0 	ldr	x0, [x29, #40]
   8392c:	94000157 	bl	83e88 <strcmp>
   83930:	7100001f 	cmp	w0, #0x0
   83934:	54000181 	b.ne	83964 <load_user_program_withArgv+0x1c0>  // b.any
   83938:	d0000000 	adrp	x0, 85000 <core_timer_enable+0x1b8>
   8393c:	91074000 	add	x0, x0, #0x1d0
   83940:	97fff2e0 	bl	804c0 <uart_puts>
   83944:	f94017a0 	ldr	x0, [x29, #40]
   83948:	97fff2de 	bl	804c0 <uart_puts>
   8394c:	d0000000 	adrp	x0, 85000 <core_timer_enable+0x1b8>
   83950:	91064000 	add	x0, x0, #0x190
   83954:	97fff2db 	bl	804c0 <uart_puts>
   83958:	d503201f 	nop
   8395c:	b90057bf 	str	wzr, [x29, #84]
   83960:	14000013 	b	839ac <load_user_program_withArgv+0x208>
   83964:	b98037a0 	ldrsw	x0, [x29, #52]
   83968:	f9402fa1 	ldr	x1, [x29, #88]
   8396c:	8b000020 	add	x0, x1, x0
   83970:	f9002fa0 	str	x0, [x29, #88]
   83974:	17ffff9f 	b	837f0 <load_user_program_withArgv+0x4c>
   83978:	b98057a0 	ldrsw	x0, [x29, #84]
   8397c:	d37df000 	lsl	x0, x0, #3
   83980:	f94027a1 	ldr	x1, [x29, #72]
   83984:	8b000020 	add	x0, x1, x0
   83988:	b98057a1 	ldrsw	x1, [x29, #84]
   8398c:	d37df021 	lsl	x1, x1, #3
   83990:	f9401fa2 	ldr	x2, [x29, #56]
   83994:	8b010041 	add	x1, x2, x1
   83998:	f9400021 	ldr	x1, [x1]
   8399c:	f9000001 	str	x1, [x0]
   839a0:	b94057a0 	ldr	w0, [x29, #84]
   839a4:	11000400 	add	w0, w0, #0x1
   839a8:	b90057a0 	str	w0, [x29, #84]
   839ac:	b94057a1 	ldr	w1, [x29, #84]
   839b0:	b94037a0 	ldr	w0, [x29, #52]
   839b4:	6b00003f 	cmp	w1, w0
   839b8:	54fffe0b 	b.lt	83978 <load_user_program_withArgv+0x1d4>  // b.tstop
   839bc:	d0000000 	adrp	x0, 85000 <core_timer_enable+0x1b8>
   839c0:	91076000 	add	x0, x0, #0x1d8
   839c4:	97fff2bf 	bl	804c0 <uart_puts>
   839c8:	f94023a1 	ldr	x1, [x29, #64]
   839cc:	f9400ba0 	ldr	x0, [x29, #16]
   839d0:	97fffef1 	bl	83594 <argv_puts>
   839d4:	f90023a0 	str	x0, [x29, #64]
   839d8:	f94027a0 	ldr	x0, [x29, #72]
   839dc:	f94023a1 	ldr	x1, [x29, #64]
   839e0:	94000510 	bl	84e20 <run_user_program>
   839e4:	d2800020 	mov	x0, #0x1                   	// #1
   839e8:	a8c67bfd 	ldp	x29, x30, [sp], #96
   839ec:	d65f03c0 	ret

00000000000839f0 <get_cpio_base>:
   839f0:	d0000000 	adrp	x0, 85000 <core_timer_enable+0x1b8>
   839f4:	911e0000 	add	x0, x0, #0x780
   839f8:	f9400000 	ldr	x0, [x0]
   839fc:	d65f03c0 	ret

0000000000083a00 <get_file_property>:
   83a00:	a9bb7bfd 	stp	x29, x30, [sp, #-80]!
   83a04:	910003fd 	mov	x29, sp
   83a08:	f9000fa0 	str	x0, [x29, #24]
   83a0c:	b9004fbf 	str	wzr, [x29, #76]
   83a10:	b9004bbf 	str	wzr, [x29, #72]
   83a14:	b90047bf 	str	wzr, [x29, #68]
   83a18:	f9400fa0 	ldr	x0, [x29, #24]
   83a1c:	91003800 	add	x0, x0, #0xe
   83a20:	f9000fa0 	str	x0, [x29, #24]
   83a24:	52800101 	mov	w1, #0x8                   	// #8
   83a28:	f9400fa0 	ldr	x0, [x29, #24]
   83a2c:	940002a9 	bl	844d0 <subStr>
   83a30:	52800201 	mov	w1, #0x10                  	// #16
   83a34:	940001f0 	bl	841f4 <atoi>
   83a38:	b90047a0 	str	w0, [x29, #68]
   83a3c:	b98047a0 	ldrsw	x0, [x29, #68]
   83a40:	d34cfc00 	lsr	x0, x0, #12
   83a44:	f9001fa0 	str	x0, [x29, #56]
   83a48:	f9400fa0 	ldr	x0, [x29, #24]
   83a4c:	9100a000 	add	x0, x0, #0x28
   83a50:	f9000fa0 	str	x0, [x29, #24]
   83a54:	52800101 	mov	w1, #0x8                   	// #8
   83a58:	f9400fa0 	ldr	x0, [x29, #24]
   83a5c:	9400029d 	bl	844d0 <subStr>
   83a60:	52800201 	mov	w1, #0x10                  	// #16
   83a64:	940001e4 	bl	841f4 <atoi>
   83a68:	b9004fa0 	str	w0, [x29, #76]
   83a6c:	f9400fa0 	ldr	x0, [x29, #24]
   83a70:	9100a000 	add	x0, x0, #0x28
   83a74:	f9000fa0 	str	x0, [x29, #24]
   83a78:	52800101 	mov	w1, #0x8                   	// #8
   83a7c:	f9400fa0 	ldr	x0, [x29, #24]
   83a80:	94000294 	bl	844d0 <subStr>
   83a84:	52800201 	mov	w1, #0x10                  	// #16
   83a88:	940001db 	bl	841f4 <atoi>
   83a8c:	b9004ba0 	str	w0, [x29, #72]
   83a90:	b9404ba0 	ldr	w0, [x29, #72]
   83a94:	1101b800 	add	w0, w0, #0x6e
   83a98:	12000400 	and	w0, w0, #0x3
   83a9c:	7100001f 	cmp	w0, #0x0
   83aa0:	54000140 	b.eq	83ac8 <get_file_property+0xc8>  // b.none
   83aa4:	b9404ba0 	ldr	w0, [x29, #72]
   83aa8:	1101b800 	add	w0, w0, #0x6e
   83aac:	6b0003e1 	negs	w1, w0
   83ab0:	12000400 	and	w0, w0, #0x3
   83ab4:	12000421 	and	w1, w1, #0x3
   83ab8:	5a814400 	csneg	w0, w0, w1, mi  // mi = first
   83abc:	52800081 	mov	w1, #0x4                   	// #4
   83ac0:	4b000020 	sub	w0, w1, w0
   83ac4:	14000002 	b	83acc <get_file_property+0xcc>
   83ac8:	52800000 	mov	w0, #0x0                   	// #0
   83acc:	b9404ba1 	ldr	w1, [x29, #72]
   83ad0:	0b000020 	add	w0, w1, w0
   83ad4:	b9004ba0 	str	w0, [x29, #72]
   83ad8:	b9404fa0 	ldr	w0, [x29, #76]
   83adc:	12000400 	and	w0, w0, #0x3
   83ae0:	7100001f 	cmp	w0, #0x0
   83ae4:	54000120 	b.eq	83b08 <get_file_property+0x108>  // b.none
   83ae8:	b9404fa0 	ldr	w0, [x29, #76]
   83aec:	6b0003e1 	negs	w1, w0
   83af0:	12000400 	and	w0, w0, #0x3
   83af4:	12000421 	and	w1, w1, #0x3
   83af8:	5a814400 	csneg	w0, w0, w1, mi  // mi = first
   83afc:	52800081 	mov	w1, #0x4                   	// #4
   83b00:	4b000020 	sub	w0, w1, w0
   83b04:	14000002 	b	83b0c <get_file_property+0x10c>
   83b08:	52800000 	mov	w0, #0x0                   	// #0
   83b0c:	b9404fa1 	ldr	w1, [x29, #76]
   83b10:	0b000020 	add	w0, w1, w0
   83b14:	b9004fa0 	str	w0, [x29, #76]
   83b18:	f9400fa0 	ldr	x0, [x29, #24]
   83b1c:	91004000 	add	x0, x0, #0x10
   83b20:	f9000fa0 	str	x0, [x29, #24]
   83b24:	f9400fa0 	ldr	x0, [x29, #24]
   83b28:	f9001ba0 	str	x0, [x29, #48]
   83b2c:	b9804ba0 	ldrsw	x0, [x29, #72]
   83b30:	f9400fa1 	ldr	x1, [x29, #24]
   83b34:	8b000020 	add	x0, x1, x0
   83b38:	f9000fa0 	str	x0, [x29, #24]
   83b3c:	f9400fa0 	ldr	x0, [x29, #24]
   83b40:	f90017a0 	str	x0, [x29, #40]
   83b44:	b9804fa0 	ldrsw	x0, [x29, #76]
   83b48:	f9400fa1 	ldr	x1, [x29, #24]
   83b4c:	8b000020 	add	x0, x1, x0
   83b50:	f9000fa0 	str	x0, [x29, #24]
   83b54:	52800400 	mov	w0, #0x20                  	// #32
   83b58:	97fff470 	bl	80d18 <kmalloc>
   83b5c:	f90013a0 	str	x0, [x29, #32]
   83b60:	f94013a0 	ldr	x0, [x29, #32]
   83b64:	f9401ba1 	ldr	x1, [x29, #48]
   83b68:	f9000001 	str	x1, [x0]
   83b6c:	f94013a0 	ldr	x0, [x29, #32]
   83b70:	f94017a1 	ldr	x1, [x29, #40]
   83b74:	f9000401 	str	x1, [x0, #8]
   83b78:	f94013a0 	ldr	x0, [x29, #32]
   83b7c:	b9404ba1 	ldr	w1, [x29, #72]
   83b80:	b9001801 	str	w1, [x0, #24]
   83b84:	f94013a0 	ldr	x0, [x29, #32]
   83b88:	b9404fa1 	ldr	w1, [x29, #76]
   83b8c:	b9001c01 	str	w1, [x0, #28]
   83b90:	f94013a0 	ldr	x0, [x29, #32]
   83b94:	f9401fa1 	ldr	x1, [x29, #56]
   83b98:	f9000801 	str	x1, [x0, #16]
   83b9c:	f94013a0 	ldr	x0, [x29, #32]
   83ba0:	a8c57bfd 	ldp	x29, x30, [sp], #80
   83ba4:	d65f03c0 	ret

0000000000083ba8 <hello>:
   83ba8:	a9bf7bfd 	stp	x29, x30, [sp, #-16]!
   83bac:	910003fd 	mov	x29, sp
   83bb0:	d0000000 	adrp	x0, 85000 <core_timer_enable+0x1b8>
   83bb4:	9107e000 	add	x0, x0, #0x1f8
   83bb8:	97fff242 	bl	804c0 <uart_puts>
   83bbc:	d503201f 	nop
   83bc0:	a8c17bfd 	ldp	x29, x30, [sp], #16
   83bc4:	d65f03c0 	ret

0000000000083bc8 <help>:
   83bc8:	a9bf7bfd 	stp	x29, x30, [sp, #-16]!
   83bcc:	910003fd 	mov	x29, sp
   83bd0:	d0000000 	adrp	x0, 85000 <core_timer_enable+0x1b8>
   83bd4:	91082000 	add	x0, x0, #0x208
   83bd8:	97fff23a 	bl	804c0 <uart_puts>
   83bdc:	d0000000 	adrp	x0, 85000 <core_timer_enable+0x1b8>
   83be0:	9108c000 	add	x0, x0, #0x230
   83be4:	97fff237 	bl	804c0 <uart_puts>
   83be8:	d0000000 	adrp	x0, 85000 <core_timer_enable+0x1b8>
   83bec:	91094000 	add	x0, x0, #0x250
   83bf0:	97fff234 	bl	804c0 <uart_puts>
   83bf4:	d0000000 	adrp	x0, 85000 <core_timer_enable+0x1b8>
   83bf8:	91098000 	add	x0, x0, #0x260
   83bfc:	97fff231 	bl	804c0 <uart_puts>
   83c00:	d503201f 	nop
   83c04:	a8c17bfd 	ldp	x29, x30, [sp], #16
   83c08:	d65f03c0 	ret

0000000000083c0c <reset>:
   83c0c:	d10043ff 	sub	sp, sp, #0x10
   83c10:	b9000fe0 	str	w0, [sp, #12]
   83c14:	d2800380 	mov	x0, #0x1c                  	// #28
   83c18:	f2a7e200 	movk	x0, #0x3f10, lsl #16
   83c1c:	52800401 	mov	w1, #0x20                  	// #32
   83c20:	72ab4001 	movk	w1, #0x5a00, lsl #16
   83c24:	b9000001 	str	w1, [x0]
   83c28:	d2800480 	mov	x0, #0x24                  	// #36
   83c2c:	f2a7e200 	movk	x0, #0x3f10, lsl #16
   83c30:	b9400fe2 	ldr	w2, [sp, #12]
   83c34:	52ab4001 	mov	w1, #0x5a000000            	// #1509949440
   83c38:	2a010041 	orr	w1, w2, w1
   83c3c:	b9000001 	str	w1, [x0]
   83c40:	d503201f 	nop
   83c44:	910043ff 	add	sp, sp, #0x10
   83c48:	d65f03c0 	ret

0000000000083c4c <cancel_reset>:
   83c4c:	d2800380 	mov	x0, #0x1c                  	// #28
   83c50:	f2a7e200 	movk	x0, #0x3f10, lsl #16
   83c54:	52ab4001 	mov	w1, #0x5a000000            	// #1509949440
   83c58:	b9000001 	str	w1, [x0]
   83c5c:	d2800480 	mov	x0, #0x24                  	// #36
   83c60:	f2a7e200 	movk	x0, #0x3f10, lsl #16
   83c64:	52ab4001 	mov	w1, #0x5a000000            	// #1509949440
   83c68:	b9000001 	str	w1, [x0]
   83c6c:	d503201f 	nop
   83c70:	d65f03c0 	ret

0000000000083c74 <reboot>:
   83c74:	a9bf7bfd 	stp	x29, x30, [sp, #-16]!
   83c78:	910003fd 	mov	x29, sp
   83c7c:	d0000000 	adrp	x0, 85000 <core_timer_enable+0x1b8>
   83c80:	9109e000 	add	x0, x0, #0x278
   83c84:	97fff20f 	bl	804c0 <uart_puts>
   83c88:	52800c80 	mov	w0, #0x64                  	// #100
   83c8c:	97ffffe0 	bl	83c0c <reset>
   83c90:	d503201f 	nop
   83c94:	a8c17bfd 	ldp	x29, x30, [sp], #16
   83c98:	d65f03c0 	ret

0000000000083c9c <main>:
   83c9c:	a9bc7bfd 	stp	x29, x30, [sp, #-64]!
   83ca0:	910003fd 	mov	x29, sp
   83ca4:	97fff192 	bl	802ec <uart_init>
   83ca8:	97fff398 	bl	80b08 <init_buckets>
   83cac:	52800200 	mov	w0, #0x10                  	// #16
   83cb0:	97fff41a 	bl	80d18 <kmalloc>
   83cb4:	f9001fa0 	str	x0, [x29, #56]
   83cb8:	f9401fa0 	ldr	x0, [x29, #56]
   83cbc:	97fff0e9 	bl	80060 <register_filesystem>
   83cc0:	b90037a0 	str	w0, [x29, #52]
   83cc4:	d0000000 	adrp	x0, 85000 <core_timer_enable+0x1b8>
   83cc8:	910a2000 	add	x0, x0, #0x288
   83ccc:	f90017a0 	str	x0, [x29, #40]
   83cd0:	f94017a0 	ldr	x0, [x29, #40]
   83cd4:	97fff1fb 	bl	804c0 <uart_puts>
   83cd8:	d0000000 	adrp	x0, 85000 <core_timer_enable+0x1b8>
   83cdc:	9115e000 	add	x0, x0, #0x578
   83ce0:	97fff1f8 	bl	804c0 <uart_puts>
   83ce4:	910043a0 	add	x0, x29, #0x10
   83ce8:	52800021 	mov	w1, #0x1                   	// #1
   83cec:	97fff20b 	bl	80518 <uart_read_line>
   83cf0:	528001a0 	mov	w0, #0xd                   	// #13
   83cf4:	97fff1cf 	bl	80430 <uart_send>
   83cf8:	d0000000 	adrp	x0, 85000 <core_timer_enable+0x1b8>
   83cfc:	91160001 	add	x1, x0, #0x580
   83d00:	910043a0 	add	x0, x29, #0x10
   83d04:	94000061 	bl	83e88 <strcmp>
   83d08:	7100001f 	cmp	w0, #0x0
   83d0c:	54000061 	b.ne	83d18 <main+0x7c>  // b.any
   83d10:	97ffffa6 	bl	83ba8 <hello>
   83d14:	17fffff1 	b	83cd8 <main+0x3c>
   83d18:	d0000000 	adrp	x0, 85000 <core_timer_enable+0x1b8>
   83d1c:	91162001 	add	x1, x0, #0x588
   83d20:	910043a0 	add	x0, x29, #0x10
   83d24:	94000059 	bl	83e88 <strcmp>
   83d28:	7100001f 	cmp	w0, #0x0
   83d2c:	54000061 	b.ne	83d38 <main+0x9c>  // b.any
   83d30:	97ffffa6 	bl	83bc8 <help>
   83d34:	17ffffe9 	b	83cd8 <main+0x3c>
   83d38:	d0000000 	adrp	x0, 85000 <core_timer_enable+0x1b8>
   83d3c:	91164001 	add	x1, x0, #0x590
   83d40:	910043a0 	add	x0, x29, #0x10
   83d44:	94000051 	bl	83e88 <strcmp>
   83d48:	7100001f 	cmp	w0, #0x0
   83d4c:	54000061 	b.ne	83d58 <main+0xbc>  // b.any
   83d50:	97ffffc9 	bl	83c74 <reboot>
   83d54:	17ffffe1 	b	83cd8 <main+0x3c>
   83d58:	d0000000 	adrp	x0, 85000 <core_timer_enable+0x1b8>
   83d5c:	91166001 	add	x1, x0, #0x598
   83d60:	910043a0 	add	x0, x29, #0x10
   83d64:	94000049 	bl	83e88 <strcmp>
   83d68:	7100001f 	cmp	w0, #0x0
   83d6c:	54000061 	b.ne	83d78 <main+0xdc>  // b.any
   83d70:	97fffd29 	bl	83214 <list_file>
   83d74:	17ffffd9 	b	83cd8 <main+0x3c>
   83d78:	d0000000 	adrp	x0, 85000 <core_timer_enable+0x1b8>
   83d7c:	91168001 	add	x1, x0, #0x5a0
   83d80:	910043a0 	add	x0, x29, #0x10
   83d84:	94000041 	bl	83e88 <strcmp>
   83d88:	7100001f 	cmp	w0, #0x0
   83d8c:	54000061 	b.ne	83d98 <main+0xfc>  // b.any
   83d90:	97fff779 	bl	81b74 <lab3>
   83d94:	17ffffd1 	b	83cd8 <main+0x3c>
   83d98:	d0000000 	adrp	x0, 85000 <core_timer_enable+0x1b8>
   83d9c:	9116a001 	add	x1, x0, #0x5a8
   83da0:	910043a0 	add	x0, x29, #0x10
   83da4:	94000039 	bl	83e88 <strcmp>
   83da8:	7100001f 	cmp	w0, #0x0
   83dac:	54000061 	b.ne	83db8 <main+0x11c>  // b.any
   83db0:	97fffd75 	bl	83384 <load_user_program>
   83db4:	17ffffc9 	b	83cd8 <main+0x3c>
   83db8:	d0000000 	adrp	x0, 85000 <core_timer_enable+0x1b8>
   83dbc:	9116c001 	add	x1, x0, #0x5b0
   83dc0:	910043a0 	add	x0, x29, #0x10
   83dc4:	94000031 	bl	83e88 <strcmp>
   83dc8:	7100001f 	cmp	w0, #0x0
   83dcc:	54000081 	b.ne	83ddc <main+0x140>  // b.any
   83dd0:	9400041e 	bl	84e48 <core_timer_enable>
   83dd4:	9400040d 	bl	84e08 <from_el1_to_el0>
   83dd8:	17ffffc0 	b	83cd8 <main+0x3c>
   83ddc:	d0000000 	adrp	x0, 85000 <core_timer_enable+0x1b8>
   83de0:	9116e001 	add	x1, x0, #0x5b8
   83de4:	910043a0 	add	x0, x29, #0x10
   83de8:	94000028 	bl	83e88 <strcmp>
   83dec:	7100001f 	cmp	w0, #0x0
   83df0:	54000081 	b.ne	83e00 <main+0x164>  // b.any
   83df4:	52800040 	mov	w0, #0x2                   	// #2
   83df8:	97fff79e 	bl	81c70 <lab5_required_1>
   83dfc:	17ffffb7 	b	83cd8 <main+0x3c>
   83e00:	d0000000 	adrp	x0, 85000 <core_timer_enable+0x1b8>
   83e04:	91170001 	add	x1, x0, #0x5c0
   83e08:	910043a0 	add	x0, x29, #0x10
   83e0c:	9400001f 	bl	83e88 <strcmp>
   83e10:	7100001f 	cmp	w0, #0x0
   83e14:	54000081 	b.ne	83e24 <main+0x188>  // b.any
   83e18:	9400040c 	bl	84e48 <core_timer_enable>
   83e1c:	97fff7c3 	bl	81d28 <lab5_required_2>
   83e20:	17ffffae 	b	83cd8 <main+0x3c>
   83e24:	d0000000 	adrp	x0, 85000 <core_timer_enable+0x1b8>
   83e28:	91172001 	add	x1, x0, #0x5c8
   83e2c:	910043a0 	add	x0, x29, #0x10
   83e30:	94000016 	bl	83e88 <strcmp>
   83e34:	7100001f 	cmp	w0, #0x0
   83e38:	54000061 	b.ne	83e44 <main+0x1a8>  // b.any
   83e3c:	97fff7c7 	bl	81d58 <lab6_required_1>
   83e40:	17ffffa6 	b	83cd8 <main+0x3c>
   83e44:	d0000000 	adrp	x0, 85000 <core_timer_enable+0x1b8>
   83e48:	91174001 	add	x1, x0, #0x5d0
   83e4c:	910043a0 	add	x0, x29, #0x10
   83e50:	9400000e 	bl	83e88 <strcmp>
   83e54:	7100001f 	cmp	w0, #0x0
   83e58:	54000061 	b.ne	83e64 <main+0x1c8>  // b.any
   83e5c:	97fff81c 	bl	81ecc <lab6_required_2>
   83e60:	17ffff9e 	b	83cd8 <main+0x3c>
   83e64:	d0000000 	adrp	x0, 85000 <core_timer_enable+0x1b8>
   83e68:	91176000 	add	x0, x0, #0x5d8
   83e6c:	97fff195 	bl	804c0 <uart_puts>
   83e70:	910043a0 	add	x0, x29, #0x10
   83e74:	97fff193 	bl	804c0 <uart_puts>
   83e78:	d0000000 	adrp	x0, 85000 <core_timer_enable+0x1b8>
   83e7c:	91178000 	add	x0, x0, #0x5e0
   83e80:	97fff190 	bl	804c0 <uart_puts>
   83e84:	17ffff95 	b	83cd8 <main+0x3c>

0000000000083e88 <strcmp>:
   83e88:	d10043ff 	sub	sp, sp, #0x10
   83e8c:	f90007e0 	str	x0, [sp, #8]
   83e90:	f90003e1 	str	x1, [sp]
   83e94:	1400000f 	b	83ed0 <strcmp+0x48>
   83e98:	f94007e0 	ldr	x0, [sp, #8]
   83e9c:	39400001 	ldrb	w1, [x0]
   83ea0:	f94003e0 	ldr	x0, [sp]
   83ea4:	39400000 	ldrb	w0, [x0]
   83ea8:	6b00003f 	cmp	w1, w0
   83eac:	54000060 	b.eq	83eb8 <strcmp+0x30>  // b.none
   83eb0:	52800020 	mov	w0, #0x1                   	// #1
   83eb4:	14000014 	b	83f04 <strcmp+0x7c>
   83eb8:	f94007e0 	ldr	x0, [sp, #8]
   83ebc:	91000400 	add	x0, x0, #0x1
   83ec0:	f90007e0 	str	x0, [sp, #8]
   83ec4:	f94003e0 	ldr	x0, [sp]
   83ec8:	91000400 	add	x0, x0, #0x1
   83ecc:	f90003e0 	str	x0, [sp]
   83ed0:	f94007e0 	ldr	x0, [sp, #8]
   83ed4:	39400000 	ldrb	w0, [x0]
   83ed8:	7100001f 	cmp	w0, #0x0
   83edc:	54fffde1 	b.ne	83e98 <strcmp+0x10>  // b.any
   83ee0:	f94007e0 	ldr	x0, [sp, #8]
   83ee4:	39400001 	ldrb	w1, [x0]
   83ee8:	f94003e0 	ldr	x0, [sp]
   83eec:	39400000 	ldrb	w0, [x0]
   83ef0:	6b00003f 	cmp	w1, w0
   83ef4:	54000060 	b.eq	83f00 <strcmp+0x78>  // b.none
   83ef8:	52800020 	mov	w0, #0x1                   	// #1
   83efc:	14000002 	b	83f04 <strcmp+0x7c>
   83f00:	52800000 	mov	w0, #0x0                   	// #0
   83f04:	910043ff 	add	sp, sp, #0x10
   83f08:	d65f03c0 	ret

0000000000083f0c <x0Set>:
   83f0c:	d10083ff 	sub	sp, sp, #0x20
   83f10:	f90007e0 	str	x0, [sp, #8]
   83f14:	d538d080 	mrs	x0, tpidr_el1
   83f18:	f9000fe0 	str	x0, [sp, #24]
   83f1c:	f9400fe0 	ldr	x0, [sp, #24]
   83f20:	91020000 	add	x0, x0, #0x80
   83f24:	f94007e1 	ldr	x1, [sp, #8]
   83f28:	f9000001 	str	x1, [x0]
   83f2c:	d503201f 	nop
   83f30:	910083ff 	add	sp, sp, #0x20
   83f34:	d65f03c0 	ret

0000000000083f38 <sys_getpid>:
   83f38:	a9bf7bfd 	stp	x29, x30, [sp, #-16]!
   83f3c:	910003fd 	mov	x29, sp
   83f40:	d0000000 	adrp	x0, 85000 <core_timer_enable+0x1b8>
   83f44:	912ae000 	add	x0, x0, #0xab8
   83f48:	f9400000 	ldr	x0, [x0]
   83f4c:	b9417800 	ldr	w0, [x0, #376]
   83f50:	2a0003e0 	mov	w0, w0
   83f54:	97ffffee 	bl	83f0c <x0Set>
   83f58:	d503201f 	nop
   83f5c:	a8c17bfd 	ldp	x29, x30, [sp], #16
   83f60:	d65f03c0 	ret

0000000000083f64 <sys_uart_read>:
   83f64:	a9be7bfd 	stp	x29, x30, [sp, #-32]!
   83f68:	910003fd 	mov	x29, sp
   83f6c:	f9000fa0 	str	x0, [x29, #24]
   83f70:	b90017a1 	str	w1, [x29, #20]
   83f74:	52800022 	mov	w2, #0x1                   	// #1
   83f78:	b94017a1 	ldr	w1, [x29, #20]
   83f7c:	f9400fa0 	ldr	x0, [x29, #24]
   83f80:	97fff1bd 	bl	80674 <uart_read_buff>
   83f84:	d503201f 	nop
   83f88:	a8c27bfd 	ldp	x29, x30, [sp], #32
   83f8c:	d65f03c0 	ret

0000000000083f90 <sys_uart_write>:
   83f90:	a9be7bfd 	stp	x29, x30, [sp, #-32]!
   83f94:	910003fd 	mov	x29, sp
   83f98:	f9000fa0 	str	x0, [x29, #24]
   83f9c:	b90017a1 	str	w1, [x29, #20]
   83fa0:	f9400fa0 	ldr	x0, [x29, #24]
   83fa4:	97fff147 	bl	804c0 <uart_puts>
   83fa8:	d503201f 	nop
   83fac:	a8c27bfd 	ldp	x29, x30, [sp], #32
   83fb0:	d65f03c0 	ret

0000000000083fb4 <sys_exec>:
   83fb4:	a9be7bfd 	stp	x29, x30, [sp, #-32]!
   83fb8:	910003fd 	mov	x29, sp
   83fbc:	f9000fa0 	str	x0, [x29, #24]
   83fc0:	f9000ba1 	str	x1, [x29, #16]
   83fc4:	f9400ba1 	ldr	x1, [x29, #16]
   83fc8:	f9400fa0 	ldr	x0, [x29, #24]
   83fcc:	97fffdf6 	bl	837a4 <load_user_program_withArgv>
   83fd0:	d503201f 	nop
   83fd4:	a8c27bfd 	ldp	x29, x30, [sp], #32
   83fd8:	d65f03c0 	ret

0000000000083fdc <sys_exit>:
   83fdc:	a9bf7bfd 	stp	x29, x30, [sp, #-16]!
   83fe0:	910003fd 	mov	x29, sp
   83fe4:	97fff61f 	bl	81860 <_exit>
   83fe8:	d503201f 	nop
   83fec:	a8c17bfd 	ldp	x29, x30, [sp], #16
   83ff0:	d65f03c0 	ret

0000000000083ff4 <sys_fork>:
   83ff4:	a9bf7bfd 	stp	x29, x30, [sp, #-16]!
   83ff8:	910003fd 	mov	x29, sp
   83ffc:	d2800003 	mov	x3, #0x0                   	// #0
   84000:	d2800002 	mov	x2, #0x0                   	// #0
   84004:	d2800001 	mov	x1, #0x0                   	// #0
   84008:	d2800000 	mov	x0, #0x0                   	// #0
   8400c:	97fff4cf 	bl	81348 <create_thread>
   84010:	93407c00 	sxtw	x0, w0
   84014:	97ffffbe 	bl	83f0c <x0Set>
   84018:	d503201f 	nop
   8401c:	a8c17bfd 	ldp	x29, x30, [sp], #16
   84020:	d65f03c0 	ret

0000000000084024 <sys_open>:
   84024:	a9bd7bfd 	stp	x29, x30, [sp, #-48]!
   84028:	910003fd 	mov	x29, sp
   8402c:	f9000fa0 	str	x0, [x29, #24]
   84030:	b90017a1 	str	w1, [x29, #20]
   84034:	d538d080 	mrs	x0, tpidr_el1
   84038:	f90013a0 	str	x0, [x29, #32]
   8403c:	12800000 	mov	w0, #0xffffffff            	// #-1
   84040:	b9002fa0 	str	w0, [x29, #44]
   84044:	b9002bbf 	str	wzr, [x29, #40]
   84048:	14000015 	b	8409c <sys_open+0x78>
   8404c:	f94013a0 	ldr	x0, [x29, #32]
   84050:	b9802ba1 	ldrsw	x1, [x29, #40]
   84054:	9100c821 	add	x1, x1, #0x32
   84058:	f8617800 	ldr	x0, [x0, x1, lsl #3]
   8405c:	f100001f 	cmp	x0, #0x0
   84060:	54000181 	b.ne	84090 <sys_open+0x6c>  // b.any
   84064:	b9402ba0 	ldr	w0, [x29, #40]
   84068:	b9002fa0 	str	w0, [x29, #44]
   8406c:	b94017a1 	ldr	w1, [x29, #20]
   84070:	f9400fa0 	ldr	x0, [x29, #24]
   84074:	97fff030 	bl	80134 <vfs_open>
   84078:	aa0003e2 	mov	x2, x0
   8407c:	f94013a0 	ldr	x0, [x29, #32]
   84080:	b9802ba1 	ldrsw	x1, [x29, #40]
   84084:	9100c821 	add	x1, x1, #0x32
   84088:	f8217802 	str	x2, [x0, x1, lsl #3]
   8408c:	14000007 	b	840a8 <sys_open+0x84>
   84090:	b9402ba0 	ldr	w0, [x29, #40]
   84094:	11000400 	add	w0, w0, #0x1
   84098:	b9002ba0 	str	w0, [x29, #40]
   8409c:	b9402ba0 	ldr	w0, [x29, #40]
   840a0:	7100101f 	cmp	w0, #0x4
   840a4:	54fffd4d 	b.le	8404c <sys_open+0x28>
   840a8:	b9802fa0 	ldrsw	x0, [x29, #44]
   840ac:	97ffff98 	bl	83f0c <x0Set>
   840b0:	b9402fa0 	ldr	w0, [x29, #44]
   840b4:	a8c37bfd 	ldp	x29, x30, [sp], #48
   840b8:	d65f03c0 	ret

00000000000840bc <sys_close>:
   840bc:	a9bd7bfd 	stp	x29, x30, [sp, #-48]!
   840c0:	910003fd 	mov	x29, sp
   840c4:	b9001fa0 	str	w0, [x29, #28]
   840c8:	d538d080 	mrs	x0, tpidr_el1
   840cc:	f90017a0 	str	x0, [x29, #40]
   840d0:	12800000 	mov	w0, #0xffffffff            	// #-1
   840d4:	b90027a0 	str	w0, [x29, #36]
   840d8:	f94017a0 	ldr	x0, [x29, #40]
   840dc:	b9801fa1 	ldrsw	x1, [x29, #28]
   840e0:	9100c821 	add	x1, x1, #0x32
   840e4:	f8617800 	ldr	x0, [x0, x1, lsl #3]
   840e8:	f100001f 	cmp	x0, #0x0
   840ec:	54000140 	b.eq	84114 <sys_close+0x58>  // b.none
   840f0:	f94017a0 	ldr	x0, [x29, #40]
   840f4:	b9801fa1 	ldrsw	x1, [x29, #28]
   840f8:	9100c821 	add	x1, x1, #0x32
   840fc:	f8617800 	ldr	x0, [x0, x1, lsl #3]
   84100:	97fff052 	bl	80248 <vfs_close>
   84104:	f94017a0 	ldr	x0, [x29, #40]
   84108:	b9801fa1 	ldrsw	x1, [x29, #28]
   8410c:	9100c821 	add	x1, x1, #0x32
   84110:	f821781f 	str	xzr, [x0, x1, lsl #3]
   84114:	52800000 	mov	w0, #0x0                   	// #0
   84118:	a8c37bfd 	ldp	x29, x30, [sp], #48
   8411c:	d65f03c0 	ret

0000000000084120 <sys_write>:
   84120:	a9bd7bfd 	stp	x29, x30, [sp, #-48]!
   84124:	910003fd 	mov	x29, sp
   84128:	b9001fa0 	str	w0, [x29, #28]
   8412c:	f9000ba1 	str	x1, [x29, #16]
   84130:	b9001ba2 	str	w2, [x29, #24]
   84134:	d538d080 	mrs	x0, tpidr_el1
   84138:	f90017a0 	str	x0, [x29, #40]
   8413c:	f94017a0 	ldr	x0, [x29, #40]
   84140:	b9801fa1 	ldrsw	x1, [x29, #28]
   84144:	9100c821 	add	x1, x1, #0x32
   84148:	f8617800 	ldr	x0, [x0, x1, lsl #3]
   8414c:	f100001f 	cmp	x0, #0x0
   84150:	54000160 	b.eq	8417c <sys_write+0x5c>  // b.none
   84154:	f94017a0 	ldr	x0, [x29, #40]
   84158:	b9801fa1 	ldrsw	x1, [x29, #28]
   8415c:	9100c821 	add	x1, x1, #0x32
   84160:	f8617800 	ldr	x0, [x0, x1, lsl #3]
   84164:	b9801ba1 	ldrsw	x1, [x29, #24]
   84168:	aa0103e2 	mov	x2, x1
   8416c:	f9400ba1 	ldr	x1, [x29, #16]
   84170:	97fff043 	bl	8027c <vfs_write>
   84174:	93407c00 	sxtw	x0, w0
   84178:	97ffff65 	bl	83f0c <x0Set>
   8417c:	52800000 	mov	w0, #0x0                   	// #0
   84180:	a8c37bfd 	ldp	x29, x30, [sp], #48
   84184:	d65f03c0 	ret

0000000000084188 <sys_read>:
   84188:	a9bd7bfd 	stp	x29, x30, [sp, #-48]!
   8418c:	910003fd 	mov	x29, sp
   84190:	b9001fa0 	str	w0, [x29, #28]
   84194:	f9000ba1 	str	x1, [x29, #16]
   84198:	b9001ba2 	str	w2, [x29, #24]
   8419c:	d538d080 	mrs	x0, tpidr_el1
   841a0:	f90017a0 	str	x0, [x29, #40]
   841a4:	f94017a0 	ldr	x0, [x29, #40]
   841a8:	b9801fa1 	ldrsw	x1, [x29, #28]
   841ac:	9100c821 	add	x1, x1, #0x32
   841b0:	f8617800 	ldr	x0, [x0, x1, lsl #3]
   841b4:	f100001f 	cmp	x0, #0x0
   841b8:	54000180 	b.eq	841e8 <sys_read+0x60>  // b.none
   841bc:	f94017a0 	ldr	x0, [x29, #40]
   841c0:	b9801fa1 	ldrsw	x1, [x29, #28]
   841c4:	9100c821 	add	x1, x1, #0x32
   841c8:	f8617800 	ldr	x0, [x0, x1, lsl #3]
   841cc:	b9801ba1 	ldrsw	x1, [x29, #24]
   841d0:	aa0103e2 	mov	x2, x1
   841d4:	f9400ba1 	ldr	x1, [x29, #16]
   841d8:	97fff037 	bl	802b4 <vfs_read>
   841dc:	93407c00 	sxtw	x0, w0
   841e0:	97ffff4b 	bl	83f0c <x0Set>
   841e4:	d503201f 	nop
   841e8:	d503201f 	nop
   841ec:	a8c37bfd 	ldp	x29, x30, [sp], #48
   841f0:	d65f03c0 	ret

00000000000841f4 <atoi>:
   841f4:	d100c3ff 	sub	sp, sp, #0x30
   841f8:	f90007e0 	str	x0, [sp, #8]
   841fc:	b90007e1 	str	w1, [sp, #4]
   84200:	b9002fff 	str	wzr, [sp, #44]
   84204:	b9002bff 	str	wzr, [sp, #40]
   84208:	b90027ff 	str	wzr, [sp, #36]
   8420c:	1400003b 	b	842f8 <atoi+0x104>
   84210:	b9402fe0 	ldr	w0, [sp, #44]
   84214:	7100001f 	cmp	w0, #0x0
   84218:	54000121 	b.ne	8423c <atoi+0x48>  // b.any
   8421c:	b9802fe0 	ldrsw	x0, [sp, #44]
   84220:	f94007e1 	ldr	x1, [sp, #8]
   84224:	8b000020 	add	x0, x1, x0
   84228:	39400000 	ldrb	w0, [x0]
   8422c:	7100b41f 	cmp	w0, #0x2d
   84230:	54000061 	b.ne	8423c <atoi+0x48>  // b.any
   84234:	52800020 	mov	w0, #0x1                   	// #1
   84238:	b90027e0 	str	w0, [sp, #36]
   8423c:	b94007e0 	ldr	w0, [sp, #4]
   84240:	7100281f 	cmp	w0, #0xa
   84244:	54000201 	b.ne	84284 <atoi+0x90>  // b.any
   84248:	b9802fe0 	ldrsw	x0, [sp, #44]
   8424c:	f94007e1 	ldr	x1, [sp, #8]
   84250:	8b000020 	add	x0, x1, x0
   84254:	39400000 	ldrb	w0, [x0]
   84258:	5100c000 	sub	w0, w0, #0x30
   8425c:	b90023e0 	str	w0, [sp, #32]
   84260:	b9402be1 	ldr	w1, [sp, #40]
   84264:	2a0103e0 	mov	w0, w1
   84268:	531e7400 	lsl	w0, w0, #2
   8426c:	0b010000 	add	w0, w0, w1
   84270:	531f7800 	lsl	w0, w0, #1
   84274:	2a0003e1 	mov	w1, w0
   84278:	b94023e0 	ldr	w0, [sp, #32]
   8427c:	0b000020 	add	w0, w1, w0
   84280:	b9002be0 	str	w0, [sp, #40]
   84284:	b94007e0 	ldr	w0, [sp, #4]
   84288:	7100401f 	cmp	w0, #0x10
   8428c:	54000301 	b.ne	842ec <atoi+0xf8>  // b.any
   84290:	b9802fe0 	ldrsw	x0, [sp, #44]
   84294:	f94007e1 	ldr	x1, [sp, #8]
   84298:	8b000020 	add	x0, x1, x0
   8429c:	39400000 	ldrb	w0, [x0]
   842a0:	7101001f 	cmp	w0, #0x40
   842a4:	540000e9 	b.ls	842c0 <atoi+0xcc>  // b.plast
   842a8:	b9802fe0 	ldrsw	x0, [sp, #44]
   842ac:	f94007e1 	ldr	x1, [sp, #8]
   842b0:	8b000020 	add	x0, x1, x0
   842b4:	39400000 	ldrb	w0, [x0]
   842b8:	5100dc00 	sub	w0, w0, #0x37
   842bc:	14000006 	b	842d4 <atoi+0xe0>
   842c0:	b9802fe0 	ldrsw	x0, [sp, #44]
   842c4:	f94007e1 	ldr	x1, [sp, #8]
   842c8:	8b000020 	add	x0, x1, x0
   842cc:	39400000 	ldrb	w0, [x0]
   842d0:	5100c000 	sub	w0, w0, #0x30
   842d4:	b9001fe0 	str	w0, [sp, #28]
   842d8:	b9402be0 	ldr	w0, [sp, #40]
   842dc:	531c6c01 	lsl	w1, w0, #4
   842e0:	b9401fe0 	ldr	w0, [sp, #28]
   842e4:	0b000020 	add	w0, w1, w0
   842e8:	b9002be0 	str	w0, [sp, #40]
   842ec:	b9402fe0 	ldr	w0, [sp, #44]
   842f0:	11000400 	add	w0, w0, #0x1
   842f4:	b9002fe0 	str	w0, [sp, #44]
   842f8:	b9802fe0 	ldrsw	x0, [sp, #44]
   842fc:	f94007e1 	ldr	x1, [sp, #8]
   84300:	8b000020 	add	x0, x1, x0
   84304:	39400000 	ldrb	w0, [x0]
   84308:	7100001f 	cmp	w0, #0x0
   8430c:	54fff821 	b.ne	84210 <atoi+0x1c>  // b.any
   84310:	b94027e0 	ldr	w0, [sp, #36]
   84314:	7100001f 	cmp	w0, #0x0
   84318:	540000c0 	b.eq	84330 <atoi+0x13c>  // b.none
   8431c:	b9402be0 	ldr	w0, [sp, #40]
   84320:	4b0003e0 	neg	w0, w0
   84324:	b9002be0 	str	w0, [sp, #40]
   84328:	b9402be0 	ldr	w0, [sp, #40]
   8432c:	14000002 	b	84334 <atoi+0x140>
   84330:	b9402be0 	ldr	w0, [sp, #40]
   84334:	9100c3ff 	add	sp, sp, #0x30
   84338:	d65f03c0 	ret

000000000008433c <itoa>:
   8433c:	d10083ff 	sub	sp, sp, #0x20
   84340:	b9000fe0 	str	w0, [sp, #12]
   84344:	f90003e1 	str	x1, [sp]
   84348:	b9001fff 	str	wzr, [sp, #28]
   8434c:	b9400fe0 	ldr	w0, [sp, #12]
   84350:	7100001f 	cmp	w0, #0x0
   84354:	54000581 	b.ne	84404 <itoa+0xc8>  // b.any
   84358:	b9401fe0 	ldr	w0, [sp, #28]
   8435c:	11000401 	add	w1, w0, #0x1
   84360:	b9001fe1 	str	w1, [sp, #28]
   84364:	93407c00 	sxtw	x0, w0
   84368:	f94003e1 	ldr	x1, [sp]
   8436c:	8b000020 	add	x0, x1, x0
   84370:	52800601 	mov	w1, #0x30                  	// #48
   84374:	39000001 	strb	w1, [x0]
   84378:	14000023 	b	84404 <itoa+0xc8>
   8437c:	b9400fe1 	ldr	w1, [sp, #12]
   84380:	528ccce0 	mov	w0, #0x6667                	// #26215
   84384:	72acccc0 	movk	w0, #0x6666, lsl #16
   84388:	9b207c20 	smull	x0, w1, w0
   8438c:	d360fc00 	lsr	x0, x0, #32
   84390:	13027c02 	asr	w2, w0, #2
   84394:	131f7c20 	asr	w0, w1, #31
   84398:	4b000042 	sub	w2, w2, w0
   8439c:	2a0203e0 	mov	w0, w2
   843a0:	531e7400 	lsl	w0, w0, #2
   843a4:	0b020000 	add	w0, w0, w2
   843a8:	531f7800 	lsl	w0, w0, #1
   843ac:	4b000020 	sub	w0, w1, w0
   843b0:	b90017e0 	str	w0, [sp, #20]
   843b4:	b9401fe0 	ldr	w0, [sp, #28]
   843b8:	11000401 	add	w1, w0, #0x1
   843bc:	b9001fe1 	str	w1, [sp, #28]
   843c0:	93407c00 	sxtw	x0, w0
   843c4:	f94003e1 	ldr	x1, [sp]
   843c8:	8b000020 	add	x0, x1, x0
   843cc:	b94017e1 	ldr	w1, [sp, #20]
   843d0:	53001c21 	uxtb	w1, w1
   843d4:	1100c021 	add	w1, w1, #0x30
   843d8:	53001c21 	uxtb	w1, w1
   843dc:	39000001 	strb	w1, [x0]
   843e0:	b9400fe0 	ldr	w0, [sp, #12]
   843e4:	528ccce1 	mov	w1, #0x6667                	// #26215
   843e8:	72acccc1 	movk	w1, #0x6666, lsl #16
   843ec:	9b217c01 	smull	x1, w0, w1
   843f0:	d360fc21 	lsr	x1, x1, #32
   843f4:	13027c21 	asr	w1, w1, #2
   843f8:	131f7c00 	asr	w0, w0, #31
   843fc:	4b000020 	sub	w0, w1, w0
   84400:	b9000fe0 	str	w0, [sp, #12]
   84404:	b9400fe0 	ldr	w0, [sp, #12]
   84408:	7100001f 	cmp	w0, #0x0
   8440c:	54fffb81 	b.ne	8437c <itoa+0x40>  // b.any
   84410:	b9801fe0 	ldrsw	x0, [sp, #28]
   84414:	f94003e1 	ldr	x1, [sp]
   84418:	8b000020 	add	x0, x1, x0
   8441c:	3900001f 	strb	wzr, [x0]
   84420:	b9401fe0 	ldr	w0, [sp, #28]
   84424:	51000400 	sub	w0, w0, #0x1
   84428:	b9001be0 	str	w0, [sp, #24]
   8442c:	1400001e 	b	844a4 <itoa+0x168>
   84430:	b9801be0 	ldrsw	x0, [sp, #24]
   84434:	f94003e1 	ldr	x1, [sp]
   84438:	8b000020 	add	x0, x1, x0
   8443c:	39400000 	ldrb	w0, [x0]
   84440:	39004fe0 	strb	w0, [sp, #19]
   84444:	b9801be0 	ldrsw	x0, [sp, #24]
   84448:	f94003e1 	ldr	x1, [sp]
   8444c:	8b000020 	add	x0, x1, x0
   84450:	b9401fe1 	ldr	w1, [sp, #28]
   84454:	51000422 	sub	w2, w1, #0x1
   84458:	b9401be1 	ldr	w1, [sp, #24]
   8445c:	4b010041 	sub	w1, w2, w1
   84460:	93407c21 	sxtw	x1, w1
   84464:	f94003e2 	ldr	x2, [sp]
   84468:	8b010041 	add	x1, x2, x1
   8446c:	39400021 	ldrb	w1, [x1]
   84470:	39000001 	strb	w1, [x0]
   84474:	b9401fe0 	ldr	w0, [sp, #28]
   84478:	51000401 	sub	w1, w0, #0x1
   8447c:	b9401be0 	ldr	w0, [sp, #24]
   84480:	4b000020 	sub	w0, w1, w0
   84484:	93407c00 	sxtw	x0, w0
   84488:	f94003e1 	ldr	x1, [sp]
   8448c:	8b000020 	add	x0, x1, x0
   84490:	39404fe1 	ldrb	w1, [sp, #19]
   84494:	39000001 	strb	w1, [x0]
   84498:	b9401be0 	ldr	w0, [sp, #24]
   8449c:	51000400 	sub	w0, w0, #0x1
   844a0:	b9001be0 	str	w0, [sp, #24]
   844a4:	b9401fe0 	ldr	w0, [sp, #28]
   844a8:	531f7c01 	lsr	w1, w0, #31
   844ac:	0b000020 	add	w0, w1, w0
   844b0:	13017c00 	asr	w0, w0, #1
   844b4:	2a0003e1 	mov	w1, w0
   844b8:	b9401be0 	ldr	w0, [sp, #24]
   844bc:	6b00003f 	cmp	w1, w0
   844c0:	54fffb8d 	b.le	84430 <itoa+0xf4>
   844c4:	d503201f 	nop
   844c8:	910083ff 	add	sp, sp, #0x20
   844cc:	d65f03c0 	ret

00000000000844d0 <subStr>:
   844d0:	d10083ff 	sub	sp, sp, #0x20
   844d4:	f90007e0 	str	x0, [sp, #8]
   844d8:	b90007e1 	str	w1, [sp, #4]
   844dc:	b0000000 	adrp	x0, 85000 <core_timer_enable+0x1b8>
   844e0:	912b2000 	add	x0, x0, #0xac8
   844e4:	f9000fe0 	str	x0, [sp, #24]
   844e8:	b90017ff 	str	wzr, [sp, #20]
   844ec:	1400000d 	b	84520 <subStr+0x50>
   844f0:	b98017e0 	ldrsw	x0, [sp, #20]
   844f4:	f94007e1 	ldr	x1, [sp, #8]
   844f8:	8b000020 	add	x0, x1, x0
   844fc:	39400001 	ldrb	w1, [x0]
   84500:	f9400fe0 	ldr	x0, [sp, #24]
   84504:	39000001 	strb	w1, [x0]
   84508:	f9400fe0 	ldr	x0, [sp, #24]
   8450c:	91000400 	add	x0, x0, #0x1
   84510:	f9000fe0 	str	x0, [sp, #24]
   84514:	b94017e0 	ldr	w0, [sp, #20]
   84518:	11000400 	add	w0, w0, #0x1
   8451c:	b90017e0 	str	w0, [sp, #20]
   84520:	b94017e1 	ldr	w1, [sp, #20]
   84524:	b94007e0 	ldr	w0, [sp, #4]
   84528:	6b00003f 	cmp	w1, w0
   8452c:	54fffe2b 	b.lt	844f0 <subStr+0x20>  // b.tstop
   84530:	f9400fe0 	ldr	x0, [sp, #24]
   84534:	3900001f 	strb	wzr, [x0]
   84538:	b0000000 	adrp	x0, 85000 <core_timer_enable+0x1b8>
   8453c:	912b2000 	add	x0, x0, #0xac8
   84540:	910083ff 	add	sp, sp, #0x20
   84544:	d65f03c0 	ret

0000000000084548 <print_tmpfsTree>:
   84548:	a9bc7bfd 	stp	x29, x30, [sp, #-64]!
   8454c:	910003fd 	mov	x29, sp
   84550:	f9000fa0 	str	x0, [x29, #24]
   84554:	f9400fa0 	ldr	x0, [x29, #24]
   84558:	f9400c00 	ldr	x0, [x0, #24]
   8455c:	f9001ba0 	str	x0, [x29, #48]
   84560:	f9401ba0 	ldr	x0, [x29, #48]
   84564:	f9400400 	ldr	x0, [x0, #8]
   84568:	f100041f 	cmp	x0, #0x1
   8456c:	540003c1 	b.ne	845e4 <print_tmpfsTree+0x9c>  // b.any
   84570:	f9401ba0 	ldr	x0, [x29, #48]
   84574:	f9400000 	ldr	x0, [x0]
   84578:	97ffefd2 	bl	804c0 <uart_puts>
   8457c:	b0000000 	adrp	x0, 85000 <core_timer_enable+0x1b8>
   84580:	9119e000 	add	x0, x0, #0x678
   84584:	97ffefcf 	bl	804c0 <uart_puts>
   84588:	f9401ba0 	ldr	x0, [x29, #48]
   8458c:	f9401000 	ldr	x0, [x0, #32]
   84590:	f90017a0 	str	x0, [x29, #40]
   84594:	b9003fbf 	str	wzr, [x29, #60]
   84598:	1400000d 	b	845cc <print_tmpfsTree+0x84>
   8459c:	b0000000 	adrp	x0, 85000 <core_timer_enable+0x1b8>
   845a0:	911a0000 	add	x0, x0, #0x680
   845a4:	97ffefc7 	bl	804c0 <uart_puts>
   845a8:	b9803fa0 	ldrsw	x0, [x29, #60]
   845ac:	d37df000 	lsl	x0, x0, #3
   845b0:	f94017a1 	ldr	x1, [x29, #40]
   845b4:	8b000020 	add	x0, x1, x0
   845b8:	f9400000 	ldr	x0, [x0]
   845bc:	97ffffe3 	bl	84548 <print_tmpfsTree>
   845c0:	b9403fa0 	ldr	w0, [x29, #60]
   845c4:	11000400 	add	w0, w0, #0x1
   845c8:	b9003fa0 	str	w0, [x29, #60]
   845cc:	b9803fa1 	ldrsw	x1, [x29, #60]
   845d0:	f9401ba0 	ldr	x0, [x29, #48]
   845d4:	f9400c00 	ldr	x0, [x0, #24]
   845d8:	eb00003f 	cmp	x1, x0
   845dc:	54fffe03 	b.cc	8459c <print_tmpfsTree+0x54>  // b.lo, b.ul, b.last
   845e0:	14000017 	b	8463c <print_tmpfsTree+0xf4>
   845e4:	f9401ba0 	ldr	x0, [x29, #48]
   845e8:	f9400400 	ldr	x0, [x0, #8]
   845ec:	f100081f 	cmp	x0, #0x2
   845f0:	54000261 	b.ne	8463c <print_tmpfsTree+0xf4>  // b.any
   845f4:	f9401ba0 	ldr	x0, [x29, #48]
   845f8:	f9400000 	ldr	x0, [x0]
   845fc:	97ffefb1 	bl	804c0 <uart_puts>
   84600:	b0000000 	adrp	x0, 85000 <core_timer_enable+0x1b8>
   84604:	911a2000 	add	x0, x0, #0x688
   84608:	97ffefae 	bl	804c0 <uart_puts>
   8460c:	f9401ba0 	ldr	x0, [x29, #48]
   84610:	f9400c00 	ldr	x0, [x0, #24]
   84614:	97ffefe4 	bl	805a4 <uart_puts_int>
   84618:	b0000000 	adrp	x0, 85000 <core_timer_enable+0x1b8>
   8461c:	911a6000 	add	x0, x0, #0x698
   84620:	97ffefa8 	bl	804c0 <uart_puts>
   84624:	f9401ba0 	ldr	x0, [x29, #48]
   84628:	f9400400 	ldr	x0, [x0, #8]
   8462c:	97ffefde 	bl	805a4 <uart_puts_int>
   84630:	b0000000 	adrp	x0, 85000 <core_timer_enable+0x1b8>
   84634:	911aa000 	add	x0, x0, #0x6a8
   84638:	97ffefa2 	bl	804c0 <uart_puts>
   8463c:	d503201f 	nop
   84640:	a8c47bfd 	ldp	x29, x30, [sp], #64
   84644:	d65f03c0 	ret

0000000000084648 <tmpfs_write>:
   84648:	a9ba7bfd 	stp	x29, x30, [sp, #-96]!
   8464c:	910003fd 	mov	x29, sp
   84650:	f90017a0 	str	x0, [x29, #40]
   84654:	f90013a1 	str	x1, [x29, #32]
   84658:	f9000fa2 	str	x2, [x29, #24]
   8465c:	f94017a0 	ldr	x0, [x29, #40]
   84660:	f9400000 	ldr	x0, [x0]
   84664:	f90027a0 	str	x0, [x29, #72]
   84668:	f94027a0 	ldr	x0, [x29, #72]
   8466c:	f9400c00 	ldr	x0, [x0, #24]
   84670:	f90023a0 	str	x0, [x29, #64]
   84674:	f94013a0 	ldr	x0, [x29, #32]
   84678:	f9001fa0 	str	x0, [x29, #56]
   8467c:	f94023a0 	ldr	x0, [x29, #64]
   84680:	f9401000 	ldr	x0, [x0, #32]
   84684:	f100001f 	cmp	x0, #0x0
   84688:	540000c1 	b.ne	846a0 <tmpfs_write+0x58>  // b.any
   8468c:	52800080 	mov	w0, #0x4                   	// #4
   84690:	97fff1a2 	bl	80d18 <kmalloc>
   84694:	aa0003e1 	mov	x1, x0
   84698:	f94023a0 	ldr	x0, [x29, #64]
   8469c:	f9001001 	str	x1, [x0, #32]
   846a0:	f94023a0 	ldr	x0, [x29, #64]
   846a4:	f9401000 	ldr	x0, [x0, #32]
   846a8:	f9001ba0 	str	x0, [x29, #48]
   846ac:	f94023a0 	ldr	x0, [x29, #64]
   846b0:	f9400400 	ldr	x0, [x0, #8]
   846b4:	f100081f 	cmp	x0, #0x2
   846b8:	54000821 	b.ne	847bc <tmpfs_write+0x174>  // b.any
   846bc:	f94017a0 	ldr	x0, [x29, #40]
   846c0:	f9400401 	ldr	x1, [x0, #8]
   846c4:	f9400fa0 	ldr	x0, [x29, #24]
   846c8:	8b000021 	add	x1, x1, x0
   846cc:	f94023a0 	ldr	x0, [x29, #64]
   846d0:	f9400800 	ldr	x0, [x0, #16]
   846d4:	eb00003f 	cmp	x1, x0
   846d8:	54000342 	b.cs	84740 <tmpfs_write+0xf8>  // b.hs, b.nlast
   846dc:	f94017a0 	ldr	x0, [x29, #40]
   846e0:	f9400400 	ldr	x0, [x0, #8]
   846e4:	b9005fa0 	str	w0, [x29, #92]
   846e8:	b9005bbf 	str	wzr, [x29, #88]
   846ec:	1400000f 	b	84728 <tmpfs_write+0xe0>
   846f0:	b9405fa0 	ldr	w0, [x29, #92]
   846f4:	11000401 	add	w1, w0, #0x1
   846f8:	b9005fa1 	str	w1, [x29, #92]
   846fc:	93407c00 	sxtw	x0, w0
   84700:	f9401ba1 	ldr	x1, [x29, #48]
   84704:	8b000020 	add	x0, x1, x0
   84708:	b9805ba1 	ldrsw	x1, [x29, #88]
   8470c:	f9401fa2 	ldr	x2, [x29, #56]
   84710:	8b010041 	add	x1, x2, x1
   84714:	39400021 	ldrb	w1, [x1]
   84718:	39000001 	strb	w1, [x0]
   8471c:	b9405ba0 	ldr	w0, [x29, #88]
   84720:	11000400 	add	w0, w0, #0x1
   84724:	b9005ba0 	str	w0, [x29, #88]
   84728:	b9805ba1 	ldrsw	x1, [x29, #88]
   8472c:	f9400fa0 	ldr	x0, [x29, #24]
   84730:	eb00003f 	cmp	x1, x0
   84734:	54fffde3 	b.cc	846f0 <tmpfs_write+0xa8>  // b.lo, b.ul, b.last
   84738:	f9400fa0 	ldr	x0, [x29, #24]
   8473c:	14000021 	b	847c0 <tmpfs_write+0x178>
   84740:	f94017a0 	ldr	x0, [x29, #40]
   84744:	f9400400 	ldr	x0, [x0, #8]
   84748:	b90057a0 	str	w0, [x29, #84]
   8474c:	b90053bf 	str	wzr, [x29, #80]
   84750:	1400000f 	b	8478c <tmpfs_write+0x144>
   84754:	b94057a0 	ldr	w0, [x29, #84]
   84758:	11000401 	add	w1, w0, #0x1
   8475c:	b90057a1 	str	w1, [x29, #84]
   84760:	93407c00 	sxtw	x0, w0
   84764:	f9401ba1 	ldr	x1, [x29, #48]
   84768:	8b000020 	add	x0, x1, x0
   8476c:	b98053a1 	ldrsw	x1, [x29, #80]
   84770:	f9401fa2 	ldr	x2, [x29, #56]
   84774:	8b010041 	add	x1, x2, x1
   84778:	39400021 	ldrb	w1, [x1]
   8477c:	39000001 	strb	w1, [x0]
   84780:	b94053a0 	ldr	w0, [x29, #80]
   84784:	11000400 	add	w0, w0, #0x1
   84788:	b90053a0 	str	w0, [x29, #80]
   8478c:	b98053a1 	ldrsw	x1, [x29, #80]
   84790:	f9400fa0 	ldr	x0, [x29, #24]
   84794:	eb00003f 	cmp	x1, x0
   84798:	54fffde3 	b.cc	84754 <tmpfs_write+0x10c>  // b.lo, b.ul, b.last
   8479c:	b98057a1 	ldrsw	x1, [x29, #84]
   847a0:	f94023a0 	ldr	x0, [x29, #64]
   847a4:	f9000801 	str	x1, [x0, #16]
   847a8:	b98057a1 	ldrsw	x1, [x29, #84]
   847ac:	f94023a0 	ldr	x0, [x29, #64]
   847b0:	f9000c01 	str	x1, [x0, #24]
   847b4:	b94057a0 	ldr	w0, [x29, #84]
   847b8:	14000002 	b	847c0 <tmpfs_write+0x178>
   847bc:	52800000 	mov	w0, #0x0                   	// #0
   847c0:	a8c67bfd 	ldp	x29, x30, [sp], #96
   847c4:	d65f03c0 	ret

00000000000847c8 <tmpfs_read>:
   847c8:	d10143ff 	sub	sp, sp, #0x50
   847cc:	f9000fe0 	str	x0, [sp, #24]
   847d0:	f9000be1 	str	x1, [sp, #16]
   847d4:	f90007e2 	str	x2, [sp, #8]
   847d8:	f9400fe0 	ldr	x0, [sp, #24]
   847dc:	f9400000 	ldr	x0, [x0]
   847e0:	f90023e0 	str	x0, [sp, #64]
   847e4:	f94023e0 	ldr	x0, [sp, #64]
   847e8:	f9400c00 	ldr	x0, [x0, #24]
   847ec:	f9001fe0 	str	x0, [sp, #56]
   847f0:	f9401fe0 	ldr	x0, [sp, #56]
   847f4:	f9400c00 	ldr	x0, [x0, #24]
   847f8:	b90037e0 	str	w0, [sp, #52]
   847fc:	b98037e1 	ldrsw	x1, [sp, #52]
   84800:	f94007e0 	ldr	x0, [sp, #8]
   84804:	eb00003f 	cmp	x1, x0
   84808:	9a809020 	csel	x0, x1, x0, ls  // ls = plast
   8480c:	b90033e0 	str	w0, [sp, #48]
   84810:	b9004fff 	str	wzr, [sp, #76]
   84814:	f9400be0 	ldr	x0, [sp, #16]
   84818:	f90017e0 	str	x0, [sp, #40]
   8481c:	f9401fe0 	ldr	x0, [sp, #56]
   84820:	f9401000 	ldr	x0, [x0, #32]
   84824:	f90013e0 	str	x0, [sp, #32]
   84828:	f9400fe0 	ldr	x0, [sp, #24]
   8482c:	f9400400 	ldr	x0, [x0, #8]
   84830:	b9004be0 	str	w0, [sp, #72]
   84834:	1400000f 	b	84870 <tmpfs_read+0xa8>
   84838:	b9404fe0 	ldr	w0, [sp, #76]
   8483c:	11000401 	add	w1, w0, #0x1
   84840:	b9004fe1 	str	w1, [sp, #76]
   84844:	93407c00 	sxtw	x0, w0
   84848:	f94017e1 	ldr	x1, [sp, #40]
   8484c:	8b000020 	add	x0, x1, x0
   84850:	b9804be1 	ldrsw	x1, [sp, #72]
   84854:	f94013e2 	ldr	x2, [sp, #32]
   84858:	8b010041 	add	x1, x2, x1
   8485c:	39400021 	ldrb	w1, [x1]
   84860:	39000001 	strb	w1, [x0]
   84864:	b9404be0 	ldr	w0, [sp, #72]
   84868:	11000400 	add	w0, w0, #0x1
   8486c:	b9004be0 	str	w0, [sp, #72]
   84870:	b9404be1 	ldr	w1, [sp, #72]
   84874:	b94033e0 	ldr	w0, [sp, #48]
   84878:	6b00003f 	cmp	w1, w0
   8487c:	54fffdeb 	b.lt	84838 <tmpfs_read+0x70>  // b.tstop
   84880:	f9400fe0 	ldr	x0, [sp, #24]
   84884:	f9400401 	ldr	x1, [x0, #8]
   84888:	b98033e0 	ldrsw	x0, [sp, #48]
   8488c:	8b000021 	add	x1, x1, x0
   84890:	f9400fe0 	ldr	x0, [sp, #24]
   84894:	f9000401 	str	x1, [x0, #8]
   84898:	b9404fe0 	ldr	w0, [sp, #76]
   8489c:	910143ff 	add	sp, sp, #0x50
   848a0:	d65f03c0 	ret

00000000000848a4 <tmpfs_create>:
   848a4:	a9bb7bfd 	stp	x29, x30, [sp, #-80]!
   848a8:	910003fd 	mov	x29, sp
   848ac:	f90017a0 	str	x0, [x29, #40]
   848b0:	f90013a1 	str	x1, [x29, #32]
   848b4:	f9000fa2 	str	x2, [x29, #24]
   848b8:	f94017a0 	ldr	x0, [x29, #40]
   848bc:	f9400c00 	ldr	x0, [x0, #24]
   848c0:	f90027a0 	str	x0, [x29, #72]
   848c4:	f94027a0 	ldr	x0, [x29, #72]
   848c8:	f9400400 	ldr	x0, [x0, #8]
   848cc:	f100041f 	cmp	x0, #0x1
   848d0:	54000080 	b.eq	848e0 <tmpfs_create+0x3c>  // b.none
   848d4:	b0000000 	adrp	x0, 85000 <core_timer_enable+0x1b8>
   848d8:	911ac000 	add	x0, x0, #0x6b0
   848dc:	97ffeef9 	bl	804c0 <uart_puts>
   848e0:	f94027a0 	ldr	x0, [x29, #72]
   848e4:	f9401000 	ldr	x0, [x0, #32]
   848e8:	f90023a0 	str	x0, [x29, #64]
   848ec:	12800000 	mov	w0, #0xffffffff            	// #-1
   848f0:	b9003fa0 	str	w0, [x29, #60]
   848f4:	f94027a0 	ldr	x0, [x29, #72]
   848f8:	f9400c01 	ldr	x1, [x0, #24]
   848fc:	f94027a0 	ldr	x0, [x29, #72]
   84900:	f9400800 	ldr	x0, [x0, #16]
   84904:	eb00003f 	cmp	x1, x0
   84908:	54000682 	b.cs	849d8 <tmpfs_create+0x134>  // b.hs, b.nlast
   8490c:	f94027a0 	ldr	x0, [x29, #72]
   84910:	f9400c00 	ldr	x0, [x0, #24]
   84914:	91000402 	add	x2, x0, #0x1
   84918:	f94027a1 	ldr	x1, [x29, #72]
   8491c:	f9000c22 	str	x2, [x1, #24]
   84920:	b9003fa0 	str	w0, [x29, #60]
   84924:	52800400 	mov	w0, #0x20                  	// #32
   84928:	97fff0fc 	bl	80d18 <kmalloc>
   8492c:	f9001ba0 	str	x0, [x29, #48]
   84930:	f94017a0 	ldr	x0, [x29, #40]
   84934:	f9400001 	ldr	x1, [x0]
   84938:	f9401ba0 	ldr	x0, [x29, #48]
   8493c:	f9000001 	str	x1, [x0]
   84940:	f94017a0 	ldr	x0, [x29, #40]
   84944:	f9400401 	ldr	x1, [x0, #8]
   84948:	f9401ba0 	ldr	x0, [x29, #48]
   8494c:	f9000401 	str	x1, [x0, #8]
   84950:	f94017a0 	ldr	x0, [x29, #40]
   84954:	f9400801 	ldr	x1, [x0, #16]
   84958:	f9401ba0 	ldr	x0, [x29, #48]
   8495c:	f9000801 	str	x1, [x0, #16]
   84960:	52800500 	mov	w0, #0x28                  	// #40
   84964:	97fff0ed 	bl	80d18 <kmalloc>
   84968:	aa0003e1 	mov	x1, x0
   8496c:	f9401ba0 	ldr	x0, [x29, #48]
   84970:	f9000c01 	str	x1, [x0, #24]
   84974:	f9401ba0 	ldr	x0, [x29, #48]
   84978:	f9400c00 	ldr	x0, [x0, #24]
   8497c:	f90027a0 	str	x0, [x29, #72]
   84980:	f94027a0 	ldr	x0, [x29, #72]
   84984:	f9400fa1 	ldr	x1, [x29, #24]
   84988:	f9000001 	str	x1, [x0]
   8498c:	f94027a0 	ldr	x0, [x29, #72]
   84990:	d2800041 	mov	x1, #0x2                   	// #2
   84994:	f9000401 	str	x1, [x0, #8]
   84998:	f94027a0 	ldr	x0, [x29, #72]
   8499c:	f900081f 	str	xzr, [x0, #16]
   849a0:	f94027a0 	ldr	x0, [x29, #72]
   849a4:	f9000c1f 	str	xzr, [x0, #24]
   849a8:	f94027a0 	ldr	x0, [x29, #72]
   849ac:	f900101f 	str	xzr, [x0, #32]
   849b0:	b9803fa0 	ldrsw	x0, [x29, #60]
   849b4:	d37df000 	lsl	x0, x0, #3
   849b8:	f94023a1 	ldr	x1, [x29, #64]
   849bc:	8b000020 	add	x0, x1, x0
   849c0:	f9401ba1 	ldr	x1, [x29, #48]
   849c4:	f9000001 	str	x1, [x0]
   849c8:	f94013a0 	ldr	x0, [x29, #32]
   849cc:	f100001f 	cmp	x0, #0x0
   849d0:	54000120 	b.eq	849f4 <tmpfs_create+0x150>  // b.none
   849d4:	14000005 	b	849e8 <tmpfs_create+0x144>
   849d8:	b0000000 	adrp	x0, 85000 <core_timer_enable+0x1b8>
   849dc:	911b6000 	add	x0, x0, #0x6d8
   849e0:	97ffeeb8 	bl	804c0 <uart_puts>
   849e4:	14000000 	b	849e4 <tmpfs_create+0x140>
   849e8:	f94013a0 	ldr	x0, [x29, #32]
   849ec:	f9401ba1 	ldr	x1, [x29, #48]
   849f0:	f9000001 	str	x1, [x0]
   849f4:	b9403fa0 	ldr	w0, [x29, #60]
   849f8:	a8c57bfd 	ldp	x29, x30, [sp], #80
   849fc:	d65f03c0 	ret

0000000000084a00 <tmpfs_lookup>:
   84a00:	a9ba7bfd 	stp	x29, x30, [sp, #-96]!
   84a04:	910003fd 	mov	x29, sp
   84a08:	f90017a0 	str	x0, [x29, #40]
   84a0c:	f90013a1 	str	x1, [x29, #32]
   84a10:	f9000fa2 	str	x2, [x29, #24]
   84a14:	f94017a0 	ldr	x0, [x29, #40]
   84a18:	f9400c00 	ldr	x0, [x0, #24]
   84a1c:	f9002ba0 	str	x0, [x29, #80]
   84a20:	f9402ba0 	ldr	x0, [x29, #80]
   84a24:	f9400400 	ldr	x0, [x0, #8]
   84a28:	f100041f 	cmp	x0, #0x1
   84a2c:	54000080 	b.eq	84a3c <tmpfs_lookup+0x3c>  // b.none
   84a30:	b0000000 	adrp	x0, 85000 <core_timer_enable+0x1b8>
   84a34:	911c2000 	add	x0, x0, #0x708
   84a38:	97ffeea2 	bl	804c0 <uart_puts>
   84a3c:	f9402ba0 	ldr	x0, [x29, #80]
   84a40:	f9401000 	ldr	x0, [x0, #32]
   84a44:	f90027a0 	str	x0, [x29, #72]
   84a48:	b9005fbf 	str	wzr, [x29, #92]
   84a4c:	1400001b 	b	84ab8 <tmpfs_lookup+0xb8>
   84a50:	b9805fa0 	ldrsw	x0, [x29, #92]
   84a54:	d37df000 	lsl	x0, x0, #3
   84a58:	f94027a1 	ldr	x1, [x29, #72]
   84a5c:	8b000020 	add	x0, x1, x0
   84a60:	f9400000 	ldr	x0, [x0]
   84a64:	f90023a0 	str	x0, [x29, #64]
   84a68:	f94023a0 	ldr	x0, [x29, #64]
   84a6c:	f9400c00 	ldr	x0, [x0, #24]
   84a70:	f9001fa0 	str	x0, [x29, #56]
   84a74:	f9401fa0 	ldr	x0, [x29, #56]
   84a78:	f9400000 	ldr	x0, [x0]
   84a7c:	f9400fa1 	ldr	x1, [x29, #24]
   84a80:	97fffd02 	bl	83e88 <strcmp>
   84a84:	7100001f 	cmp	w0, #0x0
   84a88:	54000121 	b.ne	84aac <tmpfs_lookup+0xac>  // b.any
   84a8c:	f94013a0 	ldr	x0, [x29, #32]
   84a90:	f100001f 	cmp	x0, #0x0
   84a94:	54000080 	b.eq	84aa4 <tmpfs_lookup+0xa4>  // b.none
   84a98:	f94013a0 	ldr	x0, [x29, #32]
   84a9c:	f94023a1 	ldr	x1, [x29, #64]
   84aa0:	f9000001 	str	x1, [x0]
   84aa4:	b9405fa0 	ldr	w0, [x29, #92]
   84aa8:	1400000a 	b	84ad0 <tmpfs_lookup+0xd0>
   84aac:	b9405fa0 	ldr	w0, [x29, #92]
   84ab0:	11000400 	add	w0, w0, #0x1
   84ab4:	b9005fa0 	str	w0, [x29, #92]
   84ab8:	b9805fa1 	ldrsw	x1, [x29, #92]
   84abc:	f9402ba0 	ldr	x0, [x29, #80]
   84ac0:	f9400c00 	ldr	x0, [x0, #24]
   84ac4:	eb00003f 	cmp	x1, x0
   84ac8:	54fffc43 	b.cc	84a50 <tmpfs_lookup+0x50>  // b.lo, b.ul, b.last
   84acc:	12800000 	mov	w0, #0xffffffff            	// #-1
   84ad0:	a8c67bfd 	ldp	x29, x30, [sp], #96
   84ad4:	d65f03c0 	ret

0000000000084ad8 <tmpfs_init>:
   84ad8:	a9ba7bfd 	stp	x29, x30, [sp, #-96]!
   84adc:	910003fd 	mov	x29, sp
   84ae0:	f9000fa0 	str	x0, [x29, #24]
   84ae4:	f9000ba1 	str	x1, [x29, #16]
   84ae8:	f9400ba0 	ldr	x0, [x29, #16]
   84aec:	f9400fa1 	ldr	x1, [x29, #24]
   84af0:	f9000001 	str	x1, [x0]
   84af4:	52800200 	mov	w0, #0x10                  	// #16
   84af8:	97fff088 	bl	80d18 <kmalloc>
   84afc:	aa0003e1 	mov	x1, x0
   84b00:	f9400ba0 	ldr	x0, [x29, #16]
   84b04:	f9000401 	str	x1, [x0, #8]
   84b08:	f9400ba0 	ldr	x0, [x29, #16]
   84b0c:	f9400400 	ldr	x0, [x0, #8]
   84b10:	90000001 	adrp	x1, 84000 <sys_fork+0xc>
   84b14:	91280021 	add	x1, x1, #0xa00
   84b18:	f9000001 	str	x1, [x0]
   84b1c:	f9400ba0 	ldr	x0, [x29, #16]
   84b20:	f9400400 	ldr	x0, [x0, #8]
   84b24:	90000001 	adrp	x1, 84000 <sys_fork+0xc>
   84b28:	91229021 	add	x1, x1, #0x8a4
   84b2c:	f9000401 	str	x1, [x0, #8]
   84b30:	52800200 	mov	w0, #0x10                  	// #16
   84b34:	97fff079 	bl	80d18 <kmalloc>
   84b38:	aa0003e1 	mov	x1, x0
   84b3c:	f9400ba0 	ldr	x0, [x29, #16]
   84b40:	f9000801 	str	x1, [x0, #16]
   84b44:	f9400ba0 	ldr	x0, [x29, #16]
   84b48:	f9400800 	ldr	x0, [x0, #16]
   84b4c:	90000001 	adrp	x1, 84000 <sys_fork+0xc>
   84b50:	91192021 	add	x1, x1, #0x648
   84b54:	f9000001 	str	x1, [x0]
   84b58:	f9400ba0 	ldr	x0, [x29, #16]
   84b5c:	f9400800 	ldr	x0, [x0, #16]
   84b60:	90000001 	adrp	x1, 84000 <sys_fork+0xc>
   84b64:	911f2021 	add	x1, x1, #0x7c8
   84b68:	f9000401 	str	x1, [x0, #8]
   84b6c:	52800500 	mov	w0, #0x28                  	// #40
   84b70:	97fff06a 	bl	80d18 <kmalloc>
   84b74:	aa0003e1 	mov	x1, x0
   84b78:	f9400ba0 	ldr	x0, [x29, #16]
   84b7c:	f9000c01 	str	x1, [x0, #24]
   84b80:	f9400ba0 	ldr	x0, [x29, #16]
   84b84:	f9400c00 	ldr	x0, [x0, #24]
   84b88:	f9002ba0 	str	x0, [x29, #80]
   84b8c:	f9402ba0 	ldr	x0, [x29, #80]
   84b90:	f900001f 	str	xzr, [x0]
   84b94:	f9402ba0 	ldr	x0, [x29, #80]
   84b98:	d2800021 	mov	x1, #0x1                   	// #1
   84b9c:	f9000401 	str	x1, [x0, #8]
   84ba0:	f9402ba0 	ldr	x0, [x29, #80]
   84ba4:	d2800141 	mov	x1, #0xa                   	// #10
   84ba8:	f9000801 	str	x1, [x0, #16]
   84bac:	f9402ba0 	ldr	x0, [x29, #80]
   84bb0:	f9000c1f 	str	xzr, [x0, #24]
   84bb4:	52800a00 	mov	w0, #0x50                  	// #80
   84bb8:	97fff058 	bl	80d18 <kmalloc>
   84bbc:	aa0003e1 	mov	x1, x0
   84bc0:	f9402ba0 	ldr	x0, [x29, #80]
   84bc4:	f9001001 	str	x1, [x0, #32]
   84bc8:	97fffb8a 	bl	839f0 <get_cpio_base>
   84bcc:	f9002fa0 	str	x0, [x29, #88]
   84bd0:	f9402fa0 	ldr	x0, [x29, #88]
   84bd4:	97fffb8b 	bl	83a00 <get_file_property>
   84bd8:	f90027a0 	str	x0, [x29, #72]
   84bdc:	f94027a0 	ldr	x0, [x29, #72]
   84be0:	f9400002 	ldr	x2, [x0]
   84be4:	b0000000 	adrp	x0, 85000 <core_timer_enable+0x1b8>
   84be8:	911cc000 	add	x0, x0, #0x730
   84bec:	aa0003e1 	mov	x1, x0
   84bf0:	aa0203e0 	mov	x0, x2
   84bf4:	97fffca5 	bl	83e88 <strcmp>
   84bf8:	7100001f 	cmp	w0, #0x0
   84bfc:	54000b00 	b.eq	84d5c <tmpfs_init+0x284>  // b.none
   84c00:	f9400ba0 	ldr	x0, [x29, #16]
   84c04:	f90023a0 	str	x0, [x29, #64]
   84c08:	f94023a0 	ldr	x0, [x29, #64]
   84c0c:	f9400c00 	ldr	x0, [x0, #24]
   84c10:	f9002ba0 	str	x0, [x29, #80]
   84c14:	f9402ba0 	ldr	x0, [x29, #80]
   84c18:	f9401000 	ldr	x0, [x0, #32]
   84c1c:	f9001fa0 	str	x0, [x29, #56]
   84c20:	f94027a0 	ldr	x0, [x29, #72]
   84c24:	f9400000 	ldr	x0, [x0]
   84c28:	aa0003e2 	mov	x2, x0
   84c2c:	d2800001 	mov	x1, #0x0                   	// #0
   84c30:	f94023a0 	ldr	x0, [x29, #64]
   84c34:	97ffff73 	bl	84a00 <tmpfs_lookup>
   84c38:	b90037a0 	str	w0, [x29, #52]
   84c3c:	b94037a0 	ldr	w0, [x29, #52]
   84c40:	3100041f 	cmn	w0, #0x1
   84c44:	54fffee1 	b.ne	84c20 <tmpfs_init+0x148>  // b.any
   84c48:	f94027a0 	ldr	x0, [x29, #72]
   84c4c:	f9400000 	ldr	x0, [x0]
   84c50:	aa0003e2 	mov	x2, x0
   84c54:	d2800001 	mov	x1, #0x0                   	// #0
   84c58:	f94023a0 	ldr	x0, [x29, #64]
   84c5c:	97ffff12 	bl	848a4 <tmpfs_create>
   84c60:	b90037a0 	str	w0, [x29, #52]
   84c64:	b98037a0 	ldrsw	x0, [x29, #52]
   84c68:	d37df000 	lsl	x0, x0, #3
   84c6c:	f9401fa1 	ldr	x1, [x29, #56]
   84c70:	8b000020 	add	x0, x1, x0
   84c74:	f9400000 	ldr	x0, [x0]
   84c78:	f90017a0 	str	x0, [x29, #40]
   84c7c:	f94017a0 	ldr	x0, [x29, #40]
   84c80:	f9400c00 	ldr	x0, [x0, #24]
   84c84:	f90013a0 	str	x0, [x29, #32]
   84c88:	f94027a0 	ldr	x0, [x29, #72]
   84c8c:	f9400800 	ldr	x0, [x0, #16]
   84c90:	f100101f 	cmp	x0, #0x4
   84c94:	54000181 	b.ne	84cc4 <tmpfs_init+0x1ec>  // b.any
   84c98:	f94013a0 	ldr	x0, [x29, #32]
   84c9c:	d2800141 	mov	x1, #0xa                   	// #10
   84ca0:	f9000801 	str	x1, [x0, #16]
   84ca4:	f94013a0 	ldr	x0, [x29, #32]
   84ca8:	f9000c1f 	str	xzr, [x0, #24]
   84cac:	52800a00 	mov	w0, #0x50                  	// #80
   84cb0:	97fff01a 	bl	80d18 <kmalloc>
   84cb4:	aa0003e1 	mov	x1, x0
   84cb8:	f94013a0 	ldr	x0, [x29, #32]
   84cbc:	f9001001 	str	x1, [x0, #32]
   84cc0:	14000017 	b	84d1c <tmpfs_init+0x244>
   84cc4:	f94027a0 	ldr	x0, [x29, #72]
   84cc8:	f9400800 	ldr	x0, [x0, #16]
   84ccc:	f100201f 	cmp	x0, #0x8
   84cd0:	54000201 	b.ne	84d10 <tmpfs_init+0x238>  // b.any
   84cd4:	f94027a0 	ldr	x0, [x29, #72]
   84cd8:	b9401c00 	ldr	w0, [x0, #28]
   84cdc:	93407c01 	sxtw	x1, w0
   84ce0:	f94013a0 	ldr	x0, [x29, #32]
   84ce4:	f9000c01 	str	x1, [x0, #24]
   84ce8:	f94027a0 	ldr	x0, [x29, #72]
   84cec:	f9400401 	ldr	x1, [x0, #8]
   84cf0:	f94013a0 	ldr	x0, [x29, #32]
   84cf4:	f9001001 	str	x1, [x0, #32]
   84cf8:	f94027a0 	ldr	x0, [x29, #72]
   84cfc:	b9401c00 	ldr	w0, [x0, #28]
   84d00:	93407c01 	sxtw	x1, w0
   84d04:	f94013a0 	ldr	x0, [x29, #32]
   84d08:	f9000801 	str	x1, [x0, #16]
   84d0c:	14000004 	b	84d1c <tmpfs_init+0x244>
   84d10:	b0000000 	adrp	x0, 85000 <core_timer_enable+0x1b8>
   84d14:	911d0000 	add	x0, x0, #0x740
   84d18:	97ffedea 	bl	804c0 <uart_puts>
   84d1c:	f9402fa0 	ldr	x0, [x29, #88]
   84d20:	9101b800 	add	x0, x0, #0x6e
   84d24:	f9002fa0 	str	x0, [x29, #88]
   84d28:	f94027a0 	ldr	x0, [x29, #72]
   84d2c:	b9401c00 	ldr	w0, [x0, #28]
   84d30:	93407c00 	sxtw	x0, w0
   84d34:	f9402fa1 	ldr	x1, [x29, #88]
   84d38:	8b000020 	add	x0, x1, x0
   84d3c:	f9002fa0 	str	x0, [x29, #88]
   84d40:	f94027a0 	ldr	x0, [x29, #72]
   84d44:	b9401800 	ldr	w0, [x0, #24]
   84d48:	93407c00 	sxtw	x0, w0
   84d4c:	f9402fa1 	ldr	x1, [x29, #88]
   84d50:	8b000020 	add	x0, x1, x0
   84d54:	f9002fa0 	str	x0, [x29, #88]
   84d58:	17ffff9e 	b	84bd0 <tmpfs_init+0xf8>
   84d5c:	d503201f 	nop
   84d60:	f9400ba0 	ldr	x0, [x29, #16]
   84d64:	97fffdf9 	bl	84548 <print_tmpfsTree>
   84d68:	52800020 	mov	w0, #0x1                   	// #1
   84d6c:	a8c67bfd 	ldp	x29, x30, [sp], #96
   84d70:	d65f03c0 	ret

0000000000084d74 <tmpfs_setup>:
   84d74:	a9be7bfd 	stp	x29, x30, [sp, #-32]!
   84d78:	910003fd 	mov	x29, sp
   84d7c:	f9000fa0 	str	x0, [x29, #24]
   84d80:	f9000ba1 	str	x1, [x29, #16]
   84d84:	52800400 	mov	w0, #0x20                  	// #32
   84d88:	97ffefe4 	bl	80d18 <kmalloc>
   84d8c:	aa0003e1 	mov	x1, x0
   84d90:	f9400ba0 	ldr	x0, [x29, #16]
   84d94:	f9000001 	str	x1, [x0]
   84d98:	f9400ba0 	ldr	x0, [x29, #16]
   84d9c:	f9400fa1 	ldr	x1, [x29, #24]
   84da0:	f9000401 	str	x1, [x0, #8]
   84da4:	f9400ba0 	ldr	x0, [x29, #16]
   84da8:	f9400000 	ldr	x0, [x0]
   84dac:	aa0003e1 	mov	x1, x0
   84db0:	f9400ba0 	ldr	x0, [x29, #16]
   84db4:	97ffff49 	bl	84ad8 <tmpfs_init>
   84db8:	7100001f 	cmp	w0, #0x0
   84dbc:	540000a1 	b.ne	84dd0 <tmpfs_setup+0x5c>  // b.any
   84dc0:	b0000000 	adrp	x0, 85000 <core_timer_enable+0x1b8>
   84dc4:	911d8000 	add	x0, x0, #0x760
   84dc8:	97ffedbe 	bl	804c0 <uart_puts>
   84dcc:	14000000 	b	84dcc <tmpfs_setup+0x58>
   84dd0:	52800000 	mov	w0, #0x0                   	// #0
   84dd4:	a8c27bfd 	ldp	x29, x30, [sp], #32
   84dd8:	d65f03c0 	ret
   84ddc:	00000000 	.inst	0x00000000 ; undefined

0000000000084de0 <from_el2_to_el1>:
   84de0:	d2a00600 	mov	x0, #0x300000              	// #3145728
   84de4:	d5181040 	msr	cpacr_el1, x0
   84de8:	d2b00000 	mov	x0, #0x80000000            	// #2147483648
   84dec:	d51c1100 	msr	hcr_el2, x0
   84df0:	d28078a0 	mov	x0, #0x3c5                 	// #965
   84df4:	d51c4000 	msr	spsr_el2, x0
   84df8:	d51c403e 	msr	elr_el2, x30
   84dfc:	d2a00600 	mov	x0, #0x300000              	// #3145728
   84e00:	d5181040 	msr	cpacr_el1, x0
   84e04:	d69f03e0 	eret

0000000000084e08 <from_el1_to_el0>:
   84e08:	d2800000 	mov	x0, #0x0                   	// #0
   84e0c:	d5184000 	msr	spsr_el1, x0
   84e10:	910003e0 	mov	x0, sp
   84e14:	d5184100 	msr	sp_el0, x0
   84e18:	d518403e 	msr	elr_el1, x30
   84e1c:	d69f03e0 	eret

0000000000084e20 <run_user_program>:
   84e20:	aa0003e2 	mov	x2, x0
   84e24:	d5184022 	msr	elr_el1, x2
   84e28:	aa0103e2 	mov	x2, x1
   84e2c:	d5184102 	msr	sp_el0, x2
   84e30:	d2806802 	mov	x2, #0x340                 	// #832
   84e34:	d5184002 	msr	spsr_el1, x2
   84e38:	d5384103 	mrs	x3, sp_el0
   84e3c:	f9400060 	ldr	x0, [x3]
   84e40:	f9400461 	ldr	x1, [x3, #8]
   84e44:	d69f03e0 	eret

0000000000084e48 <core_timer_enable>:
   84e48:	d2800020 	mov	x0, #0x1                   	// #1
   84e4c:	d51be220 	msr	cntp_ctl_el0, x0
   84e50:	d53be000 	mrs	x0, cntfrq_el0
   84e54:	d51be200 	msr	cntp_tval_el0, x0
   84e58:	d2800040 	mov	x0, #0x2                   	// #2
   84e5c:	58000061 	ldr	x1, 84e68 <core_timer_enable+0x20>
   84e60:	b9000020 	str	w0, [x1]
   84e64:	d65f03c0 	ret
   84e68:	40000040 	.word	0x40000040
   84e6c:	00000000 	.word	0x00000000

Disassembly of section .rodata:

0000000000084e70 <sys_call_table-0x7b0>:
   84e70:	5f736676 	.word	0x5f736676
   84e74:	6e65706f 	.word	0x6e65706f
   84e78:	203a2928 	.word	0x203a2928
   84e7c:	6e6e6163 	.word	0x6e6e6163
   84e80:	6320746f 	.word	0x6320746f
   84e84:	74616572 	.word	0x74616572
   84e88:	656e2065 	.word	0x656e2065
   84e8c:	69662077 	.word	0x69662077
   84e90:	0a21656c 	.word	0x0a21656c
   84e94:	00000000 	.word	0x00000000
   84e98:	66667562 	.word	0x66667562
   84e9c:	6f207265 	.word	0x6f207265
   84ea0:	66726576 	.word	0x66726576
   84ea4:	21776f6c 	.word	0x21776f6c
   84ea8:	0000000a 	.word	0x0000000a
   84eac:	00000000 	.word	0x00000000
   84eb0:	312d2d2d 	.word	0x312d2d2d
   84eb4:	79622036 	.word	0x79622036
   84eb8:	2d736574 	.word	0x2d736574
   84ebc:	000a2d2d 	.word	0x000a2d2d
   84ec0:	6c6f6f70 	.word	0x6c6f6f70
   84ec4:	00000020 	.word	0x00000020
   84ec8:	0000203a 	.word	0x0000203a
   84ecc:	00000000 	.word	0x00000000
   84ed0:	203e2d20 	.word	0x203e2d20
   84ed4:	00000000 	.word	0x00000000
   84ed8:	0000000a 	.word	0x0000000a
   84edc:	00000000 	.word	0x00000000
   84ee0:	342d2d2d 	.word	0x342d2d2d
   84ee4:	2d2d424b 	.word	0x2d2d424b
   84ee8:	00000a2d 	.word	0x00000a2d
   84eec:	00000000 	.word	0x00000000
   84ef0:	7473696c 	.word	0x7473696c
   84ef4:	00000020 	.word	0x00000020
   84ef8:	3d3d3d3d 	.word	0x3d3d3d3d
   84efc:	696e493d 	.word	0x696e493d
   84f00:	72662074 	.word	0x72662074
   84f04:	20656d61 	.word	0x20656d61
   84f08:	65657266 	.word	0x65657266
   84f0c:	7473696c 	.word	0x7473696c
   84f10:	3d3d3d3d 	.word	0x3d3d3d3d
   84f14:	00000a3d 	.word	0x00000a3d
   84f18:	72726528 	.word	0x72726528
   84f1c:	2029726f 	.word	0x2029726f
   84f20:	6c616d6b 	.word	0x6c616d6b
   84f24:	20636f6c 	.word	0x20636f6c
   84f28:	6c696166 	.word	0x6c696166
   84f2c:	00000a21 	.word	0x00000a21
   84f30:	2d2d2d2d 	.word	0x2d2d2d2d
   84f34:	6d75642d 	.word	0x6d75642d
   84f38:	74732070 	.word	0x74732070
   84f3c:	2d657461 	.word	0x2d657461
   84f40:	2d2d2d2d 	.word	0x2d2d2d2d
   84f44:	0000000a 	.word	0x0000000a
   84f48:	52535053 	.word	0x52535053
   84f4c:	314c455f 	.word	0x314c455f
   84f50:	7830203a 	.word	0x7830203a
   84f54:	00000000 	.word	0x00000000
   84f58:	0000000a 	.word	0x0000000a
   84f5c:	00000000 	.word	0x00000000
   84f60:	5f524c45 	.word	0x5f524c45
   84f64:	3a314c45 	.word	0x3a314c45
   84f68:	00783020 	.word	0x00783020
   84f6c:	00000000 	.word	0x00000000
   84f70:	5f525345 	.word	0x5f525345
   84f74:	3a314c45 	.word	0x3a314c45
   84f78:	00783020 	.word	0x00783020
   84f7c:	00000000 	.word	0x00000000
   84f80:	2d2d2d2d 	.word	0x2d2d2d2d
   84f84:	2d2d2d2d 	.word	0x2d2d2d2d
   84f88:	2d2d2d2d 	.word	0x2d2d2d2d
   84f8c:	2d2d2d2d 	.word	0x2d2d2d2d
   84f90:	2d2d2d2d 	.word	0x2d2d2d2d
   84f94:	00000a2d 	.word	0x00000a2d
   84f98:	2d2d2d2d 	.word	0x2d2d2d2d
   84f9c:	6d69542d 	.word	0x6d69542d
   84fa0:	2d2d7265 	.word	0x2d2d7265
   84fa4:	0a2d2d2d 	.word	0x0a2d2d2d
	...
   84fb0:	656d6954 	.word	0x656d6954
   84fb4:	616c4520 	.word	0x616c4520
   84fb8:	64657370 	.word	0x64657370
   84fbc:	0000203a 	.word	0x0000203a
   84fc0:	2d2d2d2d 	.word	0x2d2d2d2d
   84fc4:	2d2d2d2d 	.word	0x2d2d2d2d
   84fc8:	2d2d2d2d 	.word	0x2d2d2d2d
   84fcc:	0a2d2d2d 	.word	0x0a2d2d2d
	...
   84fd8:	656d6974 	.word	0x656d6974
   84fdc:	69742072 	.word	0x69742072
   84fe0:	000a6b63 	.word	0x000a6b63
   84fe4:	00000000 	.word	0x00000000
   84fe8:	65726874 	.word	0x65726874
   84fec:	00206461 	.word	0x00206461
   84ff0:	20736920 	.word	0x20736920
   84ff4:	64616564 	.word	0x64616564
   84ff8:	0000000a 	.word	0x0000000a
   84ffc:	00000000 	.word	0x00000000
   85000:	6f6c6572 	.word	0x6f6c6572
   85004:	65746163 	.word	0x65746163
   85008:	0a2e2e2e 	.word	0x0a2e2e2e
   8500c:	00000000 	.word	0x00000000
   85010:	6d612049 	.word	0x6d612049
   85014:	6d6f7a20 	.word	0x6d6f7a20
   85018:	20656962 	.word	0x20656962
   8501c:	6c6c696b 	.word	0x6c6c696b
   85020:	202c7265 	.word	0x202c7265
   85024:	616d6572 	.word	0x616d6572
   85028:	00206e69 	.word	0x00206e69
   8502c:	00000000 	.word	0x00000000
   85030:	72687420 	.word	0x72687420
   85034:	73646165 	.word	0x73646165
   85038:	0000000a 	.word	0x0000000a
   8503c:	00000000 	.word	0x00000000
   85040:	64616f6c 	.word	0x64616f6c
   85044:	65737520 	.word	0x65737520
   85048:	72702072 	.word	0x72702072
   8504c:	6172676f 	.word	0x6172676f
   85050:	6166206d 	.word	0x6166206d
   85054:	2e2e6c69 	.word	0x2e2e6c69
   85058:	00000a2e 	.word	0x00000a2e
   8505c:	00000000 	.word	0x00000000
   85060:	64616f6c 	.word	0x64616f6c
   85064:	65737520 	.word	0x65737520
   85068:	72702072 	.word	0x72702072
   8506c:	6172676f 	.word	0x6172676f
   85070:	7573206d 	.word	0x7573206d
   85074:	73656363 	.word	0x73656363
   85078:	2e2e2e73 	.word	0x2e2e2e73
   8507c:	0000000a 	.word	0x0000000a
   85080:	65726854 	.word	0x65726854
   85084:	69206461 	.word	0x69206461
   85088:	00203a64 	.word	0x00203a64
   8508c:	00000000 	.word	0x00000000
   85090:	20692c20 	.word	0x20692c20
   85094:	0000203d 	.word	0x0000203d
   85098:	0000000a 	.word	0x0000000a
   8509c:	00000000 	.word	0x00000000
   850a0:	76677261 	.word	0x76677261
   850a4:	7365745f 	.word	0x7365745f
   850a8:	6d692e74 	.word	0x6d692e74
   850ac:	00000067 	.word	0x00000067
   850b0:	76677261 	.word	0x76677261
   850b4:	7365745f 	.word	0x7365745f
   850b8:	00000074 	.word	0x00000074
   850bc:	00000000 	.word	0x00000000
   850c0:	00006f2d 	.word	0x00006f2d
   850c4:	00000000 	.word	0x00000000
   850c8:	32677261 	.word	0x32677261
   850cc:	00000000 	.word	0x00000000
   850d0:	000850b0 	.word	0x000850b0
   850d4:	00000000 	.word	0x00000000
   850d8:	000850c0 	.word	0x000850c0
   850dc:	00000000 	.word	0x00000000
   850e0:	000850c8 	.word	0x000850c8
	...
   850f0:	6c6c6568 	.word	0x6c6c6568
   850f4:	0000006f 	.word	0x0000006f
   850f8:	6c726f77 	.word	0x6c726f77
   850fc:	00000064 	.word	0x00000064
   85100:	6c6c6548 	.word	0x6c6c6548
   85104:	0000206f 	.word	0x0000206f
   85108:	74697277 	.word	0x74697277
   8510c:	65482065 	.word	0x65482065
   85110:	206f6c6c 	.word	0x206f6c6c
   85114:	6f727265 	.word	0x6f727265
   85118:	000a2172 	.word	0x000a2172
   8511c:	00000000 	.word	0x00000000
   85120:	6c726f57 	.word	0x6c726f57
   85124:	00002164 	.word	0x00002164
   85128:	74697277 	.word	0x74697277
   8512c:	6f572065 	.word	0x6f572065
   85130:	21646c72 	.word	0x21646c72
   85134:	72726520 	.word	0x72726520
   85138:	000a726f 	.word	0x000a726f
   8513c:	00000000 	.word	0x00000000
   85140:	656c6966 	.word	0x656c6966
   85144:	676d692e 	.word	0x676d692e
	...
   85150:	61656c50 	.word	0x61656c50
   85154:	65206573 	.word	0x65206573
   85158:	7265746e 	.word	0x7265746e
   8515c:	6c696620 	.word	0x6c696620
   85160:	616e2065 	.word	0x616e2065
   85164:	203a656d 	.word	0x203a656d
	...
   85170:	49415254 	.word	0x49415254
   85174:	2152454c 	.word	0x2152454c
   85178:	00002121 	.word	0x00002121
   8517c:	00000000 	.word	0x00000000
   85180:	73206f4e 	.word	0x73206f4e
   85184:	20686375 	.word	0x20686375
   85188:	656c6966 	.word	0x656c6966
   8518c:	0000000a 	.word	0x0000000a
   85190:	0000000a 	.word	0x0000000a
   85194:	00000000 	.word	0x00000000
   85198:	64616f6c 	.word	0x64616f6c
   8519c:	2e676e69 	.word	0x2e676e69
   851a0:	000a2e2e 	.word	0x000a2e2e
   851a4:	00000000 	.word	0x00000000
   851a8:	61656c50 	.word	0x61656c50
   851ac:	65206573 	.word	0x65206573
   851b0:	7265746e 	.word	0x7265746e
   851b4:	70706120 	.word	0x70706120
   851b8:	616f6c20 	.word	0x616f6c20
   851bc:	64612064 	.word	0x64612064
   851c0:	73657264 	.word	0x73657264
   851c4:	48282073 	.word	0x48282073
   851c8:	3a297865 	.word	0x3a297865
   851cc:	00000020 	.word	0x00000020
   851d0:	646e6966 	.word	0x646e6966
   851d4:	00000020 	.word	0x00000020
   851d8:	64616f6c 	.word	0x64616f6c
   851dc:	20676e69 	.word	0x20676e69
   851e0:	72657375 	.word	0x72657375
   851e4:	6c696620 	.word	0x6c696620
   851e8:	69772065 	.word	0x69772065
   851ec:	61206874 	.word	0x61206874
   851f0:	2e766772 	.word	0x2e766772
   851f4:	000a2e2e 	.word	0x000a2e2e
   851f8:	6c6c6548 	.word	0x6c6c6548
   851fc:	6f57206f 	.word	0x6f57206f
   85200:	21646c72 	.word	0x21646c72
   85204:	0000000a 	.word	0x0000000a
   85208:	706c6568 	.word	0x706c6568
   8520c:	7270203a 	.word	0x7270203a
   85210:	20746e69 	.word	0x20746e69
   85214:	206c6c61 	.word	0x206c6c61
   85218:	69617661 	.word	0x69617661
   8521c:	6c62616c 	.word	0x6c62616c
   85220:	6f632065 	.word	0x6f632065
   85224:	6e616d6d 	.word	0x6e616d6d
   85228:	000a7364 	.word	0x000a7364
   8522c:	00000000 	.word	0x00000000
   85230:	6c6c6568 	.word	0x6c6c6568
   85234:	70203a6f 	.word	0x70203a6f
   85238:	746e6972 	.word	0x746e6972
   8523c:	6c654820 	.word	0x6c654820
   85240:	57206f6c 	.word	0x57206f6c
   85244:	646c726f 	.word	0x646c726f
   85248:	00000a21 	.word	0x00000a21
   8524c:	00000000 	.word	0x00000000
   85250:	6f626572 	.word	0x6f626572
   85254:	203a746f 	.word	0x203a746f
   85258:	6f626572 	.word	0x6f626572
   8525c:	000a746f 	.word	0x000a746f
   85260:	203a736c 	.word	0x203a736c
   85264:	7473696c 	.word	0x7473696c
   85268:	6c6c6120 	.word	0x6c6c6120
   8526c:	6c696620 	.word	0x6c696620
   85270:	00000a65 	.word	0x00000a65
   85274:	00000000 	.word	0x00000000
   85278:	6f626552 	.word	0x6f626552
   8527c:	6e69746f 	.word	0x6e69746f
   85280:	2e2e2e67 	.word	0x2e2e2e67
   85284:	0000000a 	.word	0x0000000a
   85288:	2020205c 	.word	0x2020205c
   8528c:	20202020 	.word	0x20202020
   85290:	20202020 	.word	0x20202020
   85294:	20202020 	.word	0x20202020
   85298:	20202020 	.word	0x20202020
   8529c:	20202020 	.word	0x20202020
   852a0:	20202020 	.word	0x20202020
   852a4:	202e2020 	.word	0x202e2020
   852a8:	20202020 	.word	0x20202020
   852ac:	0a2e2020 	.word	0x0a2e2020
   852b0:	20205c20 	.word	0x20205c20
   852b4:	20202020 	.word	0x20202020
   852b8:	20202020 	.word	0x20202020
   852bc:	20202020 	.word	0x20202020
   852c0:	20202020 	.word	0x20202020
   852c4:	20202020 	.word	0x20202020
   852c8:	20202020 	.word	0x20202020
   852cc:	60202f20 	.word	0x60202f20
   852d0:	2020202e 	.word	0x2020202e
   852d4:	2220272e 	.word	0x2220272e
   852d8:	5c200a20 	.word	0x5c200a20
   852dc:	20202020 	.word	0x20202020
   852e0:	20202020 	.word	0x20202020
   852e4:	20202020 	.word	0x20202020
   852e8:	20202020 	.word	0x20202020
   852ec:	2d2e2020 	.word	0x2d2e2020
   852f0:	202e2d2d 	.word	0x202e2d2d
   852f4:	20203c20 	.word	0x20203c20
   852f8:	203e2020 	.word	0x203e2020
   852fc:	2020203c 	.word	0x2020203c
   85300:	20203e20 	.word	0x20203e20
   85304:	2d2d2d2e 	.word	0x2d2d2d2e
   85308:	20200a2e 	.word	0x20200a2e
   8530c:	20205c20 	.word	0x20205c20
   85310:	20202020 	.word	0x20202020
   85314:	20202020 	.word	0x20202020
   85318:	20202020 	.word	0x20202020
   8531c:	7c202020 	.word	0x7c202020
   85320:	5c202020 	.word	0x5c202020
   85324:	205c2020 	.word	0x205c2020
   85328:	207e202d 	.word	0x207e202d
   8532c:	202d207e 	.word	0x202d207e
   85330:	2f20202f 	.word	0x2f20202f
   85334:	20202020 	.word	0x20202020
   85338:	20200a7c 	.word	0x20200a7c
   8533c:	20202020 	.word	0x20202020
   85340:	5f202020 	.word	0x5f202020
   85344:	5f5f5f5f 	.word	0x5f5f5f5f
   85348:	20202020 	.word	0x20202020
   8534c:	20202020 	.word	0x20202020
   85350:	2e2e2020 	.word	0x2e2e2020
   85354:	20207e2d 	.word	0x20207e2d
   85358:	20202020 	.word	0x20202020
   8535c:	20202020 	.word	0x20202020
   85360:	7e202020 	.word	0x7e202020
   85364:	2d2e2e2d 	.word	0x2d2e2e2d
   85368:	20200a7e 	.word	0x20200a7e
   8536c:	20202020 	.word	0x20202020
   85370:	207c2020 	.word	0x207c2020
   85374:	20202020 	.word	0x20202020
   85378:	5c20207c 	.word	0x5c20207c
   8537c:	5c7e7e7e 	.word	0x5c7e7e7e
   85380:	2020272e 	.word	0x2020272e
   85384:	20202020 	.word	0x20202020
   85388:	20202020 	.word	0x20202020
   8538c:	20202020 	.word	0x20202020
   85390:	20202020 	.word	0x20202020
   85394:	2e602020 	.word	0x2e602020
   85398:	7e7e7e2f 	.word	0x7e7e7e2f
   8539c:	20200a2f 	.word	0x20200a2f
   853a0:	20202020 	.word	0x20202020
   853a4:	2d2d2d20 	.word	0x2d2d2d20
   853a8:	2d2d2d2d 	.word	0x2d2d2d2d
   853ac:	20202d2d 	.word	0x20202d2d
   853b0:	2f5f5f5c 	.word	0x2f5f5f5c
   853b4:	20202020 	.word	0x20202020
   853b8:	20202020 	.word	0x20202020
   853bc:	20202020 	.word	0x20202020
   853c0:	20202020 	.word	0x20202020
   853c4:	20202020 	.word	0x20202020
   853c8:	20202020 	.word	0x20202020
   853cc:	2f5f5f5c 	.word	0x2f5f5f5c
   853d0:	2020200a 	.word	0x2020200a
   853d4:	2e202020 	.word	0x2e202020
   853d8:	4f202027 	.word	0x4f202027
   853dc:	20202020 	.word	0x20202020
   853e0:	2020205c 	.word	0x2020205c
   853e4:	202f2020 	.word	0x202f2020
   853e8:	20202020 	.word	0x20202020
   853ec:	20202020 	.word	0x20202020
   853f0:	20202020 	.word	0x20202020
   853f4:	202f2020 	.word	0x202f2020
   853f8:	20202020 	.word	0x20202020
   853fc:	205c2020 	.word	0x205c2020
   85400:	0a202220 	.word	0x0a202220
   85404:	20202020 	.word	0x20202020
   85408:	5f5f2820 	.word	0x5f5f2820
   8540c:	2c5f5f5f 	.word	0x2c5f5f5f
   85410:	20202020 	.word	0x20202020
   85414:	2e5f2e60 	.word	0x2e5f2e60
   85418:	20202027 	.word	0x20202027
   8541c:	20202020 	.word	0x20202020
   85420:	20202020 	.word	0x20202020
   85424:	20202020 	.word	0x20202020
   85428:	2020207c 	.word	0x2020207c
   8542c:	20202020 	.word	0x20202020
   85430:	207d2020 	.word	0x207d2020
   85434:	7e2f5c20 	.word	0x7e2f5c20
   85438:	0a2f7e7e 	.word	0x0a2f7e7e
   8543c:	20202020 	.word	0x20202020
   85440:	2d602020 	.word	0x2d602020
   85444:	2e2d2d2d 	.word	0x2e2d2d2d
   85448:	20202020 	.word	0x20202020
   8544c:	20202020 	.word	0x20202020
   85450:	202f2020 	.word	0x202f2020
   85454:	20202020 	.word	0x20202020
   85458:	207d2020 	.word	0x207d2020
   8545c:	20202020 	.word	0x20202020
   85460:	2020207c 	.word	0x2020207c
   85464:	20202020 	.word	0x20202020
   85468:	20202f20 	.word	0x20202f20
   8546c:	5f5c2020 	.word	0x5f5c2020
   85470:	200a2f5f 	.word	0x200a2f5f
   85474:	20202020 	.word	0x20202020
   85478:	20202020 	.word	0x20202020
   8547c:	60202020 	.word	0x60202020
   85480:	20202e2d 	.word	0x20202e2d
   85484:	20202020 	.word	0x20202020
   85488:	2020207c 	.word	0x2020207c
   8548c:	20202020 	.word	0x20202020
   85490:	2020202f 	.word	0x2020202f
   85494:	7c202020 	.word	0x7c202020
   85498:	20202020 	.word	0x20202020
   8549c:	2f202020 	.word	0x2f202020
   854a0:	20202020 	.word	0x20202020
   854a4:	2e602020 	.word	0x2e602020
   854a8:	7e7e2c20 	.word	0x7e7e2c20
   854ac:	20200a7c 	.word	0x20200a7c
   854b0:	20202020 	.word	0x20202020
   854b4:	20202020 	.word	0x20202020
   854b8:	20202020 	.word	0x20202020
   854bc:	2d7e2020 	.word	0x2d7e2020
   854c0:	7c5f5f2e 	.word	0x7c5f5f2e
   854c4:	20202020 	.word	0x20202020
   854c8:	5f2f2020 	.word	0x5f2f2020
   854cc:	7e202d20 	.word	0x7e202d20
   854d0:	207c5e20 	.word	0x207c5e20
   854d4:	20202020 	.word	0x20202020
   854d8:	202d2f20 	.word	0x202d2f20
   854dc:	2020205f 	.word	0x2020205f
   854e0:	60202020 	.word	0x60202020
   854e4:	272d2e2e 	.word	0x272d2e2e
   854e8:	0a202020 	.word	0x0a202020
   854ec:	20202020 	.word	0x20202020
   854f0:	20202020 	.word	0x20202020
   854f4:	20202020 	.word	0x20202020
   854f8:	20202020 	.word	0x20202020
   854fc:	20202020 	.word	0x20202020
   85500:	20207c20 	.word	0x20207c20
   85504:	2f202020 	.word	0x2f202020
   85508:	20202020 	.word	0x20202020
   8550c:	20202020 	.word	0x20202020
   85510:	2020207c 	.word	0x2020207c
   85514:	202f2020 	.word	0x202f2020
   85518:	20202020 	.word	0x20202020
   8551c:	202e2d7e 	.word	0x202e2d7e
   85520:	20202020 	.word	0x20202020
   85524:	202e2d60 	.word	0x202e2d60
   85528:	5f20205f 	.word	0x5f20205f
   8552c:	0a5f2020 	.word	0x0a5f2020
   85530:	20202020 	.word	0x20202020
   85534:	20202020 	.word	0x20202020
   85538:	20202020 	.word	0x20202020
   8553c:	20202020 	.word	0x20202020
   85540:	20202020 	.word	0x20202020
   85544:	5f5f7c20 	.word	0x5f5f7c20
   85548:	7c5f5f5f 	.word	0x7c5f5f5f
   8554c:	20202020 	.word	0x20202020
   85550:	20202020 	.word	0x20202020
   85554:	5f5f5f7c 	.word	0x5f5f5f7c
   85558:	207c5f5f 	.word	0x207c5f5f
   8555c:	20202020 	.word	0x20202020
   85560:	20202020 	.word	0x20202020
   85564:	202d207e 	.word	0x202d207e
   85568:	205f202e 	.word	0x205f202e
   8556c:	205f205f 	.word	0x205f205f
   85570:	3e5f205f 	.word	0x3e5f205f
   85574:	0000000a 	.word	0x0000000a
   85578:	00000023 	.word	0x00000023
   8557c:	00000000 	.word	0x00000000
   85580:	6c6c6568 	.word	0x6c6c6568
   85584:	0000006f 	.word	0x0000006f
   85588:	706c6568 	.word	0x706c6568
   8558c:	00000000 	.word	0x00000000
   85590:	6f626572 	.word	0x6f626572
   85594:	0000746f 	.word	0x0000746f
   85598:	0000736c 	.word	0x0000736c
   8559c:	00000000 	.word	0x00000000
   855a0:	3362616c 	.word	0x3362616c
   855a4:	00000000 	.word	0x00000000
   855a8:	64616f6c 	.word	0x64616f6c
   855ac:	00000000 	.word	0x00000000
   855b0:	656d6974 	.word	0x656d6974
   855b4:	00000072 	.word	0x00000072
   855b8:	3562616c 	.word	0x3562616c
   855bc:	0000312d 	.word	0x0000312d
   855c0:	3562616c 	.word	0x3562616c
   855c4:	0000322d 	.word	0x0000322d
   855c8:	3662616c 	.word	0x3662616c
   855cc:	0000312d 	.word	0x0000312d
   855d0:	3662616c 	.word	0x3662616c
   855d4:	0000322d 	.word	0x0000322d
   855d8:	6f727245 	.word	0x6f727245
   855dc:	00203a72 	.word	0x00203a72
   855e0:	6d6f6320 	.word	0x6d6f6320
   855e4:	646e616d 	.word	0x646e616d
   855e8:	746f6e20 	.word	0x746f6e20
   855ec:	756f6620 	.word	0x756f6620
   855f0:	2021646e 	.word	0x2021646e
   855f4:	20797254 	.word	0x20797254
   855f8:	6c65683c 	.word	0x6c65683c
   855fc:	74203e70 	.word	0x74203e70
   85600:	6863206f 	.word	0x6863206f
   85604:	206b6365 	.word	0x206b6365
   85608:	206c6c61 	.word	0x206c6c61
   8560c:	69617661 	.word	0x69617661
   85610:	6c62616c 	.word	0x6c62616c
   85614:	6f632065 	.word	0x6f632065
   85618:	6e616d6d 	.word	0x6e616d6d
   8561c:	000a7364 	.word	0x000a7364

0000000000085620 <sys_call_table>:
   85620:	00083f38 	.word	0x00083f38
   85624:	00000000 	.word	0x00000000
   85628:	00083f38 	.word	0x00083f38
   8562c:	00000000 	.word	0x00000000
   85630:	00083f64 	.word	0x00083f64
   85634:	00000000 	.word	0x00000000
   85638:	00083f90 	.word	0x00083f90
   8563c:	00000000 	.word	0x00000000
   85640:	00083fb4 	.word	0x00083fb4
   85644:	00000000 	.word	0x00000000
   85648:	00083fdc 	.word	0x00083fdc
   8564c:	00000000 	.word	0x00000000
   85650:	00083ff4 	.word	0x00083ff4
   85654:	00000000 	.word	0x00000000
   85658:	00084024 	.word	0x00084024
   8565c:	00000000 	.word	0x00000000
   85660:	000840bc 	.word	0x000840bc
   85664:	00000000 	.word	0x00000000
   85668:	00084120 	.word	0x00084120
   8566c:	00000000 	.word	0x00000000
   85670:	00084188 	.word	0x00084188
   85674:	00000000 	.word	0x00000000
   85678:	0000000a 	.word	0x0000000a
   8567c:	00000000 	.word	0x00000000
   85680:	002d2d7c 	.word	0x002d2d7c
   85684:	00000000 	.word	0x00000000
   85688:	6973202c 	.word	0x6973202c
   8568c:	3d20657a 	.word	0x3d20657a
   85690:	00000020 	.word	0x00000020
   85694:	00000000 	.word	0x00000000
   85698:	74796220 	.word	0x74796220
   8569c:	202c7365 	.word	0x202c7365
	...
   856a8:	70797420 	.word	0x70797420
   856ac:	00000a65 	.word	0x00000a65
   856b0:	66706d74 	.word	0x66706d74
   856b4:	72635f73 	.word	0x72635f73
   856b8:	65746165 	.word	0x65746165
   856bc:	203a2928 	.word	0x203a2928
   856c0:	796c6e6f 	.word	0x796c6e6f
   856c4:	63636120 	.word	0x63636120
   856c8:	20747065 	.word	0x20747065
   856cc:	5f524944 	.word	0x5f524944
   856d0:	45505954 	.word	0x45505954
   856d4:	00000a21 	.word	0x00000a21
   856d8:	66706d74 	.word	0x66706d74
   856dc:	72635f73 	.word	0x72635f73
   856e0:	65746165 	.word	0x65746165
   856e4:	203a2928 	.word	0x203a2928
   856e8:	5f726964 	.word	0x5f726964
   856ec:	61706163 	.word	0x61706163
   856f0:	79746963 	.word	0x79746963
   856f4:	20736920 	.word	0x20736920
   856f8:	20746f6e 	.word	0x20746f6e
   856fc:	756f6e65 	.word	0x756f6e65
   85700:	0a216867 	.word	0x0a216867
   85704:	00000000 	.word	0x00000000
   85708:	66706d74 	.word	0x66706d74
   8570c:	6f6c5f73 	.word	0x6f6c5f73
   85710:	70756b6f 	.word	0x70756b6f
   85714:	203a2928 	.word	0x203a2928
   85718:	796c6e6f 	.word	0x796c6e6f
   8571c:	63636120 	.word	0x63636120
   85720:	20747065 	.word	0x20747065
   85724:	5f524944 	.word	0x5f524944
   85728:	45505954 	.word	0x45505954
   8572c:	00000a21 	.word	0x00000a21
   85730:	49415254 	.word	0x49415254
   85734:	2152454c 	.word	0x2152454c
   85738:	00002121 	.word	0x00002121
   8573c:	00000000 	.word	0x00000000
   85740:	66706d74 	.word	0x66706d74
   85744:	6e695f73 	.word	0x6e695f73
   85748:	29287469 	.word	0x29287469
   8574c:	6e75203a 	.word	0x6e75203a
   85750:	776f6e6b 	.word	0x776f6e6b
   85754:	7974206e 	.word	0x7974206e
   85758:	0a216570 	.word	0x0a216570
   8575c:	00000000 	.word	0x00000000
   85760:	66706d74 	.word	0x66706d74
   85764:	6f725f73 	.word	0x6f725f73
   85768:	6e49746f 	.word	0x6e49746f
   8576c:	65207469 	.word	0x65207469
   85770:	726f7272 	.word	0x726f7272
   85774:	Address 0x0000000000085774 is out of bounds.


Disassembly of section .data:

0000000000085778 <curr_index>:
   85778:	ffffffff 	.word	0xffffffff
   8577c:	00000000 	.word	0x00000000

0000000000085780 <cpio_address_base>:
   85780:	08000000 	.word	0x08000000
   85784:	00000000 	.word	0x00000000

Disassembly of section .bss:

0000000000085788 <bss_begin>:
	...

0000000000085790 <read_f>:
	...

0000000000085798 <mnt>:
	...

00000000000857a8 <buckets>:
	...

00000000000858b8 <run_queue>:
	...

0000000000085ab8 <current>:
	...

0000000000085ac0 <thread_count>:
	...

0000000000085ac8 <cRes.2364>:
	...

Disassembly of section .debug_line:

0000000000000000 <.debug_line>:
   0:	0000004d 	.inst	0x0000004d ; undefined
   4:	00250002 	.inst	0x00250002 ; NYI
   8:	01040000 	.inst	0x01040000 ; undefined
   c:	000d0efb 	.inst	0x000d0efb ; undefined
  10:	01010101 	.inst	0x01010101 ; undefined
  14:	01000000 	.inst	0x01000000 ; undefined
  18:	6b010000 	subs	w0, w0, w1
  1c:	656e7265 	fnmls	z5.h, p4/m, z19.h, z14.h
  20:	7300006c 	.inst	0x7300006c ; undefined
  24:	74726174 	.inst	0x74726174 ; undefined
  28:	0100532e 	.inst	0x0100532e ; undefined
  2c:	00000000 	.inst	0x00000000 ; undefined
  30:	00000209 	.inst	0x00000209 ; undefined
  34:	00000008 	.inst	0x00000008 ; undefined
  38:	21170000 	.inst	0x21170000 ; undefined
  3c:	23212421 	.inst	0x23212421 ; undefined
  40:	21212121 	.inst	0x21212121 ; undefined
  44:	21212321 	.inst	0x21212321 ; undefined
  48:	21212123 	.inst	0x21212123 ; undefined
  4c:	01000702 	.inst	0x01000702 ; undefined
  50:	00007d01 	.inst	0x00007d01 ; undefined
  54:	34000200 	cbz	w0, 94 <_start-0x7ff6c>
  58:	04000000 	add	z0.b, p0/m, z0.b, z0.b
  5c:	0d0efb01 	.inst	0x0d0efb01 ; undefined
  60:	01010100 	.inst	0x01010100 ; undefined
  64:	00000001 	.inst	0x00000001 ; undefined
  68:	01000001 	.inst	0x01000001 ; undefined
  6c:	6e72656b 	umax	v11.8h, v11.8h, v18.8h
  70:	69006c65 	.inst	0x69006c65 ; undefined
  74:	756c636e 	.inst	0x756c636e ; undefined
  78:	00006564 	.inst	0x00006564 ; undefined
  7c:	2e736676 	umax	v22.4h, v19.4h, v19.4h
  80:	00010063 	.inst	0x00010063 ; undefined
  84:	73667600 	.inst	0x73667600 ; undefined
  88:	0200682e 	.inst	0x0200682e ; undefined
  8c:	00000000 	.inst	0x00000000 ; undefined
  90:	00600209 	.inst	0x00600209 ; undefined
  94:	00000008 	.inst	0x00000008 ; undefined
  98:	09030000 	.inst	0x09030000 ; undefined
  9c:	3d3d3e01 	str	b1, [x16, #3919]
  a0:	4b4b4b4b 	sub	w11, w26, w11, lsr #18
  a4:	59913d3d 	.inst	0x59913d3d ; undefined
  a8:	4e302159 	ssubl2	v25.8h, v10.16b, v16.16b
  ac:	40683e4b 	.inst	0x40683e4b ; undefined
  b0:	83233d4b 	.inst	0x83233d4b ; undefined
  b4:	03207703 	.inst	0x03207703 ; undefined
  b8:	3d3d200e 	str	b14, [x0, #3912]
  bc:	6767592f 	.inst	0x6767592f ; undefined
  c0:	3e2f213d 	.inst	0x3e2f213d ; undefined
  c4:	2f213d4b 	.inst	0x2f213d4b ; undefined
  c8:	592f7559 	.inst	0x592f7559 ; undefined
  cc:	00020275 	.inst	0x00020275 ; undefined
  d0:	012b0101 	.inst	0x012b0101 ; undefined
  d4:	00020000 	.inst	0x00020000 ; undefined
  d8:	00000024 	.inst	0x00000024 ; undefined
  dc:	0efb0104 	.inst	0x0efb0104 ; undefined
  e0:	0101000d 	.inst	0x0101000d ; undefined
  e4:	00000101 	.inst	0x00000101 ; undefined
  e8:	00000100 	.inst	0x00000100 ; undefined
  ec:	72656b01 	.inst	0x72656b01 ; undefined
  f0:	006c656e 	.inst	0x006c656e ; undefined
  f4:	72617500 	.inst	0x72617500 ; undefined
  f8:	00632e74 	.inst	0x00632e74 ; undefined
  fc:	00000001 	.inst	0x00000001 ; undefined
 100:	ec020900 	.inst	0xec020900 ; undefined
 104:	00000802 	.inst	0x00000802 ; undefined
 108:	03000000 	.inst	0x03000000 ; undefined
 10c:	7524012e 	.inst	0x7524012e ; undefined
 110:	3d3d4b3d 	str	b29, [x25, #3922]
 114:	213d4c4b 	.inst	0x213d4c4b ; undefined
 118:	003d3d3d 	.inst	0x003d3d3d ; NYI
 11c:	06030402 	.inst	0x06030402 ; undefined
 120:	0402002e 	.inst	0x0402002e ; undefined
 124:	4b062001 	sub	w1, w0, w6, lsl #8
 128:	0402004b 	.inst	0x0402004b ; undefined
 12c:	002e0603 	.inst	0x002e0603 ; NYI
 130:	20010402 	.inst	0x20010402 ; undefined
 134:	4d3d4b06 	.inst	0x4d3d4b06 ; undefined
 138:	41694921 	.inst	0x41694921 ; undefined
 13c:	01040200 	.inst	0x01040200 ; undefined
 140:	414b7630 	.inst	0x414b7630 ; undefined
 144:	01040200 	.inst	0x01040200 ; undefined
 148:	004c7623 	.inst	0x004c7623 ; undefined
 14c:	06010402 	.inst	0x06010402 ; undefined
 150:	0402003c 	.inst	0x0402003c ; undefined
 154:	02002e02 	.inst	0x02002e02 ; undefined
 158:	21060404 	.inst	0x21060404 ; undefined
 15c:	4b223d33 	.inst	0x4b223d33 ; undefined
 160:	3e50542f 	.inst	0x3e50542f ; undefined
 164:	2f21224b 	.inst	0x2f21224b ; undefined
 168:	01040200 	.inst	0x01040200 ; undefined
 16c:	2f063c06 	.inst	0x2f063c06 ; undefined
 170:	034d593d 	.inst	0x034d593d ; undefined
 174:	0b034a78 	add	w24, w19, w3, lsl #18
 178:	213d3e3c 	.inst	0x213d3e3c ; undefined
 17c:	3f3e2f3d 	.inst	0x3f3e2f3d ; undefined
 180:	00593d21 	.inst	0x00593d21 ; undefined
 184:	06010402 	.inst	0x06010402 ; undefined
 188:	002f063c 	.inst	0x002f063c ; NYI
 18c:	06010402 	.inst	0x06010402 ; undefined
 190:	0402003c 	.inst	0x0402003c ; undefined
 194:	02002e02 	.inst	0x02002e02 ; undefined
 198:	00200404 	.inst	0x00200404 ; NYI
 19c:	06040402 	.inst	0x06040402 ; undefined
 1a0:	0402003d 	.inst	0x0402003d ; undefined
 1a4:	003c0601 	.inst	0x003c0601 ; NYI
 1a8:	06020402 	.inst	0x06020402 ; undefined
 1ac:	0402002a 	.inst	0x0402002a ; undefined
 1b0:	063c0601 	.inst	0x063c0601 ; undefined
 1b4:	21673f42 	.inst	0x21673f42 ; undefined
 1b8:	67313d4b 	.inst	0x67313d4b ; undefined
 1bc:	01040200 	.inst	0x01040200 ; undefined
 1c0:	5a063c06 	.inst	0x5a063c06 ; undefined
 1c4:	75034b67 	.inst	0x75034b67 ; undefined
 1c8:	3c0d032e 	stur	b14, [x25, #208]
 1cc:	233d3e21 	.inst	0x233d3e21 ; undefined
 1d0:	0402002f 	.inst	0x0402002f ; undefined
 1d4:	063c0601 	.inst	0x063c0601 ; undefined
 1d8:	02003d2f 	.inst	0x02003d2f ; undefined
 1dc:	3c060104 	stur	b4, [x8, #96]
 1e0:	00753d06 	.inst	0x00753d06 ; undefined
 1e4:	06010402 	.inst	0x06010402 ; undefined
 1e8:	753d063c 	.inst	0x753d063c ; undefined
 1ec:	01040200 	.inst	0x01040200 ; undefined
 1f0:	3d063c06 	str	b6, [x0, #399]
 1f4:	20780368 	.inst	0x20780368 ; undefined
 1f8:	21200903 	.inst	0x21200903 ; undefined
 1fc:	01000202 	.inst	0x01000202 ; undefined
 200:	0001ce01 	.inst	0x0001ce01 ; undefined
 204:	40000200 	.inst	0x40000200 ; undefined
 208:	04000000 	add	z0.b, p0/m, z0.b, z0.b
 20c:	0d0efb01 	.inst	0x0d0efb01 ; undefined
 210:	01010100 	.inst	0x01010100 ; undefined
 214:	00000001 	.inst	0x00000001 ; undefined
 218:	01000001 	.inst	0x01000001 ; undefined
 21c:	6e72656b 	umax	v11.8h, v11.8h, v18.8h
 220:	69006c65 	.inst	0x69006c65 ; undefined
 224:	756c636e 	.inst	0x756c636e ; undefined
 228:	00006564 	.inst	0x00006564 ; undefined
 22c:	6f6c6c61 	.inst	0x6f6c6c61 ; undefined
 230:	6f746163 	umlsl2	v3.4s, v11.8h, v4.h[3]
 234:	00632e72 	.inst	0x00632e72 ; undefined
 238:	61000001 	.inst	0x61000001 ; undefined
 23c:	636f6c6c 	.inst	0x636f6c6c ; undefined
 240:	726f7461 	.inst	0x726f7461 ; undefined
 244:	0200682e 	.inst	0x0200682e ; undefined
 248:	00000000 	.inst	0x00000000 ; undefined
 24c:	081c0209 	stxrb	w28, w9, [x16]
 250:	00000008 	.inst	0x00000008 ; undefined
 254:	3d1a0000 	str	b0, [x0, #1664]
 258:	3d3f2f3d 	str	b29, [x25, #4043]
 25c:	4d3b212f 	.inst	0x4d3b212f ; undefined
 260:	2f3d423d 	.inst	0x2f3d423d ; undefined
 264:	4b5c3b21 	sub	w1, w25, w28, lsr #14
 268:	2f3d422f 	.inst	0x2f3d422f ; undefined
 26c:	02003b21 	.inst	0x02003b21 ; undefined
 270:	66060104 	.inst	0x66060104 ; undefined
 274:	3d594006 	ldr	b6, [x0, #1616]
 278:	002f2f3e 	.inst	0x002f2f3e ; NYI
 27c:	06010402 	.inst	0x06010402 ; undefined
 280:	3d3d063c 	str	b28, [x17, #3905]
 284:	3d673d2f 	ldr	b15, [x9, #2511]
 288:	393d3d21 	strb	w1, [x9, #3919]
 28c:	02040200 	.inst	0x02040200 ; undefined
 290:	04020041 	.inst	0x04020041 ; undefined
 294:	3c740302 	.inst	0x3c740302 ; undefined
 298:	01040200 	.inst	0x01040200 ; undefined
 29c:	03063c06 	.inst	0x03063c06 ; undefined
 2a0:	003d3c0f 	.inst	0x003d3c0f ; NYI
 2a4:	06010402 	.inst	0x06010402 ; undefined
 2a8:	3d3d063c 	str	b28, [x17, #3905]
 2ac:	3d673d3d 	ldr	b29, [x9, #2511]
 2b0:	393d4b21 	strb	w1, [x25, #3922]
 2b4:	02040200 	.inst	0x02040200 ; undefined
 2b8:	04020041 	.inst	0x04020041 ; undefined
 2bc:	3c740302 	.inst	0x3c740302 ; undefined
 2c0:	01040200 	.inst	0x01040200 ; undefined
 2c4:	03063c06 	.inst	0x03063c06 ; undefined
 2c8:	3e3d3c0e 	.inst	0x3e3d3c0e ; undefined
 2cc:	0402002f 	.inst	0x0402002f ; undefined
 2d0:	02002f03 	.inst	0x02002f03 ; undefined
 2d4:	00670304 	.inst	0x00670304 ; undefined
 2d8:	2f030402 	mvni	v2.2s, #0x60
 2dc:	03040200 	.inst	0x03040200 ; undefined
 2e0:	04020039 	.inst	0x04020039 ; undefined
 2e4:	063c0601 	.inst	0x063c0601 ; undefined
 2e8:	4b3d2f41 	sub	w1, w26, w29, uxth #3
 2ec:	755a3e3e 	.inst	0x755a3e3e ; undefined
 2f0:	3f9f213d 	.inst	0x3f9f213d ; undefined
 2f4:	03773d67 	.inst	0x03773d67 ; undefined
 2f8:	24032e76 	cmpne	p6.b, p3/z, z19.b, z3.d
 2fc:	3d5a3f4a 	ldr	b10, [x26, #1679]
 300:	19033e67 	.inst	0x19033e67 ; undefined
 304:	02003d3c 	.inst	0x02003d3c ; undefined
 308:	4a060104 	eor	w4, w8, w6
 30c:	02004b06 	.inst	0x02004b06 ; undefined
 310:	61030204 	.inst	0x61030204 ; undefined
 314:	0402002e 	.inst	0x0402002e ; undefined
 318:	063c0601 	.inst	0x063c0601 ; undefined
 31c:	213c2203 	.inst	0x213c2203 ; undefined
 320:	913d3d31 	add	x17, x9, #0xf4f
 324:	900e033d 	adrp	x29, 1c064000 <__stack_top+0x1bfc4000>
 328:	3d212f21 	str	b1, [x25, #2123]
 32c:	02004e3a 	.inst	0x02004e3a ; undefined
 330:	66060104 	.inst	0x66060104 ; undefined
 334:	02040200 	.inst	0x02040200 ; undefined
 338:	0402002e 	.inst	0x0402002e ; undefined
 33c:	02002004 	.inst	0x02002004 ; undefined
 340:	3e060404 	.inst	0x3e060404 ; undefined
 344:	034b683d 	.inst	0x034b683d ; undefined
 348:	0200660a 	.inst	0x0200660a ; undefined
 34c:	72030204 	ands	w4, w16, #0x20000000
 350:	0402002e 	.inst	0x0402002e ; undefined
 354:	063c0601 	.inst	0x063c0601 ; undefined
 358:	3d3c1203 	str	b3, [x16, #3844]
 35c:	214b3021 	.inst	0x214b3021 ; undefined
 360:	6767213d 	.inst	0x6767213d ; undefined
 364:	2f59213f 	umlal	v31.4s, v9.4h, v9.h[1]
 368:	02003e2f 	.inst	0x02003e2f ; undefined
 36c:	4a060104 	eor	w4, w8, w6
 370:	83673f06 	.inst	0x83673f06 ; undefined
 374:	1e033d67 	.inst	0x1e033d67 ; undefined
 378:	3c55033c 	ldur	b28, [x25, #-176]
 37c:	003c2e03 	.inst	0x003c2e03 ; NYI
 380:	03020402 	.inst	0x03020402 ; undefined
 384:	02003c4b 	.inst	0x02003c4b ; undefined
 388:	3c060104 	stur	b4, [x8, #96]
 38c:	4a350306 	eon	w6, w24, w21
 390:	04020022 	.inst	0x04020022 ; undefined
 394:	063c0601 	.inst	0x063c0601 ; undefined
 398:	4c30212f 	.inst	0x4c30212f ; undefined
 39c:	21913d59 	.inst	0x21913d59 ; undefined
 3a0:	3a3d212f 	.inst	0x3a3d212f ; undefined
 3a4:	0402004e 	.inst	0x0402004e ; undefined
 3a8:	00660601 	.inst	0x00660601 ; undefined
 3ac:	2e020402 	.inst	0x2e020402 ; undefined
 3b0:	04040200 	.inst	0x04040200 ; undefined
 3b4:	04020020 	.inst	0x04020020 ; undefined
 3b8:	12030604 	and	w4, w16, #0x60000000
 3bc:	0402003c 	.inst	0x0402003c ; undefined
 3c0:	02002f04 	.inst	0x02002f04 ; undefined
 3c4:	3d5a0404 	ldr	b4, [x0, #1665]
 3c8:	033d2f67 	.inst	0x033d2f67 ; undefined
 3cc:	03023c19 	.inst	0x03023c19 ; undefined
 3d0:	61010100 	.inst	0x61010100 ; undefined
 3d4:	02000000 	.inst	0x02000000 ; undefined
 3d8:	00002900 	.inst	0x00002900 ; undefined
 3dc:	fb010400 	.inst	0xfb010400 ; undefined
 3e0:	01000d0e 	.inst	0x01000d0e ; undefined
 3e4:	00010101 	.inst	0x00010101 ; undefined
 3e8:	00010000 	.inst	0x00010000 ; undefined
 3ec:	656b0100 	fmla	z0.h, p0/m, z8.h, z11.h
 3f0:	6c656e72 	ldnp	d18, d27, [x19, #-432]
 3f4:	78650000 	ldaddlh	w5, w0, [x0]
 3f8:	74706563 	.inst	0x74706563 ; undefined
 3fc:	2e6e6f69 	umin	v9.4h, v27.4h, v14.4h
 400:	00010063 	.inst	0x00010063 ; undefined
 404:	09000000 	.inst	0x09000000 ; undefined
 408:	08111402 	stxrb	w17, w2, [x0]
 40c:	00000000 	.inst	0x00000000 ; undefined
 410:	2f301500 	usra	v0.2s, v8.2s, #16
 414:	3d3d302f 	str	b15, [x1, #3916]
 418:	2f3d3d2f 	.inst	0x2f3d3d2f ; undefined
 41c:	3d2f3d3d 	str	b29, [x9, #3023]
 420:	01040200 	.inst	0x01040200 ; undefined
 424:	212f233d 	.inst	0x212f233d ; undefined
 428:	2f232121 	.inst	0x2f232121 ; undefined
 42c:	3d3d4b2f 	str	b15, [x25, #3922]
 430:	023e3d2f 	.inst	0x023e3d2f ; undefined
 434:	01010003 	.inst	0x01010003 ; undefined
 438:	00000041 	.inst	0x00000041 ; undefined
 43c:	00220002 	.inst	0x00220002 ; NYI
 440:	01040000 	.inst	0x01040000 ; undefined
 444:	000d0efb 	.inst	0x000d0efb ; undefined
 448:	01010101 	.inst	0x01010101 ; undefined
 44c:	01000000 	.inst	0x01000000 ; undefined
 450:	6b010000 	subs	w0, w0, w1
 454:	656e7265 	fnmls	z5.h, p4/m, z19.h, z14.h
 458:	6d00006c 	stp	d12, d0, [x3]
 45c:	00532e6d 	.inst	0x00532e6d ; undefined
 460:	00000001 	.inst	0x00000001 ; undefined
 464:	2c020900 	stnp	s0, s2, [x8, #16]
 468:	00000812 	.inst	0x00000812 ; undefined
 46c:	14000000 	b	46c <_start-0x7fb94>
 470:	21212121 	.inst	0x21212121 ; undefined
 474:	21212124 	.inst	0x21212124 ; undefined
 478:	01000102 	.inst	0x01000102 ; undefined
 47c:	0001d501 	.inst	0x0001d501 ; undefined
 480:	49000200 	.inst	0x49000200 ; undefined
 484:	04000000 	add	z0.b, p0/m, z0.b, z0.b
 488:	0d0efb01 	.inst	0x0d0efb01 ; undefined
 48c:	01010100 	.inst	0x01010100 ; undefined
 490:	00000001 	.inst	0x00000001 ; undefined
 494:	01000001 	.inst	0x01000001 ; undefined
 498:	6e72656b 	umax	v11.8h, v11.8h, v18.8h
 49c:	69006c65 	.inst	0x69006c65 ; undefined
 4a0:	756c636e 	.inst	0x756c636e ; undefined
 4a4:	00006564 	.inst	0x00006564 ; undefined
 4a8:	65686373 	fnmls	z19.h, p0/m, z27.h, z8.h
 4ac:	656c7564 	fnmls	z4.h, p5/m, z11.h, z12.h
 4b0:	00632e72 	.inst	0x00632e72 ; undefined
 4b4:	76000001 	.inst	0x76000001 ; undefined
 4b8:	682e7366 	.inst	0x682e7366 ; undefined
 4bc:	00000200 	.inst	0x00000200 ; undefined
 4c0:	65686373 	fnmls	z19.h, p0/m, z27.h, z8.h
 4c4:	656c7564 	fnmls	z4.h, p5/m, z11.h, z12.h
 4c8:	00682e72 	.inst	0x00682e72 ; undefined
 4cc:	00000002 	.inst	0x00000002 ; undefined
 4d0:	50020900 	adr	x0, 45f2 <_start-0x7ba0e>
 4d4:	00000812 	.inst	0x00000812 ; undefined
 4d8:	03000000 	.inst	0x03000000 ; undefined
 4dc:	00130112 	.inst	0x00130112 ; undefined
 4e0:	06010402 	.inst	0x06010402 ; undefined
 4e4:	30670658 	adr	x24, ce5ad <__stack_top+0x2e5ad>
 4e8:	04020013 	.inst	0x04020013 ; undefined
 4ec:	06580601 	.inst	0x06580601 ; undefined
 4f0:	02003067 	.inst	0x02003067 ; undefined
 4f4:	672f0104 	.inst	0x672f0104 ; undefined
 4f8:	4b4b3e3e 	sub	w30, w17, w11, lsr #15
 4fc:	3d2f3e3d 	str	b29, [x17, #3023]
 500:	24673121 	cmplo	p1.h, p4/z, z9.h, #28
 504:	0402003d 	.inst	0x0402003d ; undefined
 508:	063c0601 	.inst	0x063c0601 ; undefined
 50c:	4b3d4b30 	sub	w16, w25, w29, uxtw #2
 510:	02003d4b 	.inst	0x02003d4b ; undefined
 514:	002f0304 	.inst	0x002f0304 ; NYI
 518:	49030402 	.inst	0x49030402 ; undefined
 51c:	01040200 	.inst	0x01040200 ; undefined
 520:	50063c06 	adr	x6, cca2 <_start-0x7335e>
 524:	02004b2f 	.inst	0x02004b2f ; undefined
 528:	002f0304 	.inst	0x002f0304 ; NYI
 52c:	81030402 	.inst	0x81030402 ; undefined
 530:	01040200 	.inst	0x01040200 ; undefined
 534:	3f063c06 	.inst	0x3f063c06 ; undefined
 538:	03040200 	.inst	0x03040200 ; undefined
 53c:	0402002f 	.inst	0x0402002f ; undefined
 540:	02009d03 	.inst	0x02009d03 ; undefined
 544:	3c060104 	stur	b4, [x8, #96]
 548:	2f674006 	mls	v6.4h, v0.4h, v7.h[2]
 54c:	59596767 	.inst	0x59596767 ; undefined
 550:	3d595a59 	ldr	b25, [x18, #1622]
 554:	03040200 	.inst	0x03040200 ; undefined
 558:	0402002f 	.inst	0x0402002f ; undefined
 55c:	02008103 	.inst	0x02008103 ; undefined
 560:	3c060104 	stur	b4, [x8, #96]
 564:	3d9f4106 	str	q6, [x8, #32000]
 568:	23754c3d 	.inst	0x23754c3d ; undefined
 56c:	222f312f 	.inst	0x222f312f ; undefined
 570:	02002121 	.inst	0x02002121 ; undefined
 574:	58060104 	ldr	x4, c594 <_start-0x73a6c>
 578:	4e596706 	.inst	0x4e596706 ; undefined
 57c:	0059ad2f 	.inst	0x0059ad2f ; undefined
 580:	06010402 	.inst	0x06010402 ; undefined
 584:	0402003c 	.inst	0x0402003c ; undefined
 588:	4b064a02 	sub	w2, w16, w6, lsl #18
 58c:	0402002f 	.inst	0x0402002f ; undefined
 590:	02001b02 	.inst	0x02001b02 ; undefined
 594:	3c060104 	stur	b4, [x8, #96]
 598:	66090306 	.inst	0x66090306 ; undefined
 59c:	0402003d 	.inst	0x0402003d ; undefined
 5a0:	02002f03 	.inst	0x02002f03 ; undefined
 5a4:	00590304 	.inst	0x00590304 ; undefined
 5a8:	80030402 	.inst	0x80030402 ; undefined
 5ac:	01040200 	.inst	0x01040200 ; undefined
 5b0:	6a063c06 	ands	w6, w0, w6, lsl #15
 5b4:	594b5923 	.inst	0x594b5923 ; undefined
 5b8:	212f3e21 	.inst	0x212f3e21 ; undefined
 5bc:	67672f3e 	.inst	0x67672f3e ; undefined
 5c0:	242b3d4b 	cmplo	p11.b, p7/z, z10.b, #44
 5c4:	59212f30 	.inst	0x59212f30 ; undefined
 5c8:	213d593d 	.inst	0x213d593d ; undefined
 5cc:	2f2f3f21 	.inst	0x2f2f3f21 ; undefined
 5d0:	4b3d4b59 	sub	w25, w26, w29, uxtw #2
 5d4:	04020059 	.inst	0x04020059 ; undefined
 5d8:	063c0601 	.inst	0x063c0601 ; undefined
 5dc:	0200594b 	.inst	0x0200594b ; undefined
 5e0:	00460204 	.inst	0x00460204 ; undefined
 5e4:	06010402 	.inst	0x06010402 ; undefined
 5e8:	0402003c 	.inst	0x0402003c ; undefined
 5ec:	00380602 	.inst	0x00380602 ; NYI
 5f0:	06010402 	.inst	0x06010402 ; undefined
 5f4:	0d03063c 	.inst	0x0d03063c ; undefined
 5f8:	00592f66 	.inst	0x00592f66 ; undefined
 5fc:	06010402 	.inst	0x06010402 ; undefined
 600:	0402003c 	.inst	0x0402003c ; undefined
 604:	02004a02 	.inst	0x02004a02 ; undefined
 608:	48060204 	stxrh	w6, w4, [x16]
 60c:	01040200 	.inst	0x01040200 ; undefined
 610:	40063c06 	.inst	0x40063c06 ; undefined
 614:	2f21313e 	.inst	0x2f21313e ; undefined
 618:	04020059 	.inst	0x04020059 ; undefined
 61c:	063c0601 	.inst	0x063c0601 ; undefined
 620:	00672f4b 	.inst	0x00672f4b ; undefined
 624:	56020402 	.inst	0x56020402 ; undefined
 628:	01040200 	.inst	0x01040200 ; undefined
 62c:	41063c06 	.inst	0x41063c06 ; undefined
 630:	0402003d 	.inst	0x0402003d ; undefined
 634:	74770302 	.inst	0x74770302 ; undefined
 638:	01040200 	.inst	0x01040200 ; undefined
 63c:	03063c06 	.inst	0x03063c06 ; undefined
 640:	21213c0c 	.inst	0x21213c0c ; undefined
 644:	3d3d4b3d 	str	b29, [x25, #3922]
 648:	4b4b2321 	sub	w1, w25, w11, lsr #8
 64c:	23213d3d 	.inst	0x23213d3d ; undefined
 650:	00020241 	.inst	0x00020241 ; undefined
 654:	00e40101 	.inst	0x00e40101 ; undefined
 658:	00020000 	.inst	0x00020000 ; undefined
 65c:	00000049 	.inst	0x00000049 ; undefined
 660:	0efb0104 	.inst	0x0efb0104 ; undefined
 664:	0101000d 	.inst	0x0101000d ; undefined
 668:	00000101 	.inst	0x00000101 ; undefined
 66c:	00000100 	.inst	0x00000100 ; undefined
 670:	72656b01 	.inst	0x72656b01 ; undefined
 674:	006c656e 	.inst	0x006c656e ; undefined
 678:	6c636e69 	ldnp	d9, d27, [x19, #-464]
 67c:	00656475 	.inst	0x00656475 ; undefined
 680:	6d656400 	ldp	d0, d25, [x0, #-432]
 684:	75665f6f 	.inst	0x75665f6f ; undefined
 688:	632e636e 	.inst	0x632e636e ; undefined
 68c:	00000100 	.inst	0x00000100 ; undefined
 690:	2e736676 	umax	v22.4h, v19.4h, v19.4h
 694:	00020068 	.inst	0x00020068 ; undefined
 698:	68637300 	.inst	0x68637300 ; undefined
 69c:	6c756465 	ldnp	d5, d25, [x3, #-176]
 6a0:	682e7265 	.inst	0x682e7265 ; undefined
 6a4:	00000200 	.inst	0x00000200 ; undefined
 6a8:	02090000 	.inst	0x02090000 ; undefined
 6ac:	00081b74 	.inst	0x00081b74 ; undefined
 6b0:	00000000 	.inst	0x00000000 ; undefined
 6b4:	3d3d2f1a 	str	b26, [x24, #3915]
 6b8:	3d3d3e3d 	str	b29, [x17, #3919]
 6bc:	2f3f3d3d 	.inst	0x2f3f3d3d ; undefined
 6c0:	03040200 	.inst	0x03040200 ; undefined
 6c4:	0402002f 	.inst	0x0402002f ; undefined
 6c8:	02003d03 	.inst	0x02003d03 ; undefined
 6cc:	00590304 	.inst	0x00590304 ; undefined
 6d0:	3d030402 	str	b2, [x0, #193]
 6d4:	03040200 	.inst	0x03040200 ; undefined
 6d8:	0402002f 	.inst	0x0402002f ; undefined
 6dc:	02003d03 	.inst	0x02003d03 ; undefined
 6e0:	003d0304 	.inst	0x003d0304 ; NYI
 6e4:	03030402 	.inst	0x03030402 ; undefined
 6e8:	02002079 	.inst	0x02002079 ; undefined
 6ec:	3c060104 	stur	b4, [x8, #96]
 6f0:	3c090306 	stur	b6, [x24, #144]
 6f4:	213d3e21 	.inst	0x213d3e21 ; undefined
 6f8:	03040200 	.inst	0x03040200 ; undefined
 6fc:	0402002f 	.inst	0x0402002f ; undefined
 700:	02008103 	.inst	0x02008103 ; undefined
 704:	3c060104 	stur	b4, [x8, #96]
 708:	02004d06 	.inst	0x02004d06 ; undefined
 70c:	31830104 	.inst	0x31830104 ; undefined
 710:	214b592f 	.inst	0x214b592f ; undefined
 714:	02002f3e 	.inst	0x02002f3e ; undefined
 718:	31830104 	.inst	0x31830104 ; undefined
 71c:	8359592f 	.inst	0x8359592f ; undefined
 720:	2f3f833f 	.inst	0x2f3f833f ; undefined
 724:	225a5930 	.inst	0x225a5930 ; undefined
 728:	2f4bae67 	.inst	0x2f4bae67 ; undefined
 72c:	592f3e3d 	.inst	0x592f3e3d ; undefined
 730:	2f3e214b 	.inst	0x2f3e214b ; undefined
 734:	01040200 	.inst	0x01040200 ; undefined
 738:	00020275 	.inst	0x00020275 ; undefined
 73c:	004f0101 	.inst	0x004f0101 ; undefined
 740:	00020000 	.inst	0x00020000 ; undefined
 744:	00000025 	.inst	0x00000025 ; undefined
 748:	0efb0104 	.inst	0x0efb0104 ; undefined
 74c:	0101000d 	.inst	0x0101000d ; undefined
 750:	00000101 	.inst	0x00000101 ; undefined
 754:	00000100 	.inst	0x00000100 ; undefined
 758:	72656b01 	.inst	0x72656b01 ; undefined
 75c:	006c656e 	.inst	0x006c656e ; undefined
 760:	68637300 	.inst	0x68637300 ; undefined
 764:	532e6465 	.inst	0x532e6465 ; undefined
 768:	00000100 	.inst	0x00000100 ; undefined
 76c:	02090000 	.inst	0x02090000 ; undefined
 770:	00081ef8 	.inst	0x00081ef8 ; undefined
 774:	00000000 	.inst	0x00000000 ; undefined
 778:	21212116 	.inst	0x21212116 ; undefined
 77c:	21212121 	.inst	0x21212121 ; undefined
 780:	21212122 	.inst	0x21212122 ; undefined
 784:	21212121 	.inst	0x21212121 ; undefined
 788:	21242121 	.inst	0x21242121 ; undefined
 78c:	01000102 	.inst	0x01000102 ; undefined
 790:	00008801 	.inst	0x00008801 ; undefined
 794:	2c000200 	stnp	s0, s0, [x16]
 798:	04000000 	add	z0.b, p0/m, z0.b, z0.b
 79c:	0d0efb01 	.inst	0x0d0efb01 ; undefined
 7a0:	01010100 	.inst	0x01010100 ; undefined
 7a4:	00000001 	.inst	0x00000001 ; undefined
 7a8:	01000001 	.inst	0x01000001 ; undefined
 7ac:	6e72656b 	umax	v11.8h, v11.8h, v18.8h
 7b0:	00006c65 	.inst	0x00006c65 ; undefined
 7b4:	74706378 	.inst	0x74706378 ; undefined
 7b8:	6e61685f 	fcvtxn2	v31.4s, v2.2d
 7bc:	72656c64 	.inst	0x72656c64 ; undefined
 7c0:	0100532e 	.inst	0x0100532e ; undefined
 7c4:	00000000 	.inst	0x00000000 ; undefined
 7c8:	20000209 	.inst	0x20000209 ; undefined
 7cc:	00000008 	.inst	0x00000008 ; undefined
 7d0:	fc030000 	stur	d0, [x0, #48]
 7d4:	4b080100 	sub	w0, w8, w8
 7d8:	234b0821 	.inst	0x234b0821 ; undefined
 7dc:	08218308 	.inst	0x08218308 ; undefined
 7e0:	83082367 	.inst	0x83082367 ; undefined
 7e4:	28212121 	stnp	w1, w8, [x9, #-248]
 7e8:	23222121 	.inst	0x23222121 ; undefined
 7ec:	21242121 	.inst	0x21242121 ; undefined
 7f0:	e6026708 	.inst	0xe6026708 ; undefined
 7f4:	e6081702 	.inst	0xe6081702 ; undefined
 7f8:	e608e608 	.inst	0xe608e608 ; undefined
 7fc:	e608e708 	.inst	0xe608e708 ; undefined
 800:	e608e608 	.inst	0xe608e608 ; undefined
 804:	e608e708 	.inst	0xe608e708 ; undefined
 808:	e608e608 	.inst	0xe608e608 ; undefined
 80c:	e608e708 	.inst	0xe608e708 ; undefined
 810:	e608e608 	.inst	0xe608e608 ; undefined
 814:	2121e908 	.inst	0x2121e908 ; undefined
 818:	01000102 	.inst	0x01000102 ; undefined
 81c:	00026f01 	.inst	0x00026f01 ; undefined
 820:	36000200 	tbz	w0, #0, 860 <_start-0x7f7a0>
 824:	04000000 	add	z0.b, p0/m, z0.b, z0.b
 828:	0d0efb01 	.inst	0x0d0efb01 ; undefined
 82c:	01010100 	.inst	0x01010100 ; undefined
 830:	00000001 	.inst	0x00000001 ; undefined
 834:	01000001 	.inst	0x01000001 ; undefined
 838:	6e72656b 	umax	v11.8h, v11.8h, v18.8h
 83c:	69006c65 	.inst	0x69006c65 ; undefined
 840:	756c636e 	.inst	0x756c636e ; undefined
 844:	00006564 	.inst	0x00006564 ; undefined
 848:	6f697063 	fcmla	v3.8h, v3.8h, v9.h[1], #270
 84c:	0100632e 	.inst	0x0100632e ; undefined
 850:	70630000 	adr	x0, c6853 <__stack_top+0x26853>
 854:	682e6f69 	.inst	0x682e6f69 ; undefined
 858:	00000200 	.inst	0x00000200 ; undefined
 85c:	02090000 	.inst	0x02090000 ; undefined
 860:	0008300c 	.inst	0x0008300c ; undefined
 864:	00000000 	.inst	0x00000000 ; undefined
 868:	3d012c03 	str	b3, [x0, #75]
 86c:	4c2f3d3d 	.inst	0x4c2f3d3d ; undefined
 870:	673d2121 	.inst	0x673d2121 ; undefined
 874:	0200683d 	.inst	0x0200683d ; undefined
 878:	58060104 	ldr	x4, c898 <_start-0x73768>
 87c:	02040200 	.inst	0x02040200 ; undefined
 880:	04020090 	.inst	0x04020090 ; undefined
 884:	02002004 	.inst	0x02002004 ; undefined
 888:	3d060404 	str	b4, [x0, #385]
 88c:	01040200 	.inst	0x01040200 ; undefined
 890:	02004a06 	.inst	0x02004a06 ; undefined
 894:	00820204 	.inst	0x00820204 ; undefined
 898:	20040402 	.inst	0x20040402 ; undefined
 89c:	04040200 	.inst	0x04040200 ; undefined
 8a0:	02003e06 	.inst	0x02003e06 ; undefined
 8a4:	003e0404 	.inst	0x003e0404 ; NYI
 8a8:	2f040402 	mvni	v2.2s, #0x80
 8ac:	4b233d75 	.inst	0x4b233d75 ; undefined
 8b0:	672f592f 	.inst	0x672f592f ; undefined
 8b4:	02040200 	.inst	0x02040200 ; undefined
 8b8:	04020030 	.inst	0x04020030 ; undefined
 8bc:	02005402 	.inst	0x02005402 ; undefined
 8c0:	3c060104 	stur	b4, [x8, #96]
 8c4:	223d5106 	.inst	0x223d5106 ; undefined
 8c8:	2f3e214b 	.inst	0x2f3e214b ; undefined
 8cc:	3d21214c 	str	b12, [x10, #2120]
 8d0:	00683d67 	.inst	0x00683d67 ; undefined
 8d4:	06010402 	.inst	0x06010402 ; undefined
 8d8:	04020058 	.inst	0x04020058 ; undefined
 8dc:	02009002 	.inst	0x02009002 ; undefined
 8e0:	00200404 	.inst	0x00200404 ; NYI
 8e4:	06040402 	.inst	0x06040402 ; undefined
 8e8:	0402003d 	.inst	0x0402003d ; undefined
 8ec:	004a0601 	.inst	0x004a0601 ; undefined
 8f0:	82020402 	.inst	0x82020402 ; undefined
 8f4:	04040200 	.inst	0x04040200 ; undefined
 8f8:	04020020 	.inst	0x04020020 ; undefined
 8fc:	003e0604 	.inst	0x003e0604 ; NYI
 900:	3e040402 	.inst	0x3e040402 ; undefined
 904:	04040200 	.inst	0x04040200 ; undefined
 908:	3e2f772f 	.inst	0x3e2f772f ; undefined
 90c:	78034b4c 	sttrh	w12, [x26, #52]
 910:	200a0320 	.inst	0x200a0320 ; undefined
 914:	3d303e2f 	str	b15, [x17, #3087]
 918:	3d2f303d 	str	b29, [x1, #3020]
 91c:	3d21214d 	str	b13, [x10, #2120]
 920:	00683d67 	.inst	0x00683d67 ; undefined
 924:	06010402 	.inst	0x06010402 ; undefined
 928:	04020058 	.inst	0x04020058 ; undefined
 92c:	02009002 	.inst	0x02009002 ; undefined
 930:	00200404 	.inst	0x00200404 ; NYI
 934:	06040402 	.inst	0x06040402 ; undefined
 938:	0402003d 	.inst	0x0402003d ; undefined
 93c:	004a0601 	.inst	0x004a0601 ; undefined
 940:	82020402 	.inst	0x82020402 ; undefined
 944:	04040200 	.inst	0x04040200 ; undefined
 948:	04020020 	.inst	0x04020020 ; undefined
 94c:	003e0604 	.inst	0x003e0604 ; NYI
 950:	3e040402 	.inst	0x3e040402 ; undefined
 954:	04040200 	.inst	0x04040200 ; undefined
 958:	233d752f 	.inst	0x233d752f ; undefined
 95c:	00672f4b 	.inst	0x00672f4b ; undefined
 960:	2f030402 	mvni	v2.2s, #0x60
 964:	03040200 	.inst	0x03040200 ; undefined
 968:	04020081 	.inst	0x04020081 ; undefined
 96c:	063c0601 	.inst	0x063c0601 ; undefined
 970:	4b3e3d4d 	.inst	0x4b3e3d4d ; undefined
 974:	2f3d3e21 	.inst	0x2f3d3e21 ; undefined
 978:	21763d21 	.inst	0x21763d21 ; undefined
 97c:	1f3f9c3d 	fnmsub	s29, s1, s31, s7
 980:	44207a03 	.inst	0x44207a03 ; undefined
 984:	28207a03 	stnp	w3, w30, [x16, #-256]
 988:	2f3e4c67 	.inst	0x2f3e4c67 ; undefined
 98c:	3d593d59 	ldr	b25, [x10, #1615]
 990:	3e592f67 	.inst	0x3e592f67 ; undefined
 994:	9f213d3d 	.inst	0x9f213d3d ; undefined
 998:	1f409b3d 	fmsub	d29, d25, d0, d6
 99c:	02040200 	.inst	0x02040200 ; undefined
 9a0:	00207703 	.inst	0x00207703 ; NYI
 9a4:	06010402 	.inst	0x06010402 ; undefined
 9a8:	0d03063c 	.inst	0x0d03063c ; undefined
 9ac:	4b30214a 	sub	w10, w10, w16, uxth
 9b0:	4b3d3d3d 	.inst	0x4b3d3d3d ; undefined
 9b4:	21212321 	.inst	0x21212321 ; undefined
 9b8:	683d673d 	.inst	0x683d673d ; undefined
 9bc:	01040200 	.inst	0x01040200 ; undefined
 9c0:	02005806 	.inst	0x02005806 ; undefined
 9c4:	00900204 	.inst	0x00900204 ; undefined
 9c8:	20040402 	.inst	0x20040402 ; undefined
 9cc:	04040200 	.inst	0x04040200 ; undefined
 9d0:	02003d06 	.inst	0x02003d06 ; undefined
 9d4:	4a060104 	eor	w4, w8, w6
 9d8:	02040200 	.inst	0x02040200 ; undefined
 9dc:	04020082 	.inst	0x04020082 ; undefined
 9e0:	02002004 	.inst	0x02002004 ; undefined
 9e4:	3e060404 	.inst	0x3e060404 ; undefined
 9e8:	04040200 	.inst	0x04040200 ; undefined
 9ec:	0402003e 	.inst	0x0402003e ; undefined
 9f0:	3d752f04 	ldr	b4, [x24, #3403]
 9f4:	592f4b31 	.inst	0x592f4b31 ; undefined
 9f8:	253d2f3d 	.inst	0x253d2f3d ; undefined
 9fc:	02004b2b 	.inst	0x02004b2b ; undefined
 a00:	00230304 	.inst	0x00230304 ; NYI
 a04:	9d030402 	.inst	0x9d030402 ; undefined
 a08:	01040200 	.inst	0x01040200 ; undefined
 a0c:	4d063c06 	.inst	0x4d063c06 ; undefined
 a10:	213d4b3d 	.inst	0x213d4b3d ; undefined
 a14:	223d1330 	.inst	0x223d1330 ; undefined
 a18:	2121213d 	.inst	0x2121213d ; undefined
 a1c:	3d3d673d 	str	b29, [x25, #3929]
 a20:	00683d67 	.inst	0x00683d67 ; undefined
 a24:	06010402 	.inst	0x06010402 ; undefined
 a28:	04020058 	.inst	0x04020058 ; undefined
 a2c:	02009002 	.inst	0x02009002 ; undefined
 a30:	00200404 	.inst	0x00200404 ; NYI
 a34:	06040402 	.inst	0x06040402 ; undefined
 a38:	0402003d 	.inst	0x0402003d ; undefined
 a3c:	004a0601 	.inst	0x004a0601 ; undefined
 a40:	82020402 	.inst	0x82020402 ; undefined
 a44:	04040200 	.inst	0x04040200 ; undefined
 a48:	04020020 	.inst	0x04020020 ; undefined
 a4c:	003e0604 	.inst	0x003e0604 ; NYI
 a50:	3e040402 	.inst	0x3e040402 ; undefined
 a54:	04040200 	.inst	0x04040200 ; undefined
 a58:	04020030 	.inst	0x04020030 ; undefined
 a5c:	02004b04 	.inst	0x02004b04 ; undefined
 a60:	002f0404 	.inst	0x002f0404 ; NYI
 a64:	4c040402 	.inst	0x4c040402 ; undefined
 a68:	04040200 	.inst	0x04040200 ; undefined
 a6c:	0402003d 	.inst	0x0402003d ; undefined
 a70:	02003d04 	.inst	0x02003d04 ; undefined
 a74:	003d0404 	.inst	0x003d0404 ; NYI
 a78:	3d040402 	str	b2, [x0, #257]
 a7c:	04040200 	.inst	0x04040200 ; undefined
 a80:	0402003d 	.inst	0x0402003d ; undefined
 a84:	02003e04 	.inst	0x02003e04 ; undefined
 a88:	02210404 	.inst	0x02210404 ; undefined
 a8c:	01010002 	.inst	0x01010002 ; undefined
 a90:	0000008a 	.inst	0x0000008a ; undefined
 a94:	00350002 	.inst	0x00350002 ; NYI
 a98:	01040000 	.inst	0x01040000 ; undefined
 a9c:	000d0efb 	.inst	0x000d0efb ; undefined
 aa0:	01010101 	.inst	0x01010101 ; undefined
 aa4:	01000000 	.inst	0x01000000 ; undefined
 aa8:	6b010000 	subs	w0, w0, w1
 aac:	656e7265 	fnmls	z5.h, p4/m, z19.h, z14.h
 ab0:	6e69006c 	uaddl2	v12.4s, v3.8h, v9.8h
 ab4:	64756c63 	.inst	0x64756c63 ; undefined
 ab8:	6d000065 	stp	d5, d0, [x3]
 abc:	2e6e6961 	.inst	0x2e6e6961 ; undefined
 ac0:	00010063 	.inst	0x00010063 ; undefined
 ac4:	73667600 	.inst	0x73667600 ; undefined
 ac8:	0200682e 	.inst	0x0200682e ; undefined
 acc:	00000000 	.inst	0x00000000 ; undefined
 ad0:	3ba80209 	.inst	0x3ba80209 ; undefined
 ad4:	00000008 	.inst	0x00000008 ; undefined
 ad8:	0f030000 	.inst	0x0f030000 ; undefined
 adc:	3e3d2f01 	.inst	0x3e3d2f01 ; undefined
 ae0:	3d3d3d2f 	str	b15, [x9, #3919]
 ae4:	592f3e3d 	.inst	0x592f3e3d ; undefined
 ae8:	4b133e67 	sub	w7, w19, w19, lsl #15
 aec:	3d2f304b 	str	b11, [x2, #3020]
 af0:	3c0c032f 	stur	b15, [x25, #192]
 af4:	3d21212f 	str	b15, [x9, #2120]
 af8:	3e303d3e 	.inst	0x3e303d3e ; undefined
 afc:	3067303d 	adr	x29, cf101 <__stack_top+0x2f101>
 b00:	30673067 	adr	x7, cf10d <__stack_top+0x2f10d>
 b04:	30673067 	adr	x7, cf111 <__stack_top+0x2f111>
 b08:	21673067 	.inst	0x21673067 ; undefined
 b0c:	673e6730 	.inst	0x673e6730 ; undefined
 b10:	30673221 	adr	x1, cf155 <__stack_top+0x2f155>
 b14:	2f3d3167 	.inst	0x2f3d3167 ; undefined
 b18:	0001023e 	.inst	0x0001023e ; undefined
 b1c:	00530101 	.inst	0x00530101 ; undefined
 b20:	00020000 	.inst	0x00020000 ; undefined
 b24:	00000026 	.inst	0x00000026 ; undefined
 b28:	0efb0104 	.inst	0x0efb0104 ; undefined
 b2c:	0101000d 	.inst	0x0101000d ; undefined
 b30:	00000101 	.inst	0x00000101 ; undefined
 b34:	00000100 	.inst	0x00000100 ; undefined
 b38:	72656b01 	.inst	0x72656b01 ; undefined
 b3c:	006c656e 	.inst	0x006c656e ; undefined
 b40:	72747300 	.inst	0x72747300 ; undefined
 b44:	2e676e69 	umin	v9.4h, v19.4h, v7.4h
 b48:	00010063 	.inst	0x00010063 ; undefined
 b4c:	09000000 	.inst	0x09000000 ; undefined
 b50:	083e8802 	.inst	0x083e8802 ; undefined
 b54:	00000000 	.inst	0x00000000 ; undefined
 b58:	213d0100 	.inst	0x213d0100 ; undefined
 b5c:	01040200 	.inst	0x01040200 ; undefined
 b60:	2f066606 	mvni	v6.2s, #0xd0, lsl #24
 b64:	004f393d 	.inst	0x004f393d ; undefined
 b68:	06010402 	.inst	0x06010402 ; undefined
 b6c:	212f0666 	.inst	0x212f0666 ; undefined
 b70:	01000202 	.inst	0x01000202 ; undefined
 b74:	00009c01 	.inst	0x00009c01 ; undefined
 b78:	43000200 	.inst	0x43000200 ; undefined
 b7c:	04000000 	add	z0.b, p0/m, z0.b, z0.b
 b80:	0d0efb01 	.inst	0x0d0efb01 ; undefined
 b84:	01010100 	.inst	0x01010100 ; undefined
 b88:	00000001 	.inst	0x00000001 ; undefined
 b8c:	01000001 	.inst	0x01000001 ; undefined
 b90:	6e72656b 	umax	v11.8h, v11.8h, v18.8h
 b94:	69006c65 	.inst	0x69006c65 ; undefined
 b98:	756c636e 	.inst	0x756c636e ; undefined
 b9c:	00006564 	.inst	0x00006564 ; undefined
 ba0:	2e737973 	.inst	0x2e737973 ; undefined
 ba4:	00010063 	.inst	0x00010063 ; undefined
 ba8:	73667600 	.inst	0x73667600 ; undefined
 bac:	0200682e 	.inst	0x0200682e ; undefined
 bb0:	63730000 	.inst	0x63730000 ; undefined
 bb4:	75646568 	.inst	0x75646568 ; undefined
 bb8:	2e72656c 	umax	v12.4h, v11.4h, v18.4h
 bbc:	00020068 	.inst	0x00020068 ; undefined
 bc0:	09000000 	.inst	0x09000000 ; undefined
 bc4:	083f0c02 	.inst	0x083f0c02 ; undefined
 bc8:	00000000 	.inst	0x00000000 ; undefined
 bcc:	2f301700 	usra	v0.2s, v24.2s, #16
 bd0:	672f3e4b 	.inst	0x672f3e4b ; undefined
 bd4:	4b4b3021 	sub	w1, w1, w11, lsr #12
 bd8:	3e2f4b3e 	.inst	0x3e2f4b3e ; undefined
 bdc:	2f3e3d4b 	.inst	0x2f3e3d4b ; undefined
 be0:	752f3e21 	.inst	0x752f3e21 ; undefined
 be4:	2f4c3021 	fcmla	v1.4h, v1.4h, v12.h[0], #90
 be8:	2f672f2f 	.inst	0x2f672f2f ; undefined
 bec:	04020083 	.inst	0x04020083 ; undefined
 bf0:	02001c02 	.inst	0x02001c02 ; undefined
 bf4:	3c060104 	stur	b4, [x8, #96]
 bf8:	212f4306 	.inst	0x212f4306 ; undefined
 bfc:	2f2f3e30 	.inst	0x2f2f3e30 ; undefined
 c00:	214c5967 	.inst	0x214c5967 ; undefined
 c04:	672f5a30 	.inst	0x672f5a30 ; undefined
 c08:	5a3021a0 	.inst	0x5a3021a0 ; undefined
 c0c:	2fa0672f 	.inst	0x2fa0672f ; undefined
 c10:	01000202 	.inst	0x01000202 ; undefined
 c14:	0000b701 	.inst	0x0000b701 ; undefined
 c18:	25000200 	cmpge	p0.b, p0/z, z16.b, #0
 c1c:	04000000 	add	z0.b, p0/m, z0.b, z0.b
 c20:	0d0efb01 	.inst	0x0d0efb01 ; undefined
 c24:	01010100 	.inst	0x01010100 ; undefined
 c28:	00000001 	.inst	0x00000001 ; undefined
 c2c:	01000001 	.inst	0x01000001 ; undefined
 c30:	6e72656b 	umax	v11.8h, v11.8h, v18.8h
 c34:	00006c65 	.inst	0x00006c65 ; undefined
 c38:	6c697475 	ldnp	d21, d29, [x3, #-368]
 c3c:	00632e73 	.inst	0x00632e73 ; undefined
 c40:	00000001 	.inst	0x00000001 ; undefined
 c44:	f4020900 	.inst	0xf4020900 ; undefined
 c48:	00000841 	.inst	0x00000841 ; undefined
 c4c:	14000000 	b	c4c <_start-0x7f3b4>
 c50:	2221213d 	.inst	0x2221213d ; undefined
 c54:	04020021 	.inst	0x04020021 ; undefined
 c58:	063c0601 	.inst	0x063c0601 ; undefined
 c5c:	673d3067 	.inst	0x673d3067 ; undefined
 c60:	02003d92 	.inst	0x02003d92 ; undefined
 c64:	66060104 	.inst	0x66060104 ; undefined
 c68:	02040200 	.inst	0x02040200 ; undefined
 c6c:	04020066 	.inst	0x04020066 ; undefined
 c70:	02005804 	.inst	0x02005804 ; undefined
 c74:	21060404 	.inst	0x21060404 ; undefined
 c78:	3c74035a 	.inst	0x3c74035a ; undefined
 c7c:	00660f03 	.inst	0x00660f03 ; undefined
 c80:	06010402 	.inst	0x06010402 ; undefined
 c84:	2159063c 	.inst	0x2159063c ; undefined
 c88:	3d223d31 	str	b17, [x9, #2191]
 c8c:	add72185 	ldp	q5, q8, [x12, #736]!
 c90:	004d418d 	.inst	0x004d418d ; undefined
 c94:	4b030402 	sub	w2, w0, w3, lsl #1
 c98:	03040200 	.inst	0x03040200 ; undefined
 c9c:	04020059 	.inst	0x04020059 ; undefined
 ca0:	0200bb03 	.inst	0x0200bb03 ; undefined
 ca4:	008d0304 	.inst	0x008d0304 ; undefined
 ca8:	06010402 	.inst	0x06010402 ; undefined
 cac:	3e87063c 	.inst	0x3e87063c ; undefined
 cb0:	02003e3e 	.inst	0x02003e3e ; undefined
 cb4:	002f0304 	.inst	0x002f0304 ; NYI
 cb8:	67030402 	.inst	0x67030402 ; undefined
 cbc:	03040200 	.inst	0x03040200 ; undefined
 cc0:	0402003a 	.inst	0x0402003a ; undefined
 cc4:	063c0601 	.inst	0x063c0601 ; undefined
 cc8:	022f2f4e 	.inst	0x022f2f4e ; undefined
 ccc:	01010002 	.inst	0x01010002 ; undefined
 cd0:	0000015e 	.inst	0x0000015e ; undefined
 cd4:	004b0002 	.inst	0x004b0002 ; undefined
 cd8:	01040000 	.inst	0x01040000 ; undefined
 cdc:	000d0efb 	.inst	0x000d0efb ; undefined
 ce0:	01010101 	.inst	0x01010101 ; undefined
 ce4:	01000000 	.inst	0x01000000 ; undefined
 ce8:	6b010000 	subs	w0, w0, w1
 cec:	656e7265 	fnmls	z5.h, p4/m, z19.h, z14.h
 cf0:	6e69006c 	uaddl2	v12.4s, v3.8h, v9.8h
 cf4:	64756c63 	.inst	0x64756c63 ; undefined
 cf8:	74000065 	.inst	0x74000065 ; undefined
 cfc:	7366706d 	.inst	0x7366706d ; undefined
 d00:	0100632e 	.inst	0x0100632e ; undefined
 d04:	66760000 	.inst	0x66760000 ; undefined
 d08:	00682e73 	.inst	0x00682e73 ; undefined
 d0c:	63000002 	.inst	0x63000002 ; undefined
 d10:	2e6f6970 	.inst	0x2e6f6970 ; undefined
 d14:	00020068 	.inst	0x00020068 ; undefined
 d18:	706d7400 	adr	x0, dbb9b <__stack_top+0x3bb9b>
 d1c:	682e7366 	.inst	0x682e7366 ; undefined
 d20:	00000200 	.inst	0x00000200 ; undefined
 d24:	02090000 	.inst	0x02090000 ; undefined
 d28:	00084548 	.inst	0x00084548 ; undefined
 d2c:	00000000 	.inst	0x00000000 ; undefined
 d30:	4b3d3d19 	.inst	0x4b3d3d19 ; undefined
 d34:	003d3d3d 	.inst	0x003d3d3d ; NYI
 d38:	2f030402 	mvni	v2.2s, #0x60
 d3c:	03040200 	.inst	0x03040200 ; undefined
 d40:	0402003d 	.inst	0x0402003d ; undefined
 d44:	02006403 	.inst	0x02006403 ; undefined
 d48:	3c060104 	stur	b4, [x8, #96]
 d4c:	580d0306 	ldr	x6, 1adac <_start-0x65254>
 d50:	4b207803 	.inst	0x4b207803 ; undefined
 d54:	3d3d3d3d 	str	b29, [x9, #3919]
 d58:	593e3e3d 	.inst	0x593e3e3d ; undefined
 d5c:	4b2f3e3d 	.inst	0x4b2f3e3d ; undefined
 d60:	834b3d5a 	.inst	0x834b3d5a ; undefined
 d64:	0402003d 	.inst	0x0402003d ; undefined
 d68:	02002f03 	.inst	0x02002f03 ; undefined
 d6c:	00ab0304 	.inst	0x00ab0304 ; undefined
 d70:	06010402 	.inst	0x06010402 ; undefined
 d74:	324d063c 	.inst	0x324d063c ; undefined
 d78:	0402003d 	.inst	0x0402003d ; undefined
 d7c:	02002f03 	.inst	0x02002f03 ; undefined
 d80:	00ab0304 	.inst	0x00ab0304 ; undefined
 d84:	06010402 	.inst	0x06010402 ; undefined
 d88:	3d4d063c 	ldr	b28, [x17, #833]
 d8c:	3021313d 	adr	x29, 433b1 <_start-0x3cc4f>
 d90:	3d3d3d4b 	str	b11, [x10, #3919]
 d94:	3d2f215a 	str	b26, [x10, #3016]
 d98:	03040200 	.inst	0x03040200 ; undefined
 d9c:	0402004b 	.inst	0x0402004b ; undefined
 da0:	0200ab03 	.inst	0x0200ab03 ; undefined
 da4:	3c060104 	stur	b4, [x8, #96]
 da8:	21684d06 	.inst	0x21684d06 ; undefined
 dac:	4b3d5931 	.inst	0x4b3d5931 ; undefined
 db0:	672f3d3f 	.inst	0x672f3d3f ; undefined
 db4:	4b4b3d6d 	sub	w13, w11, w11, lsr #15
 db8:	3d3d594b 	str	b11, [x10, #3926]
 dbc:	302f2f3d 	adr	x29, 5f3a1 <_start-0x20c5f>
 dc0:	4a6f0367 	eon	w7, w27, w15, lsr #0
 dc4:	01040200 	.inst	0x01040200 ; undefined
 dc8:	2011033d 	.inst	0x2011033d ; undefined
 dcc:	5930213f 	.inst	0x5930213f ; undefined
 dd0:	3d3f4b3d 	str	b29, [x25, #4050]
 dd4:	673d672f 	.inst	0x673d672f ; undefined
 dd8:	02003e3d 	.inst	0x02003e3d ; undefined
 ddc:	79030204 	strh	w4, [x16, #384]
 de0:	0402002e 	.inst	0x0402002e ; undefined
 de4:	063c0601 	.inst	0x063c0601 ; undefined
 de8:	21580a03 	.inst	0x21580a03 ; undefined
 dec:	593d4b30 	.inst	0x593d4b30 ; undefined
 df0:	59595959 	.inst	0x59595959 ; undefined
 df4:	2f3d5a59 	.inst	0x2f3d5a59 ; undefined
 df8:	5a2f3d3d 	.inst	0x5a2f3d3d ; undefined
 dfc:	2f933d30 	.inst	0x2f933d30 ; undefined
 e00:	3d753e3d 	ldr	b29, [x17, #3407]
 e04:	4b3e6775 	sub	w21, w27, w30, uxtx #1
 e08:	0a032f3d 	and	w29, w25, w3, lsl #11
 e0c:	20780358 	.inst	0x20780358 ; undefined
 e10:	5d4b594b 	.inst	0x5d4b594b ; undefined
 e14:	673d421e 	.inst	0x673d421e ; undefined
 e18:	205f0368 	.inst	0x205f0368 ; undefined
 e1c:	2f202203 	.inst	0x2f202203 ; undefined
 e20:	594b3021 	.inst	0x594b3021 ; undefined
 e24:	0200753e 	.inst	0x0200753e ; undefined
 e28:	223d0104 	.inst	0x223d0104 ; undefined
 e2c:	00020221 	.inst	0x00020221 ; undefined
 e30:	00610101 	.inst	0x00610101 ; undefined
 e34:	00020000 	.inst	0x00020000 ; undefined
 e38:	00000029 	.inst	0x00000029 ; undefined
 e3c:	0efb0104 	.inst	0x0efb0104 ; undefined
 e40:	0101000d 	.inst	0x0101000d ; undefined
 e44:	00000101 	.inst	0x00000101 ; undefined
 e48:	00000100 	.inst	0x00000100 ; undefined
 e4c:	72656b01 	.inst	0x72656b01 ; undefined
 e50:	006c656e 	.inst	0x006c656e ; undefined
 e54:	70637800 	adr	x0, c7d57 <__stack_top+0x27d57>
 e58:	75665f74 	.inst	0x75665f74 ; undefined
 e5c:	532e636e 	.inst	0x532e636e ; undefined
 e60:	00000100 	.inst	0x00000100 ; undefined
 e64:	02090000 	.inst	0x02090000 ; undefined
 e68:	00084de0 	.inst	0x00084de0 ; undefined
 e6c:	00000000 	.inst	0x00000000 ; undefined
 e70:	21212116 	.inst	0x21212116 ; undefined
 e74:	21212121 	.inst	0x21212121 ; undefined
 e78:	21242121 	.inst	0x21242121 ; undefined
 e7c:	21212121 	.inst	0x21212121 ; undefined
 e80:	21212124 	.inst	0x21212124 ; undefined
 e84:	21212121 	.inst	0x21212121 ; undefined
 e88:	21242121 	.inst	0x21242121 ; undefined
 e8c:	21212121 	.inst	0x21212121 ; undefined
 e90:	03022121 	.inst	0x03022121 ; undefined
 e94:	Address 0x0000000000000e94 is out of bounds.


Disassembly of section .debug_info:

0000000000000000 <.debug_info>:
       0:	00000057 	.inst	0x00000057 ; undefined
       4:	00000002 	.inst	0x00000002 ; undefined
       8:	01080000 	.inst	0x01080000 ; undefined
       c:	00000000 	.inst	0x00000000 ; undefined
      10:	00080000 	.inst	0x00080000 ; undefined
      14:	00000000 	.inst	0x00000000 ; undefined
      18:	00080060 	.inst	0x00080060 ; undefined
      1c:	00000000 	.inst	0x00000000 ; undefined
      20:	6e72656b 	umax	v11.8h, v11.8h, v18.8h
      24:	732f6c65 	.inst	0x732f6c65 ; undefined
      28:	74726174 	.inst	0x74726174 ; undefined
      2c:	2f00532e 	.inst	0x2f00532e ; undefined
      30:	656d6f68 	fnmls	z8.h, p3/m, z27.h, z13.h
      34:	7261732f 	.inst	0x7261732f ; undefined
      38:	69686361 	ldpsw	x1, x24, [x27, #-192]
      3c:	636e2f75 	.inst	0x636e2f75 ; undefined
      40:	6f2f7574 	uqshl	v20.4s, v11.4s, #15
      44:	30326373 	adr	x19, 64cb1 <_start-0x1b34f>
      48:	47003132 	.inst	0x47003132 ; undefined
      4c:	4120554e 	.inst	0x4120554e ; undefined
      50:	2e322053 	usubl	v19.8h, v2.8b, v18.8b
      54:	312e3632 	adds	w18, w17, #0xb8d
      58:	20800100 	.inst	0x20800100 ; undefined
      5c:	04000004 	add	z4.b, p0/m, z4.b, z0.b
      60:	00001400 	.inst	0x00001400 ; undefined
      64:	be010800 	.inst	0xbe010800 ; undefined
      68:	0c000000 	st4	{v0.8b-v3.8b}, [x0]
      6c:	00000000 	.inst	0x00000000 ; undefined
      70:	0000008e 	.inst	0x0000008e ; undefined
      74:	00080060 	.inst	0x00080060 ; undefined
      78:	00000000 	.inst	0x00000000 ; undefined
      7c:	0000028c 	.inst	0x0000028c ; undefined
      80:	00000000 	.inst	0x00000000 ; undefined
      84:	00000051 	.inst	0x00000051 ; undefined
      88:	00012402 	.inst	0x00012402 ; undefined
      8c:	06022000 	.inst	0x06022000 ; undefined
      90:	0000006a 	.inst	0x0000006a ; undefined
      94:	00002203 	.inst	0x00002203 ; undefined
      98:	8e070200 	.inst	0x8e070200 ; undefined
      9c:	00000000 	.inst	0x00000000 ; undefined
      a0:	00002803 	.inst	0x00002803 ; undefined
      a4:	b9080200 	str	w0, [x16, #2048]
      a8:	08000000 	stxrb	w0, w0, [x0]
      ac:	00006a03 	.inst	0x00006a03 ; undefined
      b0:	e4090200 	.inst	0xe4090200 ; undefined
      b4:	10000000 	adr	x0, b4 <_start-0x7ff4c>
      b8:	00000d03 	.inst	0x00000d03 ; undefined
      bc:	ea0a0200 	ands	x0, x16, x10
      c0:	18000000 	ldr	w0, c0 <_start-0x7ff40>
      c4:	00220200 	.inst	0x00220200 ; NYI
      c8:	02100000 	.inst	0x02100000 ; undefined
      cc:	00008e14 	.inst	0x00008e14 ; undefined
      d0:	00700300 	.inst	0x00700300 ; undefined
      d4:	15020000 	b	40800d4 <__stack_top+0x3fe00d4>
      d8:	00000134 	.inst	0x00000134 ; undefined
      dc:	73660400 	.inst	0x73660400 ; undefined
      e0:	78160200 	sturh	w0, [x16, #-160]
      e4:	08000001 	stxrb	w0, w1, [x0]
      e8:	6a080500 	ands	w0, w8, w8, lsl #1
      ec:	02000000 	.inst	0x02000000 ; undefined
      f0:	0000002e 	.inst	0x0000002e ; undefined
      f4:	b9230210 	str	w16, [x16, #8960]
      f8:	03000000 	.inst	0x03000000 ; undefined
      fc:	00000827 	.inst	0x00000827 ; undefined
     100:	02412402 	.inst	0x02412402 ; undefined
     104:	03000000 	.inst	0x03000000 ; undefined
     108:	00000861 	.inst	0x00000861 ; undefined
     10c:	02412502 	.inst	0x02412502 ; undefined
     110:	00080000 	.inst	0x00080000 ; undefined
     114:	00940805 	.inst	0x00940805 ; undefined
     118:	7e020000 	.inst	0x7e020000 ; undefined
     11c:	10000000 	adr	x0, 11c <_start-0x7fee4>
     120:	00e41e02 	.inst	0x00e41e02 ; undefined
     124:	55030000 	.inst	0x55030000 ; undefined
     128:	02000008 	.inst	0x02000008 ; undefined
     12c:	0001ec1f 	.inst	0x0001ec1f ; undefined
     130:	f6030000 	.inst	0xf6030000 ; undefined
     134:	02000007 	.inst	0x02000007 ; undefined
     138:	00020b20 	.inst	0x00020b20 ; undefined
     13c:	05000800 	orr	z0.s, z0.s, #0x80000000
     140:	0000bf08 	.inst	0x0000bf08 ; undefined
     144:	07080600 	.inst	0x07080600 ; undefined
     148:	00000124 	.inst	0x00000124 ; undefined
     14c:	002d0b02 	.inst	0x002d0b02 ; NYI
     150:	29020000 	stp	w0, w0, [x0, #16]
     154:	20000006 	.inst	0x20000006 ; undefined
     158:	01340d02 	.inst	0x01340d02 ; undefined
     15c:	24030000 	cmphs	p0.b, p0/z, z0.b, z3.b
     160:	02000001 	.inst	0x02000001 ; undefined
     164:	0001340e 	.inst	0x0001340e ; undefined
     168:	3f030000 	.inst	0x3f030000 ; undefined
     16c:	02000000 	.inst	0x02000000 ; undefined
     170:	00013a0f 	.inst	0x00013a0f ; undefined
     174:	6a030800 	ands	w0, w0, w3, lsl #2
     178:	02000000 	.inst	0x02000000 ; undefined
     17c:	0000e410 	.inst	0x0000e410 ; undefined
     180:	3c031000 	stur	b0, [x0, #49]
     184:	02000004 	.inst	0x02000004 ; undefined
     188:	00014111 	.inst	0x00014111 ; undefined
     18c:	05001800 	orr	z0.s, z0.s, #0x20000000
     190:	00002d08 	.inst	0x00002d08 ; undefined
     194:	07080800 	.inst	0x07080800 ; undefined
     198:	00000058 	.inst	0x00000058 ; undefined
     19c:	69050409 	.inst	0x69050409 ; undefined
     1a0:	0700746e 	.inst	0x0700746e ; undefined
     1a4:	00000629 	.inst	0x00000629 ; undefined
     1a8:	00f71202 	.inst	0x00f71202 ; undefined
     1ac:	b3020000 	.inst	0xb3020000 ; undefined
     1b0:	10000000 	adr	x0, 1b0 <_start-0x7fe50>
     1b4:	01781902 	.inst	0x01781902 ; undefined
     1b8:	08030000 	stxrb	w3, w0, [x0]
     1bc:	02000006 	.inst	0x02000006 ; undefined
     1c0:	0001891a 	.inst	0x0001891a ; undefined
     1c4:	1c030000 	ldr	s0, 61c4 <_start-0x79e3c>
     1c8:	02000000 	.inst	0x02000000 ; undefined
     1cc:	0001b51b 	.inst	0x0001b51b ; undefined
     1d0:	05000800 	orr	z0.s, z0.s, #0x80000000
     1d4:	00015308 	.inst	0x00015308 ; undefined
     1d8:	00220700 	.inst	0x00220700 ; NYI
     1dc:	17020000 	b	fffffffffc0801dc <__stack_top+0xfffffffffbfe01dc>
     1e0:	0000006a 	.inst	0x0000006a ; undefined
     1e4:	01960805 	.inst	0x01960805 ; undefined
     1e8:	01080000 	.inst	0x01080000 ; undefined
     1ec:	00041108 	.inst	0x00041108 ; undefined
     1f0:	018f0a00 	.inst	0x018f0a00 ; undefined
     1f4:	410b0000 	.inst	0x410b0000 ; undefined
     1f8:	af000001 	.inst	0xaf000001 ; undefined
     1fc:	0c000001 	st4	{v1.8b-v4.8b}, [x0]
     200:	00000178 	.inst	0x00000178 ; undefined
     204:	0001af0c 	.inst	0x0001af0c ; undefined
     208:	08050000 	stxrb	w5, w0, [x0]
     20c:	0000017e 	.inst	0x0000017e ; undefined
     210:	019b0805 	.inst	0x019b0805 ; undefined
     214:	b3070000 	.inst	0xb3070000 ; undefined
     218:	02000000 	.inst	0x02000000 ; undefined
     21c:	0001531c 	.inst	0x0001531c ; undefined
     220:	01410b00 	.inst	0x01410b00 ; undefined
     224:	01df0000 	.inst	0x01df0000 ; undefined
     228:	df0c0000 	.inst	0xdf0c0000 ; undefined
     22c:	0c000001 	st4	{v1.8b-v4.8b}, [x0]
     230:	000001e5 	.inst	0x000001e5 ; undefined
     234:	00013a0c 	.inst	0x00013a0c ; undefined
     238:	08050000 	stxrb	w5, w0, [x0]
     23c:	00000148 	.inst	0x00000148 ; undefined
     240:	01eb0805 	.inst	0x01eb0805 ; undefined
     244:	050d0000 	.inst	0x050d0000 ; undefined
     248:	0001c608 	.inst	0x0001c608 ; undefined
     24c:	01410b00 	.inst	0x01410b00 ; undefined
     250:	020b0000 	.inst	0x020b0000 ; undefined
     254:	df0c0000 	.inst	0xdf0c0000 ; undefined
     258:	0c000001 	st4	{v1.8b-v4.8b}, [x0]
     25c:	000000ea 	.inst	0x000000ea ; undefined
     260:	00013a0c 	.inst	0x00013a0c ; undefined
     264:	08050000 	stxrb	w5, w0, [x0]
     268:	000001f2 	.inst	0x000001f2 ; undefined
     26c:	00007e07 	.inst	0x00007e07 ; undefined
     270:	bf210200 	.inst	0xbf210200 ; undefined
     274:	0b000000 	add	w0, w0, w0
     278:	00000141 	.inst	0x00000141 ; undefined
     27c:	00000235 	.inst	0x00000235 ; undefined
     280:	0002350c 	.inst	0x0002350c ; undefined
     284:	023b0c00 	.inst	0x023b0c00 ; undefined
     288:	890c0000 	.inst	0x890c0000 ; undefined
     28c:	00000001 	.inst	0x00000001 ; undefined
     290:	00ec0805 	.inst	0x00ec0805 ; undefined
     294:	08050000 	stxrb	w5, w0, [x0]
     298:	00000235 	.inst	0x00000235 ; undefined
     29c:	021c0805 	.inst	0x021c0805 ; undefined
     2a0:	08050000 	stxrb	w5, w0, [x0]
     2a4:	0000018f 	.inst	0x0000018f ; undefined
     2a8:	0000aa0e 	.inst	0x0000aa0e ; undefined
     2ac:	410a0100 	.inst	0x410a0100 ; undefined
     2b0:	60000001 	.inst	0x60000001 ; undefined
     2b4:	00000800 	.inst	0x00000800 ; undefined
     2b8:	d4000000 	.inst	0xd4000000 ; undefined
     2bc:	00000000 	.inst	0x00000000 ; undefined
     2c0:	01000000 	.inst	0x01000000 ; undefined
     2c4:	00028a9c 	.inst	0x00028a9c ; undefined
     2c8:	73660f00 	.inst	0x73660f00 ; undefined
     2cc:	8a0a0100 	and	x0, x8, x10
     2d0:	02000002 	.inst	0x02000002 ; undefined
     2d4:	08106891 	stxrb	w16, w17, [x4]
     2d8:	01000006 	.inst	0x01000006 ; undefined
     2dc:	0002470c 	.inst	0x0002470c ; undefined
     2e0:	78910200 	ldursh	x0, [x16, #-240]
     2e4:	bb080500 	.inst	0xbb080500 ; undefined
     2e8:	0e000001 	tbl	v1.8b, {v0.16b}, v0.8b
     2ec:	00000102 	.inst	0x00000102 ; undefined
     2f0:	03161a01 	.inst	0x03161a01 ; undefined
     2f4:	01340000 	.inst	0x01340000 ; undefined
     2f8:	00000008 	.inst	0x00000008 ; undefined
     2fc:	01140000 	.inst	0x01140000 ; undefined
     300:	00000000 	.inst	0x00000000 ; undefined
     304:	9c010000 	ldr	q0, 2304 <_start-0x7dcfc>
     308:	00000316 	.inst	0x00000316 ; undefined
     30c:	00004511 	.inst	0x00004511 ; undefined
     310:	891a0100 	.inst	0x891a0100 ; undefined
     314:	02000001 	.inst	0x02000001 ; undefined
     318:	3c115891 	.inst	0x3c115891 ; undefined
     31c:	01000004 	.inst	0x01000004 ; undefined
     320:	0001411a 	.inst	0x0001411a ; undefined
     324:	54910200 	b.eq	fffffffffff22364 <__stack_top+0xffffffffffe82364>  // b.none
     328:	72696412 	.inst	0x72696412 ; undefined
     32c:	351e0100 	cbnz	w0, 3c34c <_start-0x43cb4>
     330:	02000002 	.inst	0x02000002 ; undefined
     334:	16107891 	b	fffffffff841e578 <__stack_top+0xfffffffff837e578>
     338:	01000000 	.inst	0x01000000 ; undefined
     33c:	0002351f 	.inst	0x0002351f ; undefined
     340:	60910200 	.inst	0x60910200 ; undefined
     344:	01006612 	.inst	0x01006612 ; undefined
     348:	0001df32 	.inst	0x0001df32 ; undefined
     34c:	68910200 	.inst	0x68910200 ; undefined
     350:	08016013 	stxrb	w1, w19, [x0]
     354:	00000000 	.inst	0x00000000 ; undefined
     358:	00006c00 	.inst	0x00006c00 ; undefined
     35c:	00000000 	.inst	0x00000000 ; undefined
     360:	01eb1000 	.inst	0x01eb1000 ; undefined
     364:	21010000 	.inst	0x21010000 ; undefined
     368:	00000141 	.inst	0x00000141 ; undefined
     36c:	00749102 	.inst	0x00749102 ; undefined
     370:	f7080500 	.inst	0xf7080500 ; undefined
     374:	0e000000 	tbl	v0.8b, {v0.16b}, v0.8b
     378:	0000004e 	.inst	0x0000004e ; undefined
     37c:	01413b01 	.inst	0x01413b01 ; undefined
     380:	02480000 	.inst	0x02480000 ; undefined
     384:	00000008 	.inst	0x00000008 ; undefined
     388:	00340000 	.inst	0x00340000 ; NYI
     38c:	00000000 	.inst	0x00000000 ; undefined
     390:	9c010000 	ldr	q0, 2390 <_start-0x7dc70>
     394:	0000034c 	.inst	0x0000034c ; undefined
     398:	00062911 	.inst	0x00062911 ; undefined
     39c:	df3b0100 	.inst	0xdf3b0100 ; undefined
     3a0:	02000001 	.inst	0x02000001 ; undefined
     3a4:	0e007891 	zip2	v17.8b, v4.8b, v0.8b
     3a8:	0000011a 	.inst	0x0000011a ; undefined
     3ac:	01414101 	.inst	0x01414101 ; undefined
     3b0:	027c0000 	.inst	0x027c0000 ; undefined
     3b4:	00000008 	.inst	0x00000008 ; undefined
     3b8:	00380000 	.inst	0x00380000 ; NYI
     3bc:	00000000 	.inst	0x00000000 ; undefined
     3c0:	9c010000 	ldr	q0, 23c0 <_start-0x7dc40>
     3c4:	00000398 	.inst	0x00000398 ; undefined
     3c8:	00062911 	.inst	0x00062911 ; undefined
     3cc:	df410100 	.inst	0xdf410100 ; undefined
     3d0:	02000001 	.inst	0x02000001 ; undefined
     3d4:	620f7891 	.inst	0x620f7891 ; undefined
     3d8:	01006675 	.inst	0x01006675 ; undefined
     3dc:	0001e541 	.inst	0x0001e541 ; undefined
     3e0:	70910200 	adr	x0, fffffffffff22423 <__stack_top+0xffffffffffe82423>
     3e4:	6e656c0f 	umin	v15.8h, v0.8h, v5.8h
     3e8:	3a410100 	ccmn	w8, w1, #0x0, eq  // eq = none
     3ec:	02000001 	.inst	0x02000001 ; undefined
     3f0:	0e006891 	trn2	v17.8b, v4.8b, v0.8b
     3f4:	00000075 	.inst	0x00000075 ; undefined
     3f8:	01414401 	.inst	0x01414401 ; undefined
     3fc:	02b40000 	.inst	0x02b40000 ; undefined
     400:	00000008 	.inst	0x00000008 ; undefined
     404:	00380000 	.inst	0x00380000 ; NYI
     408:	00000000 	.inst	0x00000000 ; undefined
     40c:	9c010000 	ldr	q0, 240c <_start-0x7dbf4>
     410:	000003e4 	.inst	0x000003e4 ; undefined
     414:	00062911 	.inst	0x00062911 ; undefined
     418:	df440100 	.inst	0xdf440100 ; undefined
     41c:	02000001 	.inst	0x02000001 ; undefined
     420:	620f7891 	.inst	0x620f7891 ; undefined
     424:	01006675 	.inst	0x01006675 ; undefined
     428:	0000ea44 	.inst	0x0000ea44 ; undefined
     42c:	70910200 	adr	x0, fffffffffff2246f <__stack_top+0xffffffffffe8246f>
     430:	6e656c0f 	umin	v15.8h, v0.8h, v5.8h
     434:	3a440100 	ccmn	w8, w4, #0x0, eq  // eq = none
     438:	02000001 	.inst	0x02000001 ; undefined
     43c:	10006891 	adr	x17, 114c <_start-0x7eeb4>
     440:	0000010b 	.inst	0x0000010b ; undefined
     444:	00ea0601 	.inst	0x00ea0601 ; undefined
     448:	03090000 	.inst	0x03090000 ; undefined
     44c:	00085788 	.inst	0x00085788 ; undefined
     450:	00000000 	.inst	0x00000000 ; undefined
     454:	00011310 	.inst	0x00011310 ; undefined
     458:	ea070100 	ands	x0, x8, x7
     45c:	09000000 	.inst	0x09000000 ; undefined
     460:	08579003 	ldaxrb	w3, [x0]
     464:	00000000 	.inst	0x00000000 ; undefined
     468:	6e6d1200 	uaddw2	v0.4s, v16.4s, v13.8h
     46c:	08010074 	stxrb	w1, w20, [x3]
     470:	0000017e 	.inst	0x0000017e ; undefined
     474:	57980309 	.inst	0x57980309 ; undefined
     478:	00000008 	.inst	0x00000008 ; undefined
     47c:	a0000000 	.inst	0xa0000000 ; undefined
     480:	04000002 	add	z2.b, p0/m, z2.b, z0.b
     484:	00010700 	.inst	0x00010700 ; undefined
     488:	be010800 	.inst	0xbe010800 ; undefined
     48c:	0c000000 	st4	{v0.8b-v3.8b}, [x0]
     490:	0000013e 	.inst	0x0000013e ; undefined
     494:	0000008e 	.inst	0x0000008e ; undefined
     498:	000802ec 	.inst	0x000802ec ; undefined
     49c:	00000000 	.inst	0x00000000 ; undefined
     4a0:	00000530 	.inst	0x00000530 ; undefined
     4a4:	00000000 	.inst	0x00000000 ; undefined
     4a8:	000000d2 	.inst	0x000000d2 ; undefined
     4ac:	00018a02 	.inst	0x00018a02 ; undefined
     4b0:	ec2e0100 	.inst	0xec2e0100 ; undefined
     4b4:	00000802 	.inst	0x00000802 ; undefined
     4b8:	44000000 	.inst	0x44000000 ; undefined
     4bc:	00000001 	.inst	0x00000001 ; undefined
     4c0:	01000000 	.inst	0x01000000 ; undefined
     4c4:	0000769c 	.inst	0x0000769c ; undefined
     4c8:	00720300 	.inst	0x00720300 ; undefined
     4cc:	00763001 	.inst	0x00763001 ; undefined
     4d0:	63010000 	.inst	0x63010000 ; undefined
     4d4:	0803fc04 	stlxrb	w3, w4, [x0]
     4d8:	00000000 	.inst	0x00000000 ; undefined
     4dc:	00001000 	.inst	0x00001000 ; undefined
     4e0:	00000000 	.inst	0x00000000 ; undefined
     4e4:	6d740300 	ldp	d0, d0, [x24, #-192]
     4e8:	48010070 	stxrh	w1, w16, [x3]
     4ec:	0000007d 	.inst	0x0000007d ; undefined
     4f0:	007f9102 	.inst	0x007f9102 ; undefined
     4f4:	07040500 	.inst	0x07040500 ; undefined
     4f8:	0000005d 	.inst	0x0000005d ; undefined
     4fc:	11080105 	add	w5, w8, #0x200
     500:	06000004 	.inst	0x06000004 ; undefined
     504:	000001a3 	.inst	0x000001a3 ; undefined
     508:	04304f01 	index	z1.b, w24, w16
     50c:	00000008 	.inst	0x00000008 ; undefined
     510:	00400000 	.inst	0x00400000 ; undefined
     514:	00000000 	.inst	0x00000000 ; undefined
     518:	9c010000 	ldr	q0, 2518 <_start-0x7dae8>
     51c:	000000ae 	.inst	0x000000ae ; undefined
     520:	01006307 	.inst	0x01006307 ; undefined
     524:	0000764f 	.inst	0x0000764f ; undefined
     528:	7c910200 	.inst	0x7c910200 ; undefined
     52c:	01ad0800 	.inst	0x01ad0800 ; undefined
     530:	59010000 	.inst	0x59010000 ; undefined
     534:	0000007d 	.inst	0x0000007d ; undefined
     538:	00080470 	.inst	0x00080470 ; undefined
     53c:	00000000 	.inst	0x00000000 ; undefined
     540:	00000050 	.inst	0x00000050 ; undefined
     544:	00000000 	.inst	0x00000000 ; undefined
     548:	00dc9c01 	.inst	0x00dc9c01 ; undefined
     54c:	72030000 	ands	w0, w0, #0x20000000
     550:	7d5a0100 	ldr	h0, [x8, #3328]
     554:	02000000 	.inst	0x02000000 ; undefined
     558:	09007f91 	.inst	0x09007f91 ; undefined
     55c:	00000180 	.inst	0x00000180 ; undefined
     560:	04c06601 	mls	z1.d, p1/m, z16.d, z0.d
     564:	00000008 	.inst	0x00000008 ; undefined
     568:	00580000 	.inst	0x00580000 ; undefined
     56c:	00000000 	.inst	0x00000000 ; undefined
     570:	9c010000 	ldr	q0, 2570 <_start-0x7da90>
     574:	00000106 	.inst	0x00000106 ; undefined
     578:	01007307 	.inst	0x01007307 ; undefined
     57c:	00010666 	.inst	0x00010666 ; undefined
     580:	78910200 	ldursh	x0, [x16, #-240]
     584:	7d080a00 	str	h0, [x16, #1028]
     588:	09000000 	.inst	0x09000000 ; undefined
     58c:	0000014c 	.inst	0x0000014c ; undefined
     590:	05186f01 	.inst	0x05186f01 ; undefined
     594:	00000008 	.inst	0x00000008 ; undefined
     598:	008c0000 	.inst	0x008c0000 ; undefined
     59c:	00000000 	.inst	0x00000000 ; undefined
     5a0:	9c010000 	ldr	q0, 25a0 <_start-0x7da60>
     5a4:	00000160 	.inst	0x00000160 ; undefined
     5a8:	00012a0b 	.inst	0x00012a0b ; undefined
     5ac:	066f0100 	.inst	0x066f0100 ; undefined
     5b0:	02000001 	.inst	0x02000001 ; undefined
     5b4:	940b6891 	bl	2da7f8 <__stack_top+0x23a7f8>
     5b8:	01000001 	.inst	0x01000001 ; undefined
     5bc:	0001606f 	.inst	0x0001606f ; undefined
     5c0:	64910200 	fcmla	z0.s, p0/m, z16.s, z17.s, #0
     5c4:	0001eb0c 	.inst	0x0001eb0c ; undefined
     5c8:	60700100 	.inst	0x60700100 ; undefined
     5cc:	02000001 	.inst	0x02000001 ; undefined
     5d0:	63037c91 	.inst	0x63037c91 ; undefined
     5d4:	7d710100 	ldr	h0, [x8, #6272]
     5d8:	02000000 	.inst	0x02000000 ; undefined
     5dc:	0d007b91 	st3	{v17.h-v19.h}[3], [x28]
     5e0:	6e690504 	uhadd	v4.8h, v8.8h, v9.8h
     5e4:	30090074 	adr	x20, 125f1 <_start-0x6da0f>
     5e8:	01000001 	.inst	0x01000001 ; undefined
     5ec:	0805a47f 	stlxrb	w5, wzr, [x3]
     5f0:	00000000 	.inst	0x00000000 ; undefined
     5f4:	00003000 	.inst	0x00003000 ; undefined
     5f8:	00000000 	.inst	0x00000000 ; undefined
     5fc:	9e9c0100 	.inst	0x9e9c0100 ; undefined
     600:	07000001 	.inst	0x07000001 ; undefined
     604:	7f010069 	.inst	0x7f010069 ; undefined
     608:	00000160 	.inst	0x00000160 ; undefined
     60c:	036c9102 	.inst	0x036c9102 ; undefined
     610:	01006863 	.inst	0x01006863 ; undefined
     614:	00010680 	.inst	0x00010680 ; undefined
     618:	78910200 	ldursh	x0, [x16, #-240]
     61c:	015b0900 	.inst	0x015b0900 ; undefined
     620:	85010000 	.inst	0x85010000 ; undefined
     624:	000805d4 	.inst	0x000805d4 ; undefined
     628:	00000000 	.inst	0x00000000 ; undefined
     62c:	000000a0 	.inst	0x000000a0 ; undefined
     630:	00000000 	.inst	0x00000000 ; undefined
     634:	01ee9c01 	.inst	0x01ee9c01 ; undefined
     638:	69070000 	.inst	0x69070000 ; undefined
     63c:	ee850100 	.inst	0xee850100 ; undefined
     640:	02000001 	.inst	0x02000001 ; undefined
     644:	6e036891 	ext	v17.16b, v4.16b, v3.16b, #13
     648:	76860100 	.inst	0x76860100 ; undefined
     64c:	02000000 	.inst	0x02000000 ; undefined
     650:	63037491 	.inst	0x63037491 ; undefined
     654:	60870100 	.inst	0x60870100 ; undefined
     658:	02000001 	.inst	0x02000001 ; undefined
     65c:	9a0c7c91 	.inst	0x9a0c7c91 ; undefined
     660:	01000004 	.inst	0x01000004 ; undefined
     664:	00016088 	.inst	0x00016088 ; undefined
     668:	78910200 	ldursh	x0, [x16, #-240]
     66c:	07080500 	.inst	0x07080500 ; undefined
     670:	00000058 	.inst	0x00000058 ; undefined
     674:	0001690e 	.inst	0x0001690e ; undefined
     678:	60920100 	.inst	0x60920100 ; undefined
     67c:	74000001 	.inst	0x74000001 ; undefined
     680:	00000806 	.inst	0x00000806 ; undefined
     684:	c4000000 	ld1sb	{z0.d}, p0/z, [x0, z0.d, uxtw]
     688:	00000000 	.inst	0x00000000 ; undefined
     68c:	01000000 	.inst	0x01000000 ; undefined
     690:	00025d9c 	.inst	0x00025d9c ; undefined
     694:	00730700 	.inst	0x00730700 ; undefined
     698:	01069201 	.inst	0x01069201 ; undefined
     69c:	91020000 	add	x0, x0, #0x80
     6a0:	05b50b68 	.inst	0x05b50b68 ; undefined
     6a4:	92010000 	and	x0, x0, #0x8000000080000000
     6a8:	00000160 	.inst	0x00000160 ; undefined
     6ac:	0b649102 	.inst	0x0b649102 ; undefined
     6b0:	00000178 	.inst	0x00000178 ; undefined
     6b4:	01609201 	.inst	0x01609201 ; undefined
     6b8:	91020000 	add	x0, x0, #0x80
     6bc:	068c0460 	.inst	0x068c0460 ; undefined
     6c0:	00000008 	.inst	0x00000008 ; undefined
     6c4:	00a00000 	.inst	0x00a00000 ; undefined
     6c8:	00000000 	.inst	0x00000000 ; undefined
     6cc:	69030000 	.inst	0x69030000 ; undefined
     6d0:	60930100 	.inst	0x60930100 ; undefined
     6d4:	02000001 	.inst	0x02000001 ; undefined
     6d8:	00007c91 	.inst	0x00007c91 ; undefined
     6dc:	0001990f 	.inst	0x0001990f ; undefined
     6e0:	eea30100 	.inst	0xeea30100 ; undefined
     6e4:	38000001 	sturb	w1, [x0]
     6e8:	00000807 	.inst	0x00000807 ; undefined
     6ec:	e4000000 	.inst	0xe4000000 ; undefined
     6f0:	00000000 	.inst	0x00000000 ; undefined
     6f4:	01000000 	.inst	0x01000000 ; undefined
     6f8:	01780b9c 	.inst	0x01780b9c ; undefined
     6fc:	a3010000 	.inst	0xa3010000 ; undefined
     700:	00000160 	.inst	0x00000160 ; undefined
     704:	036c9102 	.inst	0x036c9102 ; undefined
     708:	00746572 	.inst	0x00746572 ; undefined
     70c:	01eea401 	.inst	0x01eea401 ; undefined
     710:	91020000 	add	x0, x0, #0x80
     714:	00630378 	.inst	0x00630378 ; undefined
     718:	007da501 	.inst	0x007da501 ; undefined
     71c:	91020000 	add	x0, x0, #0x80
     720:	47000077 	.inst	0x47000077 ; undefined
     724:	04000006 	add	z6.b, p0/m, z6.b, z0.b
     728:	00021b00 	.inst	0x00021b00 ; undefined
     72c:	be010800 	.inst	0xbe010800 ; undefined
     730:	0c000000 	st4	{v0.8b-v3.8b}, [x0]
     734:	000001cc 	.inst	0x000001cc ; undefined
     738:	0000008e 	.inst	0x0000008e ; undefined
     73c:	0008081c 	.inst	0x0008081c ; undefined
     740:	00000000 	.inst	0x00000000 ; undefined
     744:	000008f8 	.inst	0x000008f8 ; undefined
     748:	00000000 	.inst	0x00000000 ; undefined
     74c:	00000201 	.inst	0x00000201 ; undefined
     750:	00081c02 	.inst	0x00081c02 ; undefined
     754:	13021000 	sbfx	w0, w0, #2, #3
     758:	00000052 	.inst	0x00000052 ; undefined
     75c:	0001eb03 	.inst	0x0001eb03 ; undefined
     760:	52140200 	eor	w0, w16, #0x1000
     764:	00000000 	.inst	0x00000000 ; undefined
     768:	0002e103 	.inst	0x0002e103 ; undefined
     76c:	59150200 	.inst	0x59150200 ; undefined
     770:	08000000 	stxrb	w0, w0, [x0]
     774:	05040400 	.inst	0x05040400 ; undefined
     778:	00746e69 	.inst	0x00746e69 ; undefined
     77c:	002d0805 	.inst	0x002d0805 ; NYI
     780:	c7060000 	.inst	0xc7060000 ; undefined
     784:	02000001 	.inst	0x02000001 ; undefined
     788:	00002d16 	.inst	0x00002d16 ; undefined
     78c:	01b70700 	.inst	0x01b70700 ; undefined
     790:	09010000 	.inst	0x09010000 ; undefined
     794:	0008081c 	.inst	0x0008081c ; undefined
     798:	00000000 	.inst	0x00000000 ; undefined
     79c:	0000002c 	.inst	0x0000002c ; undefined
     7a0:	00000000 	.inst	0x00000000 ; undefined
     7a4:	00a49c01 	.inst	0x00a49c01 ; undefined
     7a8:	1c080000 	ldr	s0, 107a8 <_start-0x6f858>
     7ac:	01000008 	.inst	0x01000008 ; undefined
     7b0:	0000a409 	.inst	0x0000a409 ; undefined
     7b4:	78910200 	ldursh	x0, [x16, #-240]
     7b8:	0001eb08 	.inst	0x0001eb08 ; undefined
     7bc:	52090100 	eor	w0, w8, #0x800000
     7c0:	02000000 	.inst	0x02000000 ; undefined
     7c4:	05007491 	orr	z17.h, z17.h, #0x7c
     7c8:	00005f08 	.inst	0x00005f08 ; undefined
     7cc:	02570700 	.inst	0x02570700 ; undefined
     7d0:	0f010000 	.inst	0x0f010000 ; undefined
     7d4:	00080848 	.inst	0x00080848 ; undefined
     7d8:	00000000 	.inst	0x00000000 ; undefined
     7dc:	0000004c 	.inst	0x0000004c ; undefined
     7e0:	00000000 	.inst	0x00000000 ; undefined
     7e4:	00f09c01 	.inst	0x00f09c01 ; undefined
     7e8:	07080000 	.inst	0x07080000 ; undefined
     7ec:	01000003 	.inst	0x01000003 ; undefined
     7f0:	0000a40f 	.inst	0x0000a40f ; undefined
     7f4:	68910200 	.inst	0x68910200 ; undefined
     7f8:	00081c08 	.inst	0x00081c08 ; undefined
     7fc:	a40f0100 	ld1rqb	{z0.b}, p0/z, [x8, x15]
     800:	02000000 	.inst	0x02000000 ; undefined
     804:	70096091 	adr	x17, 13417 <_start-0x6cbe9>
     808:	a4100100 	ld1rqb	{z0.b}, p0/z, [x8, x16]
     80c:	02000000 	.inst	0x02000000 ; undefined
     810:	07007891 	.inst	0x07007891 ; undefined
     814:	000002a9 	.inst	0x000002a9 ; undefined
     818:	08941b01 	stllrb	w1, [x24]
     81c:	00000008 	.inst	0x00000008 ; undefined
     820:	005c0000 	.inst	0x005c0000 ; undefined
     824:	00000000 	.inst	0x00000000 ; undefined
     828:	9c010000 	ldr	q0, 2828 <_start-0x7d7d8>
     82c:	00000136 	.inst	0x00000136 ; undefined
     830:	00030708 	.inst	0x00030708 ; undefined
     834:	a41b0100 	ld1rqb	{z0.b}, p0/z, [x8, x27]
     838:	02000000 	.inst	0x02000000 ; undefined
     83c:	1c086891 	ldr	s17, 1154c <_start-0x6eab4>
     840:	01000008 	.inst	0x01000008 ; undefined
     844:	0000a41b 	.inst	0x0000a41b ; undefined
     848:	60910200 	.inst	0x60910200 ; undefined
     84c:	01007009 	.inst	0x01007009 ; undefined
     850:	0000a41c 	.inst	0x0000a41c ; undefined
     854:	78910200 	ldursh	x0, [x16, #-240]
     858:	01df0700 	.inst	0x01df0700 ; undefined
     85c:	29010000 	stp	w0, w0, [x0, #8]
     860:	000808f0 	.inst	0x000808f0 ; undefined
     864:	00000000 	.inst	0x00000000 ; undefined
     868:	00000074 	.inst	0x00000074 ; undefined
     86c:	00000000 	.inst	0x00000000 ; undefined
     870:	017c9c01 	.inst	0x017c9c01 ; undefined
     874:	07080000 	.inst	0x07080000 ; undefined
     878:	01000003 	.inst	0x01000003 ; undefined
     87c:	0000a429 	.inst	0x0000a429 ; undefined
     880:	68910200 	.inst	0x68910200 ; undefined
     884:	0001eb08 	.inst	0x0001eb08 ; undefined
     888:	52290100 	eor	w0, w8, #0x800000
     88c:	02000000 	.inst	0x02000000 ; undefined
     890:	70096491 	adr	x17, 13523 <_start-0x6cadd>
     894:	a42a0100 	.inst	0xa42a0100 ; undefined
     898:	02000000 	.inst	0x02000000 ; undefined
     89c:	0a007891 	and	w17, w4, w0, lsl #30
     8a0:	000002fc 	.inst	0x000002fc ; undefined
     8a4:	09643301 	.inst	0x09643301 ; undefined
     8a8:	00000008 	.inst	0x00000008 ; undefined
     8ac:	01a40000 	.inst	0x01a40000 ; undefined
     8b0:	00000000 	.inst	0x00000000 ; undefined
     8b4:	9c010000 	ldr	q0, 28b4 <_start-0x7d74c>
     8b8:	00000232 	.inst	0x00000232 ; undefined
     8bc:	08096c0b 	stxrb	w9, w11, [x0]
     8c0:	00000000 	.inst	0x00000000 ; undefined
     8c4:	0000bc00 	.inst	0x0000bc00 ; undefined
     8c8:	00000000 	.inst	0x00000000 ; undefined
     8cc:	0001e700 	.inst	0x0001e700 ; undefined
     8d0:	00690900 	.inst	0x00690900 ; undefined
     8d4:	00523401 	.inst	0x00523401 ; undefined
     8d8:	91020000 	add	x0, x0, #0x80
     8dc:	09740c7c 	.inst	0x09740c7c ; undefined
     8e0:	00000008 	.inst	0x00000008 ; undefined
     8e4:	009c0000 	.inst	0x009c0000 ; undefined
     8e8:	00000000 	.inst	0x00000000 ; undefined
     8ec:	8c0d0000 	.inst	0x8c0d0000 ; undefined
     8f0:	01000002 	.inst	0x01000002 ; undefined
     8f4:	0000a439 	.inst	0x0000a439 ; undefined
     8f8:	58910200 	ldr	x0, fffffffffff22938 <__stack_top+0xffffffffffe82938>
     8fc:	01007009 	.inst	0x01007009 ; undefined
     900:	0000a43a 	.inst	0x0000a43a ; undefined
     904:	70910200 	adr	x0, fffffffffff22947 <__stack_top+0xffffffffffe82947>
     908:	280c0000 	stnp	w0, w0, [x0, #96]
     90c:	0000080a 	.inst	0x0000080a ; undefined
     910:	c8000000 	stxr	w0, x0, [x0]
     914:	00000000 	.inst	0x00000000 ; undefined
     918:	09000000 	.inst	0x09000000 ; undefined
     91c:	43010069 	.inst	0x43010069 ; undefined
     920:	00000052 	.inst	0x00000052 ; undefined
     924:	0c6c9102 	.inst	0x0c6c9102 ; undefined
     928:	00080a34 	.inst	0x00080a34 ; undefined
     92c:	00000000 	.inst	0x00000000 ; undefined
     930:	000000a4 	.inst	0x000000a4 ; undefined
     934:	00000000 	.inst	0x00000000 ; undefined
     938:	00028c0d 	.inst	0x00028c0d ; undefined
     93c:	a4480100 	.inst	0xa4480100 ; undefined
     940:	02000000 	.inst	0x02000000 ; undefined
     944:	70095091 	adr	x17, 13357 <_start-0x6cca9>
     948:	a4490100 	.inst	0xa4490100 ; undefined
     94c:	02000000 	.inst	0x02000000 ; undefined
     950:	00006091 	.inst	0x00006091 ; undefined
     954:	02b50a00 	.inst	0x02b50a00 ; undefined
     958:	54010000 	b.eq	2958 <_start-0x7d6a8>  // b.none
     95c:	00080b08 	.inst	0x00080b08 ; undefined
     960:	00000000 	.inst	0x00000000 ; undefined
     964:	00000090 	.inst	0x00000090 ; undefined
     968:	00000000 	.inst	0x00000000 ; undefined
     96c:	029a9c01 	.inst	0x029a9c01 ; undefined
     970:	70090000 	adr	x0, 12973 <_start-0x6d68d>
     974:	a45a0100 	.inst	0xa45a0100 ; undefined
     978:	02000000 	.inst	0x02000000 ; undefined
     97c:	100c6891 	adr	x17, 1968c <_start-0x66974>
     980:	0000080b 	.inst	0x0000080b ; undefined
     984:	4c000000 	st4	{v0.16b-v3.16b}, [x0]
     988:	00000000 	.inst	0x00000000 ; undefined
     98c:	09000000 	.inst	0x09000000 ; undefined
     990:	55010069 	.inst	0x55010069 ; undefined
     994:	00000052 	.inst	0x00000052 ; undefined
     998:	0c7c9102 	.inst	0x0c7c9102 ; undefined
     99c:	00080b18 	.inst	0x00080b18 ; undefined
     9a0:	00000000 	.inst	0x00000000 ; undefined
     9a4:	0000002c 	.inst	0x0000002c ; undefined
     9a8:	00000000 	.inst	0x00000000 ; undefined
     9ac:	0002870d 	.inst	0x0002870d ; undefined
     9b0:	a4560100 	.inst	0xa4560100 ; undefined
     9b4:	02000000 	.inst	0x02000000 ; undefined
     9b8:	00007091 	.inst	0x00007091 ; undefined
     9bc:	02cb0e00 	.inst	0x02cb0e00 ; undefined
     9c0:	61010000 	.inst	0x61010000 ; undefined
     9c4:	00080b98 	.inst	0x00080b98 ; undefined
     9c8:	00000000 	.inst	0x00000000 ; undefined
     9cc:	000000d8 	.inst	0x000000d8 ; undefined
     9d0:	00000000 	.inst	0x00000000 ; undefined
     9d4:	03289c01 	.inst	0x03289c01 ; undefined
     9d8:	700f0000 	adr	x0, 1e9db <_start-0x61625>
     9dc:	a4610100 	.inst	0xa4610100 ; undefined
     9e0:	02000000 	.inst	0x02000000 ; undefined
     9e4:	c1085891 	.inst	0xc1085891 ; undefined
     9e8:	01000001 	.inst	0x01000001 ; undefined
     9ec:	00005261 	.inst	0x00005261 ; undefined
     9f0:	54910200 	b.eq	fffffffffff22a30 <__stack_top+0xffffffffffe82a30>  // b.none
     9f4:	00022108 	.inst	0x00022108 ; undefined
     9f8:	52610100 	.inst	0x52610100 ; undefined
     9fc:	02000000 	.inst	0x02000000 ; undefined
     a00:	68095091 	.inst	0x68095091 ; undefined
     a04:	63010069 	.inst	0x63010069 ; undefined
     a08:	00000052 	.inst	0x00000052 ; undefined
     a0c:	097c9102 	.inst	0x097c9102 ; undefined
     a10:	01006f6c 	.inst	0x01006f6c ; undefined
     a14:	00005264 	.inst	0x00005264 ; undefined
     a18:	78910200 	ldursh	x0, [x16, #-240]
     a1c:	080bd80c 	stlxrb	w11, w12, [x0]
     a20:	00000000 	.inst	0x00000000 ; undefined
     a24:	00007c00 	.inst	0x00007c00 ; undefined
     a28:	00000000 	.inst	0x00000000 ; undefined
     a2c:	696d0900 	ldpsw	x0, x2, [x8, #-152]
     a30:	66010064 	.inst	0x66010064 ; undefined
     a34:	00000052 	.inst	0x00000052 ; undefined
     a38:	0d749102 	.inst	0x0d749102 ; undefined
     a3c:	000002c2 	.inst	0x000002c2 ; undefined
     a40:	00a46a01 	.inst	0x00a46a01 ; undefined
     a44:	91020000 	add	x0, x0, #0x80
     a48:	10000068 	adr	x8, a54 <_start-0x7f5ac>
     a4c:	00000241 	.inst	0x00000241 ; undefined
     a50:	00a48c01 	.inst	0x00a48c01 ; undefined
     a54:	0c700000 	.inst	0x0c700000 ; undefined
     a58:	00000008 	.inst	0x00000008 ; undefined
     a5c:	00a80000 	.inst	0x00a80000 ; undefined
     a60:	00000000 	.inst	0x00000000 ; undefined
     a64:	9c010000 	ldr	q0, 2a64 <_start-0x7d59c>
     a68:	000003bc 	.inst	0x000003bc ; undefined
     a6c:	0100700f 	.inst	0x0100700f ; undefined
     a70:	0000a48c 	.inst	0x0000a48c ; undefined
     a74:	58910200 	ldr	x0, fffffffffff22ab4 <__stack_top+0xffffffffffe82ab4>
     a78:	0001f108 	.inst	0x0001f108 ; undefined
     a7c:	528c0100 	mov	w0, #0x6008                	// #24584
     a80:	02000000 	.inst	0x02000000 ; undefined
     a84:	9a085491 	.inst	0x9a085491 ; undefined
     a88:	01000002 	.inst	0x01000002 ; undefined
     a8c:	0000528c 	.inst	0x0000528c ; undefined
     a90:	50910200 	adr	x0, fffffffffff22ad2 <__stack_top+0xffffffffffe82ad2>
     a94:	080c840c 	stlxrb	w12, w12, [x0]
     a98:	00000000 	.inst	0x00000000 ; undefined
     a9c:	00008800 	.inst	0x00008800 ; undefined
     aa0:	00000000 	.inst	0x00000000 ; undefined
     aa4:	00690900 	.inst	0x00690900 ; undefined
     aa8:	00528e01 	.inst	0x00528e01 ; undefined
     aac:	91020000 	add	x0, x0, #0x80
     ab0:	0c900c7c 	.inst	0x0c900c7c ; undefined
     ab4:	00000008 	.inst	0x00000008 ; undefined
     ab8:	00640000 	.inst	0x00640000 ; undefined
     abc:	00000000 	.inst	0x00000000 ; undefined
     ac0:	870d0000 	.inst	0x870d0000 ; undefined
     ac4:	01000002 	.inst	0x01000002 ; undefined
     ac8:	0000a48f 	.inst	0x0000a48f ; undefined
     acc:	70910200 	adr	x0, fffffffffff22b0f <__stack_top+0xffffffffffe82b0f>
     ad0:	01007009 	.inst	0x01007009 ; undefined
     ad4:	0000a490 	.inst	0x0000a490 ; undefined
     ad8:	68910200 	.inst	0x68910200 ; undefined
     adc:	10000000 	adr	x0, adc <_start-0x7f524>
     ae0:	00000239 	.inst	0x00000239 ; undefined
     ae4:	0480b401 	.inst	0x0480b401 ; undefined
     ae8:	0d180000 	.inst	0x0d180000 ; undefined
     aec:	00000008 	.inst	0x00000008 ; undefined
     af0:	01580000 	.inst	0x01580000 ; undefined
     af4:	00000000 	.inst	0x00000000 ; undefined
     af8:	9c010000 	ldr	q0, 2af8 <_start-0x7d508>
     afc:	00000480 	.inst	0x00000480 ; undefined
     b00:	0005b508 	.inst	0x0005b508 ; undefined
     b04:	82b40100 	.inst	0x82b40100 ; undefined
     b08:	02000004 	.inst	0x02000004 ; undefined
     b0c:	e80d4c91 	.inst	0xe80d4c91 ; undefined
     b10:	01000002 	.inst	0x01000002 ; undefined
     b14:	000052b5 	.inst	0x000052b5 ; undefined
     b18:	70910200 	adr	x0, fffffffffff22b5b <__stack_top+0xffffffffffe82b5b>
     b1c:	0002e60d 	.inst	0x0002e60d ; undefined
     b20:	52b70100 	mov	w0, #0xb8080000            	// #-1207435264
     b24:	02000000 	.inst	0x02000000 ; undefined
     b28:	2c0d6c91 	stnp	s17, s27, [x4, #104]
     b2c:	01000002 	.inst	0x01000002 ; undefined
     b30:	000482c6 	.inst	0x000482c6 ; undefined
     b34:	7c910200 	.inst	0x7c910200 ; undefined
     b38:	00021c0d 	.inst	0x00021c0d ; undefined
     b3c:	52c70100 	.inst	0x52c70100 ; undefined
     b40:	02000000 	.inst	0x02000000 ; undefined
     b44:	ec0c7891 	.inst	0xec0c7891 ; undefined
     b48:	0000080d 	.inst	0x0000080d ; undefined
     b4c:	6c000000 	stnp	d0, d0, [x0]
     b50:	00000000 	.inst	0x00000000 ; undefined
     b54:	09000000 	.inst	0x09000000 ; undefined
     b58:	ce010069 	.inst	0xce010069 ; undefined
     b5c:	00000052 	.inst	0x00000052 ; undefined
     b60:	0c749102 	.inst	0x0c749102 ; undefined
     b64:	00080df8 	.inst	0x00080df8 ; undefined
     b68:	00000000 	.inst	0x00000000 ; undefined
     b6c:	00000048 	.inst	0x00000048 ; undefined
     b70:	00000000 	.inst	0x00000000 ; undefined
     b74:	0002870d 	.inst	0x0002870d ; undefined
     b78:	a4cf0100 	.inst	0xa4cf0100 ; undefined
     b7c:	02000000 	.inst	0x02000000 ; undefined
     b80:	200c6091 	.inst	0x200c6091 ; undefined
     b84:	0000080e 	.inst	0x0000080e ; undefined
     b88:	20000000 	.inst	0x20000000 ; undefined
     b8c:	00000000 	.inst	0x00000000 ; undefined
     b90:	09000000 	.inst	0x09000000 ; undefined
     b94:	d2010070 	eor	x16, x3, #0x8000000080000000
     b98:	000000a4 	.inst	0x000000a4 ; undefined
     b9c:	00589102 	.inst	0x00589102 ; undefined
     ba0:	11000000 	add	w0, w0, #0x0
     ba4:	07041208 	.inst	0x07041208 ; undefined
     ba8:	0000005d 	.inst	0x0000005d ; undefined
     bac:	00026e10 	.inst	0x00026e10 ; undefined
     bb0:	52e40100 	.inst	0x52e40100 ; undefined
     bb4:	70000000 	adr	x0, bb7 <_start-0x7f449>
     bb8:	0000080e 	.inst	0x0000080e ; undefined
     bbc:	7c000000 	stur	h0, [x0]
     bc0:	00000001 	.inst	0x00000001 ; undefined
     bc4:	01000000 	.inst	0x01000000 ; undefined
     bc8:	00055f9c 	.inst	0x00055f9c ; undefined
     bcc:	01eb0800 	.inst	0x01eb0800 ; undefined
     bd0:	e4010000 	.inst	0xe4010000 ; undefined
     bd4:	00000052 	.inst	0x00000052 ; undefined
     bd8:	7fbc9103 	fmulx	s3, s8, v28.s[1]
     bdc:	0002ef08 	.inst	0x0002ef08 ; undefined
     be0:	52e40100 	.inst	0x52e40100 ; undefined
     be4:	03000000 	.inst	0x03000000 ; undefined
     be8:	0d7fb891 	.inst	0x0d7fb891 ; undefined
     bec:	00000261 	.inst	0x00000261 ; undefined
     bf0:	0052e501 	.inst	0x0052e501 ; undefined
     bf4:	91020000 	add	x0, x0, #0x80
     bf8:	0e840c7c 	.inst	0x0e840c7c ; undefined
     bfc:	00000008 	.inst	0x00000008 ; undefined
     c00:	01480000 	.inst	0x01480000 ; undefined
     c04:	00000000 	.inst	0x00000000 ; undefined
     c08:	69090000 	.inst	0x69090000 ; undefined
     c0c:	52e60100 	.inst	0x52e60100 ; undefined
     c10:	02000000 	.inst	0x02000000 ; undefined
     c14:	00137891 	.inst	0x00137891 ; undefined
     c18:	0d000000 	st1	{v0.b}[0], [x0]
     c1c:	000001fe 	.inst	0x000001fe ; undefined
     c20:	0052e701 	.inst	0x0052e701 ; undefined
     c24:	91020000 	add	x0, x0, #0x80
     c28:	02670d74 	.inst	0x02670d74 ; undefined
     c2c:	e8010000 	.inst	0xe8010000 ; undefined
     c30:	00000052 	.inst	0x00000052 ; undefined
     c34:	0d649102 	.inst	0x0d649102 ; undefined
     c38:	00000210 	.inst	0x00000210 ; undefined
     c3c:	00a4e901 	.inst	0x00a4e901 ; undefined
     c40:	91020000 	add	x0, x0, #0x80
     c44:	00700958 	.inst	0x00700958 ; undefined
     c48:	00a4ea01 	.inst	0x00a4ea01 ; undefined
     c4c:	91020000 	add	x0, x0, #0x80
     c50:	0ee80c68 	.inst	0x0ee80c68 ; undefined
     c54:	00000008 	.inst	0x00000008 ; undefined
     c58:	00a00000 	.inst	0x00a00000 ; undefined
     c5c:	00000000 	.inst	0x00000000 ; undefined
     c60:	7a0d0000 	sbcs	w0, w0, w13
     c64:	01000002 	.inst	0x01000002 ; undefined
     c68:	0000a4f7 	.inst	0x0000a4f7 ; undefined
     c6c:	50910200 	adr	x0, fffffffffff22cae <__stack_top+0xffffffffffe82cae>
     c70:	0002c20d 	.inst	0x0002c20d ; undefined
     c74:	a4f80100 	.inst	0xa4f80100 ; undefined
     c78:	02000000 	.inst	0x02000000 ; undefined
     c7c:	00004891 	.inst	0x00004891 ; undefined
     c80:	d7140000 	.inst	0xd7140000 ; undefined
     c84:	01000002 	.inst	0x01000002 ; undefined
     c88:	0fec0121 	.inst	0x0fec0121 ; undefined
     c8c:	00000008 	.inst	0x00000008 ; undefined
     c90:	01280000 	.inst	0x01280000 ; undefined
     c94:	00000000 	.inst	0x00000000 ; undefined
     c98:	9c010000 	ldr	q0, 2c98 <_start-0x7d368>
     c9c:	00000617 	.inst	0x00000617 ; undefined
     ca0:	0005c515 	.inst	0x0005c515 ; undefined
     ca4:	01210100 	.inst	0x01210100 ; undefined
     ca8:	00000617 	.inst	0x00000617 ; undefined
     cac:	15489102 	b	52250b4 <__stack_top+0x51850b4>
     cb0:	000005b5 	.inst	0x000005b5 ; undefined
     cb4:	82012101 	.inst	0x82012101 ; undefined
     cb8:	02000004 	.inst	0x02000004 ; undefined
     cbc:	eb164491 	subs	x17, x4, x22, lsl #17
     cc0:	01000001 	.inst	0x01000001 ; undefined
     cc4:	00520123 	.inst	0x00520123 ; undefined
     cc8:	91020000 	add	x0, x0, #0x80
     ccc:	02e81674 	.inst	0x02e81674 ; undefined
     cd0:	24010000 	cmphs	p0.b, p0/z, z0.b, z1.b
     cd4:	00005201 	.inst	0x00005201 ; undefined
     cd8:	70910200 	adr	x0, fffffffffff22d1b <__stack_top+0xffffffffffe82d1b>
     cdc:	0002ef16 	.inst	0x0002ef16 ; undefined
     ce0:	01260100 	.inst	0x01260100 ; undefined
     ce4:	00000482 	.inst	0x00000482 ; undefined
     ce8:	167c9102 	b	fffffffff9f250f0 <__stack_top+0xfffffffff9e850f0>
     cec:	0000021c 	.inst	0x0000021c ; undefined
     cf0:	52012701 	eor	w1, w24, #0x800001ff
     cf4:	02000000 	.inst	0x02000000 ; undefined
     cf8:	61167891 	.inst	0x61167891 ; undefined
     cfc:	01000002 	.inst	0x01000002 ; undefined
     d00:	0052013e 	.inst	0x0052013e ; undefined
     d04:	91020000 	add	x0, x0, #0x80
     d08:	10d00c6c 	adr	x12, fffffffffffa0e94 <__stack_top+0xfffffffffff00e94>
     d0c:	00000008 	.inst	0x00000008 ; undefined
     d10:	00380000 	.inst	0x00380000 ; NYI
     d14:	00000000 	.inst	0x00000000 ; undefined
     d18:	87160000 	.inst	0x87160000 ; undefined
     d1c:	01000002 	.inst	0x01000002 ; undefined
     d20:	00a40142 	.inst	0x00a40142 ; undefined
     d24:	91020000 	add	x0, x0, #0x80
     d28:	02c21660 	.inst	0x02c21660 ; undefined
     d2c:	43010000 	.inst	0x43010000 ; undefined
     d30:	0000a401 	.inst	0x0000a401 ; undefined
     d34:	58910200 	ldr	x0, fffffffffff22d74 <__stack_top+0xffffffffffe82d74>
     d38:	08120000 	stxrb	w18, w0, [x0]
     d3c:	00005807 	.inst	0x00005807 ; undefined
     d40:	005f1700 	.inst	0x005f1700 ; undefined
     d44:	062e0000 	.inst	0x062e0000 ; undefined
     d48:	2e180000 	ext	v0.8b, v0.8b, v24.8b, #0
     d4c:	10000006 	adr	x6, d4c <_start-0x7f2b4>
     d50:	07081200 	.inst	0x07081200 ; undefined
     d54:	00000291 	.inst	0x00000291 ; undefined
     d58:	00024f0d 	.inst	0x00024f0d ; undefined
     d5c:	1e060100 	.inst	0x1e060100 ; undefined
     d60:	09000006 	.inst	0x09000006 ; undefined
     d64:	0857a803 	ldaxrb	w3, [x0]
     d68:	00000000 	.inst	0x00000000 ; undefined
     d6c:	00d90000 	.inst	0x00d90000 ; undefined
     d70:	00040000 	.inst	0x00040000 ; undefined
     d74:	00000387 	.inst	0x00000387 ; undefined
     d78:	00be0108 	.inst	0x00be0108 ; undefined
     d7c:	0c0c0000 	.inst	0x0c0c0000 ; undefined
     d80:	8e000003 	.inst	0x8e000003 ; undefined
     d84:	14000000 	b	d84 <_start-0x7f27c>
     d88:	00000811 	.inst	0x00000811 ; undefined
     d8c:	18000000 	ldr	w0, d8c <_start-0x7f274>
     d90:	00000001 	.inst	0x00000001 ; undefined
     d94:	d3000000 	.inst	0xd3000000 ; undefined
     d98:	02000003 	.inst	0x02000003 ; undefined
     d9c:	00580708 	.inst	0x00580708 ; undefined
     da0:	04030000 	subr	z0.b, p0/m, z0.b, z0.b
     da4:	746e6905 	.inst	0x746e6905 ; undefined
     da8:	08010200 	stxrb	w1, w0, [x16]
     dac:	00000411 	.inst	0x00000411 ; undefined
     db0:	5d070402 	.inst	0x5d070402 ; undefined
     db4:	02000000 	.inst	0x02000000 ; undefined
     db8:	02910708 	.inst	0x02910708 ; undefined
     dbc:	27040000 	.inst	0x27040000 ; undefined
     dc0:	01000003 	.inst	0x01000003 ; undefined
     dc4:	08111404 	stxrb	w17, w4, [x0]
     dc8:	00000000 	.inst	0x00000000 ; undefined
     dcc:	00009c00 	.inst	0x00009c00 ; undefined
     dd0:	00000000 	.inst	0x00000000 ; undefined
     dd4:	989c0100 	ldrsw	x0, fffffffffff38df4 <__stack_top+0xffffffffffe98df4>
     dd8:	05000000 	orr	z0.s, z0.s, #0x1
     ddc:	0000034a 	.inst	0x0000034a ; undefined
     de0:	002d0501 	.inst	0x002d0501 ; NYI
     de4:	91020000 	add	x0, x0, #0x80
     de8:	03420578 	.inst	0x03420578 ; undefined
     dec:	05010000 	orr	z0.s, z0.s, #0x1
     df0:	0000002d 	.inst	0x0000002d ; undefined
     df4:	05709102 	.inst	0x05709102 ; undefined
     df8:	0000031f 	.inst	0x0000031f ; undefined
     dfc:	002d0501 	.inst	0x002d0501 ; NYI
     e00:	91020000 	add	x0, x0, #0x80
     e04:	31060068 	adds	w8, w3, #0x180
     e08:	01000003 	.inst	0x01000003 ; undefined
     e0c:	0811b018 	stlxrb	w17, w24, [x0]
     e10:	00000000 	.inst	0x00000000 ; undefined
     e14:	00007c00 	.inst	0x00007c00 ; undefined
     e18:	00000000 	.inst	0x00000000 ; undefined
     e1c:	059c0100 	mov	z0.s, p12/z, #8
     e20:	00000353 	.inst	0x00000353 ; undefined
     e24:	002d1e01 	.inst	0x002d1e01 ; NYI
     e28:	91020000 	add	x0, x0, #0x80
     e2c:	033b0578 	.inst	0x033b0578 ; undefined
     e30:	1e010000 	.inst	0x1e010000 ; undefined
     e34:	0000002d 	.inst	0x0000002d ; undefined
     e38:	07709102 	.inst	0x07709102 ; undefined
     e3c:	00706d74 	.inst	0x00706d74 ; undefined
     e40:	002d1e01 	.inst	0x002d1e01 ; NYI
     e44:	91020000 	add	x0, x0, #0x80
     e48:	54000068 	b.hi	e54 <_start-0x7f1ac>  // b.pmore
     e4c:	02000000 	.inst	0x02000000 ; undefined
     e50:	0003fd00 	.inst	0x0003fd00 ; undefined
     e54:	38010800 	sttrb	w0, [x0, #16]
     e58:	2c000004 	stnp	s4, s0, [x0]
     e5c:	00000812 	.inst	0x00000812 ; undefined
     e60:	50000000 	adr	x0, e62 <_start-0x7f19e>
     e64:	00000812 	.inst	0x00000812 ; undefined
     e68:	6b000000 	subs	w0, w0, w0
     e6c:	656e7265 	fnmls	z5.h, p4/m, z19.h, z14.h
     e70:	6d6d2f6c 	ldp	d12, d11, [x27, #-304]
     e74:	2f00532e 	.inst	0x2f00532e ; undefined
     e78:	656d6f68 	fnmls	z8.h, p3/m, z27.h, z13.h
     e7c:	7261732f 	.inst	0x7261732f ; undefined
     e80:	69686361 	ldpsw	x1, x24, [x27, #-192]
     e84:	636e2f75 	.inst	0x636e2f75 ; undefined
     e88:	6f2f7574 	uqshl	v20.4s, v11.4s, #15
     e8c:	30326373 	adr	x19, 65af9 <_start-0x1a507>
     e90:	47003132 	.inst	0x47003132 ; undefined
     e94:	4120554e 	.inst	0x4120554e ; undefined
     e98:	2e322053 	usubl	v19.8h, v2.8b, v18.8b
     e9c:	312e3632 	adds	w18, w17, #0xb8d
     ea0:	7e800100 	.inst	0x7e800100 ; undefined
     ea4:	0400000a 	add	z10.b, p0/m, z10.b, z0.b
     ea8:	00041100 	.inst	0x00041100 ; undefined
     eac:	be010800 	.inst	0xbe010800 ; undefined
     eb0:	0c000000 	st4	{v0.8b-v3.8b}, [x0]
     eb4:	0000036c 	.inst	0x0000036c ; undefined
     eb8:	0000008e 	.inst	0x0000008e ; undefined
     ebc:	00081250 	.inst	0x00081250 ; undefined
     ec0:	00000000 	.inst	0x00000000 ; undefined
     ec4:	00000924 	.inst	0x00000924 ; undefined
     ec8:	00000000 	.inst	0x00000000 ; undefined
     ecc:	0000047d 	.inst	0x0000047d ; undefined
     ed0:	00012402 	.inst	0x00012402 ; undefined
     ed4:	06022000 	.inst	0x06022000 ; undefined
     ed8:	0000006a 	.inst	0x0000006a ; undefined
     edc:	00002203 	.inst	0x00002203 ; undefined
     ee0:	8e070200 	.inst	0x8e070200 ; undefined
     ee4:	00000000 	.inst	0x00000000 ; undefined
     ee8:	00002803 	.inst	0x00002803 ; undefined
     eec:	b9080200 	str	w0, [x16, #2048]
     ef0:	08000000 	stxrb	w0, w0, [x0]
     ef4:	00006a03 	.inst	0x00006a03 ; undefined
     ef8:	e4090200 	.inst	0xe4090200 ; undefined
     efc:	10000000 	adr	x0, efc <_start-0x7f104>
     f00:	00000d03 	.inst	0x00000d03 ; undefined
     f04:	ea0a0200 	ands	x0, x16, x10
     f08:	18000000 	ldr	w0, f08 <_start-0x7f0f8>
     f0c:	00220200 	.inst	0x00220200 ; NYI
     f10:	02100000 	.inst	0x02100000 ; undefined
     f14:	00008e14 	.inst	0x00008e14 ; undefined
     f18:	00700300 	.inst	0x00700300 ; undefined
     f1c:	15020000 	b	4080f1c <__stack_top+0x3fe0f1c>
     f20:	00000134 	.inst	0x00000134 ; undefined
     f24:	73660400 	.inst	0x73660400 ; undefined
     f28:	78160200 	sturh	w0, [x16, #-160]
     f2c:	08000001 	stxrb	w0, w1, [x0]
     f30:	6a080500 	ands	w0, w8, w8, lsl #1
     f34:	02000000 	.inst	0x02000000 ; undefined
     f38:	0000002e 	.inst	0x0000002e ; undefined
     f3c:	b9230210 	str	w16, [x16, #8960]
     f40:	03000000 	.inst	0x03000000 ; undefined
     f44:	00000827 	.inst	0x00000827 ; undefined
     f48:	022b2402 	.inst	0x022b2402 ; undefined
     f4c:	03000000 	.inst	0x03000000 ; undefined
     f50:	00000861 	.inst	0x00000861 ; undefined
     f54:	022b2502 	.inst	0x022b2502 ; undefined
     f58:	00080000 	.inst	0x00080000 ; undefined
     f5c:	00940805 	.inst	0x00940805 ; undefined
     f60:	7e020000 	.inst	0x7e020000 ; undefined
     f64:	10000000 	adr	x0, f64 <_start-0x7f09c>
     f68:	00e41e02 	.inst	0x00e41e02 ; undefined
     f6c:	55030000 	.inst	0x55030000 ; undefined
     f70:	02000008 	.inst	0x02000008 ; undefined
     f74:	0001e11f 	.inst	0x0001e11f ; undefined
     f78:	f6030000 	.inst	0xf6030000 ; undefined
     f7c:	02000007 	.inst	0x02000007 ; undefined
     f80:	00020020 	.inst	0x00020020 ; undefined
     f84:	05000800 	orr	z0.s, z0.s, #0x80000000
     f88:	0000bf08 	.inst	0x0000bf08 ; undefined
     f8c:	07080600 	.inst	0x07080600 ; undefined
     f90:	00000124 	.inst	0x00000124 ; undefined
     f94:	002d0b02 	.inst	0x002d0b02 ; NYI
     f98:	29020000 	stp	w0, w0, [x0, #16]
     f9c:	20000006 	.inst	0x20000006 ; undefined
     fa0:	01340d02 	.inst	0x01340d02 ; undefined
     fa4:	24030000 	cmphs	p0.b, p0/z, z0.b, z3.b
     fa8:	02000001 	.inst	0x02000001 ; undefined
     fac:	0001340e 	.inst	0x0001340e ; undefined
     fb0:	3f030000 	.inst	0x3f030000 ; undefined
     fb4:	02000000 	.inst	0x02000000 ; undefined
     fb8:	00013a0f 	.inst	0x00013a0f ; undefined
     fbc:	6a030800 	ands	w0, w0, w3, lsl #2
     fc0:	02000000 	.inst	0x02000000 ; undefined
     fc4:	0000e410 	.inst	0x0000e410 ; undefined
     fc8:	3c031000 	stur	b0, [x0, #49]
     fcc:	02000004 	.inst	0x02000004 ; undefined
     fd0:	00014111 	.inst	0x00014111 ; undefined
     fd4:	05001800 	orr	z0.s, z0.s, #0x20000000
     fd8:	00002d08 	.inst	0x00002d08 ; undefined
     fdc:	07080800 	.inst	0x07080800 ; undefined
     fe0:	00000058 	.inst	0x00000058 ; undefined
     fe4:	69050409 	.inst	0x69050409 ; undefined
     fe8:	0700746e 	.inst	0x0700746e ; undefined
     fec:	00000629 	.inst	0x00000629 ; undefined
     ff0:	00f71202 	.inst	0x00f71202 ; undefined
     ff4:	b3020000 	.inst	0xb3020000 ; undefined
     ff8:	10000000 	adr	x0, ff8 <_start-0x7f008>
     ffc:	01781902 	.inst	0x01781902 ; undefined
    1000:	08030000 	stxrb	w3, w0, [x0]
    1004:	02000006 	.inst	0x02000006 ; undefined
    1008:	0001891a 	.inst	0x0001891a ; undefined
    100c:	1c030000 	ldr	s0, 700c <_start-0x78ff4>
    1010:	02000000 	.inst	0x02000000 ; undefined
    1014:	0001b51b 	.inst	0x0001b51b ; undefined
    1018:	05000800 	orr	z0.s, z0.s, #0x80000000
    101c:	00015308 	.inst	0x00015308 ; undefined
    1020:	00220700 	.inst	0x00220700 ; NYI
    1024:	17020000 	b	fffffffffc081024 <__stack_top+0xfffffffffbfe1024>
    1028:	0000006a 	.inst	0x0000006a ; undefined
    102c:	01960805 	.inst	0x01960805 ; undefined
    1030:	01080000 	.inst	0x01080000 ; undefined
    1034:	00041108 	.inst	0x00041108 ; undefined
    1038:	018f0a00 	.inst	0x018f0a00 ; undefined
    103c:	410b0000 	.inst	0x410b0000 ; undefined
    1040:	af000001 	.inst	0xaf000001 ; undefined
    1044:	0c000001 	st4	{v1.8b-v4.8b}, [x0]
    1048:	00000178 	.inst	0x00000178 ; undefined
    104c:	0001af0c 	.inst	0x0001af0c ; undefined
    1050:	08050000 	stxrb	w5, w0, [x0]
    1054:	0000017e 	.inst	0x0000017e ; undefined
    1058:	019b0805 	.inst	0x019b0805 ; undefined
    105c:	410b0000 	.inst	0x410b0000 ; undefined
    1060:	d4000001 	svc	#0x0
    1064:	0c000001 	st4	{v1.8b-v4.8b}, [x0]
    1068:	000001d4 	.inst	0x000001d4 ; undefined
    106c:	0001da0c 	.inst	0x0001da0c ; undefined
    1070:	013a0c00 	.inst	0x013a0c00 ; undefined
    1074:	05000000 	orr	z0.s, z0.s, #0x1
    1078:	00014808 	.inst	0x00014808 ; undefined
    107c:	e0080500 	.inst	0xe0080500 ; undefined
    1080:	0d000001 	st1	{v1.b}[0], [x0]
    1084:	01bb0805 	.inst	0x01bb0805 ; undefined
    1088:	410b0000 	.inst	0x410b0000 ; undefined
    108c:	00000001 	.inst	0x00000001 ; undefined
    1090:	0c000002 	st4	{v2.8b-v5.8b}, [x0]
    1094:	000001d4 	.inst	0x000001d4 ; undefined
    1098:	0000ea0c 	.inst	0x0000ea0c ; undefined
    109c:	013a0c00 	.inst	0x013a0c00 ; undefined
    10a0:	05000000 	orr	z0.s, z0.s, #0x1
    10a4:	0001e708 	.inst	0x0001e708 ; undefined
    10a8:	01410b00 	.inst	0x01410b00 ; undefined
    10ac:	021f0000 	.inst	0x021f0000 ; undefined
    10b0:	1f0c0000 	fmadd	s0, s0, s12, s0
    10b4:	0c000002 	st4	{v2.8b-v5.8b}, [x0]
    10b8:	00000225 	.inst	0x00000225 ; undefined
    10bc:	0001890c 	.inst	0x0001890c ; undefined
    10c0:	08050000 	stxrb	w5, w0, [x0]
    10c4:	000000ec 	.inst	0x000000ec ; undefined
    10c8:	021f0805 	.inst	0x021f0805 ; undefined
    10cc:	08050000 	stxrb	w5, w0, [x0]
    10d0:	00000206 	.inst	0x00000206 ; undefined
    10d4:	0003a70e 	.inst	0x0003a70e ; undefined
    10d8:	03017800 	.inst	0x03017800 ; undefined
    10dc:	00047f19 	.inst	0x00047f19 ; undefined
    10e0:	31780400 	adds	w0, w0, #0xe01, lsl #12
    10e4:	1b030039 	madd	w25, w1, w3, w0
    10e8:	0000013a 	.inst	0x0000013a ; undefined
    10ec:	32780400 	.inst	0x32780400 ; undefined
    10f0:	1c030030 	ldr	s16, 70f4 <_start-0x78f0c>
    10f4:	0000013a 	.inst	0x0000013a ; undefined
    10f8:	32780408 	.inst	0x32780408 ; undefined
    10fc:	1d030031 	.inst	0x1d030031 ; undefined
    1100:	0000013a 	.inst	0x0000013a ; undefined
    1104:	32780410 	.inst	0x32780410 ; undefined
    1108:	1e030032 	.inst	0x1e030032 ; undefined
    110c:	0000013a 	.inst	0x0000013a ; undefined
    1110:	32780418 	.inst	0x32780418 ; undefined
    1114:	1f030033 	fmadd	s19, s1, s3, s0
    1118:	0000013a 	.inst	0x0000013a ; undefined
    111c:	32780420 	.inst	0x32780420 ; undefined
    1120:	20030034 	.inst	0x20030034 ; undefined
    1124:	0000013a 	.inst	0x0000013a ; undefined
    1128:	32780428 	.inst	0x32780428 ; undefined
    112c:	21030035 	.inst	0x21030035 ; undefined
    1130:	0000013a 	.inst	0x0000013a ; undefined
    1134:	32780430 	.inst	0x32780430 ; undefined
    1138:	22030036 	.inst	0x22030036 ; undefined
    113c:	0000013a 	.inst	0x0000013a ; undefined
    1140:	32780438 	.inst	0x32780438 ; undefined
    1144:	23030037 	.inst	0x23030037 ; undefined
    1148:	0000013a 	.inst	0x0000013a ; undefined
    114c:	32780440 	.inst	0x32780440 ; undefined
    1150:	24030038 	cmphi	p8.b, p0/z, z1.b, z3.b
    1154:	0000013a 	.inst	0x0000013a ; undefined
    1158:	70660448 	adr	x8, cd1e3 <__stack_top+0x2d1e3>
    115c:	3a260300 	.inst	0x3a260300 ; undefined
    1160:	50000001 	adr	x1, 1162 <_start-0x7ee9e>
    1164:	00726c04 	.inst	0x00726c04 ; undefined
    1168:	013a2703 	.inst	0x013a2703 ; undefined
    116c:	04580000 	orr	z0.h, p0/m, z0.h, z0.h
    1170:	03007073 	.inst	0x03007073 ; undefined
    1174:	00013a28 	.inst	0x00013a28 ; undefined
    1178:	a2036000 	.inst	0xa2036000 ; undefined
    117c:	03000003 	.inst	0x03000003 ; undefined
    1180:	00013a2a 	.inst	0x00013a2a ; undefined
    1184:	65046800 	.inst	0x65046800 ; undefined
    1188:	0300726c 	.inst	0x0300726c ; undefined
    118c:	00013a2b 	.inst	0x00013a2b ; undefined
    1190:	75047000 	.inst	0x75047000 ; undefined
    1194:	03007073 	.inst	0x03007073 ; undefined
    1198:	00013a2e 	.inst	0x00013a2e ; undefined
    119c:	75047800 	.inst	0x75047800 ; undefined
    11a0:	03003078 	.inst	0x03003078 ; undefined
    11a4:	00013a30 	.inst	0x00013a30 ; undefined
    11a8:	75048000 	.inst	0x75048000 ; undefined
    11ac:	03003178 	.inst	0x03003178 ; undefined
    11b0:	00013a31 	.inst	0x00013a31 ; undefined
    11b4:	75048800 	.inst	0x75048800 ; undefined
    11b8:	03003278 	.inst	0x03003278 ; undefined
    11bc:	00013a32 	.inst	0x00013a32 ; undefined
    11c0:	75049000 	.inst	0x75049000 ; undefined
    11c4:	03003378 	.inst	0x03003378 ; undefined
    11c8:	00013a33 	.inst	0x00013a33 ; undefined
    11cc:	75049800 	.inst	0x75049800 ; undefined
    11d0:	03003478 	.inst	0x03003478 ; undefined
    11d4:	00013a34 	.inst	0x00013a34 ; undefined
    11d8:	7504a000 	.inst	0x7504a000 ; undefined
    11dc:	03003578 	.inst	0x03003578 ; undefined
    11e0:	00013a35 	.inst	0x00013a35 ; undefined
    11e4:	7504a800 	.inst	0x7504a800 ; undefined
    11e8:	03003678 	.inst	0x03003678 ; undefined
    11ec:	00013a36 	.inst	0x00013a36 ; undefined
    11f0:	7504b000 	.inst	0x7504b000 ; undefined
    11f4:	03003778 	.inst	0x03003778 ; undefined
    11f8:	00013a37 	.inst	0x00013a37 ; undefined
    11fc:	7504b800 	.inst	0x7504b800 ; undefined
    1200:	03003878 	.inst	0x03003878 ; undefined
    1204:	00013a38 	.inst	0x00013a38 ; undefined
    1208:	7504c000 	.inst	0x7504c000 ; undefined
    120c:	03003978 	.inst	0x03003978 ; undefined
    1210:	00013a39 	.inst	0x00013a39 ; undefined
    1214:	ef03c800 	.inst	0xef03c800 ; undefined
    1218:	03000003 	.inst	0x03000003 ; undefined
    121c:	00013a3a 	.inst	0x00013a3a ; undefined
    1220:	f403d000 	.inst	0xf403d000 ; undefined
    1224:	03000003 	.inst	0x03000003 ; undefined
    1228:	00013a3b 	.inst	0x00013a3b ; undefined
    122c:	e503d800 	st1w	{z0.d}, p6, [x0, z3.d, sxtw]
    1230:	03000004 	.inst	0x03000004 ; undefined
    1234:	00013a3c 	.inst	0x00013a3c ; undefined
    1238:	ea03e000 	ands	x0, x0, x3, lsl #56
    123c:	03000004 	.inst	0x03000004 ; undefined
    1240:	00013a3d 	.inst	0x00013a3d ; undefined
    1244:	ef03e800 	.inst	0xef03e800 ; undefined
    1248:	03000004 	.inst	0x03000004 ; undefined
    124c:	00013a3e 	.inst	0x00013a3e ; undefined
    1250:	7803f000 	sturh	w0, [x0, #63]
    1254:	03000004 	.inst	0x03000004 ; undefined
    1258:	00013a3f 	.inst	0x00013a3f ; undefined
    125c:	f40ff800 	.inst	0xf40ff800 ; undefined
    1260:	03000004 	.inst	0x03000004 ; undefined
    1264:	00013a40 	.inst	0x00013a40 ; undefined
    1268:	0f010000 	.inst	0x0f010000 ; undefined
    126c:	000004f9 	.inst	0x000004f9 ; undefined
    1270:	013a4103 	.inst	0x013a4103 ; undefined
    1274:	01080000 	.inst	0x01080000 ; undefined
    1278:	0004fe0f 	.inst	0x0004fe0f ; undefined
    127c:	3a420300 	ccmn	w24, w2, #0x0, eq  // eq = none
    1280:	10000001 	adr	x1, 1280 <_start-0x7ed80>
    1284:	05030f01 	orr	z1.d, z1.d, #0xffffffff80ffffff
    1288:	43030000 	.inst	0x43030000 ; undefined
    128c:	0000013a 	.inst	0x0000013a ; undefined
    1290:	4f0f0118 	.inst	0x4f0f0118 ; undefined
    1294:	03000004 	.inst	0x03000004 ; undefined
    1298:	00013a44 	.inst	0x00013a44 ; undefined
    129c:	0f012000 	.inst	0x0f012000 ; undefined
    12a0:	00000454 	.inst	0x00000454 ; undefined
    12a4:	013a4503 	.inst	0x013a4503 ; undefined
    12a8:	01280000 	.inst	0x01280000 ; undefined
    12ac:	0004590f 	.inst	0x0004590f ; undefined
    12b0:	3a460300 	ccmn	w24, w6, #0x0, eq  // eq = none
    12b4:	30000001 	adr	x1, 12b5 <_start-0x7ed4b>
    12b8:	045e0f01 	.inst	0x045e0f01 ; undefined
    12bc:	47030000 	.inst	0x47030000 ; undefined
    12c0:	0000013a 	.inst	0x0000013a ; undefined
    12c4:	bc0f0138 	stur	s24, [x9, #240]
    12c8:	03000003 	.inst	0x03000003 ; undefined
    12cc:	00013a48 	.inst	0x00013a48 ; undefined
    12d0:	0f014000 	.inst	0x0f014000 ; undefined
    12d4:	00000473 	.inst	0x00000473 ; undefined
    12d8:	013a4903 	.inst	0x013a4903 ; undefined
    12dc:	01480000 	.inst	0x01480000 ; undefined
    12e0:	0003c10f 	.inst	0x0003c10f ; undefined
    12e4:	3a4a0300 	ccmn	w24, w10, #0x0, eq  // eq = none
    12e8:	50000001 	adr	x1, 12ea <_start-0x7ed16>
    12ec:	047d0f01 	.inst	0x047d0f01 ; undefined
    12f0:	4b030000 	sub	w0, w0, w3
    12f4:	0000013a 	.inst	0x0000013a ; undefined
    12f8:	820f0158 	.inst	0x820f0158 ; undefined
    12fc:	03000004 	.inst	0x03000004 ; undefined
    1300:	00013a4c 	.inst	0x00013a4c ; undefined
    1304:	10016000 	adr	x0, 3f04 <_start-0x7c0fc>
    1308:	00706675 	.inst	0x00706675 ; undefined
    130c:	013a4d03 	.inst	0x013a4d03 ; undefined
    1310:	01680000 	.inst	0x01680000 ; undefined
    1314:	726c7510 	.inst	0x726c7510 ; undefined
    1318:	3a4e0300 	ccmn	w24, w14, #0x0, eq  // eq = none
    131c:	70000001 	adr	x1, 131f <_start-0x7ece1>
    1320:	a8070001 	stnp	x1, x0, [x0, #112]
    1324:	03000003 	.inst	0x03000003 ; undefined
    1328:	00023150 	.inst	0x00023150 ; undefined
    132c:	042e0e00 	.inst	0x042e0e00 ; undefined
    1330:	01b80000 	.inst	0x01b80000 ; undefined
    1334:	04f15203 	.inst	0x04f15203 ; undefined
    1338:	a8030000 	stnp	x0, x0, [x0, #48]
    133c:	03000003 	.inst	0x03000003 ; undefined
    1340:	00047f53 	.inst	0x00047f53 ; undefined
    1344:	69100000 	.inst	0x69100000 ; undefined
    1348:	54030064 	b.mi	7354 <_start-0x78cac>  // b.first
    134c:	000004f1 	.inst	0x000004f1 ; undefined
    1350:	640f0178 	.inst	0x640f0178 ; undefined
    1354:	03000004 	.inst	0x03000004 ; undefined
    1358:	0004f155 	.inst	0x0004f155 ; undefined
    135c:	0f017c00 	.inst	0x0f017c00 ; undefined
    1360:	000004dc 	.inst	0x000004dc ; undefined
    1364:	04f15603 	.inst	0x04f15603 ; undefined
    1368:	01800000 	.inst	0x01800000 ; undefined
    136c:	0004160f 	.inst	0x0004160f ; undefined
    1370:	f1570300 	subs	x0, x24, #0x5c0, lsl #12
    1374:	84000004 	ld1sb	{z4.s}, p0/z, [x0, z0.s, uxtw]
    1378:	04920f01 	smulh	z1.s, p3/m, z1.s, z24.s
    137c:	59030000 	.inst	0x59030000 ; undefined
    1380:	000004f1 	.inst	0x000004f1 ; undefined
    1384:	6a0f0188 	ands	w8, w12, w15
    1388:	03000004 	.inst	0x03000004 ; undefined
    138c:	0004f85a 	.inst	0x0004f85a ; undefined
    1390:	00019000 	.inst	0x00019000 ; undefined
    1394:	5d070408 	.inst	0x5d070408 ; undefined
    1398:	11000000 	add	w0, w0, #0x0
    139c:	000001d4 	.inst	0x000001d4 ; undefined
    13a0:	00000508 	.inst	0x00000508 ; undefined
    13a4:	00050812 	.inst	0x00050812 ; undefined
    13a8:	08000400 	stxrb	w0, w0, [x0]
    13ac:	02910708 	.inst	0x02910708 ; undefined
    13b0:	2f070000 	.inst	0x2f070000 ; undefined
    13b4:	03000004 	.inst	0x03000004 ; undefined
    13b8:	00048a5b 	.inst	0x00048a5b ; undefined
    13bc:	04460e00 	.inst	0x04460e00 ; undefined
    13c0:	01100000 	.inst	0x01100000 ; undefined
    13c4:	05585d03 	mov	z3.h, p8/m, #-24
    13c8:	4a030000 	eor	w0, w0, w3
    13cc:	03000004 	.inst	0x03000004 ; undefined
    13d0:	0005585e 	.inst	0x0005585e ; undefined
    13d4:	73040000 	.inst	0x73040000 ; undefined
    13d8:	5f030070 	.inst	0x5f030070 ; undefined
    13dc:	0000013a 	.inst	0x0000013a ; undefined
    13e0:	637010f8 	.inst	0x637010f8 ; undefined
    13e4:	3a600300 	.inst	0x3a600300 ; undefined
    13e8:	00000001 	.inst	0x00000001 ; undefined
    13ec:	04630f01 	.inst	0x04630f01 ; undefined
    13f0:	61030000 	.inst	0x61030000 ; undefined
    13f4:	0000013a 	.inst	0x0000013a ; undefined
    13f8:	11000108 	add	w8, w8, #0x0
    13fc:	0000013a 	.inst	0x0000013a ; undefined
    1400:	00000568 	.inst	0x00000568 ; undefined
    1404:	00050812 	.inst	0x00050812 ; undefined
    1408:	07001e00 	.inst	0x07001e00 ; undefined
    140c:	00000447 	.inst	0x00000447 ; undefined
    1410:	051a6203 	.inst	0x051a6203 ; undefined
    1414:	08050000 	stxrb	w5, w0, [x0]
    1418:	0000018f 	.inst	0x0000018f ; undefined
    141c:	057f0805 	.inst	0x057f0805 ; undefined
    1420:	01080000 	.inst	0x01080000 ; undefined
    1424:	00040808 	.inst	0x00040808 ; undefined
    1428:	049f1300 	.inst	0x049f1300 ; undefined
    142c:	13010000 	sbfiz	w0, w0, #31, #1
    1430:	00081250 	.inst	0x00081250 ; undefined
    1434:	00000000 	.inst	0x00000000 ; undefined
    1438:	00000034 	.inst	0x00000034 ; undefined
    143c:	00000000 	.inst	0x00000000 ; undefined
    1440:	7f139c01 	uqrshrn	h1, s0, #13
    1444:	01000003 	.inst	0x01000003 ; undefined
    1448:	08128417 	stlxrb	w18, w23, [x0]
    144c:	00000000 	.inst	0x00000000 ; undefined
    1450:	00003400 	.inst	0x00003400 ; undefined
    1454:	00000000 	.inst	0x00000000 ; undefined
    1458:	149c0100 	b	2701858 <__stack_top+0x2661858>
    145c:	000003c6 	.inst	0x000003c6 ; undefined
    1460:	12b81b01 	mov	w1, #0x3f27ffff            	// #1059586047
    1464:	00000008 	.inst	0x00000008 ; undefined
    1468:	002c0000 	.inst	0x002c0000 ; NYI
    146c:	00000000 	.inst	0x00000000 ; undefined
    1470:	9c010000 	ldr	q0, 3470 <_start-0x7cb90>
    1474:	000005e4 	.inst	0x000005e4 ; undefined
    1478:	0004cb15 	.inst	0x0004cb15 ; undefined
    147c:	3a1b0100 	adcs	w0, w8, w27
    1480:	02000001 	.inst	0x02000001 ; undefined
    1484:	16007891 	b	fffffffff801f6c8 <__stack_top+0xfffffffff7f7f6c8>
    1488:	000003f9 	.inst	0x000003f9 ; undefined
    148c:	12e41f01 	.inst	0x12e41f01 ; undefined
    1490:	00000008 	.inst	0x00000008 ; undefined
    1494:	00440000 	.inst	0x00440000 ; undefined
    1498:	00000000 	.inst	0x00000000 ; undefined
    149c:	9c010000 	ldr	q0, 349c <_start-0x7cb64>
    14a0:	0000061e 	.inst	0x0000061e ; undefined
    14a4:	0002e115 	.inst	0x0002e115 ; undefined
    14a8:	1e1f0100 	.inst	0x1e1f0100 ; undefined
    14ac:	02000006 	.inst	0x02000006 ; undefined
    14b0:	08176891 	stxrb	w23, w17, [x4]
    14b4:	01000005 	.inst	0x01000005 ; undefined
    14b8:	00061e21 	.inst	0x00061e21 ; undefined
    14bc:	78910200 	ldursh	x0, [x16, #-240]
    14c0:	0f080500 	sshr	v0.8b, v8.8b, #8
    14c4:	18000005 	ldr	w5, 14c4 <_start-0x7eb3c>
    14c8:	00000442 	.inst	0x00000442 ; undefined
    14cc:	06602601 	.inst	0x06602601 ; undefined
    14d0:	13280000 	.inst	0x13280000 ; undefined
    14d4:	00000008 	.inst	0x00000008 ; undefined
    14d8:	00200000 	.inst	0x00200000 ; NYI
    14dc:	00000000 	.inst	0x00000000 ; undefined
    14e0:	9c010000 	ldr	q0, 34e0 <_start-0x7cb20>
    14e4:	00000660 	.inst	0x00000660 ; undefined
    14e8:	6b737419 	.inst	0x6b737419 ; undefined
    14ec:	1e260100 	fmov	w0, s8
    14f0:	02000006 	.inst	0x02000006 ; undefined
    14f4:	701a6891 	adr	x17, 36207 <_start-0x49df9>
    14f8:	3a270100 	.inst	0x3a270100 ; undefined
    14fc:	02000001 	.inst	0x02000001 ; undefined
    1500:	05007891 	orr	z17.s, z17.s, #0x3e0000
    1504:	00056808 	.inst	0x00056808 ; undefined
    1508:	04281b00 	sqsub	z0.b, z24.b, z8.b
    150c:	2c010000 	stnp	s0, s0, [x0, #8]
    1510:	00000141 	.inst	0x00000141 ; undefined
    1514:	00081348 	.inst	0x00081348 ; undefined
    1518:	00000000 	.inst	0x00000000 ; undefined
    151c:	000002d8 	.inst	0x000002d8 ; undefined
    1520:	00000000 	.inst	0x00000000 ; undefined
    1524:	07ac9c01 	.inst	0x07ac9c01 ; undefined
    1528:	36150000 	tbz	w0, #2, ffffffffffffb528 <__stack_top+0xfffffffffff5b528>
    152c:	01000004 	.inst	0x01000004 ; undefined
    1530:	00013a2c 	.inst	0x00013a2c ; undefined
    1534:	b8910300 	ldursw	x0, [x24, #-240]
    1538:	041e157f 	.inst	0x041e157f ; undefined
    153c:	2c010000 	stnp	s0, s0, [x0, #8]
    1540:	0000013a 	.inst	0x0000013a ; undefined
    1544:	7fb09103 	fmulx	s3, s8, v16.s[1]
    1548:	67726119 	.inst	0x67726119 ; undefined
    154c:	3a2c0100 	.inst	0x3a2c0100 ; undefined
    1550:	03000001 	.inst	0x03000001 ; undefined
    1554:	157fa891 	b	5feb798 <__stack_top+0x5f4b798>
    1558:	0000035e 	.inst	0x0000035e ; undefined
    155c:	013a2c01 	.inst	0x013a2c01 ; undefined
    1560:	91030000 	add	x0, x0, #0xc0
    1564:	701a7fa0 	adr	x0, 3655b <_start-0x49aa5>
    1568:	1e2e0100 	.inst	0x1e2e0100 ; undefined
    156c:	02000006 	.inst	0x02000006 ; undefined
    1570:	cc1c6891 	.inst	0xcc1c6891 ; undefined
    1574:	00000813 	.inst	0x00000813 ; undefined
    1578:	34000000 	cbz	w0, 1578 <_start-0x7ea88>
    157c:	00000000 	.inst	0x00000000 ; undefined
    1580:	f1000000 	subs	x0, x0, #0x0
    1584:	1a000006 	adc	w6, w0, w0
    1588:	39010069 	strb	w9, [x3, #64]
    158c:	00000141 	.inst	0x00000141 ; undefined
    1590:	007c9102 	.inst	0x007c9102 ; undefined
    1594:	0814001d 	stxrb	w20, w29, [x0]
    1598:	00000000 	.inst	0x00000000 ; undefined
    159c:	0001a000 	.inst	0x0001a000 ; undefined
    15a0:	00000000 	.inst	0x00000000 ; undefined
    15a4:	038e1700 	.inst	0x038e1700 ; undefined
    15a8:	3f010000 	.inst	0x3f010000 ; undefined
    15ac:	00000579 	.inst	0x00000579 ; undefined
    15b0:	1a609102 	.inst	0x1a609102 ; undefined
    15b4:	00637273 	.inst	0x00637273 ; undefined
    15b8:	05794001 	.inst	0x05794001 ; undefined
    15bc:	91020000 	add	x0, x0, #0x80
    15c0:	03641758 	.inst	0x03641758 ; undefined
    15c4:	48010000 	stxrh	w1, w0, [x0]
    15c8:	0000013a 	.inst	0x0000013a ; undefined
    15cc:	17509102 	b	fffffffffd4259d4 <__stack_top+0xfffffffffd3859d4>
    15d0:	0000035a 	.inst	0x0000035a ; undefined
    15d4:	05735101 	.inst	0x05735101 ; undefined
    15d8:	91020000 	add	x0, x0, #0x80
    15dc:	04d11748 	.inst	0x04d11748 ; undefined
    15e0:	52010000 	eor	w0, w0, #0x80000000
    15e4:	00000573 	.inst	0x00000573 ; undefined
    15e8:	1c409102 	ldr	s2, 82808 <exception_vector_table+0x8>
    15ec:	00081418 	.inst	0x00081418 ; undefined
    15f0:	00000000 	.inst	0x00000000 ; undefined
    15f4:	00000040 	.inst	0x00000040 ; undefined
    15f8:	00000000 	.inst	0x00000000 ; undefined
    15fc:	0000076a 	.inst	0x0000076a ; undefined
    1600:	0100691a 	.inst	0x0100691a ; undefined
    1604:	00014141 	.inst	0x00014141 ; undefined
    1608:	78910200 	ldursh	x0, [x16, #-240]
    160c:	14581c00 	b	160860c <__stack_top+0x156860c>
    1610:	00000008 	.inst	0x00000008 ; undefined
    1614:	00480000 	.inst	0x00480000 ; undefined
    1618:	00000000 	.inst	0x00000000 ; undefined
    161c:	078c0000 	.inst	0x078c0000 ; undefined
    1620:	691a0000 	.inst	0x691a0000 ; undefined
    1624:	41440100 	.inst	0x41440100 ; undefined
    1628:	02000001 	.inst	0x02000001 ; undefined
    162c:	1d007491 	.inst	0x1d007491 ; undefined
    1630:	00081560 	.inst	0x00081560 ; undefined
    1634:	00000000 	.inst	0x00000000 ; undefined
    1638:	00000040 	.inst	0x00000040 ; undefined
    163c:	00000000 	.inst	0x00000000 ; undefined
    1640:	0100691a 	.inst	0x0100691a ; undefined
    1644:	00014153 	.inst	0x00014153 ; undefined
    1648:	70910200 	adr	x0, fffffffffff2368b <__stack_top+0xffffffffffe8368b>
    164c:	16000000 	b	fffffffff800164c <__stack_top+0xfffffffff7f6164c>
    1650:	000004af 	.inst	0x000004af ; undefined
    1654:	16206501 	b	fffffffff881aa58 <__stack_top+0xfffffffff877aa58>
    1658:	00000008 	.inst	0x00000008 ; undefined
    165c:	01c00000 	.inst	0x01c00000 ; undefined
    1660:	00000000 	.inst	0x00000000 ; undefined
    1664:	9c010000 	ldr	q0, 3664 <_start-0x7c99c>
    1668:	00000832 	.inst	0x00000832 ; undefined
    166c:	0003e417 	.inst	0x0003e417 ; undefined
    1670:	41670100 	.inst	0x41670100 ; undefined
    1674:	02000001 	.inst	0x02000001 ; undefined
    1678:	701a7c91 	adr	x17, 3660b <_start-0x499f5>
    167c:	1e680100 	fcvtps	w0, d8
    1680:	02000006 	.inst	0x02000006 ; undefined
    1684:	0d176891 	.inst	0x0d176891 ; undefined
    1688:	01000005 	.inst	0x01000005 ; undefined
    168c:	00014169 	.inst	0x00014169 ; undefined
    1690:	78910200 	ldursh	x0, [x16, #-240]
    1694:	0816841c 	stlxrb	w22, w28, [x0]
    1698:	00000000 	.inst	0x00000000 ; undefined
    169c:	0000a400 	.inst	0x0000a400 ; undefined
    16a0:	00000000 	.inst	0x00000000 ; undefined
    16a4:	00081300 	.inst	0x00081300 ; undefined
    16a8:	00691a00 	.inst	0x00691a00 ; undefined
    16ac:	01417001 	.inst	0x01417001 ; undefined
    16b0:	91020000 	add	x0, x0, #0x80
    16b4:	341d0074 	cbz	w20, 3b6c0 <_start-0x44940>
    16b8:	00000817 	.inst	0x00000817 ; undefined
    16bc:	60000000 	.inst	0x60000000 ; undefined
    16c0:	00000000 	.inst	0x00000000 ; undefined
    16c4:	1a000000 	adc	w0, w0, w0
    16c8:	7a010069 	sbcs	w9, w3, w1
    16cc:	00000141 	.inst	0x00000141 ; undefined
    16d0:	00709102 	.inst	0x00709102 ; undefined
    16d4:	03d61e00 	.inst	0x03d61e00 ; undefined
    16d8:	87010000 	.inst	0x87010000 ; undefined
    16dc:	000817e0 	.inst	0x000817e0 ; undefined
    16e0:	00000000 	.inst	0x00000000 ; undefined
    16e4:	00000018 	.inst	0x00000018 ; undefined
    16e8:	00000000 	.inst	0x00000000 ; undefined
    16ec:	b91f9c01 	str	w1, [x0, #8092]
    16f0:	01000004 	.inst	0x01000004 ; undefined
    16f4:	0817f88b 	stlxrb	w23, w11, [x4]
    16f8:	00000000 	.inst	0x00000000 ; undefined
    16fc:	00006800 	.inst	0x00006800 ; undefined
    1700:	00000000 	.inst	0x00000000 ; undefined
    1704:	1f9c0100 	.inst	0x1f9c0100 ; undefined
    1708:	0000070b 	.inst	0x0000070b ; undefined
    170c:	18609301 	ldr	w1, c296c <__stack_top+0x2296c>
    1710:	00000008 	.inst	0x00000008 ; undefined
    1714:	00600000 	.inst	0x00600000 ; undefined
    1718:	00000000 	.inst	0x00000000 ; undefined
    171c:	9c010000 	ldr	q0, 371c <_start-0x7c8e4>
    1720:	00039320 	.inst	0x00039320 ; undefined
    1724:	c09e0100 	.inst	0xc09e0100 ; undefined
    1728:	00000818 	.inst	0x00000818 ; undefined
    172c:	4c000000 	st4	{v0.16b-v3.16b}, [x0]
    1730:	00000001 	.inst	0x00000001 ; undefined
    1734:	01000000 	.inst	0x01000000 ; undefined
    1738:	0009579c 	.inst	0x0009579c ; undefined
    173c:	18c81c00 	ldr	w0, fffffffffff91abc <__stack_top+0xffffffffffef1abc>
    1740:	00000008 	.inst	0x00000008 ; undefined
    1744:	00d80000 	.inst	0x00d80000 ; undefined
    1748:	00000000 	.inst	0x00000000 ; undefined
    174c:	091a0000 	.inst	0x091a0000 ; undefined
    1750:	691a0000 	.inst	0x691a0000 ; undefined
    1754:	419f0100 	.inst	0x419f0100 ; undefined
    1758:	02000001 	.inst	0x02000001 ; undefined
    175c:	d01d7c91 	adrp	x17, 3af93000 <__stack_top+0x3aef3000>
    1760:	00000818 	.inst	0x00000818 ; undefined
    1764:	ac000000 	stnp	q0, q0, [x0]
    1768:	00000000 	.inst	0x00000000 ; undefined
    176c:	17000000 	b	fffffffffc00176c <__stack_top+0xfffffffffbf6176c>
    1770:	0000038e 	.inst	0x0000038e ; undefined
    1774:	061ea001 	.inst	0x061ea001 ; undefined
    1778:	91020000 	add	x0, x0, #0x80
    177c:	19001d68 	.inst	0x19001d68 ; undefined
    1780:	00000008 	.inst	0x00000008 ; undefined
    1784:	007c0000 	.inst	0x007c0000 ; undefined
    1788:	00000000 	.inst	0x00000000 ; undefined
    178c:	6a1a0000 	ands	w0, w0, w26
    1790:	41a30100 	.inst	0x41a30100 ; undefined
    1794:	02000001 	.inst	0x02000001 ; undefined
    1798:	101d7891 	adr	x17, 3c6a8 <_start-0x43958>
    179c:	00000819 	.inst	0x00000819 ; undefined
    17a0:	54000000 	b.eq	17a0 <_start-0x7e860>  // b.none
    17a4:	00000000 	.inst	0x00000000 ; undefined
    17a8:	1a000000 	adc	w0, w0, w0
    17ac:	00637273 	.inst	0x00637273 ; undefined
    17b0:	061ea401 	.inst	0x061ea401 ; undefined
    17b4:	91020000 	add	x0, x0, #0x80
    17b8:	00000060 	.inst	0x00000060 ; undefined
    17bc:	19a01d00 	.inst	0x19a01d00 ; undefined
    17c0:	00000008 	.inst	0x00000008 ; undefined
    17c4:	00600000 	.inst	0x00600000 ; undefined
    17c8:	00000000 	.inst	0x00000000 ; undefined
    17cc:	691a0000 	.inst	0x691a0000 ; undefined
    17d0:	41ac0100 	.inst	0x41ac0100 ; undefined
    17d4:	02000001 	.inst	0x02000001 ; undefined
    17d8:	a81d7491 	stnp	x17, x29, [x4, #464]
    17dc:	00000819 	.inst	0x00000819 ; undefined
    17e0:	40000000 	.inst	0x40000000 ; undefined
    17e4:	00000000 	.inst	0x00000000 ; undefined
    17e8:	1a000000 	adc	w0, w0, w0
    17ec:	ad010070 	stp	q16, q0, [x3, #32]
    17f0:	0000061e 	.inst	0x0000061e ; undefined
    17f4:	00589102 	.inst	0x00589102 ; undefined
    17f8:	23160000 	.inst	0x23160000 ; undefined
    17fc:	01000004 	.inst	0x01000004 ; undefined
    1800:	081a0cb2 	stxrb	w26, w18, [x5]
    1804:	00000000 	.inst	0x00000000 ; undefined
    1808:	00011400 	.inst	0x00011400 ; undefined
    180c:	00000000 	.inst	0x00000000 ; undefined
    1810:	cf9c0100 	.inst	0xcf9c0100 ; undefined
    1814:	1d000009 	.inst	0x1d000009 ; undefined
    1818:	00081a18 	.inst	0x00081a18 ; undefined
    181c:	00000000 	.inst	0x00000000 ; undefined
    1820:	000000c4 	.inst	0x000000c4 ; undefined
    1824:	00000000 	.inst	0x00000000 ; undefined
    1828:	0100691a 	.inst	0x0100691a ; undefined
    182c:	000141b6 	.inst	0x000141b6 ; undefined
    1830:	7c910200 	.inst	0x7c910200 ; undefined
    1834:	081a201d 	stxrb	w26, w29, [x0]
    1838:	00000000 	.inst	0x00000000 ; undefined
    183c:	0000a400 	.inst	0x0000a400 ; undefined
    1840:	00000000 	.inst	0x00000000 ; undefined
    1844:	00701a00 	.inst	0x00701a00 ; undefined
    1848:	061eb701 	.inst	0x061eb701 ; undefined
    184c:	91020000 	add	x0, x0, #0x80
    1850:	1a501d70 	.inst	0x1a501d70 ; undefined
    1854:	00000008 	.inst	0x00000008 ; undefined
    1858:	004c0000 	.inst	0x004c0000 ; undefined
    185c:	00000000 	.inst	0x00000000 ; undefined
    1860:	691a0000 	.inst	0x691a0000 ; undefined
    1864:	41b90100 	.inst	0x41b90100 ; undefined
    1868:	02000001 	.inst	0x02000001 ; undefined
    186c:	00007891 	.inst	0x00007891 ; undefined
    1870:	02160000 	.inst	0x02160000 ; undefined
    1874:	01000007 	.inst	0x01000007 ; undefined
    1878:	081b20cc 	stxrb	w27, w12, [x6]
    187c:	00000000 	.inst	0x00000000 ; undefined
    1880:	00005400 	.inst	0x00005400 ; undefined
    1884:	00000000 	.inst	0x00000000 ; undefined
    1888:	179c0100 	b	fffffffffe701c88 <__stack_top+0xfffffffffe661c88>
    188c:	1500000a 	b	40018b4 <__stack_top+0x3f618b4>
    1890:	00000608 	.inst	0x00000608 ; undefined
    1894:	0573cc01 	sel	z1.h, p3, z0.h, z19.h
    1898:	91020000 	add	x0, x0, #0x80
    189c:	04031568 	subr	z8.b, p5/m, z8.b, z11.b
    18a0:	cc010000 	.inst	0xcc010000 ; undefined
    18a4:	00000a17 	.inst	0x00000a17 ; undefined
    18a8:	1a609102 	.inst	0x1a609102 ; undefined
    18ac:	00746572 	.inst	0x00746572 ; undefined
    18b0:	013acd01 	.inst	0x013acd01 ; undefined
    18b4:	91020000 	add	x0, x0, #0x80
    18b8:	08050078 	stxrb	w5, w24, [x3]
    18bc:	00000573 	.inst	0x00000573 ; undefined
    18c0:	0004c421 	.inst	0x0004c421 ; undefined
    18c4:	41110100 	.inst	0x41110100 ; undefined
    18c8:	09000001 	.inst	0x09000001 ; undefined
    18cc:	085ac003 	ldaxrb	w3, [x0]
    18d0:	00000000 	.inst	0x00000000 ; undefined
    18d4:	061e1100 	.inst	0x061e1100 ; undefined
    18d8:	0a420000 	and	w0, w0, w2, lsr #0
    18dc:	08120000 	stxrb	w18, w0, [x0]
    18e0:	3f000005 	.inst	0x3f000005 ; undefined
    18e4:	03cc2100 	.inst	0x03cc2100 ; undefined
    18e8:	0e010000 	tbl	v0.8b, {v0.16b}, v1.8b
    18ec:	00000a32 	.inst	0x00000a32 ; undefined
    18f0:	58b80309 	ldr	x9, fffffffffff71950 <__stack_top+0xffffffffffed1950>
    18f4:	00000008 	.inst	0x00000008 ; undefined
    18f8:	b4210000 	cbz	x0, 438f8 <_start-0x3c708>
    18fc:	01000003 	.inst	0x01000003 ; undefined
    1900:	00061e0f 	.inst	0x00061e0f ; undefined
    1904:	b8030900 	sttr	w0, [x8, #48]
    1908:	0000085a 	.inst	0x0000085a ; undefined
    190c:	21000000 	.inst	0x21000000 ; undefined
    1910:	00000487 	.inst	0x00000487 ; undefined
    1914:	01411001 	.inst	0x01411001 ; undefined
    1918:	03090000 	.inst	0x03090000 ; undefined
    191c:	00085778 	.inst	0x00085778 ; undefined
    1920:	00000000 	.inst	0x00000000 ; undefined
    1924:	00072c00 	.inst	0x00072c00 ; undefined
    1928:	09000400 	.inst	0x09000400 ; undefined
    192c:	08000006 	stxrb	w0, w6, [x0]
    1930:	0000be01 	.inst	0x0000be01 ; undefined
    1934:	055a0c00 	mov	z0.h, p10/z, #96
    1938:	008e0000 	.inst	0x008e0000 ; undefined
    193c:	1b740000 	.inst	0x1b740000 ; undefined
    1940:	00000008 	.inst	0x00000008 ; undefined
    1944:	03840000 	.inst	0x03840000 ; undefined
    1948:	00000000 	.inst	0x00000000 ; undefined
    194c:	06560000 	.inst	0x06560000 ; undefined
    1950:	04020000 	.inst	0x04020000 ; undefined
    1954:	746e6905 	.inst	0x746e6905 ; undefined
    1958:	01240300 	.inst	0x01240300 ; undefined
    195c:	02200000 	.inst	0x02200000 ; undefined
    1960:	00007106 	.inst	0x00007106 ; undefined
    1964:	00220400 	.inst	0x00220400 ; NYI
    1968:	07020000 	.inst	0x07020000 ; undefined
    196c:	00000095 	.inst	0x00000095 ; undefined
    1970:	00280400 	.inst	0x00280400 ; NYI
    1974:	08020000 	stxrb	w2, w0, [x0]
    1978:	000000c0 	.inst	0x000000c0 ; undefined
    197c:	006a0408 	.inst	0x006a0408 ; undefined
    1980:	09020000 	.inst	0x09020000 ; undefined
    1984:	000000eb 	.inst	0x000000eb ; undefined
    1988:	000d0410 	.inst	0x000d0410 ; undefined
    198c:	0a020000 	and	w0, w0, w2
    1990:	000000f1 	.inst	0x000000f1 ; undefined
    1994:	22030018 	.inst	0x22030018 ; undefined
    1998:	10000000 	adr	x0, 1998 <_start-0x7e668>
    199c:	00951402 	.inst	0x00951402 ; undefined
    19a0:	70040000 	adr	x0, 99a3 <_start-0x7665d>
    19a4:	02000000 	.inst	0x02000000 ; undefined
    19a8:	00013b15 	.inst	0x00013b15 ; undefined
    19ac:	66050000 	.inst	0x66050000 ; undefined
    19b0:	16020073 	b	fffffffff8081b7c <__stack_top+0xfffffffff7fe1b7c>
    19b4:	00000178 	.inst	0x00000178 ; undefined
    19b8:	08060008 	stxrb	w6, w8, [x0]
    19bc:	00000071 	.inst	0x00000071 ; undefined
    19c0:	00002e03 	.inst	0x00002e03 ; undefined
    19c4:	23021000 	.inst	0x23021000 ; undefined
    19c8:	000000c0 	.inst	0x000000c0 ; undefined
    19cc:	00082704 	.inst	0x00082704 ; undefined
    19d0:	2b240200 	adds	w0, w16, w4, uxtb
    19d4:	00000002 	.inst	0x00000002 ; undefined
    19d8:	00086104 	.inst	0x00086104 ; undefined
    19dc:	2b250200 	adds	w0, w16, w5, uxtb
    19e0:	08000002 	stxrb	w0, w2, [x0]
    19e4:	9b080600 	madd	x0, x16, x8, x1
    19e8:	03000000 	.inst	0x03000000 ; undefined
    19ec:	0000007e 	.inst	0x0000007e ; undefined
    19f0:	eb1e0210 	subs	x16, x16, x30
    19f4:	04000000 	add	z0.b, p0/m, z0.b, z0.b
    19f8:	00000855 	.inst	0x00000855 ; undefined
    19fc:	01e11f02 	.inst	0x01e11f02 ; undefined
    1a00:	04000000 	add	z0.b, p0/m, z0.b, z0.b
    1a04:	000007f6 	.inst	0x000007f6 ; undefined
    1a08:	02002002 	.inst	0x02002002 ; undefined
    1a0c:	00080000 	.inst	0x00080000 ; undefined
    1a10:	00c60806 	.inst	0x00c60806 ; undefined
    1a14:	08070000 	stxrb	w7, w0, [x0]
    1a18:	00012408 	.inst	0x00012408 ; undefined
    1a1c:	340b0200 	cbz	w0, 17a5c <_start-0x685a4>
    1a20:	03000000 	.inst	0x03000000 ; undefined
    1a24:	00000629 	.inst	0x00000629 ; undefined
    1a28:	3b0d0220 	.inst	0x3b0d0220 ; undefined
    1a2c:	04000001 	add	z1.b, p0/m, z1.b, z0.b
    1a30:	00000124 	.inst	0x00000124 ; undefined
    1a34:	013b0e02 	.inst	0x013b0e02 ; undefined
    1a38:	04000000 	add	z0.b, p0/m, z0.b, z0.b
    1a3c:	0000003f 	.inst	0x0000003f ; undefined
    1a40:	01410f02 	.inst	0x01410f02 ; undefined
    1a44:	04080000 	smax	z0.b, p0/m, z0.b, z0.b
    1a48:	0000006a 	.inst	0x0000006a ; undefined
    1a4c:	00eb1002 	.inst	0x00eb1002 ; undefined
    1a50:	04100000 	mul	z0.b, p0/m, z0.b, z0.b
    1a54:	0000043c 	.inst	0x0000043c ; undefined
    1a58:	002d1102 	.inst	0x002d1102 ; NYI
    1a5c:	00180000 	.inst	0x00180000 ; undefined
    1a60:	00340806 	.inst	0x00340806 ; NYI
    1a64:	08090000 	stxrb	w9, w0, [x0]
    1a68:	00005807 	.inst	0x00005807 ; undefined
    1a6c:	06290800 	.inst	0x06290800 ; undefined
    1a70:	12020000 	and	w0, w0, #0x40000000
    1a74:	000000fe 	.inst	0x000000fe ; undefined
    1a78:	0000b303 	.inst	0x0000b303 ; undefined
    1a7c:	19021000 	.inst	0x19021000 ; undefined
    1a80:	00000178 	.inst	0x00000178 ; undefined
    1a84:	00060804 	.inst	0x00060804 ; undefined
    1a88:	891a0200 	.inst	0x891a0200 ; undefined
    1a8c:	00000001 	.inst	0x00000001 ; undefined
    1a90:	00001c04 	.inst	0x00001c04 ; undefined
    1a94:	b51b0200 	cbnz	x0, 37ad4 <_start-0x4852c>
    1a98:	08000001 	stxrb	w0, w1, [x0]
    1a9c:	53080600 	ubfiz	w0, w16, #24, #2
    1aa0:	08000001 	stxrb	w0, w1, [x0]
    1aa4:	00000022 	.inst	0x00000022 ; undefined
    1aa8:	00711702 	.inst	0x00711702 ; undefined
    1aac:	08060000 	stxrb	w6, w0, [x0]
    1ab0:	00000196 	.inst	0x00000196 ; undefined
    1ab4:	11080109 	add	w9, w8, #0x200
    1ab8:	0a000004 	and	w4, w0, w0
    1abc:	0000018f 	.inst	0x0000018f ; undefined
    1ac0:	00002d0b 	.inst	0x00002d0b ; undefined
    1ac4:	0001af00 	.inst	0x0001af00 ; undefined
    1ac8:	01780c00 	.inst	0x01780c00 ; undefined
    1acc:	af0c0000 	.inst	0xaf0c0000 ; undefined
    1ad0:	00000001 	.inst	0x00000001 ; undefined
    1ad4:	017e0806 	.inst	0x017e0806 ; undefined
    1ad8:	08060000 	stxrb	w6, w0, [x0]
    1adc:	0000019b 	.inst	0x0000019b ; undefined
    1ae0:	00002d0b 	.inst	0x00002d0b ; undefined
    1ae4:	0001d400 	.inst	0x0001d400 ; undefined
    1ae8:	01d40c00 	.inst	0x01d40c00 ; undefined
    1aec:	da0c0000 	sbc	x0, x0, x12
    1af0:	0c000001 	st4	{v1.8b-v4.8b}, [x0]
    1af4:	00000141 	.inst	0x00000141 ; undefined
    1af8:	48080600 	stxrh	w8, w0, [x16]
    1afc:	06000001 	.inst	0x06000001 ; undefined
    1b00:	0001e008 	.inst	0x0001e008 ; undefined
    1b04:	08060d00 	stxrb	w6, w0, [x8]
    1b08:	000001bb 	.inst	0x000001bb ; undefined
    1b0c:	00002d0b 	.inst	0x00002d0b ; undefined
    1b10:	00020000 	.inst	0x00020000 ; undefined
    1b14:	01d40c00 	.inst	0x01d40c00 ; undefined
    1b18:	f10c0000 	subs	x0, x0, #0x300
    1b1c:	0c000000 	st4	{v0.8b-v3.8b}, [x0]
    1b20:	00000141 	.inst	0x00000141 ; undefined
    1b24:	e7080600 	.inst	0xe7080600 ; undefined
    1b28:	0b000001 	add	w1, w0, w0
    1b2c:	0000002d 	.inst	0x0000002d ; undefined
    1b30:	0000021f 	.inst	0x0000021f ; undefined
    1b34:	00021f0c 	.inst	0x00021f0c ; undefined
    1b38:	02250c00 	.inst	0x02250c00 ; undefined
    1b3c:	890c0000 	.inst	0x890c0000 ; undefined
    1b40:	00000001 	.inst	0x00000001 ; undefined
    1b44:	00f30806 	.inst	0x00f30806 ; undefined
    1b48:	08060000 	stxrb	w6, w0, [x0]
    1b4c:	0000021f 	.inst	0x0000021f ; undefined
    1b50:	02060806 	.inst	0x02060806 ; undefined
    1b54:	a70e0000 	.inst	0xa70e0000 ; undefined
    1b58:	78000003 	sturh	w3, [x0]
    1b5c:	7f190301 	.inst	0x7f190301 ; undefined
    1b60:	05000004 	orr	z4.s, z4.s, #0x1
    1b64:	00393178 	.inst	0x00393178 ; NYI
    1b68:	01411b03 	.inst	0x01411b03 ; undefined
    1b6c:	05000000 	orr	z0.s, z0.s, #0x1
    1b70:	00303278 	.inst	0x00303278 ; NYI
    1b74:	01411c03 	.inst	0x01411c03 ; undefined
    1b78:	05080000 	.inst	0x05080000 ; undefined
    1b7c:	00313278 	.inst	0x00313278 ; NYI
    1b80:	01411d03 	.inst	0x01411d03 ; undefined
    1b84:	05100000 	mov	z0.b, p0/z, #0
    1b88:	00323278 	.inst	0x00323278 ; NYI
    1b8c:	01411e03 	.inst	0x01411e03 ; undefined
    1b90:	05180000 	mov	z0.b, p8/z, #0
    1b94:	00333278 	.inst	0x00333278 ; NYI
    1b98:	01411f03 	.inst	0x01411f03 ; undefined
    1b9c:	05200000 	ext	z0.b, z0.b, z0.b, #0
    1ba0:	00343278 	.inst	0x00343278 ; NYI
    1ba4:	01412003 	.inst	0x01412003 ; undefined
    1ba8:	05280000 	ext	z0.b, z0.b, z0.b, #64
    1bac:	00353278 	.inst	0x00353278 ; NYI
    1bb0:	01412103 	.inst	0x01412103 ; undefined
    1bb4:	05300000 	ext	z0.b, z0.b, z0.b, #128
    1bb8:	00363278 	.inst	0x00363278 ; NYI
    1bbc:	01412203 	.inst	0x01412203 ; undefined
    1bc0:	05380000 	ext	z0.b, z0.b, z0.b, #192
    1bc4:	00373278 	.inst	0x00373278 ; NYI
    1bc8:	01412303 	.inst	0x01412303 ; undefined
    1bcc:	05400000 	eor	z0.s, z0.s, #0x1
    1bd0:	00383278 	.inst	0x00383278 ; NYI
    1bd4:	01412403 	.inst	0x01412403 ; undefined
    1bd8:	05480000 	.inst	0x05480000 ; undefined
    1bdc:	03007066 	.inst	0x03007066 ; undefined
    1be0:	00014126 	.inst	0x00014126 ; undefined
    1be4:	6c055000 	stnp	d0, d20, [x0, #80]
    1be8:	27030072 	.inst	0x27030072 ; undefined
    1bec:	00000141 	.inst	0x00000141 ; undefined
    1bf0:	70730558 	adr	x24, e7c9b <__stack_top+0x47c9b>
    1bf4:	41280300 	.inst	0x41280300 ; undefined
    1bf8:	60000001 	.inst	0x60000001 ; undefined
    1bfc:	0003a204 	.inst	0x0003a204 ; undefined
    1c00:	412a0300 	.inst	0x412a0300 ; undefined
    1c04:	68000001 	.inst	0x68000001 ; undefined
    1c08:	726c6505 	.inst	0x726c6505 ; undefined
    1c0c:	412b0300 	.inst	0x412b0300 ; undefined
    1c10:	70000001 	adr	x1, 1c13 <_start-0x7e3ed>
    1c14:	70737505 	adr	x5, e8ab7 <__stack_top+0x48ab7>
    1c18:	412e0300 	.inst	0x412e0300 ; undefined
    1c1c:	78000001 	sturh	w1, [x0]
    1c20:	30787505 	adr	x5, f2ac1 <__stack_top+0x52ac1>
    1c24:	41300300 	.inst	0x41300300 ; undefined
    1c28:	80000001 	.inst	0x80000001 ; undefined
    1c2c:	31787505 	adds	w5, w8, #0xe1d, lsl #12
    1c30:	41310300 	.inst	0x41310300 ; undefined
    1c34:	88000001 	stxr	w0, w1, [x0]
    1c38:	32787505 	.inst	0x32787505 ; undefined
    1c3c:	41320300 	.inst	0x41320300 ; undefined
    1c40:	90000001 	adrp	x1, 1000 <_start-0x7f000>
    1c44:	33787505 	.inst	0x33787505 ; undefined
    1c48:	41330300 	.inst	0x41330300 ; undefined
    1c4c:	98000001 	ldrsw	x1, 1c4c <_start-0x7e3b4>
    1c50:	34787505 	cbz	w5, f2af0 <__stack_top+0x52af0>
    1c54:	41340300 	.inst	0x41340300 ; undefined
    1c58:	a0000001 	.inst	0xa0000001 ; undefined
    1c5c:	35787505 	cbnz	w5, f2afc <__stack_top+0x52afc>
    1c60:	41350300 	.inst	0x41350300 ; undefined
    1c64:	a8000001 	stnp	x1, x0, [x0]
    1c68:	36787505 	tbz	w5, #15, 2b08 <_start-0x7d4f8>
    1c6c:	41360300 	.inst	0x41360300 ; undefined
    1c70:	b0000001 	adrp	x1, 2000 <_start-0x7e000>
    1c74:	37787505 	tbnz	w5, #15, 2b14 <_start-0x7d4ec>
    1c78:	41370300 	.inst	0x41370300 ; undefined
    1c7c:	b8000001 	stur	w1, [x0]
    1c80:	38787505 	.inst	0x38787505 ; undefined
    1c84:	41380300 	.inst	0x41380300 ; undefined
    1c88:	c0000001 	.inst	0xc0000001 ; undefined
    1c8c:	39787505 	ldrb	w5, [x8, #3613]
    1c90:	41390300 	.inst	0x41390300 ; undefined
    1c94:	c8000001 	stxr	w0, x1, [x0]
    1c98:	0003ef04 	.inst	0x0003ef04 ; undefined
    1c9c:	413a0300 	.inst	0x413a0300 ; undefined
    1ca0:	d0000001 	adrp	x1, 3000 <_start-0x7d000>
    1ca4:	0003f404 	.inst	0x0003f404 ; undefined
    1ca8:	413b0300 	.inst	0x413b0300 ; undefined
    1cac:	d8000001 	prfm	pldl1strm, 1cac <_start-0x7e354>
    1cb0:	0004e504 	.inst	0x0004e504 ; undefined
    1cb4:	413c0300 	.inst	0x413c0300 ; undefined
    1cb8:	e0000001 	.inst	0xe0000001 ; undefined
    1cbc:	0004ea04 	.inst	0x0004ea04 ; undefined
    1cc0:	413d0300 	.inst	0x413d0300 ; undefined
    1cc4:	e8000001 	.inst	0xe8000001 ; undefined
    1cc8:	0004ef04 	.inst	0x0004ef04 ; undefined
    1ccc:	413e0300 	.inst	0x413e0300 ; undefined
    1cd0:	f0000001 	adrp	x1, 4000 <_start-0x7c000>
    1cd4:	00047804 	.inst	0x00047804 ; undefined
    1cd8:	413f0300 	.inst	0x413f0300 ; undefined
    1cdc:	f8000001 	stur	x1, [x0]
    1ce0:	0004f40f 	.inst	0x0004f40f ; undefined
    1ce4:	41400300 	.inst	0x41400300 ; undefined
    1ce8:	00000001 	.inst	0x00000001 ; undefined
    1cec:	04f90f01 	.inst	0x04f90f01 ; undefined
    1cf0:	41030000 	.inst	0x41030000 ; undefined
    1cf4:	00000141 	.inst	0x00000141 ; undefined
    1cf8:	fe0f0108 	.inst	0xfe0f0108 ; undefined
    1cfc:	03000004 	.inst	0x03000004 ; undefined
    1d00:	00014142 	.inst	0x00014142 ; undefined
    1d04:	0f011000 	fmla	v0.4h, v0.4h, v1.h[0]
    1d08:	00000503 	.inst	0x00000503 ; undefined
    1d0c:	01414303 	.inst	0x01414303 ; undefined
    1d10:	01180000 	.inst	0x01180000 ; undefined
    1d14:	00044f0f 	.inst	0x00044f0f ; undefined
    1d18:	41440300 	.inst	0x41440300 ; undefined
    1d1c:	20000001 	.inst	0x20000001 ; undefined
    1d20:	04540f01 	.inst	0x04540f01 ; undefined
    1d24:	45030000 	.inst	0x45030000 ; undefined
    1d28:	00000141 	.inst	0x00000141 ; undefined
    1d2c:	590f0128 	.inst	0x590f0128 ; undefined
    1d30:	03000004 	.inst	0x03000004 ; undefined
    1d34:	00014146 	.inst	0x00014146 ; undefined
    1d38:	0f013000 	.inst	0x0f013000 ; undefined
    1d3c:	0000045e 	.inst	0x0000045e ; undefined
    1d40:	01414703 	.inst	0x01414703 ; undefined
    1d44:	01380000 	.inst	0x01380000 ; undefined
    1d48:	0003bc0f 	.inst	0x0003bc0f ; undefined
    1d4c:	41480300 	.inst	0x41480300 ; undefined
    1d50:	40000001 	.inst	0x40000001 ; undefined
    1d54:	04730f01 	.inst	0x04730f01 ; undefined
    1d58:	49030000 	.inst	0x49030000 ; undefined
    1d5c:	00000141 	.inst	0x00000141 ; undefined
    1d60:	c10f0148 	.inst	0xc10f0148 ; undefined
    1d64:	03000003 	.inst	0x03000003 ; undefined
    1d68:	0001414a 	.inst	0x0001414a ; undefined
    1d6c:	0f015000 	fmls	v0.4h, v0.4h, v1.h[0]
    1d70:	0000047d 	.inst	0x0000047d ; undefined
    1d74:	01414b03 	.inst	0x01414b03 ; undefined
    1d78:	01580000 	.inst	0x01580000 ; undefined
    1d7c:	0004820f 	.inst	0x0004820f ; undefined
    1d80:	414c0300 	.inst	0x414c0300 ; undefined
    1d84:	60000001 	.inst	0x60000001 ; undefined
    1d88:	66751001 	.inst	0x66751001 ; undefined
    1d8c:	4d030070 	.inst	0x4d030070 ; undefined
    1d90:	00000141 	.inst	0x00000141 ; undefined
    1d94:	75100168 	.inst	0x75100168 ; undefined
    1d98:	0300726c 	.inst	0x0300726c ; undefined
    1d9c:	0001414e 	.inst	0x0001414e ; undefined
    1da0:	00017000 	.inst	0x00017000 ; undefined
    1da4:	0003a808 	.inst	0x0003a808 ; undefined
    1da8:	31500300 	adds	w0, w24, #0x400, lsl #12
    1dac:	0e000002 	tbl	v2.8b, {v0.16b}, v0.8b
    1db0:	0000042e 	.inst	0x0000042e ; undefined
    1db4:	520301b8 	eor	w24, w13, #0x20000000
    1db8:	000004f1 	.inst	0x000004f1 ; undefined
    1dbc:	0003a804 	.inst	0x0003a804 ; undefined
    1dc0:	7f530300 	.inst	0x7f530300 ; undefined
    1dc4:	00000004 	.inst	0x00000004 ; undefined
    1dc8:	00646910 	.inst	0x00646910 ; undefined
    1dcc:	04f15403 	.inst	0x04f15403 ; undefined
    1dd0:	01780000 	.inst	0x01780000 ; undefined
    1dd4:	0004640f 	.inst	0x0004640f ; undefined
    1dd8:	f1550300 	subs	x0, x24, #0x540, lsl #12
    1ddc:	7c000004 	stur	h4, [x0]
    1de0:	04dc0f01 	.inst	0x04dc0f01 ; undefined
    1de4:	56030000 	.inst	0x56030000 ; undefined
    1de8:	000004f1 	.inst	0x000004f1 ; undefined
    1dec:	160f0180 	b	fffffffff83c23ec <__stack_top+0xfffffffff83223ec>
    1df0:	03000004 	.inst	0x03000004 ; undefined
    1df4:	0004f157 	.inst	0x0004f157 ; undefined
    1df8:	0f018400 	movi	v0.4h, #0x20
    1dfc:	00000492 	.inst	0x00000492 ; undefined
    1e00:	04f15903 	.inst	0x04f15903 ; undefined
    1e04:	01880000 	.inst	0x01880000 ; undefined
    1e08:	00046a0f 	.inst	0x00046a0f ; undefined
    1e0c:	f85a0300 	ldur	x0, [x24, #-96]
    1e10:	90000004 	adrp	x4, 1000 <_start-0x7f000>
    1e14:	04090001 	umax	z1.b, p0/m, z1.b, z0.b
    1e18:	00005d07 	.inst	0x00005d07 ; undefined
    1e1c:	01d41100 	.inst	0x01d41100 ; undefined
    1e20:	05080000 	.inst	0x05080000 ; undefined
    1e24:	08120000 	stxrb	w18, w0, [x0]
    1e28:	04000005 	add	z5.b, p0/m, z5.b, z0.b
    1e2c:	07080900 	.inst	0x07080900 ; undefined
    1e30:	00000291 	.inst	0x00000291 ; undefined
    1e34:	00042f08 	.inst	0x00042f08 ; undefined
    1e38:	8a5b0300 	and	x0, x24, x27, lsr #0
    1e3c:	06000004 	.inst	0x06000004 ; undefined
    1e40:	00018f08 	.inst	0x00018f08 ; undefined
    1e44:	08010900 	stxrb	w1, w0, [x8]
    1e48:	00000408 	.inst	0x00000408 ; undefined
    1e4c:	00058d13 	.inst	0x00058d13 ; undefined
    1e50:	74090100 	.inst	0x74090100 ; undefined
    1e54:	0000081b 	.inst	0x0000081b ; undefined
    1e58:	74000000 	.inst	0x74000000 ; undefined
    1e5c:	00000000 	.inst	0x00000000 ; undefined
    1e60:	01000000 	.inst	0x01000000 ; undefined
    1e64:	00057d9c 	.inst	0x00057d9c ; undefined
    1e68:	05921400 	mov	z0.s, p2/z, #-96
    1e6c:	0a010000 	and	w0, w0, w1
    1e70:	00000141 	.inst	0x00000141 ; undefined
    1e74:	14789102 	b	1e2627c <__stack_top+0x1d8627c>
    1e78:	00000548 	.inst	0x00000548 ; undefined
    1e7c:	01410b01 	.inst	0x01410b01 ; undefined
    1e80:	91020000 	add	x0, x0, #0x80
    1e84:	054e1470 	.inst	0x054e1470 ; undefined
    1e88:	0c010000 	.inst	0x0c010000 ; undefined
    1e8c:	00000141 	.inst	0x00000141 ; undefined
    1e90:	14689102 	b	1a26298 <__stack_top+0x1986298>
    1e94:	00000554 	.inst	0x00000554 ; undefined
    1e98:	01410d01 	.inst	0x01410d01 ; undefined
    1e9c:	91020000 	add	x0, x0, #0x80
    1ea0:	66150060 	.inst	0x66150060 ; undefined
    1ea4:	01006f6f 	.inst	0x01006f6f ; undefined
    1ea8:	081be816 	stlxrb	w27, w22, [x0]
    1eac:	00000000 	.inst	0x00000000 ; undefined
    1eb0:	00008800 	.inst	0x00008800 ; undefined
    1eb4:	00000000 	.inst	0x00000000 ; undefined
    1eb8:	b99c0100 	ldrsw	x0, [x8, #7168]
    1ebc:	16000005 	b	fffffffff8001ed0 <__stack_top+0xfffffffff7f61ed0>
    1ec0:	00081bf0 	.inst	0x00081bf0 ; undefined
    1ec4:	00000000 	.inst	0x00000000 ; undefined
    1ec8:	00000070 	.inst	0x00000070 ; undefined
    1ecc:	00000000 	.inst	0x00000000 ; undefined
    1ed0:	01006917 	.inst	0x01006917 ; undefined
    1ed4:	00002d17 	.inst	0x00002d17 ; undefined
    1ed8:	7c910200 	.inst	0x7c910200 ; undefined
    1edc:	6d180000 	stp	d0, d0, [x0, #384]
    1ee0:	01000005 	.inst	0x01000005 ; undefined
    1ee4:	081c7023 	stxrb	w28, w3, [x1]
    1ee8:	00000000 	.inst	0x00000000 ; undefined
    1eec:	00007c00 	.inst	0x00007c00 ; undefined
    1ef0:	00000000 	.inst	0x00000000 ; undefined
    1ef4:	0f9c0100 	.inst	0x0f9c0100 ; undefined
    1ef8:	19000006 	.inst	0x19000006 ; undefined
    1efc:	2301004e 	.inst	0x2301004e ; undefined
    1f00:	0000002d 	.inst	0x0000002d ; undefined
    1f04:	146c9102 	b	1b2630c <__stack_top+0x1a8630c>
    1f08:	0000049a 	.inst	0x0000049a ; undefined
    1f0c:	002d2401 	.inst	0x002d2401 ; NYI
    1f10:	91020000 	add	x0, x0, #0x80
    1f14:	1c801678 	ldr	s24, fffffffffff021e0 <__stack_top+0xffffffffffe621e0>
    1f18:	00000008 	.inst	0x00000008 ; undefined
    1f1c:	00440000 	.inst	0x00440000 ; undefined
    1f20:	00000000 	.inst	0x00000000 ; undefined
    1f24:	69170000 	.inst	0x69170000 ; undefined
    1f28:	2d250100 	stp	s0, s0, [x8, #-216]
    1f2c:	02000000 	.inst	0x02000000 ; undefined
    1f30:	00007c91 	.inst	0x00007c91 ; undefined
    1f34:	00053e13 	.inst	0x00053e13 ; undefined
    1f38:	ec2c0100 	.inst	0xec2c0100 ; undefined
    1f3c:	0000081c 	.inst	0x0000081c ; undefined
    1f40:	3c000000 	stur	b0, [x0]
    1f44:	00000000 	.inst	0x00000000 ; undefined
    1f48:	01000000 	.inst	0x01000000 ; undefined
    1f4c:	00063b9c 	.inst	0x00063b9c ; undefined
    1f50:	04031400 	subr	z0.b, p5/m, z0.b, z0.b
    1f54:	2d010000 	stp	s0, s0, [x0, #8]
    1f58:	0000063b 	.inst	0x0000063b ; undefined
    1f5c:	00609102 	.inst	0x00609102 ; undefined
    1f60:	00051a11 	.inst	0x00051a11 ; undefined
    1f64:	00064b00 	.inst	0x00064b00 ; undefined
    1f68:	05081200 	.inst	0x05081200 ; undefined
    1f6c:	00030000 	.inst	0x00030000 ; undefined
    1f70:	00057d13 	.inst	0x00057d13 ; undefined
    1f74:	28320100 	stnp	w0, w0, [x8, #-112]
    1f78:	0000081d 	.inst	0x0000081d ; undefined
    1f7c:	30000000 	adr	x0, 1f7d <_start-0x7e083>
    1f80:	00000000 	.inst	0x00000000 ; undefined
    1f84:	01000000 	.inst	0x01000000 ; undefined
    1f88:	0006779c 	.inst	0x0006779c ; undefined
    1f8c:	049a1400 	and	z0.s, p5/m, z0.s, z0.s
    1f90:	33010000 	bfi	w0, w0, #31, #1
    1f94:	0000002d 	.inst	0x0000002d ; undefined
    1f98:	007c9102 	.inst	0x007c9102 ; undefined
    1f9c:	00051e13 	.inst	0x00051e13 ; undefined
    1fa0:	58370100 	ldr	x0, 6ffc0 <_start-0x10040>
    1fa4:	0000081d 	.inst	0x0000081d ; undefined
    1fa8:	38000000 	sturb	w0, [x0]
    1fac:	00000001 	.inst	0x00000001 ; undefined
    1fb0:	01000000 	.inst	0x01000000 ; undefined
    1fb4:	0006c99c 	.inst	0x0006c99c ; undefined
    1fb8:	00611700 	.inst	0x00611700 ; undefined
    1fbc:	01d43801 	.inst	0x01d43801 ; undefined
    1fc0:	91020000 	add	x0, x0, #0x80
    1fc4:	00621778 	.inst	0x00621778 ; undefined
    1fc8:	01d43901 	.inst	0x01d43901 ; undefined
    1fcc:	91020000 	add	x0, x0, #0x80
    1fd0:	7a731770 	.inst	0x7a731770 ; undefined
    1fd4:	2d480100 	ldp	s0, s0, [x8, #64]
    1fd8:	02000000 	.inst	0x02000000 ; undefined
    1fdc:	62176c91 	.inst	0x62176c91 ; undefined
    1fe0:	01006675 	.inst	0x01006675 ; undefined
    1fe4:	0006c949 	.inst	0x0006c949 ; undefined
    1fe8:	88910300 	stllr	w0, [x24]
    1fec:	8f11007f 	.inst	0x8f11007f ; undefined
    1ff0:	d9000001 	.inst	0xd9000001 ; undefined
    1ff4:	12000006 	and	w6, w0, #0x1
    1ff8:	00000508 	.inst	0x00000508 ; undefined
    1ffc:	43130063 	.inst	0x43130063 ; undefined
    2000:	01000005 	.inst	0x01000005 ; undefined
    2004:	081e9052 	stlxrb	w30, w18, [x2]
    2008:	00000000 	.inst	0x00000000 ; undefined
    200c:	00003c00 	.inst	0x00003c00 ; undefined
    2010:	00000000 	.inst	0x00000000 ; undefined
    2014:	059c0100 	mov	z0.s, p12/z, #8
    2018:	14000007 	b	2034 <_start-0x7dfcc>
    201c:	00000403 	.inst	0x00000403 ; undefined
    2020:	063b5301 	.inst	0x063b5301 ; undefined
    2024:	91020000 	add	x0, x0, #0x80
    2028:	2e1a0060 	ext	v0.8b, v3.8b, v26.8b, #0
    202c:	01000005 	.inst	0x01000005 ; undefined
    2030:	081ecc58 	stlxrb	w30, w24, [x2]
    2034:	00000000 	.inst	0x00000000 ; undefined
    2038:	00002c00 	.inst	0x00002c00 ; undefined
    203c:	00000000 	.inst	0x00000000 ; undefined
    2040:	1b9c0100 	.inst	0x1b9c0100 ; undefined
    2044:	000003b4 	.inst	0x000003b4 ; undefined
    2048:	07296603 	.inst	0x07296603 ; undefined
    204c:	08060000 	stxrb	w6, w0, [x0]
    2050:	0000050f 	.inst	0x0000050f ; undefined
    2054:	00005700 	.inst	0x00005700 ; undefined
    2058:	7f000200 	.inst	0x7f000200 ; undefined
    205c:	08000007 	stxrb	w0, w7, [x0]
    2060:	00073e01 	.inst	0x00073e01 ; undefined
    2064:	081ef800 	stlxrb	w30, w0, [x0]
    2068:	00000000 	.inst	0x00000000 ; undefined
    206c:	081f4800 	stxrb	wzr, w0, [x0]
    2070:	00000000 	.inst	0x00000000 ; undefined
    2074:	72656b00 	.inst	0x72656b00 ; undefined
    2078:	2f6c656e 	.inst	0x2f6c656e ; undefined
    207c:	65686373 	fnmls	z19.h, p0/m, z27.h, z8.h
    2080:	00532e64 	.inst	0x00532e64 ; undefined
    2084:	6d6f682f 	ldp	d15, d26, [x1, #-272]
    2088:	61732f65 	.inst	0x61732f65 ; undefined
    208c:	68636172 	.inst	0x68636172 ; undefined
    2090:	6e2f7569 	uabd	v9.16b, v11.16b, v15.16b
    2094:	2f757463 	.inst	0x2f757463 ; undefined
    2098:	3263736f 	.inst	0x3263736f ; undefined
    209c:	00313230 	.inst	0x00313230 ; NYI
    20a0:	20554e47 	.inst	0x20554e47 ; undefined
    20a4:	32205341 	orr	w1, w26, #0x1fffff
    20a8:	2e36322e 	usubw	v14.8h, v17.8h, v22.8b
    20ac:	80010031 	.inst	0x80010031 ; undefined
    20b0:	0000005e 	.inst	0x0000005e ; undefined
    20b4:	07930002 	.inst	0x07930002 ; undefined
    20b8:	01080000 	.inst	0x01080000 ; undefined
    20bc:	00000791 	.inst	0x00000791 ; undefined
    20c0:	00082000 	.inst	0x00082000 ; undefined
    20c4:	00000000 	.inst	0x00000000 ; undefined
    20c8:	0008300c 	.inst	0x0008300c ; undefined
    20cc:	00000000 	.inst	0x00000000 ; undefined
    20d0:	6e72656b 	umax	v11.8h, v11.8h, v18.8h
    20d4:	782f6c65 	.inst	0x782f6c65 ; undefined
    20d8:	5f747063 	sqdmlsl	s3, h3, v4.h[3]
    20dc:	646e6168 	.inst	0x646e6168 ; undefined
    20e0:	2e72656c 	umax	v12.4h, v11.4h, v18.4h
    20e4:	682f0053 	.inst	0x682f0053 ; undefined
    20e8:	2f656d6f 	.inst	0x2f656d6f ; undefined
    20ec:	61726173 	.inst	0x61726173 ; undefined
    20f0:	75696863 	.inst	0x75696863 ; undefined
    20f4:	74636e2f 	.inst	0x74636e2f ; undefined
    20f8:	736f2f75 	.inst	0x736f2f75 ; undefined
    20fc:	32303263 	orr	w3, w19, #0x1fff0000
    2100:	4e470031 	.inst	0x4e470031 ; undefined
    2104:	53412055 	.inst	0x53412055 ; undefined
    2108:	322e3220 	orr	w0, w17, #0x7ffc0000
    210c:	00312e36 	.inst	0x00312e36 ; NYI
    2110:	052d8001 	.inst	0x052d8001 ; undefined
    2114:	00040000 	.inst	0x00040000 ; undefined
    2118:	000007a7 	.inst	0x000007a7 ; undefined
    211c:	00be0108 	.inst	0x00be0108 ; undefined
    2120:	900c0000 	adrp	x0, 18002000 <__stack_top+0x17f62000>
    2124:	8e000006 	.inst	0x8e000006 ; undefined
    2128:	0c000000 	st4	{v0.8b-v3.8b}, [x0]
    212c:	00000830 	.inst	0x00000830 ; undefined
    2130:	9c000000 	ldr	q0, 2130 <_start-0x7ded0>
    2134:	0000000b 	.inst	0x0000000b ; undefined
    2138:	1d000000 	.inst	0x1d000000 ; undefined
    213c:	02000008 	.inst	0x02000008 ; undefined
    2140:	6e690504 	uhadd	v4.8h, v8.8h, v9.8h
    2144:	a2030074 	.inst	0xa2030074 ; undefined
    2148:	20000005 	.inst	0x20000005 ; undefined
    214c:	007d0602 	.inst	0x007d0602 ; undefined
    2150:	98040000 	ldrsw	x0, a150 <_start-0x75eb0>
    2154:	02000005 	.inst	0x02000005 ; undefined
    2158:	00007d07 	.inst	0x00007d07 ; undefined
    215c:	49040000 	.inst	0x49040000 ; undefined
    2160:	02000006 	.inst	0x02000006 ; undefined
    2164:	00008a08 	.inst	0x00008a08 ; undefined
    2168:	a8040800 	stnp	x0, x2, [x0, #64]
    216c:	02000006 	.inst	0x02000006 ; undefined
    2170:	00009709 	.inst	0x00009709 ; undefined
    2174:	61041000 	.inst	0x61041000 ; undefined
    2178:	02000006 	.inst	0x02000006 ; undefined
    217c:	00002d0a 	.inst	0x00002d0a ; undefined
    2180:	ba041800 	.inst	0xba041800 ; undefined
    2184:	02000005 	.inst	0x02000005 ; undefined
    2188:	00002d0b 	.inst	0x00002d0b ; undefined
    218c:	05001c00 	orr	z0.h, z0.h, #0x2000
    2190:	00008308 	.inst	0x00008308 ; undefined
    2194:	08010600 	stxrb	w1, w0, [x16]
    2198:	00000411 	.inst	0x00000411 ; undefined
    219c:	00900805 	.inst	0x00900805 ; undefined
    21a0:	01060000 	.inst	0x01060000 ; undefined
    21a4:	00040808 	.inst	0x00040808 ; undefined
    21a8:	07080600 	.inst	0x07080600 ; undefined
    21ac:	00000058 	.inst	0x00000058 ; undefined
    21b0:	0005fc07 	.inst	0x0005fc07 ; undefined
    21b4:	340c0200 	cbz	w0, 1a1f4 <_start-0x65e0c>
    21b8:	08000000 	stxrb	w0, w0, [x0]
    21bc:	000005f0 	.inst	0x000005f0 ; undefined
    21c0:	300c2d01 	adr	x1, 1a761 <_start-0x6589f>
    21c4:	00000008 	.inst	0x00000008 ; undefined
    21c8:	02080000 	.inst	0x02080000 ; undefined
    21cc:	00000000 	.inst	0x00000000 ; undefined
    21d0:	9c010000 	ldr	q0, 41d0 <_start-0x7be30>
    21d4:	0000014b 	.inst	0x0000014b ; undefined
    21d8:	00026709 	.inst	0x00026709 ; undefined
    21dc:	7d2d0100 	str	h0, [x8, #5760]
    21e0:	02000000 	.inst	0x02000000 ; undefined
    21e4:	0d0a4891 	.inst	0x0d0a4891 ; undefined
    21e8:	01000006 	.inst	0x01000006 ; undefined
    21ec:	00014b31 	.inst	0x00014b31 ; undefined
    21f0:	78910200 	ldursh	x0, [x16, #-240]
    21f4:	0830480b 	.inst	0x0830480b ; undefined
    21f8:	00000000 	.inst	0x00000000 ; undefined
    21fc:	0001bc00 	.inst	0x0001bc00 ; undefined
    2200:	00000000 	.inst	0x00000000 ; undefined
    2204:	05b00a00 	.inst	0x05b00a00 ; undefined
    2208:	33010000 	bfi	w0, w0, #31, #1
    220c:	0000002d 	.inst	0x0000002d ; undefined
    2210:	0a709102 	.inst	0x0a709102 ; undefined
    2214:	00000671 	.inst	0x00000671 ; undefined
    2218:	002d3401 	.inst	0x002d3401 ; NYI
    221c:	91020000 	add	x0, x0, #0x80
    2220:	06030a6c 	.inst	0x06030a6c ; undefined
    2224:	3f010000 	.inst	0x3f010000 ; undefined
    2228:	0000007d 	.inst	0x0000007d ; undefined
    222c:	0a609102 	.inst	0x0a609102 ; undefined
    2230:	0000069e 	.inst	0x0000069e ; undefined
    2234:	008a4601 	.inst	0x008a4601 ; undefined
    2238:	91020000 	add	x0, x0, #0x80
    223c:	318c0b58 	.inst	0x318c0b58 ; undefined
    2240:	00000008 	.inst	0x00000008 ; undefined
    2244:	00580000 	.inst	0x00580000 ; undefined
    2248:	00000000 	.inst	0x00000000 ; undefined
    224c:	690c0000 	.inst	0x690c0000 ; undefined
    2250:	2d480100 	ldp	s0, s0, [x8, #64]
    2254:	02000000 	.inst	0x02000000 ; undefined
    2258:	00007491 	.inst	0x00007491 ; undefined
    225c:	51080500 	sub	w0, w8, #0x201
    2260:	0d000001 	st1	{v1.b}[0], [x0]
    2264:	00000090 	.inst	0x00000090 ; undefined
    2268:	0006240e 	.inst	0x0006240e ; undefined
    226c:	14560100 	b	158266c <__stack_top+0x14e266c>
    2270:	00000832 	.inst	0x00000832 ; undefined
    2274:	70000000 	adr	x0, 2277 <_start-0x7dd89>
    2278:	00000001 	.inst	0x00000001 ; undefined
    227c:	01000000 	.inst	0x01000000 ; undefined
    2280:	0001c19c 	.inst	0x0001c19c ; undefined
    2284:	060d0a00 	.inst	0x060d0a00 ; undefined
    2288:	57010000 	.inst	0x57010000 ; undefined
    228c:	0000014b 	.inst	0x0000014b ; undefined
    2290:	0a789102 	.inst	0x0a789102 ; undefined
    2294:	00000267 	.inst	0x00000267 ; undefined
    2298:	01c17001 	.inst	0x01c17001 ; undefined
    229c:	91030000 	add	x0, x0, #0xc0
    22a0:	300f7f80 	adr	x0, 21291 <_start-0x5ed6f>
    22a4:	0a000000 	and	w0, w0, w0
    22a8:	000005b0 	.inst	0x000005b0 ; undefined
    22ac:	002d5901 	.inst	0x002d5901 ; NYI
    22b0:	91020000 	add	x0, x0, #0x80
    22b4:	06710a74 	.inst	0x06710a74 ; undefined
    22b8:	5a010000 	sbc	w0, w0, w1
    22bc:	0000002d 	.inst	0x0000002d ; undefined
    22c0:	0a709102 	.inst	0x0a709102 ; undefined
    22c4:	00000603 	.inst	0x00000603 ; undefined
    22c8:	007d6501 	.inst	0x007d6501 ; undefined
    22cc:	91020000 	add	x0, x0, #0x80
    22d0:	10000068 	adr	x8, 22dc <_start-0x7dd24>
    22d4:	00000083 	.inst	0x00000083 ; undefined
    22d8:	000001d1 	.inst	0x000001d1 ; undefined
    22dc:	0001d111 	.inst	0x0001d111 ; undefined
    22e0:	06006300 	.inst	0x06006300 ; undefined
    22e4:	02910708 	.inst	0x02910708 ; undefined
    22e8:	4f0e0000 	.inst	0x4f0e0000 ; undefined
    22ec:	01000006 	.inst	0x01000006 ; undefined
    22f0:	08338474 	.inst	0x08338474 ; undefined
    22f4:	00000000 	.inst	0x00000000 ; undefined
    22f8:	00021000 	.inst	0x00021000 ; undefined
    22fc:	00000000 	.inst	0x00000000 ; undefined
    2300:	979c0100 	bl	fffffffffe702700 <__stack_top+0xfffffffffe662700>
    2304:	0a000002 	and	w2, w0, w0
    2308:	00000267 	.inst	0x00000267 ; undefined
    230c:	01c17501 	.inst	0x01c17501 ; undefined
    2310:	91030000 	add	x0, x0, #0xc0
    2314:	c00a7ee0 	.inst	0xc00a7ee0 ; undefined
    2318:	01000005 	.inst	0x01000005 ; undefined
    231c:	00014b7a 	.inst	0x00014b7a ; undefined
    2320:	68910200 	.inst	0x68910200 ; undefined
    2324:	0005e60a 	.inst	0x0005e60a ; undefined
    2328:	977b0100 	bl	fffffffffdec2728 <__stack_top+0xfffffffffde22728>
    232c:	02000000 	.inst	0x02000000 ; undefined
    2330:	0d0a6091 	.inst	0x0d0a6091 ; undefined
    2334:	01000006 	.inst	0x01000006 ; undefined
    2338:	00014b7c 	.inst	0x00014b7c ; undefined
    233c:	78910200 	ldursh	x0, [x16, #-240]
    2340:	0833d00b 	.inst	0x0833d00b ; undefined
    2344:	00000000 	.inst	0x00000000 ; undefined
    2348:	0001b400 	.inst	0x0001b400 ; undefined
    234c:	00000000 	.inst	0x00000000 ; undefined
    2350:	05b00a00 	.inst	0x05b00a00 ; undefined
    2354:	7f010000 	.inst	0x7f010000 ; undefined
    2358:	0000002d 	.inst	0x0000002d ; undefined
    235c:	0a5c9102 	.inst	0x0a5c9102 ; undefined
    2360:	00000671 	.inst	0x00000671 ; undefined
    2364:	002d8001 	.inst	0x002d8001 ; NYI
    2368:	91020000 	add	x0, x0, #0x80
    236c:	06030a58 	.inst	0x06030a58 ; undefined
    2370:	8b010000 	add	x0, x0, x1
    2374:	0000007d 	.inst	0x0000007d ; undefined
    2378:	0a509102 	.inst	0x0a509102 ; undefined
    237c:	0000069e 	.inst	0x0000069e ; undefined
    2380:	008a9201 	.inst	0x008a9201 ; undefined
    2384:	91020000 	add	x0, x0, #0x80
    2388:	35180b48 	cbnz	w8, 324f0 <_start-0x4db10>
    238c:	00000008 	.inst	0x00000008 ; undefined
    2390:	00440000 	.inst	0x00440000 ; undefined
    2394:	00000000 	.inst	0x00000000 ; undefined
    2398:	690c0000 	.inst	0x690c0000 ; undefined
    239c:	2d940100 	stp	s0, s0, [x8, #160]!
    23a0:	02000000 	.inst	0x02000000 ; undefined
    23a4:	00007491 	.inst	0x00007491 ; undefined
    23a8:	06671200 	.inst	0x06671200 ; undefined
    23ac:	9e010000 	.inst	0x9e010000 ; undefined
    23b0:	00000097 	.inst	0x00000097 ; undefined
    23b4:	00083594 	.inst	0x00083594 ; undefined
    23b8:	00000000 	.inst	0x00000000 ; undefined
    23bc:	00000210 	.inst	0x00000210 ; undefined
    23c0:	00000000 	.inst	0x00000000 ; undefined
    23c4:	03979c01 	.inst	0x03979c01 ; undefined
    23c8:	03090000 	.inst	0x03090000 ; undefined
    23cc:	01000004 	.inst	0x01000004 ; undefined
    23d0:	0003979e 	.inst	0x0003979e ; undefined
    23d4:	48910200 	stllrh	w0, [x16]
    23d8:	0005e609 	.inst	0x0005e609 ; undefined
    23dc:	979e0100 	bl	fffffffffe7827dc <__stack_top+0xfffffffffe6e27dc>
    23e0:	02000000 	.inst	0x02000000 ; undefined
    23e4:	dc0a4091 	.inst	0xdc0a4091 ; undefined
    23e8:	01000005 	.inst	0x01000005 ; undefined
    23ec:	00002d9f 	.inst	0x00002d9f ; undefined
    23f0:	7c910200 	.inst	0x7c910200 ; undefined
    23f4:	0005e10a 	.inst	0x0005e10a ; undefined
    23f8:	2d9f0100 	stp	s0, s0, [x8, #248]!
    23fc:	02000000 	.inst	0x02000000 ; undefined
    2400:	730c7891 	.inst	0x730c7891 ; undefined
    2404:	01006d75 	.inst	0x01006d75 ; undefined
    2408:	00002daa 	.inst	0x00002daa ; undefined
    240c:	54910200 	b.eq	fffffffffff2444c <__stack_top+0xffffffffffe8444c>  // b.none
    2410:	706d740c 	adr	x12, dd293 <__stack_top+0x3d293>
    2414:	7daf0100 	.inst	0x7daf0100 ; undefined
    2418:	02000000 	.inst	0x02000000 ; undefined
    241c:	890a6891 	.inst	0x890a6891 ; undefined
    2420:	01000006 	.inst	0x01000006 ; undefined
    2424:	00007db4 	.inst	0x00007db4 ; undefined
    2428:	60910200 	.inst	0x60910200 ; undefined
    242c:	0835a813 	.inst	0x0835a813 ; undefined
    2430:	00000000 	.inst	0x00000000 ; undefined
    2434:	00008c00 	.inst	0x00008c00 ; undefined
    2438:	00000000 	.inst	0x00000000 ; undefined
    243c:	00035a00 	.inst	0x00035a00 ; undefined
    2440:	00690c00 	.inst	0x00690c00 ; undefined
    2444:	002da001 	.inst	0x002da001 ; NYI
    2448:	91020000 	add	x0, x0, #0x80
    244c:	35d40b74 	cbnz	w20, fffffffffffaa5b8 <__stack_top+0xfffffffffff0a5b8>
    2450:	00000008 	.inst	0x00000008 ; undefined
    2454:	004c0000 	.inst	0x004c0000 ; undefined
    2458:	00000000 	.inst	0x00000000 ; undefined
    245c:	6a0c0000 	ands	w0, w0, w12
    2460:	2da40100 	stp	s0, s0, [x8, #-224]!
    2464:	02000000 	.inst	0x02000000 ; undefined
    2468:	00007091 	.inst	0x00007091 ; undefined
    246c:	0836c80b 	.inst	0x0836c80b ; undefined
    2470:	00000000 	.inst	0x00000000 ; undefined
    2474:	0000d000 	.inst	0x0000d000 ; undefined
    2478:	00000000 	.inst	0x00000000 ; undefined
    247c:	00690c00 	.inst	0x00690c00 ; undefined
    2480:	002db501 	.inst	0x002db501 ; NYI
    2484:	91020000 	add	x0, x0, #0x80
    2488:	37080b5c 	tbnz	w28, #1, 25f0 <_start-0x7da10>
    248c:	00000008 	.inst	0x00000008 ; undefined
    2490:	00740000 	.inst	0x00740000 ; undefined
    2494:	00000000 	.inst	0x00000000 ; undefined
    2498:	6a0c0000 	ands	w0, w0, w12
    249c:	2dbb0100 	stp	s0, s0, [x8, #-40]!
    24a0:	02000000 	.inst	0x02000000 ; undefined
    24a4:	00005891 	.inst	0x00005891 ; undefined
    24a8:	7d080500 	str	h0, [x8, #1026]
    24ac:	14000000 	b	24ac <_start-0x7db54>
    24b0:	0000062e 	.inst	0x0000062e ; undefined
    24b4:	0097c501 	.inst	0x0097c501 ; undefined
    24b8:	37a40000 	tbnz	w0, #20, ffffffffffffa4b8 <__stack_top+0xfffffffffff5a4b8>
    24bc:	00000008 	.inst	0x00000008 ; undefined
    24c0:	024c0000 	.inst	0x024c0000 ; undefined
    24c4:	00000000 	.inst	0x00000000 ; undefined
    24c8:	9c010000 	ldr	q0, 44c8 <_start-0x7bb38>
    24cc:	0000045b 	.inst	0x0000045b ; undefined
    24d0:	00060809 	.inst	0x00060809 ; undefined
    24d4:	7dc50100 	.inst	0x7dc50100 ; undefined
    24d8:	03000000 	.inst	0x03000000 ; undefined
    24dc:	097fb891 	.inst	0x097fb891 ; undefined
    24e0:	00000403 	.inst	0x00000403 ; undefined
    24e4:	0397c501 	.inst	0x0397c501 ; undefined
    24e8:	91030000 	add	x0, x0, #0xc0
    24ec:	c00a7fb0 	.inst	0xc00a7fb0 ; undefined
    24f0:	01000005 	.inst	0x01000005 ; undefined
    24f4:	00045bc7 	.inst	0x00045bc7 ; undefined
    24f8:	68910200 	.inst	0x68910200 ; undefined
    24fc:	0005e60a 	.inst	0x0005e60a ; undefined
    2500:	97c80100 	bl	ffffffffff202900 <__stack_top+0xffffffffff162900>
    2504:	02000000 	.inst	0x02000000 ; undefined
    2508:	0d0a6091 	.inst	0x0d0a6091 ; undefined
    250c:	01000006 	.inst	0x01000006 ; undefined
    2510:	00014bc9 	.inst	0x00014bc9 ; undefined
    2514:	78910200 	ldursh	x0, [x16, #-240]
    2518:	00069e0a 	.inst	0x00069e0a ; undefined
    251c:	5bca0100 	.inst	0x5bca0100 ; undefined
    2520:	02000004 	.inst	0x02000004 ; undefined
    2524:	b00a5891 	adrp	x17, 14b13000 <__stack_top+0x14a73000>
    2528:	01000005 	.inst	0x01000005 ; undefined
    252c:	00002dcb 	.inst	0x00002dcb ; undefined
    2530:	54910200 	b.eq	fffffffffff24570 <__stack_top+0xffffffffffe84570>  // b.none
    2534:	00006015 	.inst	0x00006015 ; undefined
    2538:	00044800 	.inst	0x00044800 ; undefined
    253c:	06710a00 	.inst	0x06710a00 ; undefined
    2540:	cf010000 	.inst	0xcf010000 ; undefined
    2544:	0000002d 	.inst	0x0000002d ; undefined
    2548:	0a509102 	.inst	0x0a509102 ; undefined
    254c:	00000603 	.inst	0x00000603 ; undefined
    2550:	007dda01 	.inst	0x007dda01 ; undefined
    2554:	91020000 	add	x0, x0, #0x80
    2558:	900f0048 	adrp	x8, 1e00a000 <__stack_top+0x1df6a000>
    255c:	0c000000 	st4	{v0.8b-v3.8b}, [x0]
    2560:	eb010069 	subs	x9, x3, x1
    2564:	0000002d 	.inst	0x0000002d ; undefined
    2568:	00749102 	.inst	0x00749102 ; undefined
    256c:	97080500 	bl	fffffffffc20396c <__stack_top+0xfffffffffc16396c>
    2570:	16000000 	b	fffffffff8002570 <__stack_top+0xfffffffff7f62570>
    2574:	0000067b 	.inst	0x0000067b ; undefined
    2578:	047ef401 	uqinch	x1, pow2, mul #15
    257c:	39f00000 	ldrsb	w0, [x0, #3072]
    2580:	00000008 	.inst	0x00000008 ; undefined
    2584:	00100000 	.inst	0x00100000 ; undefined
    2588:	00000000 	.inst	0x00000000 ; undefined
    258c:	9c010000 	ldr	q0, 458c <_start-0x7ba74>
    2590:	9e140817 	.inst	0x9e140817 ; undefined
    2594:	01000005 	.inst	0x01000005 ; undefined
    2598:	000515f8 	.inst	0x000515f8 ; undefined
    259c:	083a0000 	.inst	0x083a0000 ; undefined
    25a0:	00000000 	.inst	0x00000000 ; undefined
    25a4:	0001a800 	.inst	0x0001a800 ; undefined
    25a8:	00000000 	.inst	0x00000000 ; undefined
    25ac:	159c0100 	b	67029ac <__stack_top+0x66629ac>
    25b0:	09000005 	.inst	0x09000005 ; undefined
    25b4:	000005c5 	.inst	0x000005c5 ; undefined
    25b8:	047ef801 	sqdech	x1, pow2, mul #15
    25bc:	91020000 	add	x0, x0, #0x80
    25c0:	05b00a48 	.inst	0x05b00a48 ; undefined
    25c4:	f9010000 	str	x0, [x0, #512]
    25c8:	0000002d 	.inst	0x0000002d ; undefined
    25cc:	0a7c9102 	.inst	0x0a7c9102 ; undefined
    25d0:	00000671 	.inst	0x00000671 ; undefined
    25d4:	002dfa01 	.inst	0x002dfa01 ; NYI
    25d8:	91020000 	add	x0, x0, #0x80
    25dc:	061f0a78 	.inst	0x061f0a78 ; undefined
    25e0:	fb010000 	.inst	0xfb010000 ; undefined
    25e4:	0000002d 	.inst	0x0000002d ; undefined
    25e8:	0a749102 	.inst	0x0a749102 ; undefined
    25ec:	0000061a 	.inst	0x0000061a ; undefined
    25f0:	0097fe01 	.inst	0x0097fe01 ; undefined
    25f4:	91020000 	add	x0, x0, #0x80
    25f8:	06031868 	.inst	0x06031868 ; undefined
    25fc:	09010000 	.inst	0x09010000 ; undefined
    2600:	00007d01 	.inst	0x00007d01 ; undefined
    2604:	60910200 	.inst	0x60910200 ; undefined
    2608:	00069e18 	.inst	0x00069e18 ; undefined
    260c:	010c0100 	.inst	0x010c0100 ; undefined
    2610:	0000008a 	.inst	0x0000008a ; undefined
    2614:	19589102 	.inst	0x19589102 ; undefined
    2618:	00746572 	.inst	0x00746572 ; undefined
    261c:	15010f01 	b	4046220 <__stack_top+0x3fa6220>
    2620:	02000005 	.inst	0x02000005 ; undefined
    2624:	05005091 	orr	z17.s, z17.s, #0x7c00000
    2628:	00009e08 	.inst	0x00009e08 ; undefined
    262c:	05ca1a00 	.inst	0x05ca1a00 ; undefined
    2630:	0a010000 	and	w0, w0, w1
    2634:	0000014b 	.inst	0x0000014b ; undefined
    2638:	57800309 	.inst	0x57800309 ; undefined
    263c:	00000008 	.inst	0x00000008 ; undefined
    2640:	5a000000 	sbc	w0, w0, w0
    2644:	04000003 	add	z3.b, p0/m, z3.b, z0.b
    2648:	00092700 	.inst	0x00092700 ; undefined
    264c:	be010800 	.inst	0xbe010800 ; undefined
    2650:	0c000000 	st4	{v0.8b-v3.8b}, [x0]
    2654:	000006ae 	.inst	0x000006ae ; undefined
    2658:	0000008e 	.inst	0x0000008e ; undefined
    265c:	00083ba8 	.inst	0x00083ba8 ; undefined
    2660:	00000000 	.inst	0x00000000 ; undefined
    2664:	000002e0 	.inst	0x000002e0 ; undefined
    2668:	00000000 	.inst	0x00000000 ; undefined
    266c:	00000a90 	.inst	0x00000a90 ; undefined
    2670:	69050402 	.inst	0x69050402 ; undefined
    2674:	0300746e 	.inst	0x0300746e ; undefined
    2678:	00003a08 	.inst	0x00003a08 ; undefined
    267c:	08010400 	stxrb	w1, w0, [x0]
    2680:	00000411 	.inst	0x00000411 ; undefined
    2684:	08080104 	stxrb	w8, w4, [x8]
    2688:	04000004 	add	z4.b, p0/m, z4.b, z0.b
    268c:	00580708 	.inst	0x00580708 ; undefined
    2690:	24050000 	cmphs	p0.b, p0/z, z0.b, z5.b
    2694:	20000001 	.inst	0x20000001 ; undefined
    2698:	008c0602 	.inst	0x008c0602 ; undefined
    269c:	22060000 	.inst	0x22060000 ; undefined
    26a0:	02000000 	.inst	0x02000000 ; undefined
    26a4:	0000b007 	.inst	0x0000b007 ; undefined
    26a8:	28060000 	stnp	w0, w0, [x0, #48]
    26ac:	02000000 	.inst	0x02000000 ; undefined
    26b0:	0000db08 	.inst	0x0000db08 ; undefined
    26b4:	6a060800 	ands	w0, w0, w6, lsl #2
    26b8:	02000000 	.inst	0x02000000 ; undefined
    26bc:	00010609 	.inst	0x00010609 ; undefined
    26c0:	0d061000 	.inst	0x0d061000 ; undefined
    26c4:	02000000 	.inst	0x02000000 ; undefined
    26c8:	00010c0a 	.inst	0x00010c0a ; undefined
    26cc:	05001800 	orr	z0.s, z0.s, #0x20000000
    26d0:	00000022 	.inst	0x00000022 ; undefined
    26d4:	b0140210 	adrp	x16, 28043000 <__stack_top+0x27fa3000>
    26d8:	06000000 	.inst	0x06000000 ; undefined
    26dc:	00000070 	.inst	0x00000070 ; undefined
    26e0:	01561502 	.inst	0x01561502 ; undefined
    26e4:	07000000 	.inst	0x07000000 ; undefined
    26e8:	02007366 	.inst	0x02007366 ; undefined
    26ec:	00018c16 	.inst	0x00018c16 ; undefined
    26f0:	03000800 	.inst	0x03000800 ; undefined
    26f4:	00008c08 	.inst	0x00008c08 ; undefined
    26f8:	002e0500 	.inst	0x002e0500 ; NYI
    26fc:	02100000 	.inst	0x02100000 ; undefined
    2700:	0000db23 	.inst	0x0000db23 ; undefined
    2704:	08270600 	.inst	0x08270600 ; undefined
    2708:	24020000 	cmphs	p0.b, p0/z, z0.b, z2.b
    270c:	00000243 	.inst	0x00000243 ; undefined
    2710:	08610600 	.inst	0x08610600 ; undefined
    2714:	25020000 	cmpge	p0.b, p0/z, z0.b, #2
    2718:	00000243 	.inst	0x00000243 ; undefined
    271c:	08030008 	stxrb	w3, w8, [x0]
    2720:	000000b6 	.inst	0x000000b6 ; undefined
    2724:	00007e05 	.inst	0x00007e05 ; undefined
    2728:	1e021000 	.inst	0x1e021000 ; undefined
    272c:	00000106 	.inst	0x00000106 ; undefined
    2730:	00085506 	.inst	0x00085506 ; undefined
    2734:	f91f0200 	str	x0, [x16, #15872]
    2738:	00000001 	.inst	0x00000001 ; undefined
    273c:	0007f606 	.inst	0x0007f606 ; undefined
    2740:	18200200 	ldr	w0, 42780 <_start-0x3d880>
    2744:	08000002 	stxrb	w0, w2, [x0]
    2748:	e1080300 	.inst	0xe1080300 ; undefined
    274c:	08000000 	stxrb	w0, w0, [x0]
    2750:	01240908 	.inst	0x01240908 ; undefined
    2754:	0b020000 	add	w0, w0, w2
    2758:	0000004f 	.inst	0x0000004f ; undefined
    275c:	00062905 	.inst	0x00062905 ; undefined
    2760:	0d022000 	.inst	0x0d022000 ; undefined
    2764:	00000156 	.inst	0x00000156 ; undefined
    2768:	00012406 	.inst	0x00012406 ; undefined
    276c:	560e0200 	.inst	0x560e0200 ; undefined
    2770:	00000001 	.inst	0x00000001 ; undefined
    2774:	00003f06 	.inst	0x00003f06 ; undefined
    2778:	480f0200 	stxrh	w15, w0, [x16]
    277c:	08000000 	stxrb	w0, w0, [x0]
    2780:	00006a06 	.inst	0x00006a06 ; undefined
    2784:	06100200 	.inst	0x06100200 ; undefined
    2788:	10000001 	adr	x1, 2788 <_start-0x7d878>
    278c:	00043c06 	.inst	0x00043c06 ; undefined
    2790:	2d110200 	stp	s0, s0, [x16, #136]
    2794:	18000000 	ldr	w0, 2794 <_start-0x7d86c>
    2798:	4f080300 	.inst	0x4f080300 ; undefined
    279c:	09000000 	.inst	0x09000000 ; undefined
    27a0:	00000629 	.inst	0x00000629 ; undefined
    27a4:	01191202 	.inst	0x01191202 ; undefined
    27a8:	b3050000 	.inst	0xb3050000 ; undefined
    27ac:	10000000 	adr	x0, 27ac <_start-0x7d854>
    27b0:	018c1902 	.inst	0x018c1902 ; undefined
    27b4:	08060000 	stxrb	w6, w0, [x0]
    27b8:	02000006 	.inst	0x02000006 ; undefined
    27bc:	00019d1a 	.inst	0x00019d1a ; undefined
    27c0:	1c060000 	ldr	s0, e7c0 <_start-0x71840>
    27c4:	02000000 	.inst	0x02000000 ; undefined
    27c8:	0001c21b 	.inst	0x0001c21b ; undefined
    27cc:	03000800 	.inst	0x03000800 ; undefined
    27d0:	00016708 	.inst	0x00016708 ; undefined
    27d4:	00220900 	.inst	0x00220900 ; NYI
    27d8:	17020000 	b	fffffffffc0827d8 <__stack_top+0xfffffffffbfe27d8>
    27dc:	0000008c 	.inst	0x0000008c ; undefined
    27e0:	01a30803 	.inst	0x01a30803 ; undefined
    27e4:	3a0a0000 	adcs	w0, w0, w10
    27e8:	0b000000 	add	w0, w0, w0
    27ec:	0000002d 	.inst	0x0000002d ; undefined
    27f0:	000001bc 	.inst	0x000001bc ; undefined
    27f4:	00018c0c 	.inst	0x00018c0c ; undefined
    27f8:	01bc0c00 	.inst	0x01bc0c00 ; undefined
    27fc:	03000000 	.inst	0x03000000 ; undefined
    2800:	00019208 	.inst	0x00019208 ; undefined
    2804:	a8080300 	stnp	x0, x0, [x24, #128]
    2808:	09000001 	.inst	0x09000001 ; undefined
    280c:	000000b3 	.inst	0x000000b3 ; undefined
    2810:	01671c02 	.inst	0x01671c02 ; undefined
    2814:	2d0b0000 	stp	s0, s0, [x0, #88]
    2818:	ec000000 	.inst	0xec000000 ; undefined
    281c:	0c000001 	st4	{v1.8b-v4.8b}, [x0]
    2820:	000001ec 	.inst	0x000001ec ; undefined
    2824:	0001f20c 	.inst	0x0001f20c ; undefined
    2828:	00480c00 	.inst	0x00480c00 ; undefined
    282c:	03000000 	.inst	0x03000000 ; undefined
    2830:	00015c08 	.inst	0x00015c08 ; undefined
    2834:	f8080300 	stur	x0, [x24, #128]
    2838:	0d000001 	st1	{v1.b}[0], [x0]
    283c:	01d30803 	.inst	0x01d30803 ; undefined
    2840:	2d0b0000 	stp	s0, s0, [x0, #88]
    2844:	18000000 	ldr	w0, 2844 <_start-0x7d7bc>
    2848:	0c000002 	st4	{v2.8b-v5.8b}, [x0]
    284c:	000001ec 	.inst	0x000001ec ; undefined
    2850:	00010c0c 	.inst	0x00010c0c ; undefined
    2854:	00480c00 	.inst	0x00480c00 ; undefined
    2858:	03000000 	.inst	0x03000000 ; undefined
    285c:	0001ff08 	.inst	0x0001ff08 ; undefined
    2860:	002d0b00 	.inst	0x002d0b00 ; NYI
    2864:	02370000 	.inst	0x02370000 ; undefined
    2868:	370c0000 	tbnz	w0, #1, ffffffffffffa868 <__stack_top+0xfffffffffff5a868>
    286c:	0c000002 	st4	{v2.8b-v5.8b}, [x0]
    2870:	0000023d 	.inst	0x0000023d ; undefined
    2874:	00019d0c 	.inst	0x00019d0c ; undefined
    2878:	08030000 	stxrb	w3, w0, [x0]
    287c:	0000010e 	.inst	0x0000010e ; undefined
    2880:	02370803 	.inst	0x02370803 ; undefined
    2884:	08030000 	stxrb	w3, w0, [x0]
    2888:	0000021e 	.inst	0x0000021e ; undefined
    288c:	0006e20e 	.inst	0x0006e20e ; undefined
    2890:	a8100100 	stnp	x0, x0, [x8, #256]
    2894:	0000083b 	.inst	0x0000083b ; undefined
    2898:	20000000 	.inst	0x20000000 ; undefined
    289c:	00000000 	.inst	0x00000000 ; undefined
    28a0:	01000000 	.inst	0x01000000 ; undefined
    28a4:	06bc0e9c 	.inst	0x06bc0e9c ; undefined
    28a8:	14010000 	b	428a8 <_start-0x3d758>
    28ac:	00083bc8 	.inst	0x00083bc8 ; undefined
    28b0:	00000000 	.inst	0x00000000 ; undefined
    28b4:	00000044 	.inst	0x00000044 ; undefined
    28b8:	00000000 	.inst	0x00000000 ; undefined
    28bc:	cf0f9c01 	.inst	0xcf0f9c01 ; undefined
    28c0:	01000006 	.inst	0x01000006 ; undefined
    28c4:	083c0c1b 	.inst	0x083c0c1b ; undefined
    28c8:	00000000 	.inst	0x00000000 ; undefined
    28cc:	00004000 	.inst	0x00004000 ; undefined
    28d0:	00000000 	.inst	0x00000000 ; undefined
    28d4:	a79c0100 	.inst	0xa79c0100 ; undefined
    28d8:	10000002 	adr	x2, 28d8 <_start-0x7d728>
    28dc:	000004bf 	.inst	0x000004bf ; undefined
    28e0:	002d1b01 	.inst	0x002d1b01 ; NYI
    28e4:	91020000 	add	x0, x0, #0x80
    28e8:	c811007c 	stxr	w17, x28, [x3]
    28ec:	01000006 	.inst	0x01000006 ; undefined
    28f0:	083c4c20 	.inst	0x083c4c20 ; undefined
    28f4:	00000000 	.inst	0x00000000 ; undefined
    28f8:	00002800 	.inst	0x00002800 ; undefined
    28fc:	00000000 	.inst	0x00000000 ; undefined
    2900:	0e9c0100 	.inst	0x0e9c0100 ; undefined
    2904:	000006c1 	.inst	0x000006c1 ; undefined
    2908:	3c742501 	.inst	0x3c742501 ; undefined
    290c:	00000008 	.inst	0x00000008 ; undefined
    2910:	00280000 	.inst	0x00280000 ; NYI
    2914:	00000000 	.inst	0x00000000 ; undefined
    2918:	9c010000 	ldr	q0, 4918 <_start-0x7b6e8>
    291c:	0006d512 	.inst	0x0006d512 ; undefined
    2920:	9c340100 	ldr	q0, 6a940 <_start-0x156c0>
    2924:	0000083c 	.inst	0x0000083c ; undefined
    2928:	ec000000 	.inst	0xec000000 ; undefined
    292c:	00000001 	.inst	0x00000001 ; undefined
    2930:	01000000 	.inst	0x01000000 ; undefined
    2934:	0003409c 	.inst	0x0003409c ; undefined
    2938:	73661300 	.inst	0x73661300 ; undefined
    293c:	40370100 	.inst	0x40370100 ; undefined
    2940:	02000003 	.inst	0x02000003 ; undefined
    2944:	1c147891 	ldr	s17, 2b854 <_start-0x547ac>
    2948:	01000002 	.inst	0x01000002 ; undefined
    294c:	00002d38 	.inst	0x00002d38 ; undefined
    2950:	74910200 	.inst	0x74910200 ; undefined
    2954:	0006da14 	.inst	0x0006da14 ; undefined
    2958:	343a0100 	cbz	w0, 76978 <_start-0x9688>
    295c:	02000000 	.inst	0x02000000 ; undefined
    2960:	d8156891 	prfm	pstl1strm, 2d670 <_start-0x52990>
    2964:	0000083c 	.inst	0x0000083c ; undefined
    2968:	ac000000 	stnp	q0, q0, [x0]
    296c:	00000001 	.inst	0x00000001 ; undefined
    2970:	14000000 	b	2970 <_start-0x7d690>
    2974:	0000012a 	.inst	0x0000012a ; undefined
    2978:	03463e01 	.inst	0x03463e01 ; undefined
    297c:	91020000 	add	x0, x0, #0x80
    2980:	03000050 	.inst	0x03000050 ; undefined
    2984:	0001c808 	.inst	0x0001c808 ; undefined
    2988:	003a1600 	.inst	0x003a1600 ; NYI
    298c:	03560000 	.inst	0x03560000 ; undefined
    2990:	56170000 	.inst	0x56170000 ; undefined
    2994:	13000003 	sbfx	w3, w0, #0, #1
    2998:	07080400 	.inst	0x07080400 ; undefined
    299c:	00000291 	.inst	0x00000291 ; undefined
    29a0:	00007d00 	.inst	0x00007d00 ; undefined
    29a4:	5f000400 	.inst	0x5f000400 ; undefined
    29a8:	0800000a 	stxrb	w0, w10, [x0]
    29ac:	0000be01 	.inst	0x0000be01 ; undefined
    29b0:	06e80c00 	.inst	0x06e80c00 ; undefined
    29b4:	008e0000 	.inst	0x008e0000 ; undefined
    29b8:	3e880000 	.inst	0x3e880000 ; undefined
    29bc:	00000008 	.inst	0x00000008 ; undefined
    29c0:	00840000 	.inst	0x00840000 ; undefined
    29c4:	00000000 	.inst	0x00000000 ; undefined
    29c8:	0b1e0000 	add	w0, w0, w30
    29cc:	f8020000 	stur	x0, [x0, #32]
    29d0:	01000006 	.inst	0x01000006 ; undefined
    29d4:	00006701 	.inst	0x00006701 ; undefined
    29d8:	083e8800 	.inst	0x083e8800 ; undefined
    29dc:	00000000 	.inst	0x00000000 ; undefined
    29e0:	00008400 	.inst	0x00008400 ; undefined
    29e4:	00000000 	.inst	0x00000000 ; undefined
    29e8:	679c0100 	.inst	0x679c0100 ; undefined
    29ec:	03000000 	.inst	0x03000000 ; undefined
    29f0:	01010061 	.inst	0x01010061 ; undefined
    29f4:	0000006e 	.inst	0x0000006e ; undefined
    29f8:	03789102 	.inst	0x03789102 ; undefined
    29fc:	01010062 	.inst	0x01010062 ; undefined
    2a00:	0000006e 	.inst	0x0000006e ; undefined
    2a04:	00709102 	.inst	0x00709102 ; undefined
    2a08:	69050404 	.inst	0x69050404 ; undefined
    2a0c:	0500746e 	orr	z14.h, z14.h, #0x3c
    2a10:	00007b08 	.inst	0x00007b08 ; undefined
    2a14:	08010600 	stxrb	w1, w0, [x16]
    2a18:	00000411 	.inst	0x00000411 ; undefined
    2a1c:	00007407 	.inst	0x00007407 ; undefined
    2a20:	08120000 	stxrb	w18, w0, [x0]
    2a24:	00040000 	.inst	0x00040000 ; undefined
    2a28:	00000ac4 	.inst	0x00000ac4 ; undefined
    2a2c:	00be0108 	.inst	0x00be0108 ; undefined
    2a30:	420c0000 	.inst	0x420c0000 ; undefined
    2a34:	8e000007 	.inst	0x8e000007 ; undefined
    2a38:	0c000000 	st4	{v0.8b-v3.8b}, [x0]
    2a3c:	0000083f 	.inst	0x0000083f ; undefined
    2a40:	e8000000 	.inst	0xe8000000 ; undefined
    2a44:	00000002 	.inst	0x00000002 ; undefined
    2a48:	75000000 	.inst	0x75000000 ; undefined
    2a4c:	0200000b 	.inst	0x0200000b ; undefined
    2a50:	00000124 	.inst	0x00000124 ; undefined
    2a54:	6a060220 	ands	w0, w17, w6
    2a58:	03000000 	.inst	0x03000000 ; undefined
    2a5c:	00000022 	.inst	0x00000022 ; undefined
    2a60:	008e0702 	.inst	0x008e0702 ; undefined
    2a64:	03000000 	.inst	0x03000000 ; undefined
    2a68:	00000028 	.inst	0x00000028 ; undefined
    2a6c:	00b90802 	.inst	0x00b90802 ; undefined
    2a70:	03080000 	.inst	0x03080000 ; undefined
    2a74:	0000006a 	.inst	0x0000006a ; undefined
    2a78:	00e40902 	.inst	0x00e40902 ; undefined
    2a7c:	03100000 	.inst	0x03100000 ; undefined
    2a80:	0000000d 	.inst	0x0000000d ; undefined
    2a84:	00ea0a02 	.inst	0x00ea0a02 ; undefined
    2a88:	00180000 	.inst	0x00180000 ; undefined
    2a8c:	00002202 	.inst	0x00002202 ; undefined
    2a90:	14021000 	b	86a90 <bss_end+0xbc8>
    2a94:	0000008e 	.inst	0x0000008e ; undefined
    2a98:	00007003 	.inst	0x00007003 ; undefined
    2a9c:	34150200 	cbz	w0, 2cadc <_start-0x53524>
    2aa0:	00000001 	.inst	0x00000001 ; undefined
    2aa4:	00736604 	.inst	0x00736604 ; undefined
    2aa8:	01781602 	.inst	0x01781602 ; undefined
    2aac:	00080000 	.inst	0x00080000 ; undefined
    2ab0:	006a0805 	.inst	0x006a0805 ; undefined
    2ab4:	2e020000 	ext	v0.8b, v0.8b, v2.8b, #0
    2ab8:	10000000 	adr	x0, 2ab8 <_start-0x7d548>
    2abc:	00b92302 	.inst	0x00b92302 ; undefined
    2ac0:	27030000 	.inst	0x27030000 ; undefined
    2ac4:	02000008 	.inst	0x02000008 ; undefined
    2ac8:	00022b24 	.inst	0x00022b24 ; undefined
    2acc:	61030000 	.inst	0x61030000 ; undefined
    2ad0:	02000008 	.inst	0x02000008 ; undefined
    2ad4:	00022b25 	.inst	0x00022b25 ; undefined
    2ad8:	05000800 	orr	z0.s, z0.s, #0x80000000
    2adc:	00009408 	.inst	0x00009408 ; undefined
    2ae0:	007e0200 	.inst	0x007e0200 ; undefined
    2ae4:	02100000 	.inst	0x02100000 ; undefined
    2ae8:	0000e41e 	.inst	0x0000e41e ; undefined
    2aec:	08550300 	ldxrb	w0, [x24]
    2af0:	1f020000 	fmadd	s0, s0, s2, s0
    2af4:	000001e1 	.inst	0x000001e1 ; undefined
    2af8:	07f60300 	.inst	0x07f60300 ; undefined
    2afc:	20020000 	.inst	0x20020000 ; undefined
    2b00:	00000200 	.inst	0x00000200 ; undefined
    2b04:	08050008 	stxrb	w5, w8, [x0]
    2b08:	000000bf 	.inst	0x000000bf ; undefined
    2b0c:	24070806 	cmphs	p6.b, p2/z, z0.b, z7.b
    2b10:	02000001 	.inst	0x02000001 ; undefined
    2b14:	00002d0b 	.inst	0x00002d0b ; undefined
    2b18:	06290200 	.inst	0x06290200 ; undefined
    2b1c:	02200000 	.inst	0x02200000 ; undefined
    2b20:	0001340d 	.inst	0x0001340d ; undefined
    2b24:	01240300 	.inst	0x01240300 ; undefined
    2b28:	0e020000 	tbl	v0.8b, {v0.16b}, v2.8b
    2b2c:	00000134 	.inst	0x00000134 ; undefined
    2b30:	003f0300 	.inst	0x003f0300 ; NYI
    2b34:	0f020000 	.inst	0x0f020000 ; undefined
    2b38:	0000013a 	.inst	0x0000013a ; undefined
    2b3c:	006a0308 	.inst	0x006a0308 ; undefined
    2b40:	10020000 	adr	x0, 6b40 <_start-0x794c0>
    2b44:	000000e4 	.inst	0x000000e4 ; undefined
    2b48:	043c0310 	add	z16.b, z24.b, z28.b
    2b4c:	11020000 	add	w0, w0, #0x80
    2b50:	00000141 	.inst	0x00000141 ; undefined
    2b54:	08050018 	stxrb	w5, w24, [x0]
    2b58:	0000002d 	.inst	0x0000002d ; undefined
    2b5c:	58070808 	ldr	x8, 10c5c <_start-0x6f3a4>
    2b60:	09000000 	.inst	0x09000000 ; undefined
    2b64:	6e690504 	uhadd	v4.8h, v8.8h, v9.8h
    2b68:	29070074 	stp	w20, w0, [x3, #56]
    2b6c:	02000006 	.inst	0x02000006 ; undefined
    2b70:	0000f712 	.inst	0x0000f712 ; undefined
    2b74:	00b30200 	.inst	0x00b30200 ; undefined
    2b78:	02100000 	.inst	0x02100000 ; undefined
    2b7c:	00017819 	.inst	0x00017819 ; undefined
    2b80:	06080300 	.inst	0x06080300 ; undefined
    2b84:	1a020000 	adc	w0, w0, w2
    2b88:	00000189 	.inst	0x00000189 ; undefined
    2b8c:	001c0300 	.inst	0x001c0300 ; undefined
    2b90:	1b020000 	madd	w0, w0, w2, w0
    2b94:	000001b5 	.inst	0x000001b5 ; undefined
    2b98:	08050008 	stxrb	w5, w8, [x0]
    2b9c:	00000153 	.inst	0x00000153 ; undefined
    2ba0:	00002207 	.inst	0x00002207 ; undefined
    2ba4:	6a170200 	ands	w0, w16, w23
    2ba8:	05000000 	orr	z0.s, z0.s, #0x1
    2bac:	00019608 	.inst	0x00019608 ; undefined
    2bb0:	08010800 	stxrb	w1, w0, [x0]
    2bb4:	00000411 	.inst	0x00000411 ; undefined
    2bb8:	00018f0a 	.inst	0x00018f0a ; undefined
    2bbc:	01410b00 	.inst	0x01410b00 ; undefined
    2bc0:	01af0000 	.inst	0x01af0000 ; undefined
    2bc4:	780c0000 	sturh	w0, [x0, #192]
    2bc8:	0c000001 	st4	{v1.8b-v4.8b}, [x0]
    2bcc:	000001af 	.inst	0x000001af ; undefined
    2bd0:	7e080500 	.inst	0x7e080500 ; undefined
    2bd4:	05000001 	orr	z1.s, z1.s, #0x1
    2bd8:	00019b08 	.inst	0x00019b08 ; undefined
    2bdc:	01410b00 	.inst	0x01410b00 ; undefined
    2be0:	01d40000 	.inst	0x01d40000 ; undefined
    2be4:	d40c0000 	.inst	0xd40c0000 ; undefined
    2be8:	0c000001 	st4	{v1.8b-v4.8b}, [x0]
    2bec:	000001da 	.inst	0x000001da ; undefined
    2bf0:	00013a0c 	.inst	0x00013a0c ; undefined
    2bf4:	08050000 	stxrb	w5, w0, [x0]
    2bf8:	00000148 	.inst	0x00000148 ; undefined
    2bfc:	01e00805 	.inst	0x01e00805 ; undefined
    2c00:	050d0000 	.inst	0x050d0000 ; undefined
    2c04:	0001bb08 	.inst	0x0001bb08 ; undefined
    2c08:	01410b00 	.inst	0x01410b00 ; undefined
    2c0c:	02000000 	.inst	0x02000000 ; undefined
    2c10:	d40c0000 	.inst	0xd40c0000 ; undefined
    2c14:	0c000001 	st4	{v1.8b-v4.8b}, [x0]
    2c18:	000000ea 	.inst	0x000000ea ; undefined
    2c1c:	00013a0c 	.inst	0x00013a0c ; undefined
    2c20:	08050000 	stxrb	w5, w0, [x0]
    2c24:	000001e7 	.inst	0x000001e7 ; undefined
    2c28:	0001410b 	.inst	0x0001410b ; undefined
    2c2c:	00021f00 	.inst	0x00021f00 ; undefined
    2c30:	021f0c00 	.inst	0x021f0c00 ; undefined
    2c34:	250c0000 	cmpge	p0.b, p0/z, z0.b, #12
    2c38:	0c000002 	st4	{v2.8b-v5.8b}, [x0]
    2c3c:	00000189 	.inst	0x00000189 ; undefined
    2c40:	ec080500 	.inst	0xec080500 ; undefined
    2c44:	05000000 	orr	z0.s, z0.s, #0x1
    2c48:	00021f08 	.inst	0x00021f08 ; undefined
    2c4c:	06080500 	.inst	0x06080500 ; undefined
    2c50:	0e000002 	tbl	v2.8b, {v0.16b}, v0.8b
    2c54:	000003a7 	.inst	0x000003a7 ; undefined
    2c58:	19030178 	.inst	0x19030178 ; undefined
    2c5c:	0000047f 	.inst	0x0000047f ; undefined
    2c60:	39317804 	strb	w4, [x0, #3166]
    2c64:	3a1b0300 	adcs	w0, w24, w27
    2c68:	00000001 	.inst	0x00000001 ; undefined
    2c6c:	30327804 	adr	x4, 67b6d <_start-0x18493>
    2c70:	3a1c0300 	adcs	w0, w24, w28
    2c74:	08000001 	stxrb	w0, w1, [x0]
    2c78:	31327804 	adds	w4, w0, #0xc9e
    2c7c:	3a1d0300 	adcs	w0, w24, w29
    2c80:	10000001 	adr	x1, 2c80 <_start-0x7d380>
    2c84:	32327804 	orr	w4, w0, #0xffffdfff
    2c88:	3a1e0300 	adcs	w0, w24, w30
    2c8c:	18000001 	ldr	w1, 2c8c <_start-0x7d374>
    2c90:	33327804 	.inst	0x33327804 ; undefined
    2c94:	3a1f0300 	adcs	w0, w24, wzr
    2c98:	20000001 	.inst	0x20000001 ; undefined
    2c9c:	34327804 	cbz	w4, 67b9c <_start-0x18464>
    2ca0:	3a200300 	.inst	0x3a200300 ; undefined
    2ca4:	28000001 	stnp	w1, w0, [x0]
    2ca8:	35327804 	cbnz	w4, 67ba8 <_start-0x18458>
    2cac:	3a210300 	.inst	0x3a210300 ; undefined
    2cb0:	30000001 	adr	x1, 2cb1 <_start-0x7d34f>
    2cb4:	36327804 	tbz	w4, #6, 7bb4 <_start-0x7844c>
    2cb8:	3a220300 	.inst	0x3a220300 ; undefined
    2cbc:	38000001 	sturb	w1, [x0]
    2cc0:	37327804 	tbnz	w4, #6, 7bc0 <_start-0x78440>
    2cc4:	3a230300 	.inst	0x3a230300 ; undefined
    2cc8:	40000001 	.inst	0x40000001 ; undefined
    2ccc:	38327804 	strb	w4, [x0, x18, lsl #0]
    2cd0:	3a240300 	.inst	0x3a240300 ; undefined
    2cd4:	48000001 	stxrh	w0, w1, [x0]
    2cd8:	00706604 	.inst	0x00706604 ; undefined
    2cdc:	013a2603 	.inst	0x013a2603 ; undefined
    2ce0:	04500000 	mul	z0.h, p0/m, z0.h, z0.h
    2ce4:	0300726c 	.inst	0x0300726c ; undefined
    2ce8:	00013a27 	.inst	0x00013a27 ; undefined
    2cec:	73045800 	.inst	0x73045800 ; undefined
    2cf0:	28030070 	stnp	w16, w0, [x3, #24]
    2cf4:	0000013a 	.inst	0x0000013a ; undefined
    2cf8:	03a20360 	.inst	0x03a20360 ; undefined
    2cfc:	2a030000 	orr	w0, w0, w3
    2d00:	0000013a 	.inst	0x0000013a ; undefined
    2d04:	6c650468 	ldnp	d8, d1, [x3, #-432]
    2d08:	2b030072 	adds	w18, w3, w3
    2d0c:	0000013a 	.inst	0x0000013a ; undefined
    2d10:	73750470 	.inst	0x73750470 ; undefined
    2d14:	2e030070 	ext	v16.8b, v3.8b, v3.8b, #0
    2d18:	0000013a 	.inst	0x0000013a ; undefined
    2d1c:	78750478 	.inst	0x78750478 ; undefined
    2d20:	30030030 	adr	x16, 8d25 <_start-0x772db>
    2d24:	0000013a 	.inst	0x0000013a ; undefined
    2d28:	78750480 	.inst	0x78750480 ; undefined
    2d2c:	31030031 	adds	w17, w1, #0xc0
    2d30:	0000013a 	.inst	0x0000013a ; undefined
    2d34:	78750488 	.inst	0x78750488 ; undefined
    2d38:	32030032 	orr	w18, w1, #0x20000000
    2d3c:	0000013a 	.inst	0x0000013a ; undefined
    2d40:	78750490 	.inst	0x78750490 ; undefined
    2d44:	33030033 	bfi	w19, w1, #29, #1
    2d48:	0000013a 	.inst	0x0000013a ; undefined
    2d4c:	78750498 	.inst	0x78750498 ; undefined
    2d50:	34030034 	cbz	w20, 8d54 <_start-0x772ac>
    2d54:	0000013a 	.inst	0x0000013a ; undefined
    2d58:	787504a0 	.inst	0x787504a0 ; undefined
    2d5c:	35030035 	cbnz	w21, 8d60 <_start-0x772a0>
    2d60:	0000013a 	.inst	0x0000013a ; undefined
    2d64:	787504a8 	.inst	0x787504a8 ; undefined
    2d68:	36030036 	tbz	w22, #0, 8d6c <_start-0x77294>
    2d6c:	0000013a 	.inst	0x0000013a ; undefined
    2d70:	787504b0 	.inst	0x787504b0 ; undefined
    2d74:	37030037 	tbnz	w23, #0, 8d78 <_start-0x77288>
    2d78:	0000013a 	.inst	0x0000013a ; undefined
    2d7c:	787504b8 	.inst	0x787504b8 ; undefined
    2d80:	38030038 	sturb	w24, [x1, #48]
    2d84:	0000013a 	.inst	0x0000013a ; undefined
    2d88:	787504c0 	.inst	0x787504c0 ; undefined
    2d8c:	39030039 	strb	w25, [x1, #192]
    2d90:	0000013a 	.inst	0x0000013a ; undefined
    2d94:	03ef03c8 	.inst	0x03ef03c8 ; undefined
    2d98:	3a030000 	adcs	w0, w0, w3
    2d9c:	0000013a 	.inst	0x0000013a ; undefined
    2da0:	03f403d0 	.inst	0x03f403d0 ; undefined
    2da4:	3b030000 	.inst	0x3b030000 ; undefined
    2da8:	0000013a 	.inst	0x0000013a ; undefined
    2dac:	04e503d8 	add	z24.d, z30.d, z5.d
    2db0:	3c030000 	stur	b0, [x0, #48]
    2db4:	0000013a 	.inst	0x0000013a ; undefined
    2db8:	04ea03e0 	add	z0.d, z31.d, z10.d
    2dbc:	3d030000 	str	b0, [x0, #192]
    2dc0:	0000013a 	.inst	0x0000013a ; undefined
    2dc4:	04ef03e8 	add	z8.d, z31.d, z15.d
    2dc8:	3e030000 	.inst	0x3e030000 ; undefined
    2dcc:	0000013a 	.inst	0x0000013a ; undefined
    2dd0:	047803f0 	add	z16.h, z31.h, z24.h
    2dd4:	3f030000 	.inst	0x3f030000 ; undefined
    2dd8:	0000013a 	.inst	0x0000013a ; undefined
    2ddc:	04f40ff8 	.inst	0x04f40ff8 ; undefined
    2de0:	40030000 	.inst	0x40030000 ; undefined
    2de4:	0000013a 	.inst	0x0000013a ; undefined
    2de8:	f90f0100 	str	x0, [x8, #7680]
    2dec:	03000004 	.inst	0x03000004 ; undefined
    2df0:	00013a41 	.inst	0x00013a41 ; undefined
    2df4:	0f010800 	.inst	0x0f010800 ; undefined
    2df8:	000004fe 	.inst	0x000004fe ; undefined
    2dfc:	013a4203 	.inst	0x013a4203 ; undefined
    2e00:	01100000 	.inst	0x01100000 ; undefined
    2e04:	0005030f 	.inst	0x0005030f ; undefined
    2e08:	3a430300 	ccmn	w24, w3, #0x0, eq  // eq = none
    2e0c:	18000001 	ldr	w1, 2e0c <_start-0x7d1f4>
    2e10:	044f0f01 	.inst	0x044f0f01 ; undefined
    2e14:	44030000 	.inst	0x44030000 ; undefined
    2e18:	0000013a 	.inst	0x0000013a ; undefined
    2e1c:	540f0120 	b.eq	20e40 <_start-0x5f1c0>  // b.none
    2e20:	03000004 	.inst	0x03000004 ; undefined
    2e24:	00013a45 	.inst	0x00013a45 ; undefined
    2e28:	0f012800 	.inst	0x0f012800 ; undefined
    2e2c:	00000459 	.inst	0x00000459 ; undefined
    2e30:	013a4603 	.inst	0x013a4603 ; undefined
    2e34:	01300000 	.inst	0x01300000 ; undefined
    2e38:	00045e0f 	.inst	0x00045e0f ; undefined
    2e3c:	3a470300 	ccmn	w24, w7, #0x0, eq  // eq = none
    2e40:	38000001 	sturb	w1, [x0]
    2e44:	03bc0f01 	.inst	0x03bc0f01 ; undefined
    2e48:	48030000 	stxrh	w3, w0, [x0]
    2e4c:	0000013a 	.inst	0x0000013a ; undefined
    2e50:	730f0140 	.inst	0x730f0140 ; undefined
    2e54:	03000004 	.inst	0x03000004 ; undefined
    2e58:	00013a49 	.inst	0x00013a49 ; undefined
    2e5c:	0f014800 	.inst	0x0f014800 ; undefined
    2e60:	000003c1 	.inst	0x000003c1 ; undefined
    2e64:	013a4a03 	.inst	0x013a4a03 ; undefined
    2e68:	01500000 	.inst	0x01500000 ; undefined
    2e6c:	00047d0f 	.inst	0x00047d0f ; undefined
    2e70:	3a4b0300 	ccmn	w24, w11, #0x0, eq  // eq = none
    2e74:	58000001 	ldr	x1, 2e74 <_start-0x7d18c>
    2e78:	04820f01 	.inst	0x04820f01 ; undefined
    2e7c:	4c030000 	.inst	0x4c030000 ; undefined
    2e80:	0000013a 	.inst	0x0000013a ; undefined
    2e84:	75100160 	.inst	0x75100160 ; undefined
    2e88:	03007066 	.inst	0x03007066 ; undefined
    2e8c:	00013a4d 	.inst	0x00013a4d ; undefined
    2e90:	10016800 	adr	x0, 5b90 <_start-0x7a470>
    2e94:	00726c75 	.inst	0x00726c75 ; undefined
    2e98:	013a4e03 	.inst	0x013a4e03 ; undefined
    2e9c:	01700000 	.inst	0x01700000 ; undefined
    2ea0:	03a80700 	.inst	0x03a80700 ; undefined
    2ea4:	50030000 	adr	x0, 8ea6 <_start-0x7715a>
    2ea8:	00000231 	.inst	0x00000231 ; undefined
    2eac:	00042e0e 	.inst	0x00042e0e ; undefined
    2eb0:	0301b800 	.inst	0x0301b800 ; undefined
    2eb4:	0004f152 	.inst	0x0004f152 ; undefined
    2eb8:	03a80300 	.inst	0x03a80300 ; undefined
    2ebc:	53030000 	ubfiz	w0, w0, #29, #1
    2ec0:	0000047f 	.inst	0x0000047f ; undefined
    2ec4:	64691000 	.inst	0x64691000 ; undefined
    2ec8:	f1540300 	subs	x0, x24, #0x500, lsl #12
    2ecc:	78000004 	sturh	w4, [x0]
    2ed0:	04640f01 	.inst	0x04640f01 ; undefined
    2ed4:	55030000 	.inst	0x55030000 ; undefined
    2ed8:	000004f1 	.inst	0x000004f1 ; undefined
    2edc:	dc0f017c 	.inst	0xdc0f017c ; undefined
    2ee0:	03000004 	.inst	0x03000004 ; undefined
    2ee4:	0004f156 	.inst	0x0004f156 ; undefined
    2ee8:	0f018000 	.inst	0x0f018000 ; undefined
    2eec:	00000416 	.inst	0x00000416 ; undefined
    2ef0:	04f15703 	.inst	0x04f15703 ; undefined
    2ef4:	01840000 	.inst	0x01840000 ; undefined
    2ef8:	0004920f 	.inst	0x0004920f ; undefined
    2efc:	f1590300 	subs	x0, x24, #0x640, lsl #12
    2f00:	88000004 	stxr	w0, w4, [x0]
    2f04:	046a0f01 	.inst	0x046a0f01 ; undefined
    2f08:	5a030000 	sbc	w0, w0, w3
    2f0c:	000004f8 	.inst	0x000004f8 ; undefined
    2f10:	08000190 	stxrb	w0, w16, [x12]
    2f14:	005d0704 	.inst	0x005d0704 ; undefined
    2f18:	d4110000 	.inst	0xd4110000 ; undefined
    2f1c:	08000001 	stxrb	w0, w1, [x0]
    2f20:	12000005 	and	w5, w0, #0x1
    2f24:	00000508 	.inst	0x00000508 ; undefined
    2f28:	08080004 	stxrb	w8, w4, [x0]
    2f2c:	00029107 	.inst	0x00029107 ; undefined
    2f30:	042f0700 	sub	z0.b, z24.b, z15.b
    2f34:	5b030000 	.inst	0x5b030000 ; undefined
    2f38:	0000048a 	.inst	0x0000048a ; undefined
    2f3c:	018f0805 	.inst	0x018f0805 ; undefined
    2f40:	01080000 	.inst	0x01080000 ; undefined
    2f44:	00040808 	.inst	0x00040808 ; undefined
    2f48:	07621300 	.inst	0x07621300 ; undefined
    2f4c:	06010000 	.inst	0x06010000 ; undefined
    2f50:	00083f0c 	.inst	0x00083f0c ; undefined
    2f54:	00000000 	.inst	0x00000000 ; undefined
    2f58:	0000002c 	.inst	0x0000002c ; undefined
    2f5c:	00000000 	.inst	0x00000000 ; undefined
    2f60:	055f9c01 	.inst	0x055f9c01 ; undefined
    2f64:	76140000 	.inst	0x76140000 ; undefined
    2f68:	3a060100 	adcs	w0, w8, w6
    2f6c:	02000001 	.inst	0x02000001 ; undefined
    2f70:	8a156891 	and	x17, x4, x21, lsl #26
    2f74:	01000007 	.inst	0x01000007 ; undefined
    2f78:	00055f07 	.inst	0x00055f07 ; undefined
    2f7c:	78910200 	ldursh	x0, [x16, #-240]
    2f80:	3a080500 	.inst	0x3a080500 ; undefined
    2f84:	16000001 	b	fffffffff8002f88 <__stack_top+0xfffffffff7f62f88>
    2f88:	00000728 	.inst	0x00000728 ; undefined
    2f8c:	3f380c01 	.inst	0x3f380c01 ; undefined
    2f90:	00000008 	.inst	0x00000008 ; undefined
    2f94:	002c0000 	.inst	0x002c0000 ; NYI
    2f98:	00000000 	.inst	0x00000000 ; undefined
    2f9c:	9c010000 	ldr	q0, 4f9c <_start-0x7b064>
    2fa0:	00071a17 	.inst	0x00071a17 ; undefined
    2fa4:	64110100 	.inst	0x64110100 ; undefined
    2fa8:	0000083f 	.inst	0x0000083f ; undefined
    2fac:	2c000000 	stnp	s0, s0, [x0]
    2fb0:	00000000 	.inst	0x00000000 ; undefined
    2fb4:	01000000 	.inst	0x01000000 ; undefined
    2fb8:	0005b89c 	.inst	0x0005b89c ; undefined
    2fbc:	75621400 	.inst	0x75621400 ; undefined
    2fc0:	11010066 	add	w6, w3, #0x40
    2fc4:	0000051a 	.inst	0x0000051a ; undefined
    2fc8:	18789102 	ldr	w2, f41e8 <__stack_top+0x541e8>
    2fcc:	000005b5 	.inst	0x000005b5 ; undefined
    2fd0:	01411101 	.inst	0x01411101 ; undefined
    2fd4:	91020000 	add	x0, x0, #0x80
    2fd8:	68170074 	.inst	0x68170074 ; undefined
    2fdc:	01000007 	.inst	0x01000007 ; undefined
    2fe0:	083f9015 	.inst	0x083f9015 ; undefined
    2fe4:	00000000 	.inst	0x00000000 ; undefined
    2fe8:	00002400 	.inst	0x00002400 ; undefined
    2fec:	00000000 	.inst	0x00000000 ; undefined
    2ff0:	f29c0100 	movk	x0, #0xe008
    2ff4:	14000005 	b	3008 <_start-0x7cff8>
    2ff8:	00667562 	.inst	0x00667562 ; undefined
    2ffc:	051a1501 	mov	z1.b, p10/z, #-88
    3000:	91020000 	add	x0, x0, #0x80
    3004:	05b51878 	.inst	0x05b51878 ; undefined
    3008:	15010000 	b	4043008 <__stack_top+0x3fa3008>
    300c:	00000141 	.inst	0x00000141 ; undefined
    3010:	00749102 	.inst	0x00749102 ; undefined
    3014:	0006ff17 	.inst	0x0006ff17 ; undefined
    3018:	b4190100 	cbz	x0, 35038 <_start-0x4afc8>
    301c:	0000083f 	.inst	0x0000083f ; undefined
    3020:	28000000 	stnp	w0, w0, [x0]
    3024:	00000000 	.inst	0x00000000 ; undefined
    3028:	01000000 	.inst	0x01000000 ; undefined
    302c:	00062c9c 	.inst	0x00062c9c ; undefined
    3030:	06081800 	.inst	0x06081800 ; undefined
    3034:	19010000 	.inst	0x19010000 ; undefined
    3038:	0000051a 	.inst	0x0000051a ; undefined
    303c:	18789102 	ldr	w2, f425c <__stack_top+0x5425c>
    3040:	00000403 	.inst	0x00000403 ; undefined
    3044:	062c1901 	.inst	0x062c1901 ; undefined
    3048:	91020000 	add	x0, x0, #0x80
    304c:	08050070 	stxrb	w5, w16, [x3]
    3050:	0000051a 	.inst	0x0000051a ; undefined
    3054:	00070816 	.inst	0x00070816 ; undefined
    3058:	dc1d0100 	.inst	0xdc1d0100 ; undefined
    305c:	0000083f 	.inst	0x0000083f ; undefined
    3060:	18000000 	ldr	w0, 3060 <_start-0x7cfa0>
    3064:	00000000 	.inst	0x00000000 ; undefined
    3068:	01000000 	.inst	0x01000000 ; undefined
    306c:	0777169c 	.inst	0x0777169c ; undefined
    3070:	21010000 	.inst	0x21010000 ; undefined
    3074:	00083ff4 	.inst	0x00083ff4 ; undefined
    3078:	00000000 	.inst	0x00000000 ; undefined
    307c:	00000030 	.inst	0x00000030 ; undefined
    3080:	00000000 	.inst	0x00000000 ; undefined
    3084:	11199c01 	add	w1, w0, #0x667
    3088:	01000007 	.inst	0x01000007 ; undefined
    308c:	00014126 	.inst	0x00014126 ; undefined
    3090:	08402400 	ldxrb	w0, [x0]
    3094:	00000000 	.inst	0x00000000 ; undefined
    3098:	00009800 	.inst	0x00009800 ; undefined
    309c:	00000000 	.inst	0x00000000 ; undefined
    30a0:	dc9c0100 	.inst	0xdc9c0100 ; undefined
    30a4:	18000006 	ldr	w6, 30a4 <_start-0x7cf5c>
    30a8:	00000045 	.inst	0x00000045 ; undefined
    30ac:	01892601 	.inst	0x01892601 ; undefined
    30b0:	91020000 	add	x0, x0, #0x80
    30b4:	043c1868 	sqsub	z8.b, z3.b, z28.b
    30b8:	26010000 	.inst	0x26010000 ; undefined
    30bc:	00000141 	.inst	0x00000141 ; undefined
    30c0:	15649102 	b	59274c8 <__stack_top+0x58874c8>
    30c4:	0000078a 	.inst	0x0000078a ; undefined
    30c8:	06dc2701 	.inst	0x06dc2701 ; undefined
    30cc:	91020000 	add	x0, x0, #0x80
    30d0:	65721a70 	fmla	z16.h, p6/m, z19.h, z18.h
    30d4:	29010074 	stp	w20, w0, [x3, #8]
    30d8:	00000141 	.inst	0x00000141 ; undefined
    30dc:	1b7c9102 	.inst	0x1b7c9102 ; undefined
    30e0:	00084044 	.inst	0x00084044 ; undefined
    30e4:	00000000 	.inst	0x00000000 ; undefined
    30e8:	00000064 	.inst	0x00000064 ; undefined
    30ec:	00000000 	.inst	0x00000000 ; undefined
    30f0:	0100691a 	.inst	0x0100691a ; undefined
    30f4:	0001412a 	.inst	0x0001412a ; undefined
    30f8:	78910200 	ldursh	x0, [x16, #-240]
    30fc:	08050000 	stxrb	w5, w0, [x0]
    3100:	0000050f 	.inst	0x0000050f ; undefined
    3104:	00078019 	.inst	0x00078019 ; undefined
    3108:	41350100 	.inst	0x41350100 ; undefined
    310c:	bc000001 	stur	s1, [x0]
    3110:	00000840 	.inst	0x00000840 ; undefined
    3114:	64000000 	.inst	0x64000000 ; undefined
    3118:	00000000 	.inst	0x00000000 ; undefined
    311c:	01000000 	.inst	0x01000000 ; undefined
    3120:	00072d9c 	.inst	0x00072d9c ; undefined
    3124:	64661400 	.inst	0x64661400 ; undefined
    3128:	41350100 	.inst	0x41350100 ; undefined
    312c:	02000001 	.inst	0x02000001 ; undefined
    3130:	8a156c91 	and	x17, x4, x21, lsl #27
    3134:	01000007 	.inst	0x01000007 ; undefined
    3138:	0006dc36 	.inst	0x0006dc36 ; undefined
    313c:	78910200 	ldursh	x0, [x16, #-240]
    3140:	7465721a 	.inst	0x7465721a ; undefined
    3144:	41380100 	.inst	0x41380100 ; undefined
    3148:	02000001 	.inst	0x02000001 ; undefined
    314c:	19007491 	.inst	0x19007491 ; undefined
    3150:	00000758 	.inst	0x00000758 ; undefined
    3154:	01414001 	.inst	0x01414001 ; undefined
    3158:	41200000 	.inst	0x41200000 ; undefined
    315c:	00000008 	.inst	0x00000008 ; undefined
    3160:	00680000 	.inst	0x00680000 ; undefined
    3164:	00000000 	.inst	0x00000000 ; undefined
    3168:	9c010000 	ldr	q0, 5168 <_start-0x7ae98>
    316c:	00000786 	.inst	0x00000786 ; undefined
    3170:	00646614 	.inst	0x00646614 ; undefined
    3174:	01414001 	.inst	0x01414001 ; undefined
    3178:	91020000 	add	x0, x0, #0x80
    317c:	7562146c 	.inst	0x7562146c ; undefined
    3180:	40010066 	.inst	0x40010066 ; undefined
    3184:	000001da 	.inst	0x000001da ; undefined
    3188:	18609102 	ldr	w2, c43a8 <__stack_top+0x243a8>
    318c:	000004cb 	.inst	0x000004cb ; undefined
    3190:	01414001 	.inst	0x01414001 ; undefined
    3194:	91020000 	add	x0, x0, #0x80
    3198:	078a1568 	.inst	0x078a1568 ; undefined
    319c:	41010000 	.inst	0x41010000 ; undefined
    31a0:	000006dc 	.inst	0x000006dc ; undefined
    31a4:	00789102 	.inst	0x00789102 ; undefined
    31a8:	00074f17 	.inst	0x00074f17 ; undefined
    31ac:	88490100 	ldxr	w0, [x8]
    31b0:	00000841 	.inst	0x00000841 ; undefined
    31b4:	6c000000 	stnp	d0, d0, [x0]
    31b8:	00000000 	.inst	0x00000000 ; undefined
    31bc:	01000000 	.inst	0x01000000 ; undefined
    31c0:	0007db9c 	.inst	0x0007db9c ; undefined
    31c4:	64661400 	.inst	0x64661400 ; undefined
    31c8:	41490100 	.inst	0x41490100 ; undefined
    31cc:	02000001 	.inst	0x02000001 ; undefined
    31d0:	62146c91 	.inst	0x62146c91 ; undefined
    31d4:	01006675 	.inst	0x01006675 ; undefined
    31d8:	0000ea49 	.inst	0x0000ea49 ; undefined
    31dc:	60910200 	.inst	0x60910200 ; undefined
    31e0:	0004cb18 	.inst	0x0004cb18 ; undefined
    31e4:	41490100 	.inst	0x41490100 ; undefined
    31e8:	02000001 	.inst	0x02000001 ; undefined
    31ec:	8a156891 	and	x17, x4, x21, lsl #26
    31f0:	01000007 	.inst	0x01000007 ; undefined
    31f4:	0006dc4a 	.inst	0x0006dc4a ; undefined
    31f8:	78910200 	ldursh	x0, [x16, #-240]
    31fc:	03b41c00 	.inst	0x03b41c00 ; undefined
    3200:	66030000 	.inst	0x66030000 ; undefined
    3204:	000006dc 	.inst	0x000006dc ; undefined
    3208:	0007f611 	.inst	0x0007f611 ; undefined
    320c:	0007f600 	.inst	0x0007f600 ; undefined
    3210:	05081200 	.inst	0x05081200 ; undefined
    3214:	000a0000 	.inst	0x000a0000 ; undefined
    3218:	0000ea0a 	.inst	0x0000ea0a ; undefined
    321c:	07331d00 	.inst	0x07331d00 ; undefined
    3220:	52010000 	eor	w0, w0, #0x80000000
    3224:	00000810 	.inst	0x00000810 ; undefined
    3228:	56200309 	.inst	0x56200309 ; undefined
    322c:	00000008 	.inst	0x00000008 ; undefined
    3230:	e60a0000 	.inst	0xe60a0000 ; undefined
    3234:	00000007 	.inst	0x00000007 ; undefined
    3238:	0000021c 	.inst	0x0000021c ; undefined
    323c:	0c620004 	.inst	0x0c620004 ; undefined
    3240:	01080000 	.inst	0x01080000 ; undefined
    3244:	000000be 	.inst	0x000000be ; undefined
    3248:	0007ab0c 	.inst	0x0007ab0c ; undefined
    324c:	00008e00 	.inst	0x00008e00 ; undefined
    3250:	0841f400 	ldaxrb	w0, [x0]
    3254:	00000000 	.inst	0x00000000 ; undefined
    3258:	00035400 	.inst	0x00035400 ; undefined
    325c:	00000000 	.inst	0x00000000 ; undefined
    3260:	000c1500 	.inst	0x000c1500 ; undefined
    3264:	07a00200 	.inst	0x07a00200 ; undefined
    3268:	03010000 	.inst	0x03010000 ; undefined
    326c:	000000d5 	.inst	0x000000d5 ; undefined
    3270:	000841f4 	.inst	0x000841f4 ; undefined
    3274:	00000000 	.inst	0x00000000 ; undefined
    3278:	00000148 	.inst	0x00000148 ; undefined
    327c:	00000000 	.inst	0x00000000 ; undefined
    3280:	00d59c01 	.inst	0x00d59c01 ; undefined
    3284:	73030000 	.inst	0x73030000 ; undefined
    3288:	dc030100 	.inst	0xdc030100 ; undefined
    328c:	02000000 	.inst	0x02000000 ; undefined
    3290:	84045891 	ld1b	{z17.s}, p6/z, [x4, z4.s, uxtw]
    3294:	01000006 	.inst	0x01000006 ; undefined
    3298:	0000d503 	.inst	0x0000d503 ; undefined
    329c:	54910200 	b.eq	fffffffffff252dc <__stack_top+0xffffffffffe852dc>  // b.none
    32a0:	01006905 	.inst	0x01006905 ; undefined
    32a4:	0000d504 	.inst	0x0000d504 ; undefined
    32a8:	7c910200 	.inst	0x7c910200 ; undefined
    32ac:	6d756e05 	ldp	d5, d27, [x16, #-176]
    32b0:	d5050100 	msr	s0_5_c0_c1_0, x0
    32b4:	02000000 	.inst	0x02000000 ; undefined
    32b8:	bf067891 	.inst	0xbf067891 ; undefined
    32bc:	01000007 	.inst	0x01000007 ; undefined
    32c0:	0000d506 	.inst	0x0000d506 ; undefined
    32c4:	74910200 	.inst	0x74910200 ; undefined
    32c8:	08424807 	ldxrb	w7, [x0]
    32cc:	00000000 	.inst	0x00000000 ; undefined
    32d0:	00003c00 	.inst	0x00003c00 ; undefined
    32d4:	00000000 	.inst	0x00000000 ; undefined
    32d8:	0000b400 	.inst	0x0000b400 ; undefined
    32dc:	07a50600 	.inst	0x07a50600 ; undefined
    32e0:	0d010000 	.inst	0x0d010000 ; undefined
    32e4:	000000d5 	.inst	0x000000d5 ; undefined
    32e8:	00709102 	.inst	0x00709102 ; undefined
    32ec:	08429008 	ldaxrb	w8, [x0]
    32f0:	00000000 	.inst	0x00000000 ; undefined
    32f4:	00005c00 	.inst	0x00005c00 ; undefined
    32f8:	00000000 	.inst	0x00000000 ; undefined
    32fc:	07a50600 	.inst	0x07a50600 ; undefined
    3300:	11010000 	add	w0, w0, #0x40
    3304:	000000d5 	.inst	0x000000d5 ; undefined
    3308:	006c9102 	.inst	0x006c9102 ; undefined
    330c:	05040900 	.inst	0x05040900 ; undefined
    3310:	00746e69 	.inst	0x00746e69 ; undefined
    3314:	00e2080a 	.inst	0x00e2080a ; undefined
    3318:	010b0000 	.inst	0x010b0000 ; undefined
    331c:	00040808 	.inst	0x00040808 ; undefined
    3320:	07940c00 	.inst	0x07940c00 ; undefined
    3324:	1c010000 	ldr	s0, 5324 <_start-0x7acdc>
    3328:	0008433c 	.inst	0x0008433c ; undefined
    332c:	00000000 	.inst	0x00000000 ; undefined
    3330:	00000194 	.inst	0x00000194 ; undefined
    3334:	00000000 	.inst	0x00000000 ; undefined
    3338:	018f9c01 	.inst	0x018f9c01 ; undefined
    333c:	6e030000 	ext	v0.16b, v0.16b, v3.16b, #0
    3340:	01006d75 	.inst	0x01006d75 ; undefined
    3344:	0000d51c 	.inst	0x0000d51c ; undefined
    3348:	6c910200 	stp	d0, d0, [x16], #272
    334c:	01007303 	.inst	0x01007303 ; undefined
    3350:	00018f1c 	.inst	0x00018f1c ; undefined
    3354:	60910200 	.inst	0x60910200 ; undefined
    3358:	01006905 	.inst	0x01006905 ; undefined
    335c:	0000d51d 	.inst	0x0000d51d ; undefined
    3360:	7c910200 	.inst	0x7c910200 ; undefined
    3364:	08437c07 	ldxrb	w7, [x0]
    3368:	00000000 	.inst	0x00000000 ; undefined
    336c:	00008800 	.inst	0x00008800 ; undefined
    3370:	00000000 	.inst	0x00000000 ; undefined
    3374:	00015000 	.inst	0x00015000 ; undefined
    3378:	07a50600 	.inst	0x07a50600 ; undefined
    337c:	24010000 	cmphs	p0.b, p0/z, z0.b, z1.b
    3380:	000000d5 	.inst	0x000000d5 ; undefined
    3384:	00749102 	.inst	0x00749102 ; undefined
    3388:	08442008 	ldxrb	w8, [x0]
    338c:	00000000 	.inst	0x00000000 ; undefined
    3390:	0000a400 	.inst	0x0000a400 ; undefined
    3394:	00000000 	.inst	0x00000000 ; undefined
    3398:	006a0500 	.inst	0x006a0500 ; undefined
    339c:	00d52b01 	.inst	0x00d52b01 ; undefined
    33a0:	91020000 	add	x0, x0, #0x80
    33a4:	44300878 	.inst	0x44300878 ; undefined
    33a8:	00000008 	.inst	0x00000008 ; undefined
    33ac:	00680000 	.inst	0x00680000 ; undefined
    33b0:	00000000 	.inst	0x00000000 ; undefined
    33b4:	1c060000 	ldr	s0, f3b4 <_start-0x70c4c>
    33b8:	01000002 	.inst	0x01000002 ; undefined
    33bc:	0001952c 	.inst	0x0001952c ; undefined
    33c0:	73910200 	.inst	0x73910200 ; undefined
    33c4:	0a000000 	and	w0, w0, w0
    33c8:	00019508 	.inst	0x00019508 ; undefined
    33cc:	08010b00 	stxrb	w1, w0, [x24]
    33d0:	00000411 	.inst	0x00000411 ; undefined
    33d4:	0007c802 	.inst	0x0007c802 ; undefined
    33d8:	dc320100 	.inst	0xdc320100 ; undefined
    33dc:	d0000000 	adrp	x0, 5000 <_start-0x7b000>
    33e0:	00000844 	.inst	0x00000844 ; undefined
    33e4:	78000000 	sturh	w0, [x0]
    33e8:	00000000 	.inst	0x00000000 ; undefined
    33ec:	01000000 	.inst	0x01000000 ; undefined
    33f0:	0002079c 	.inst	0x0002079c ; undefined
    33f4:	00730300 	.inst	0x00730300 ; undefined
    33f8:	00dc3201 	.inst	0x00dc3201 ; undefined
    33fc:	91020000 	add	x0, x0, #0x80
    3400:	07990468 	.inst	0x07990468 ; undefined
    3404:	32010000 	orr	w0, w0, #0x80000000
    3408:	000000d5 	.inst	0x000000d5 ; undefined
    340c:	06649102 	.inst	0x06649102 ; undefined
    3410:	000007ba 	.inst	0x000007ba ; undefined
    3414:	02073301 	.inst	0x02073301 ; undefined
    3418:	03090000 	.inst	0x03090000 ; undefined
    341c:	00085ac8 	.inst	0x00085ac8 ; undefined
    3420:	00000000 	.inst	0x00000000 ; undefined
    3424:	00078f06 	.inst	0x00078f06 ; undefined
    3428:	dc340100 	.inst	0xdc340100 ; undefined
    342c:	02000000 	.inst	0x02000000 ; undefined
    3430:	69057891 	.inst	0x69057891 ; undefined
    3434:	d5350100 	mrs	x0, s2_5_c0_c1_0
    3438:	02000000 	.inst	0x02000000 ; undefined
    343c:	0d007491 	.inst	0x0d007491 ; undefined
    3440:	000000e2 	.inst	0x000000e2 ; undefined
    3444:	00000218 	.inst	0x00000218 ; undefined
    3448:	0002180e 	.inst	0x0002180e ; undefined
    344c:	0003ff00 	.inst	0x0003ff00 ; undefined
    3450:	9107080b 	add	x11, x0, #0x1c2
    3454:	00000002 	.inst	0x00000002 ; undefined
    3458:	000007ae 	.inst	0x000007ae ; undefined
    345c:	0d2d0004 	.inst	0x0d2d0004 ; undefined
    3460:	01080000 	.inst	0x01080000 ; undefined
    3464:	000000be 	.inst	0x000000be ; undefined
    3468:	0008680c 	.inst	0x0008680c ; undefined
    346c:	00008e00 	.inst	0x00008e00 ; undefined
    3470:	08454800 	ldxrb	w0, [x0]
    3474:	00000000 	.inst	0x00000000 ; undefined
    3478:	00089400 	.inst	0x00089400 ; undefined
    347c:	00000000 	.inst	0x00000000 ; undefined
    3480:	000cd000 	.inst	0x000cd000 ; undefined
    3484:	05040200 	.inst	0x05040200 ; undefined
    3488:	00746e69 	.inst	0x00746e69 ; undefined
    348c:	00012403 	.inst	0x00012403 ; undefined
    3490:	06022000 	.inst	0x06022000 ; undefined
    3494:	00000071 	.inst	0x00000071 ; undefined
    3498:	00002204 	.inst	0x00002204 ; undefined
    349c:	95070200 	bl	41c3c9c <__stack_top+0x4123c9c>
    34a0:	00000000 	.inst	0x00000000 ; undefined
    34a4:	00002804 	.inst	0x00002804 ; undefined
    34a8:	c0080200 	.inst	0xc0080200 ; undefined
    34ac:	08000000 	stxrb	w0, w0, [x0]
    34b0:	00006a04 	.inst	0x00006a04 ; undefined
    34b4:	eb090200 	subs	x0, x16, x9
    34b8:	10000000 	adr	x0, 34b8 <_start-0x7cb48>
    34bc:	00000d04 	.inst	0x00000d04 ; undefined
    34c0:	f10a0200 	subs	x0, x16, #0x280
    34c4:	18000000 	ldr	w0, 34c4 <_start-0x7cb3c>
    34c8:	00220300 	.inst	0x00220300 ; NYI
    34cc:	02100000 	.inst	0x02100000 ; undefined
    34d0:	00009514 	.inst	0x00009514 ; undefined
    34d4:	00700400 	.inst	0x00700400 ; undefined
    34d8:	15020000 	b	40834d8 <__stack_top+0x3fe34d8>
    34dc:	0000013b 	.inst	0x0000013b ; undefined
    34e0:	73660500 	.inst	0x73660500 ; undefined
    34e4:	78160200 	sturh	w0, [x16, #-160]
    34e8:	08000001 	stxrb	w0, w1, [x0]
    34ec:	71080600 	subs	w0, w16, #0x201
    34f0:	03000000 	.inst	0x03000000 ; undefined
    34f4:	0000002e 	.inst	0x0000002e ; undefined
    34f8:	c0230210 	.inst	0xc0230210 ; undefined
    34fc:	04000000 	add	z0.b, p0/m, z0.b, z0.b
    3500:	00000827 	.inst	0x00000827 ; undefined
    3504:	02412402 	.inst	0x02412402 ; undefined
    3508:	04000000 	add	z0.b, p0/m, z0.b, z0.b
    350c:	00000861 	.inst	0x00000861 ; undefined
    3510:	02412502 	.inst	0x02412502 ; undefined
    3514:	00080000 	.inst	0x00080000 ; undefined
    3518:	009b0806 	.inst	0x009b0806 ; undefined
    351c:	7e030000 	.inst	0x7e030000 ; undefined
    3520:	10000000 	adr	x0, 3520 <_start-0x7cae0>
    3524:	00eb1e02 	.inst	0x00eb1e02 ; undefined
    3528:	55040000 	.inst	0x55040000 ; undefined
    352c:	02000008 	.inst	0x02000008 ; undefined
    3530:	0001ec1f 	.inst	0x0001ec1f ; undefined
    3534:	f6040000 	.inst	0xf6040000 ; undefined
    3538:	02000007 	.inst	0x02000007 ; undefined
    353c:	00020b20 	.inst	0x00020b20 ; undefined
    3540:	06000800 	.inst	0x06000800 ; undefined
    3544:	0000c608 	.inst	0x0000c608 ; undefined
    3548:	08080700 	stxrb	w8, w0, [x24]
    354c:	00000124 	.inst	0x00000124 ; undefined
    3550:	00340b02 	.inst	0x00340b02 ; NYI
    3554:	29030000 	stp	w0, w0, [x0, #24]
    3558:	20000006 	.inst	0x20000006 ; undefined
    355c:	013b0d02 	.inst	0x013b0d02 ; undefined
    3560:	24040000 	cmphs	p0.b, p0/z, z0.b, z4.b
    3564:	02000001 	.inst	0x02000001 ; undefined
    3568:	00013b0e 	.inst	0x00013b0e ; undefined
    356c:	3f040000 	.inst	0x3f040000 ; undefined
    3570:	02000000 	.inst	0x02000000 ; undefined
    3574:	0001410f 	.inst	0x0001410f ; undefined
    3578:	6a040800 	ands	w0, w0, w4, lsl #2
    357c:	02000000 	.inst	0x02000000 ; undefined
    3580:	0000eb10 	.inst	0x0000eb10 ; undefined
    3584:	3c041000 	stur	b0, [x0, #65]
    3588:	02000004 	.inst	0x02000004 ; undefined
    358c:	00002d11 	.inst	0x00002d11 ; undefined
    3590:	06001800 	.inst	0x06001800 ; undefined
    3594:	00003408 	.inst	0x00003408 ; undefined
    3598:	07080900 	.inst	0x07080900 ; undefined
    359c:	00000058 	.inst	0x00000058 ; undefined
    35a0:	00062908 	.inst	0x00062908 ; undefined
    35a4:	fe120200 	.inst	0xfe120200 ; undefined
    35a8:	03000000 	.inst	0x03000000 ; undefined
    35ac:	000000b3 	.inst	0x000000b3 ; undefined
    35b0:	78190210 	sturh	w16, [x16, #-112]
    35b4:	04000001 	add	z1.b, p0/m, z1.b, z0.b
    35b8:	00000608 	.inst	0x00000608 ; undefined
    35bc:	01891a02 	.inst	0x01891a02 ; undefined
    35c0:	04000000 	add	z0.b, p0/m, z0.b, z0.b
    35c4:	0000001c 	.inst	0x0000001c ; undefined
    35c8:	01b51b02 	.inst	0x01b51b02 ; undefined
    35cc:	00080000 	.inst	0x00080000 ; undefined
    35d0:	01530806 	.inst	0x01530806 ; undefined
    35d4:	22080000 	.inst	0x22080000 ; undefined
    35d8:	02000000 	.inst	0x02000000 ; undefined
    35dc:	00007117 	.inst	0x00007117 ; undefined
    35e0:	96080600 	bl	fffffffff8204de0 <__stack_top+0xfffffffff8164de0>
    35e4:	09000001 	.inst	0x09000001 ; undefined
    35e8:	04110801 	.inst	0x04110801 ; undefined
    35ec:	8f0a0000 	.inst	0x8f0a0000 ; undefined
    35f0:	0b000001 	add	w1, w0, w0
    35f4:	0000002d 	.inst	0x0000002d ; undefined
    35f8:	000001af 	.inst	0x000001af ; undefined
    35fc:	0001780c 	.inst	0x0001780c ; undefined
    3600:	01af0c00 	.inst	0x01af0c00 ; undefined
    3604:	06000000 	.inst	0x06000000 ; undefined
    3608:	00017e08 	.inst	0x00017e08 ; undefined
    360c:	9b080600 	madd	x0, x16, x8, x1
    3610:	08000001 	stxrb	w0, w1, [x0]
    3614:	000000b3 	.inst	0x000000b3 ; undefined
    3618:	01531c02 	.inst	0x01531c02 ; undefined
    361c:	2d0b0000 	stp	s0, s0, [x0, #88]
    3620:	df000000 	.inst	0xdf000000 ; undefined
    3624:	0c000001 	st4	{v1.8b-v4.8b}, [x0]
    3628:	000001df 	.inst	0x000001df ; undefined
    362c:	0001e50c 	.inst	0x0001e50c ; undefined
    3630:	01410c00 	.inst	0x01410c00 ; undefined
    3634:	06000000 	.inst	0x06000000 ; undefined
    3638:	00014808 	.inst	0x00014808 ; undefined
    363c:	eb080600 	subs	x0, x16, x8, lsl #1
    3640:	0d000001 	st1	{v1.b}[0], [x0]
    3644:	01c60806 	.inst	0x01c60806 ; undefined
    3648:	2d0b0000 	stp	s0, s0, [x0, #88]
    364c:	0b000000 	add	w0, w0, w0
    3650:	0c000002 	st4	{v2.8b-v5.8b}, [x0]
    3654:	000001df 	.inst	0x000001df ; undefined
    3658:	0000f10c 	.inst	0x0000f10c ; undefined
    365c:	01410c00 	.inst	0x01410c00 ; undefined
    3660:	06000000 	.inst	0x06000000 ; undefined
    3664:	0001f208 	.inst	0x0001f208 ; undefined
    3668:	007e0800 	.inst	0x007e0800 ; undefined
    366c:	21020000 	.inst	0x21020000 ; undefined
    3670:	000000c6 	.inst	0x000000c6 ; undefined
    3674:	00002d0b 	.inst	0x00002d0b ; undefined
    3678:	00023500 	.inst	0x00023500 ; undefined
    367c:	02350c00 	.inst	0x02350c00 ; undefined
    3680:	3b0c0000 	.inst	0x3b0c0000 ; undefined
    3684:	0c000002 	st4	{v2.8b-v5.8b}, [x0]
    3688:	00000189 	.inst	0x00000189 ; undefined
    368c:	f3080600 	.inst	0xf3080600 ; undefined
    3690:	06000000 	.inst	0x06000000 ; undefined
    3694:	00023508 	.inst	0x00023508 ; undefined
    3698:	1c080600 	ldr	s0, 13758 <_start-0x6c8a8>
    369c:	08000002 	stxrb	w0, w2, [x0]
    36a0:	0000002e 	.inst	0x0000002e ; undefined
    36a4:	009b2602 	.inst	0x009b2602 ; undefined
    36a8:	a2030000 	.inst	0xa2030000 ; undefined
    36ac:	20000005 	.inst	0x20000005 ; undefined
    36b0:	029b0603 	.inst	0x029b0603 ; undefined
    36b4:	98040000 	ldrsw	x0, b6b4 <_start-0x7494c>
    36b8:	03000005 	.inst	0x03000005 ; undefined
    36bc:	00029b07 	.inst	0x00029b07 ; undefined
    36c0:	49040000 	.inst	0x49040000 ; undefined
    36c4:	03000006 	.inst	0x03000006 ; undefined
    36c8:	0002a108 	.inst	0x0002a108 ; undefined
    36cc:	a8040800 	stnp	x0, x2, [x0, #64]
    36d0:	03000006 	.inst	0x03000006 ; undefined
    36d4:	00014109 	.inst	0x00014109 ; undefined
    36d8:	61041000 	.inst	0x61041000 ; undefined
    36dc:	03000006 	.inst	0x03000006 ; undefined
    36e0:	00002d0a 	.inst	0x00002d0a ; undefined
    36e4:	ba041800 	.inst	0xba041800 ; undefined
    36e8:	03000005 	.inst	0x03000005 ; undefined
    36ec:	00002d0b 	.inst	0x00002d0b ; undefined
    36f0:	06001c00 	.inst	0x06001c00 ; undefined
    36f4:	00018f08 	.inst	0x00018f08 ; undefined
    36f8:	a7080600 	.inst	0xa7080600 ; undefined
    36fc:	09000002 	.inst	0x09000002 ; undefined
    3700:	04080801 	smax	z1.b, p2/m, z1.b, z0.b
    3704:	fc080000 	stur	d0, [x0, #128]
    3708:	03000005 	.inst	0x03000005 ; undefined
    370c:	0002520c 	.inst	0x0002520c ; undefined
    3710:	07df0300 	.inst	0x07df0300 ; undefined
    3714:	04280000 	add	z0.b, z0.b, z8.b
    3718:	00030208 	.inst	0x00030208 ; undefined
    371c:	06080400 	.inst	0x06080400 ; undefined
    3720:	09040000 	.inst	0x09040000 ; undefined
    3724:	0000029b 	.inst	0x0000029b ; undefined
    3728:	02950400 	.inst	0x02950400 ; undefined
    372c:	0a040000 	and	w0, w0, w4
    3730:	00000141 	.inst	0x00000141 ; undefined
    3734:	080f0408 	stxrb	w15, w8, [x0]
    3738:	0b040000 	add	w0, w0, w4
    373c:	00000141 	.inst	0x00000141 ; undefined
    3740:	05b50410 	.inst	0x05b50410 ; undefined
    3744:	0c040000 	.inst	0x0c040000 ; undefined
    3748:	00000141 	.inst	0x00000141 ; undefined
    374c:	06a30418 	.inst	0x06a30418 ; undefined
    3750:	0d040000 	.inst	0x0d040000 ; undefined
    3754:	000000f1 	.inst	0x000000f1 ; undefined
    3758:	fb080020 	.inst	0xfb080020 ; undefined
    375c:	04000007 	add	z7.b, p0/m, z7.b, z0.b
    3760:	0002b90e 	.inst	0x0002b90e ; undefined
    3764:	07cf0e00 	.inst	0x07cf0e00 ; undefined
    3768:	08010000 	stxrb	w1, w0, [x0]
    376c:	00084548 	.inst	0x00084548 ; undefined
    3770:	00000000 	.inst	0x00000000 ; undefined
    3774:	00000100 	.inst	0x00000100 ; undefined
    3778:	00000000 	.inst	0x00000000 ; undefined
    377c:	03859c01 	.inst	0x03859c01 ; undefined
    3780:	700f0000 	adr	x0, 21783 <_start-0x5e87d>
    3784:	01000000 	.inst	0x01000000 ; undefined
    3788:	00023508 	.inst	0x00023508 ; undefined
    378c:	58910200 	ldr	x0, fffffffffff257cc <__stack_top+0xffffffffffe857cc>
    3790:	00088910 	.inst	0x00088910 ; undefined
    3794:	85090100 	.inst	0x85090100 ; undefined
    3798:	02000003 	.inst	0x02000003 ; undefined
    379c:	70117091 	adr	x17, 265af <_start-0x59a51>
    37a0:	00000845 	.inst	0x00000845 ; undefined
    37a4:	70000000 	adr	x0, 37a7 <_start-0x7c859>
    37a8:	00000000 	.inst	0x00000000 ; undefined
    37ac:	10000000 	adr	x0, 37ac <_start-0x7c854>
    37b0:	00000837 	.inst	0x00000837 ; undefined
    37b4:	023b0d01 	.inst	0x023b0d01 ; undefined
    37b8:	91020000 	add	x0, x0, #0x80
    37bc:	45941168 	.inst	0x45941168 ; undefined
    37c0:	00000008 	.inst	0x00000008 ; undefined
    37c4:	004c0000 	.inst	0x004c0000 ; undefined
    37c8:	00000000 	.inst	0x00000000 ; undefined
    37cc:	69120000 	.inst	0x69120000 ; undefined
    37d0:	2d0e0100 	stp	s0, s0, [x8, #112]
    37d4:	02000000 	.inst	0x02000000 ; undefined
    37d8:	00007c91 	.inst	0x00007c91 ; undefined
    37dc:	02080600 	.inst	0x02080600 ; undefined
    37e0:	13000003 	sbfx	w3, w0, #0, #1
    37e4:	0000084f 	.inst	0x0000084f ; undefined
    37e8:	002d1d01 	.inst	0x002d1d01 ; NYI
    37ec:	46480000 	.inst	0x46480000 ; undefined
    37f0:	00000008 	.inst	0x00000008 ; undefined
    37f4:	01800000 	.inst	0x01800000 ; undefined
    37f8:	00000000 	.inst	0x00000000 ; undefined
    37fc:	9c010000 	ldr	q0, 57fc <_start-0x7a804>
    3800:	0000048c 	.inst	0x0000048c ; undefined
    3804:	0006290f 	.inst	0x0006290f ; undefined
    3808:	df1d0100 	.inst	0xdf1d0100 ; undefined
    380c:	02000001 	.inst	0x02000001 ; undefined
    3810:	62144891 	.inst	0x62144891 ; undefined
    3814:	01006675 	.inst	0x01006675 ; undefined
    3818:	0001e51d 	.inst	0x0001e51d ; undefined
    381c:	40910200 	.inst	0x40910200 ; undefined
    3820:	6e656c14 	umin	v20.8h, v0.8h, v5.8h
    3824:	411d0100 	.inst	0x411d0100 ; undefined
    3828:	03000001 	.inst	0x03000001 ; undefined
    382c:	107fb891 	adr	x17, 102f3c <__stack_top+0x62f3c>
    3830:	0000081c 	.inst	0x0000081c ; undefined
    3834:	02351e01 	.inst	0x02351e01 ; undefined
    3838:	91020000 	add	x0, x0, #0x80
    383c:	08891068 	stllrb	w8, [x3]
    3840:	1f010000 	fmadd	s0, s0, s1, s0
    3844:	00000385 	.inst	0x00000385 ; undefined
    3848:	10609102 	adr	x2, c4a68 <__stack_top+0x24a68>
    384c:	00000689 	.inst	0x00000689 ; undefined
    3850:	01892101 	.inst	0x01892101 ; undefined
    3854:	91020000 	add	x0, x0, #0x80
    3858:	06a31058 	.inst	0x06a31058 ; undefined
    385c:	25010000 	cmpge	p0.b, p0/z, z0.b, #1
    3860:	0000029b 	.inst	0x0000029b ; undefined
    3864:	15509102 	b	5427c6c <__stack_top+0x5387c6c>
    3868:	000846dc 	.inst	0x000846dc ; undefined
    386c:	00000000 	.inst	0x00000000 ; undefined
    3870:	00000064 	.inst	0x00000064 ; undefined
    3874:	00000000 	.inst	0x00000000 ; undefined
    3878:	0000044f 	.inst	0x0000044f ; undefined
    387c:	01006a12 	.inst	0x01006a12 ; undefined
    3880:	00002d28 	.inst	0x00002d28 ; undefined
    3884:	7c910200 	.inst	0x7c910200 ; undefined
    3888:	0846e811 	ldaxrb	w17, [x0]
    388c:	00000000 	.inst	0x00000000 ; undefined
    3890:	00005000 	.inst	0x00005000 ; undefined
    3894:	00000000 	.inst	0x00000000 ; undefined
    3898:	00691200 	.inst	0x00691200 ; undefined
    389c:	002d2901 	.inst	0x002d2901 ; NYI
    38a0:	91020000 	add	x0, x0, #0x80
    38a4:	11000078 	add	w24, w3, #0x0
    38a8:	00084740 	.inst	0x00084740 ; undefined
    38ac:	00000000 	.inst	0x00000000 ; undefined
    38b0:	0000007c 	.inst	0x0000007c ; undefined
    38b4:	00000000 	.inst	0x00000000 ; undefined
    38b8:	01006a12 	.inst	0x01006a12 ; undefined
    38bc:	00002d30 	.inst	0x00002d30 ; undefined
    38c0:	74910200 	.inst	0x74910200 ; undefined
    38c4:	08474c11 	ldxrb	w17, [x0]
    38c8:	00000000 	.inst	0x00000000 ; undefined
    38cc:	00005000 	.inst	0x00005000 ; undefined
    38d0:	00000000 	.inst	0x00000000 ; undefined
    38d4:	00691200 	.inst	0x00691200 ; undefined
    38d8:	002d3101 	.inst	0x002d3101 ; NYI
    38dc:	91020000 	add	x0, x0, #0x80
    38e0:	00000070 	.inst	0x00000070 ; undefined
    38e4:	0007f016 	.inst	0x0007f016 ; undefined
    38e8:	2d3c0100 	stp	s0, s0, [x8, #-32]
    38ec:	c8000000 	stxr	w0, x0, [x0]
    38f0:	00000847 	.inst	0x00000847 ; undefined
    38f4:	dc000000 	.inst	0xdc000000 ; undefined
    38f8:	00000000 	.inst	0x00000000 ; undefined
    38fc:	01000000 	.inst	0x01000000 ; undefined
    3900:	0005579c 	.inst	0x0005579c ; undefined
    3904:	06290f00 	.inst	0x06290f00 ; undefined
    3908:	3c010000 	stur	b0, [x0, #16]
    390c:	000001df 	.inst	0x000001df ; undefined
    3910:	14489102 	b	1227d18 <__stack_top+0x1187d18>
    3914:	00667562 	.inst	0x00667562 ; undefined
    3918:	00f13c01 	.inst	0x00f13c01 ; undefined
    391c:	91020000 	add	x0, x0, #0x80
    3920:	656c1440 	fmla	z0.h, p5/m, z2.h, z12.h
    3924:	3c01006e 	stur	b14, [x3, #16]
    3928:	00000141 	.inst	0x00000141 ; undefined
    392c:	7fb89103 	fmulx	s3, s8, v24.s[1]
    3930:	00081c10 	.inst	0x00081c10 ; undefined
    3934:	353d0100 	cbnz	w0, 7d954 <_start-0x26ac>
    3938:	02000002 	.inst	0x02000002 ; undefined
    393c:	89107091 	.inst	0x89107091 ; undefined
    3940:	01000008 	.inst	0x01000008 ; undefined
    3944:	0003853e 	.inst	0x0003853e ; undefined
    3948:	68910200 	.inst	0x68910200 ; undefined
    394c:	0005ba10 	.inst	0x0005ba10 ; undefined
    3950:	2d3f0100 	stp	s0, s0, [x8, #-8]
    3954:	02000000 	.inst	0x02000000 ; undefined
    3958:	2e106491 	.inst	0x2e106491 ; undefined
    395c:	01000008 	.inst	0x01000008 ; undefined
    3960:	00002d40 	.inst	0x00002d40 ; undefined
    3964:	60910200 	.inst	0x60910200 ; undefined
    3968:	01006a12 	.inst	0x01006a12 ; undefined
    396c:	00002d42 	.inst	0x00002d42 ; undefined
    3970:	7c910200 	.inst	0x7c910200 ; undefined
    3974:	00068910 	.inst	0x00068910 ; undefined
    3978:	9b430100 	smulh	x0, x8, x3
    397c:	02000002 	.inst	0x02000002 ; undefined
    3980:	a3105891 	.inst	0xa3105891 ; undefined
    3984:	01000006 	.inst	0x01000006 ; undefined
    3988:	00029b44 	.inst	0x00029b44 ; undefined
    398c:	50910200 	adr	x0, fffffffffff259ce <__stack_top+0xffffffffffe859ce>
    3990:	08482811 	ldxrb	w17, [x0]
    3994:	00000000 	.inst	0x00000000 ; undefined
    3998:	00005800 	.inst	0x00005800 ; undefined
    399c:	00000000 	.inst	0x00000000 ; undefined
    39a0:	00691200 	.inst	0x00691200 ; undefined
    39a4:	002d4501 	.inst	0x002d4501 ; NYI
    39a8:	91020000 	add	x0, x0, #0x80
    39ac:	13000078 	sbfx	w24, w3, #0, #1
    39b0:	0000085b 	.inst	0x0000085b ; undefined
    39b4:	002d4e01 	.inst	0x002d4e01 ; NYI
    39b8:	48a40000 	.inst	0x48a40000 ; undefined
    39bc:	00000008 	.inst	0x00000008 ; undefined
    39c0:	015c0000 	.inst	0x015c0000 ; undefined
    39c4:	00000000 	.inst	0x00000000 ; undefined
    39c8:	9c010000 	ldr	q0, 59c8 <_start-0x7a638>
    39cc:	000005db 	.inst	0x000005db ; undefined
    39d0:	0008180f 	.inst	0x0008180f ; undefined
    39d4:	354e0100 	cbnz	w0, 9f9f4 <__heap_start+0xf9f4>
    39d8:	02000002 	.inst	0x02000002 ; undefined
    39dc:	670f5891 	.inst	0x670f5891 ; undefined
    39e0:	01000002 	.inst	0x01000002 ; undefined
    39e4:	00023b4e 	.inst	0x00023b4e ; undefined
    39e8:	50910200 	adr	x0, fffffffffff25a2a <__stack_top+0xffffffffffe85a2a>
    39ec:	0008400f 	.inst	0x0008400f ; undefined
    39f0:	894e0100 	.inst	0x894e0100 ; undefined
    39f4:	02000001 	.inst	0x02000001 ; undefined
    39f8:	89104891 	.inst	0x89104891 ; undefined
    39fc:	01000008 	.inst	0x01000008 ; undefined
    3a00:	0003854f 	.inst	0x0003854f ; undefined
    3a04:	78910200 	ldursh	x0, [x16, #-240]
    3a08:	00083710 	.inst	0x00083710 ; undefined
    3a0c:	3b540100 	.inst	0x3b540100 ; undefined
    3a10:	02000002 	.inst	0x02000002 ; undefined
    3a14:	eb107091 	subs	x17, x4, x16, lsl #28
    3a18:	01000001 	.inst	0x01000001 ; undefined
    3a1c:	00002d55 	.inst	0x00002d55 ; undefined
    3a20:	6c910200 	stp	d0, d0, [x16], #272
    3a24:	00001610 	.inst	0x00001610 ; undefined
    3a28:	355e0100 	cbnz	w0, bfa48 <__stack_top+0x1fa48>
    3a2c:	02000002 	.inst	0x02000002 ; undefined
    3a30:	13006091 	sbfx	w17, w4, #0, #25
    3a34:	00000821 	.inst	0x00000821 ; undefined
    3a38:	002d7201 	.inst	0x002d7201 ; NYI
    3a3c:	4a000000 	eor	w0, w0, w0
    3a40:	00000008 	.inst	0x00000008 ; undefined
    3a44:	00d80000 	.inst	0x00d80000 ; undefined
    3a48:	00000000 	.inst	0x00000000 ; undefined
    3a4c:	9c010000 	ldr	q0, 5a4c <_start-0x7a5b4>
    3a50:	00000690 	.inst	0x00000690 ; undefined
    3a54:	0008180f 	.inst	0x0008180f ; undefined
    3a58:	35720100 	cbnz	w0, e7a78 <__stack_top+0x47a78>
    3a5c:	02000002 	.inst	0x02000002 ; undefined
    3a60:	670f4891 	.inst	0x670f4891 ; undefined
    3a64:	01000002 	.inst	0x01000002 ; undefined
    3a68:	00023b72 	.inst	0x00023b72 ; undefined
    3a6c:	40910200 	.inst	0x40910200 ; undefined
    3a70:	0008400f 	.inst	0x0008400f ; undefined
    3a74:	89720100 	.inst	0x89720100 ; undefined
    3a78:	03000001 	.inst	0x03000001 ; undefined
    3a7c:	107fb891 	adr	x17, 10318c <__stack_top+0x6318c>
    3a80:	00000889 	.inst	0x00000889 ; undefined
    3a84:	03857301 	.inst	0x03857301 ; undefined
    3a88:	91020000 	add	x0, x0, #0x80
    3a8c:	08371070 	.inst	0x08371070 ; undefined
    3a90:	78010000 	sturh	w0, [x0, #16]
    3a94:	0000023b 	.inst	0x0000023b ; undefined
    3a98:	11689102 	add	w2, w8, #0xa24, lsl #12
    3a9c:	00084a48 	.inst	0x00084a48 ; undefined
    3aa0:	00000000 	.inst	0x00000000 ; undefined
    3aa4:	00000084 	.inst	0x00000084 ; undefined
    3aa8:	00000000 	.inst	0x00000000 ; undefined
    3aac:	01006912 	.inst	0x01006912 ; undefined
    3ab0:	00002d79 	.inst	0x00002d79 ; undefined
    3ab4:	7c910200 	.inst	0x7c910200 ; undefined
    3ab8:	084a5011 	ldxrb	w17, [x0]
    3abc:	00000000 	.inst	0x00000000 ; undefined
    3ac0:	00005c00 	.inst	0x00005c00 ; undefined
    3ac4:	00000000 	.inst	0x00000000 ; undefined
    3ac8:	00161000 	.inst	0x00161000 ; undefined
    3acc:	7a010000 	sbcs	w0, w0, w1
    3ad0:	00000235 	.inst	0x00000235 ; undefined
    3ad4:	10609102 	adr	x2, c4cf4 <__stack_top+0x24cf4>
    3ad8:	00000883 	.inst	0x00000883 ; undefined
    3adc:	03857b01 	.inst	0x03857b01 ; undefined
    3ae0:	91020000 	add	x0, x0, #0x80
    3ae4:	00000058 	.inst	0x00000058 ; undefined
    3ae8:	00080413 	.inst	0x00080413 ; undefined
    3aec:	2d860100 	stp	s0, s0, [x8, #48]!
    3af0:	d8000000 	prfm	pldl1keep, 3af0 <_start-0x7c510>
    3af4:	0000084a 	.inst	0x0000084a ; undefined
    3af8:	9c000000 	ldr	q0, 3af8 <_start-0x7c508>
    3afc:	00000002 	.inst	0x00000002 ; undefined
    3b00:	01000000 	.inst	0x01000000 ; undefined
    3b04:	0007689c 	.inst	0x0007689c ; undefined
    3b08:	6e6d1400 	urhadd	v0.8h, v0.8h, v13.8h
    3b0c:	86010074 	.inst	0x86010074 ; undefined
    3b10:	000001af 	.inst	0x000001af ; undefined
    3b14:	7fb89103 	fmulx	s3, s8, v24.s[1]
    3b18:	0000700f 	.inst	0x0000700f ; undefined
    3b1c:	35860100 	cbnz	w0, fffffffffff0fb3c <__stack_top+0xffffffffffe6fb3c>
    3b20:	03000002 	.inst	0x03000002 ; undefined
    3b24:	107fb091 	adr	x17, 103134 <__stack_top+0x63134>
    3b28:	00000889 	.inst	0x00000889 ; undefined
    3b2c:	03859001 	.inst	0x03859001 ; undefined
    3b30:	91020000 	add	x0, x0, #0x80
    3b34:	067f1070 	.inst	0x067f1070 ; undefined
    3b38:	97010000 	bl	fffffffffc043b38 <__stack_top+0xfffffffffbfa3b38>
    3b3c:	000000f1 	.inst	0x000000f1 ; undefined
    3b40:	17789102 	b	fffffffffde27f48 <__stack_top+0xfffffffffdd87f48>
    3b44:	000000c0 	.inst	0x000000c0 ; undefined
    3b48:	01006612 	.inst	0x01006612 ; undefined
    3b4c:	00076899 	.inst	0x00076899 ; undefined
    3b50:	68910200 	.inst	0x68910200 ; undefined
    3b54:	00081810 	.inst	0x00081810 ; undefined
    3b58:	359d0100 	cbnz	w0, fffffffffff3db78 <__stack_top+0xffffffffffe9db78>
    3b5c:	02000002 	.inst	0x02000002 ; undefined
    3b60:	67106091 	.inst	0x67106091 ; undefined
    3b64:	01000002 	.inst	0x01000002 ; undefined
    3b68:	00023b9f 	.inst	0x00023b9f ; undefined
    3b6c:	58910200 	ldr	x0, fffffffffff25bac <__stack_top+0xffffffffffe85bac>
    3b70:	084c2011 	ldxrb	w17, [x0]
    3b74:	00000000 	.inst	0x00000000 ; undefined
    3b78:	0000fc00 	.inst	0x0000fc00 ; undefined
    3b7c:	00000000 	.inst	0x00000000 ; undefined
    3b80:	01eb1000 	.inst	0x01eb1000 ; undefined
    3b84:	a1010000 	.inst	0xa1010000 ; undefined
    3b88:	0000002d 	.inst	0x0000002d ; undefined
    3b8c:	11549102 	add	w2, w8, #0x524, lsl #12
    3b90:	00084c48 	.inst	0x00084c48 ; undefined
    3b94:	00000000 	.inst	0x00000000 ; undefined
    3b98:	000000d4 	.inst	0x000000d4 ; undefined
    3b9c:	00000000 	.inst	0x00000000 ; undefined
    3ba0:	00001610 	.inst	0x00001610 ; undefined
    3ba4:	35a40100 	cbnz	w0, fffffffffff4bbc4 <__stack_top+0xffffffffffeabbc4>
    3ba8:	02000002 	.inst	0x02000002 ; undefined
    3bac:	83104891 	.inst	0x83104891 ; undefined
    3bb0:	01000008 	.inst	0x01000008 ; undefined
    3bb4:	000385a5 	.inst	0x000385a5 ; undefined
    3bb8:	40910200 	.inst	0x40910200 ; undefined
    3bbc:	00000000 	.inst	0x00000000 ; undefined
    3bc0:	02ae0806 	.inst	0x02ae0806 ; undefined
    3bc4:	77130000 	.inst	0x77130000 ; undefined
    3bc8:	01000008 	.inst	0x01000008 ; undefined
    3bcc:	00002dc1 	.inst	0x00002dc1 ; undefined
    3bd0:	084d7400 	ldxrb	w0, [x0]
    3bd4:	00000000 	.inst	0x00000000 ; undefined
    3bd8:	00006800 	.inst	0x00006800 ; undefined
    3bdc:	00000000 	.inst	0x00000000 ; undefined
    3be0:	ab9c0100 	adds	x0, x8, x28, asr #0
    3be4:	14000007 	b	3c00 <_start-0x7c400>
    3be8:	01007366 	.inst	0x01007366 ; undefined
    3bec:	0007abc1 	.inst	0x0007abc1 ; undefined
    3bf0:	78910200 	ldursh	x0, [x16, #-240]
    3bf4:	746e6d14 	.inst	0x746e6d14 ; undefined
    3bf8:	afc10100 	.inst	0xafc10100 ; undefined
    3bfc:	02000001 	.inst	0x02000001 ; undefined
    3c00:	06007091 	.inst	0x06007091 ; undefined
    3c04:	0001bb08 	.inst	0x0001bb08 ; undefined
    3c08:	005b0000 	.inst	0x005b0000 ; undefined
    3c0c:	00020000 	.inst	0x00020000 ; undefined
    3c10:	00000e68 	.inst	0x00000e68 ; undefined
    3c14:	0e320108 	saddl	v8.8h, v8.8b, v18.8b
    3c18:	4de00000 	ld2	{v0.b, v1.b}[8], [x0], x0
    3c1c:	00000008 	.inst	0x00000008 ; undefined
    3c20:	4e700000 	saddl2	v0.4s, v0.8h, v16.8h
    3c24:	00000008 	.inst	0x00000008 ; undefined
    3c28:	656b0000 	fmla	z0.h, p0/m, z0.h, z11.h
    3c2c:	6c656e72 	ldnp	d18, d27, [x19, #-432]
    3c30:	7063782f 	adr	x15, cab37 <__stack_top+0x2ab37>
    3c34:	75665f74 	.inst	0x75665f74 ; undefined
    3c38:	532e636e 	.inst	0x532e636e ; undefined
    3c3c:	6f682f00 	.inst	0x6f682f00 ; undefined
    3c40:	732f656d 	.inst	0x732f656d ; undefined
    3c44:	63617261 	.inst	0x63617261 ; undefined
    3c48:	2f756968 	umlsl	v8.4s, v11.4h, v5.h[7]
    3c4c:	7574636e 	.inst	0x7574636e ; undefined
    3c50:	63736f2f 	.inst	0x63736f2f ; undefined
    3c54:	31323032 	adds	w18, w1, #0xc8c
    3c58:	554e4700 	.inst	0x554e4700 ; undefined
    3c5c:	20534120 	.inst	0x20534120 ; undefined
    3c60:	36322e32 	tbz	w18, #6, 8224 <_start-0x77ddc>
    3c64:	0100312e 	.inst	0x0100312e ; undefined
    3c68:	Address 0x0000000000003c68 is out of bounds.


Disassembly of section .debug_abbrev:

0000000000000000 <.debug_abbrev>:
   0:	10001101 	adr	x1, 220 <_start-0x7fde0>
   4:	12011106 	and	w6, w8, #0x8000000f
   8:	1b080301 	madd	w1, w24, w8, w0
   c:	13082508 	sbfx	w8, w8, #8, #2
  10:	00000005 	.inst	0x00000005 ; undefined
  14:	25011101 	cmpge	p1.b, p4/z, z8.b, #1
  18:	030b130e 	.inst	0x030b130e ; undefined
  1c:	110e1b0e 	add	w14, w24, #0x386
  20:	10071201 	adr	x1, e260 <_start-0x71da0>
  24:	02000017 	.inst	0x02000017 ; undefined
  28:	0e030113 	tbl	v19.8b, {v8.16b}, v3.8b
  2c:	0b3a0b0b 	add	w11, w24, w26, uxtb #2
  30:	13010b3b 	sbfx	w27, w25, #1, #2
  34:	0d030000 	.inst	0x0d030000 ; undefined
  38:	3a0e0300 	adcs	w0, w24, w14
  3c:	490b3b0b 	.inst	0x490b3b0b ; undefined
  40:	000b3813 	.inst	0x000b3813 ; undefined
  44:	000d0400 	.inst	0x000d0400 ; undefined
  48:	0b3a0803 	add	w3, w0, w26, uxtb #2
  4c:	13490b3b 	.inst	0x13490b3b ; undefined
  50:	00000b38 	.inst	0x00000b38 ; undefined
  54:	0b000f05 	add	w5, w24, w0, lsl #3
  58:	0013490b 	.inst	0x0013490b ; undefined
  5c:	000f0600 	.inst	0x000f0600 ; undefined
  60:	00000b0b 	.inst	0x00000b0b ; undefined
  64:	03001607 	.inst	0x03001607 ; undefined
  68:	3b0b3a0e 	.inst	0x3b0b3a0e ; undefined
  6c:	0013490b 	.inst	0x0013490b ; undefined
  70:	00240800 	.inst	0x00240800 ; NYI
  74:	0b3e0b0b 	add	w11, w24, w30, uxtb #2
  78:	00000e03 	.inst	0x00000e03 ; undefined
  7c:	0b002409 	add	w9, w0, w0, lsl #9
  80:	030b3e0b 	.inst	0x030b3e0b ; undefined
  84:	0a000008 	and	w8, w0, w0
  88:	13490026 	.inst	0x13490026 ; undefined
  8c:	150b0000 	b	42c008c <__stack_top+0x422008c>
  90:	49192701 	.inst	0x49192701 ; undefined
  94:	00130113 	.inst	0x00130113 ; undefined
  98:	00050c00 	.inst	0x00050c00 ; undefined
  9c:	00001349 	.inst	0x00001349 ; undefined
  a0:	0000260d 	.inst	0x0000260d ; undefined
  a4:	012e0e00 	.inst	0x012e0e00 ; undefined
  a8:	0e03193f 	uzp1	v31.8b, v9.8b, v3.8b
  ac:	0b3b0b3a 	add	w26, w25, w27, uxtb #2
  b0:	13491927 	.inst	0x13491927 ; undefined
  b4:	07120111 	.inst	0x07120111 ; undefined
  b8:	42961840 	.inst	0x42961840 ; undefined
  bc:	00130119 	.inst	0x00130119 ; undefined
  c0:	00050f00 	.inst	0x00050f00 ; undefined
  c4:	0b3a0803 	add	w3, w0, w26, uxtb #2
  c8:	13490b3b 	.inst	0x13490b3b ; undefined
  cc:	00001802 	.inst	0x00001802 ; undefined
  d0:	03003410 	.inst	0x03003410 ; undefined
  d4:	3b0b3a0e 	.inst	0x3b0b3a0e ; undefined
  d8:	0213490b 	.inst	0x0213490b ; undefined
  dc:	11000018 	add	w24, w0, #0x0
  e0:	0e030005 	tbl	v5.8b, {v0.16b}, v3.8b
  e4:	0b3b0b3a 	add	w26, w25, w27, uxtb #2
  e8:	18021349 	ldr	w9, 4350 <_start-0x7bcb0>
  ec:	34120000 	cbz	w0, 240ec <_start-0x5bf14>
  f0:	3a080300 	adcs	w0, w24, w8
  f4:	490b3b0b 	.inst	0x490b3b0b ; undefined
  f8:	00180213 	.inst	0x00180213 ; undefined
  fc:	010b1300 	.inst	0x010b1300 ; undefined
 100:	07120111 	.inst	0x07120111 ; undefined
 104:	01000000 	.inst	0x01000000 ; undefined
 108:	0e250111 	saddl	v17.8h, v8.8b, v5.8b
 10c:	0e030b13 	.inst	0x0e030b13 ; undefined
 110:	01110e1b 	.inst	0x01110e1b ; undefined
 114:	17100712 	b	fffffffffc401d5c <__stack_top+0xfffffffffc361d5c>
 118:	2e020000 	ext	v0.8b, v0.8b, v2.8b, #0
 11c:	03193f01 	.inst	0x03193f01 ; undefined
 120:	3b0b3a0e 	.inst	0x3b0b3a0e ; undefined
 124:	1201110b 	and	w11, w8, #0x8000000f
 128:	97184007 	bl	fffffffffc610144 <__stack_top+0xfffffffffc570144>
 12c:	13011942 	sbfx	w2, w10, #1, #6
 130:	34030000 	cbz	w0, 6130 <_start-0x79ed0>
 134:	3a080300 	adcs	w0, w24, w8
 138:	490b3b0b 	.inst	0x490b3b0b ; undefined
 13c:	00180213 	.inst	0x00180213 ; undefined
 140:	010b0400 	.inst	0x010b0400 ; undefined
 144:	07120111 	.inst	0x07120111 ; undefined
 148:	24050000 	cmphs	p0.b, p0/z, z0.b, z5.b
 14c:	3e0b0b00 	.inst	0x3e0b0b00 ; undefined
 150:	000e030b 	.inst	0x000e030b ; undefined
 154:	012e0600 	.inst	0x012e0600 ; undefined
 158:	0e03193f 	uzp1	v31.8b, v9.8b, v3.8b
 15c:	0b3b0b3a 	add	w26, w25, w27, uxtb #2
 160:	01111927 	.inst	0x01111927 ; undefined
 164:	18400712 	ldr	w18, 80244 <vfs_open+0x110>
 168:	01194297 	.inst	0x01194297 ; undefined
 16c:	07000013 	.inst	0x07000013 ; undefined
 170:	08030005 	stxrb	w3, w5, [x0]
 174:	0b3b0b3a 	add	w26, w25, w27, uxtb #2
 178:	18021349 	ldr	w9, 43e0 <_start-0x7bc20>
 17c:	2e080000 	ext	v0.8b, v0.8b, v8.8b, #0
 180:	03193f01 	.inst	0x03193f01 ; undefined
 184:	3b0b3a0e 	.inst	0x3b0b3a0e ; undefined
 188:	1113490b 	add	w11, w8, #0x4d2
 18c:	40071201 	.inst	0x40071201 ; undefined
 190:	19429718 	.inst	0x19429718 ; undefined
 194:	00001301 	.inst	0x00001301 ; undefined
 198:	3f012e09 	.inst	0x3f012e09 ; undefined
 19c:	3a0e0319 	adcs	w25, w24, w14
 1a0:	270b3b0b 	.inst	0x270b3b0b ; undefined
 1a4:	12011119 	and	w25, w8, #0x8000000f
 1a8:	96184007 	bl	fffffffff86101c4 <__stack_top+0xfffffffff85701c4>
 1ac:	13011942 	sbfx	w2, w10, #1, #6
 1b0:	0f0a0000 	.inst	0x0f0a0000 ; undefined
 1b4:	490b0b00 	.inst	0x490b0b00 ; undefined
 1b8:	0b000013 	add	w19, w0, w0
 1bc:	0e030005 	tbl	v5.8b, {v0.16b}, v3.8b
 1c0:	0b3b0b3a 	add	w26, w25, w27, uxtb #2
 1c4:	18021349 	ldr	w9, 442c <_start-0x7bbd4>
 1c8:	340c0000 	cbz	w0, 181c8 <_start-0x67e38>
 1cc:	3a0e0300 	adcs	w0, w24, w14
 1d0:	490b3b0b 	.inst	0x490b3b0b ; undefined
 1d4:	00180213 	.inst	0x00180213 ; undefined
 1d8:	00240d00 	.inst	0x00240d00 ; NYI
 1dc:	0b3e0b0b 	add	w11, w24, w30, uxtb #2
 1e0:	00000803 	.inst	0x00000803 ; undefined
 1e4:	3f012e0e 	.inst	0x3f012e0e ; undefined
 1e8:	3a0e0319 	adcs	w25, w24, w14
 1ec:	270b3b0b 	.inst	0x270b3b0b ; undefined
 1f0:	11134919 	add	w25, w8, #0x4d2
 1f4:	40071201 	.inst	0x40071201 ; undefined
 1f8:	19429618 	.inst	0x19429618 ; undefined
 1fc:	00001301 	.inst	0x00001301 ; undefined
 200:	3f012e0f 	.inst	0x3f012e0f ; undefined
 204:	3a0e0319 	adcs	w25, w24, w14
 208:	270b3b0b 	.inst	0x270b3b0b ; undefined
 20c:	11134919 	add	w25, w8, #0x4d2
 210:	40071201 	.inst	0x40071201 ; undefined
 214:	19429618 	.inst	0x19429618 ; undefined
 218:	01000000 	.inst	0x01000000 ; undefined
 21c:	0e250111 	saddl	v17.8h, v8.8b, v5.8b
 220:	0e030b13 	.inst	0x0e030b13 ; undefined
 224:	01110e1b 	.inst	0x01110e1b ; undefined
 228:	17100712 	b	fffffffffc401e70 <__stack_top+0xfffffffffc361e70>
 22c:	13020000 	sbfiz	w0, w0, #30, #1
 230:	0b0e0301 	add	w1, w24, w14
 234:	3b0b3a0b 	.inst	0x3b0b3a0b ; undefined
 238:	0013010b 	.inst	0x0013010b ; undefined
 23c:	000d0300 	.inst	0x000d0300 ; undefined
 240:	0b3a0e03 	add	w3, w16, w26, uxtb #3
 244:	13490b3b 	.inst	0x13490b3b ; undefined
 248:	00000b38 	.inst	0x00000b38 ; undefined
 24c:	0b002404 	add	w4, w0, w0, lsl #9
 250:	030b3e0b 	.inst	0x030b3e0b ; undefined
 254:	05000008 	orr	z8.s, z8.s, #0x1
 258:	0b0b000f 	add	w15, w0, w11
 25c:	00001349 	.inst	0x00001349 ; undefined
 260:	03001606 	.inst	0x03001606 ; undefined
 264:	3b0b3a0e 	.inst	0x3b0b3a0e ; undefined
 268:	0013490b 	.inst	0x0013490b ; undefined
 26c:	012e0700 	.inst	0x012e0700 ; undefined
 270:	0b3a0e03 	add	w3, w16, w26, uxtb #3
 274:	19270b3b 	.inst	0x19270b3b ; undefined
 278:	07120111 	.inst	0x07120111 ; undefined
 27c:	42971840 	.inst	0x42971840 ; undefined
 280:	00130119 	.inst	0x00130119 ; undefined
 284:	00050800 	.inst	0x00050800 ; undefined
 288:	0b3a0e03 	add	w3, w16, w26, uxtb #3
 28c:	13490b3b 	.inst	0x13490b3b ; undefined
 290:	00001802 	.inst	0x00001802 ; undefined
 294:	03003409 	.inst	0x03003409 ; undefined
 298:	3b0b3a08 	.inst	0x3b0b3a08 ; undefined
 29c:	0213490b 	.inst	0x0213490b ; undefined
 2a0:	0a000018 	and	w24, w0, w0
 2a4:	193f012e 	.inst	0x193f012e ; undefined
 2a8:	0b3a0e03 	add	w3, w16, w26, uxtb #3
 2ac:	01110b3b 	.inst	0x01110b3b ; undefined
 2b0:	18400712 	ldr	w18, 80390 <uart_init+0xa4>
 2b4:	01194296 	.inst	0x01194296 ; undefined
 2b8:	0b000013 	add	w19, w0, w0
 2bc:	0111010b 	.inst	0x0111010b ; undefined
 2c0:	13010712 	sbfx	w18, w24, #1, #1
 2c4:	0b0c0000 	add	w0, w0, w12
 2c8:	12011101 	and	w1, w8, #0x8000000f
 2cc:	0d000007 	st1	{v7.b}[0], [x0]
 2d0:	0e030034 	tbl	v20.8b, {v1.16b}, v3.8b
 2d4:	0b3b0b3a 	add	w26, w25, w27, uxtb #2
 2d8:	18021349 	ldr	w9, 4540 <_start-0x7bac0>
 2dc:	2e0e0000 	ext	v0.8b, v0.8b, v14.8b, #0
 2e0:	03193f01 	.inst	0x03193f01 ; undefined
 2e4:	3b0b3a0e 	.inst	0x3b0b3a0e ; undefined
 2e8:	1119270b 	add	w11, w24, #0x649
 2ec:	40071201 	.inst	0x40071201 ; undefined
 2f0:	19429618 	.inst	0x19429618 ; undefined
 2f4:	00001301 	.inst	0x00001301 ; undefined
 2f8:	0300050f 	.inst	0x0300050f ; undefined
 2fc:	3b0b3a08 	.inst	0x3b0b3a08 ; undefined
 300:	0213490b 	.inst	0x0213490b ; undefined
 304:	10000018 	adr	x24, 304 <_start-0x7fcfc>
 308:	193f012e 	.inst	0x193f012e ; undefined
 30c:	0b3a0e03 	add	w3, w16, w26, uxtb #3
 310:	19270b3b 	.inst	0x19270b3b ; undefined
 314:	01111349 	.inst	0x01111349 ; undefined
 318:	18400712 	ldr	w18, 803f8 <uart_init+0x10c>
 31c:	01194296 	.inst	0x01194296 ; undefined
 320:	11000013 	add	w19, w0, #0x0
 324:	0b0b000f 	add	w15, w0, w11
 328:	24120000 	cmphs	p0.b, p0/z, z0.b, z18.b
 32c:	3e0b0b00 	.inst	0x3e0b0b00 ; undefined
 330:	000e030b 	.inst	0x000e030b ; undefined
 334:	010b1300 	.inst	0x010b1300 ; undefined
 338:	00001755 	.inst	0x00001755 ; undefined
 33c:	3f012e14 	.inst	0x3f012e14 ; undefined
 340:	3a0e0319 	adcs	w25, w24, w14
 344:	27053b0b 	.inst	0x27053b0b ; undefined
 348:	12011119 	and	w25, w8, #0x8000000f
 34c:	96184007 	bl	fffffffff8610368 <__stack_top+0xfffffffff8570368>
 350:	13011942 	sbfx	w2, w10, #1, #6
 354:	05150000 	mov	z0.b, p5/z, #0
 358:	3a0e0300 	adcs	w0, w24, w14
 35c:	49053b0b 	.inst	0x49053b0b ; undefined
 360:	00180213 	.inst	0x00180213 ; undefined
 364:	00341600 	.inst	0x00341600 ; NYI
 368:	0b3a0e03 	add	w3, w16, w26, uxtb #3
 36c:	1349053b 	.inst	0x1349053b ; undefined
 370:	00001802 	.inst	0x00001802 ; undefined
 374:	49010117 	.inst	0x49010117 ; undefined
 378:	00130113 	.inst	0x00130113 ; undefined
 37c:	00211800 	.inst	0x00211800 ; NYI
 380:	0b2f1349 	add	w9, w26, w15, uxtb #4
 384:	01000000 	.inst	0x01000000 ; undefined
 388:	0e250111 	saddl	v17.8h, v8.8b, v5.8b
 38c:	0e030b13 	.inst	0x0e030b13 ; undefined
 390:	01110e1b 	.inst	0x01110e1b ; undefined
 394:	17100712 	b	fffffffffc401fdc <__stack_top+0xfffffffffc361fdc>
 398:	24020000 	cmphs	p0.b, p0/z, z0.b, z2.b
 39c:	3e0b0b00 	.inst	0x3e0b0b00 ; undefined
 3a0:	000e030b 	.inst	0x000e030b ; undefined
 3a4:	00240300 	.inst	0x00240300 ; NYI
 3a8:	0b3e0b0b 	add	w11, w24, w30, uxtb #2
 3ac:	00000803 	.inst	0x00000803 ; undefined
 3b0:	3f012e04 	.inst	0x3f012e04 ; undefined
 3b4:	3a0e0319 	adcs	w25, w24, w14
 3b8:	110b3b0b 	add	w11, w24, #0x2ce
 3bc:	40071201 	.inst	0x40071201 ; undefined
 3c0:	19429618 	.inst	0x19429618 ; undefined
 3c4:	00001301 	.inst	0x00001301 ; undefined
 3c8:	03003405 	.inst	0x03003405 ; undefined
 3cc:	3b0b3a0e 	.inst	0x3b0b3a0e ; undefined
 3d0:	0213490b 	.inst	0x0213490b ; undefined
 3d4:	06000018 	.inst	0x06000018 ; undefined
 3d8:	193f012e 	.inst	0x193f012e ; undefined
 3dc:	0b3a0e03 	add	w3, w16, w26, uxtb #3
 3e0:	01110b3b 	.inst	0x01110b3b ; undefined
 3e4:	18400712 	ldr	w18, 804c4 <uart_puts+0x4>
 3e8:	00194296 	.inst	0x00194296 ; undefined
 3ec:	00340700 	.inst	0x00340700 ; NYI
 3f0:	0b3a0803 	add	w3, w0, w26, uxtb #2
 3f4:	13490b3b 	.inst	0x13490b3b ; undefined
 3f8:	00001802 	.inst	0x00001802 ; undefined
 3fc:	00110100 	.inst	0x00110100 ; undefined
 400:	01110610 	.inst	0x01110610 ; undefined
 404:	08030112 	stxrb	w3, w18, [x8]
 408:	0825081b 	.inst	0x0825081b ; undefined
 40c:	00000513 	.inst	0x00000513 ; undefined
 410:	01110100 	.inst	0x01110100 ; undefined
 414:	0b130e25 	add	w5, w17, w19, lsl #3
 418:	0e1b0e03 	dup	v3.8b, w16
 41c:	07120111 	.inst	0x07120111 ; undefined
 420:	00001710 	.inst	0x00001710 ; undefined
 424:	03011302 	.inst	0x03011302 ; undefined
 428:	3a0b0b0e 	.inst	0x3a0b0b0e ; undefined
 42c:	010b3b0b 	.inst	0x010b3b0b ; undefined
 430:	03000013 	.inst	0x03000013 ; undefined
 434:	0e03000d 	tbl	v13.8b, {v0.16b}, v3.8b
 438:	0b3b0b3a 	add	w26, w25, w27, uxtb #2
 43c:	0b381349 	add	w9, w26, w24, uxtb #4
 440:	0d040000 	.inst	0x0d040000 ; undefined
 444:	3a080300 	adcs	w0, w24, w8
 448:	490b3b0b 	.inst	0x490b3b0b ; undefined
 44c:	000b3813 	.inst	0x000b3813 ; undefined
 450:	000f0500 	.inst	0x000f0500 ; undefined
 454:	13490b0b 	.inst	0x13490b0b ; undefined
 458:	0f060000 	.inst	0x0f060000 ; undefined
 45c:	000b0b00 	.inst	0x000b0b00 ; undefined
 460:	00160700 	.inst	0x00160700 ; undefined
 464:	0b3a0e03 	add	w3, w16, w26, uxtb #3
 468:	13490b3b 	.inst	0x13490b3b ; undefined
 46c:	24080000 	cmphs	p0.b, p0/z, z0.b, z8.b
 470:	3e0b0b00 	.inst	0x3e0b0b00 ; undefined
 474:	000e030b 	.inst	0x000e030b ; undefined
 478:	00240900 	.inst	0x00240900 ; NYI
 47c:	0b3e0b0b 	add	w11, w24, w30, uxtb #2
 480:	00000803 	.inst	0x00000803 ; undefined
 484:	4900260a 	.inst	0x4900260a ; undefined
 488:	0b000013 	add	w19, w0, w0
 48c:	19270115 	.inst	0x19270115 ; undefined
 490:	13011349 	sbfx	w9, w26, #1, #4
 494:	050c0000 	.inst	0x050c0000 ; undefined
 498:	00134900 	.inst	0x00134900 ; undefined
 49c:	00260d00 	.inst	0x00260d00 ; NYI
 4a0:	130e0000 	sbfiz	w0, w0, #18, #1
 4a4:	0b0e0301 	add	w1, w24, w14
 4a8:	3b0b3a05 	.inst	0x3b0b3a05 ; undefined
 4ac:	0013010b 	.inst	0x0013010b ; undefined
 4b0:	000d0f00 	.inst	0x000d0f00 ; undefined
 4b4:	0b3a0e03 	add	w3, w16, w26, uxtb #3
 4b8:	13490b3b 	.inst	0x13490b3b ; undefined
 4bc:	00000538 	.inst	0x00000538 ; undefined
 4c0:	03000d10 	.inst	0x03000d10 ; undefined
 4c4:	3b0b3a08 	.inst	0x3b0b3a08 ; undefined
 4c8:	3813490b 	sttrb	w11, [x8, #-204]
 4cc:	11000005 	add	w5, w0, #0x0
 4d0:	13490101 	.inst	0x13490101 ; undefined
 4d4:	00001301 	.inst	0x00001301 ; undefined
 4d8:	49002112 	.inst	0x49002112 ; undefined
 4dc:	000b2f13 	.inst	0x000b2f13 ; undefined
 4e0:	002e1300 	.inst	0x002e1300 ; NYI
 4e4:	0b3a0e03 	add	w3, w16, w26, uxtb #3
 4e8:	19270b3b 	.inst	0x19270b3b ; undefined
 4ec:	07120111 	.inst	0x07120111 ; undefined
 4f0:	42971840 	.inst	0x42971840 ; undefined
 4f4:	14000019 	b	558 <_start-0x7faa8>
 4f8:	193f012e 	.inst	0x193f012e ; undefined
 4fc:	0b3a0e03 	add	w3, w16, w26, uxtb #3
 500:	19270b3b 	.inst	0x19270b3b ; undefined
 504:	07120111 	.inst	0x07120111 ; undefined
 508:	42971840 	.inst	0x42971840 ; undefined
 50c:	00130119 	.inst	0x00130119 ; undefined
 510:	00051500 	.inst	0x00051500 ; undefined
 514:	0b3a0e03 	add	w3, w16, w26, uxtb #3
 518:	13490b3b 	.inst	0x13490b3b ; undefined
 51c:	00001802 	.inst	0x00001802 ; undefined
 520:	3f012e16 	.inst	0x3f012e16 ; undefined
 524:	3a0e0319 	adcs	w25, w24, w14
 528:	270b3b0b 	.inst	0x270b3b0b ; undefined
 52c:	12011119 	and	w25, w8, #0x8000000f
 530:	96184007 	bl	fffffffff861054c <__stack_top+0xfffffffff857054c>
 534:	13011942 	sbfx	w2, w10, #1, #6
 538:	34170000 	cbz	w0, 2e538 <_start-0x51ac8>
 53c:	3a0e0300 	adcs	w0, w24, w14
 540:	490b3b0b 	.inst	0x490b3b0b ; undefined
 544:	00180213 	.inst	0x00180213 ; undefined
 548:	012e1800 	.inst	0x012e1800 ; undefined
 54c:	0e03193f 	uzp1	v31.8b, v9.8b, v3.8b
 550:	0b3b0b3a 	add	w26, w25, w27, uxtb #2
 554:	13491927 	.inst	0x13491927 ; undefined
 558:	07120111 	.inst	0x07120111 ; undefined
 55c:	42971840 	.inst	0x42971840 ; undefined
 560:	00130119 	.inst	0x00130119 ; undefined
 564:	00051900 	.inst	0x00051900 ; undefined
 568:	0b3a0803 	add	w3, w0, w26, uxtb #2
 56c:	13490b3b 	.inst	0x13490b3b ; undefined
 570:	00001802 	.inst	0x00001802 ; undefined
 574:	0300341a 	.inst	0x0300341a ; undefined
 578:	3b0b3a08 	.inst	0x3b0b3a08 ; undefined
 57c:	0213490b 	.inst	0x0213490b ; undefined
 580:	1b000018 	madd	w24, w0, w0, w0
 584:	193f012e 	.inst	0x193f012e ; undefined
 588:	0b3a0e03 	add	w3, w16, w26, uxtb #3
 58c:	19270b3b 	.inst	0x19270b3b ; undefined
 590:	01111349 	.inst	0x01111349 ; undefined
 594:	18400712 	ldr	w18, 80674 <uart_read_buff>
 598:	01194296 	.inst	0x01194296 ; undefined
 59c:	1c000013 	ldr	s19, 59c <_start-0x7fa64>
 5a0:	0111010b 	.inst	0x0111010b ; undefined
 5a4:	13010712 	sbfx	w18, w24, #1, #1
 5a8:	0b1d0000 	add	w0, w0, w29
 5ac:	12011101 	and	w1, w8, #0x8000000f
 5b0:	1e000007 	.inst	0x1e000007 ; undefined
 5b4:	193f002e 	.inst	0x193f002e ; undefined
 5b8:	0b3a0e03 	add	w3, w16, w26, uxtb #3
 5bc:	19270b3b 	.inst	0x19270b3b ; undefined
 5c0:	07120111 	.inst	0x07120111 ; undefined
 5c4:	42961840 	.inst	0x42961840 ; undefined
 5c8:	1f000019 	fmadd	s25, s0, s0, s0
 5cc:	193f002e 	.inst	0x193f002e ; undefined
 5d0:	0b3a0e03 	add	w3, w16, w26, uxtb #3
 5d4:	01110b3b 	.inst	0x01110b3b ; undefined
 5d8:	18400712 	ldr	w18, 806b8 <uart_read_buff+0x44>
 5dc:	00194296 	.inst	0x00194296 ; undefined
 5e0:	012e2000 	.inst	0x012e2000 ; undefined
 5e4:	0b3a0e03 	add	w3, w16, w26, uxtb #3
 5e8:	01110b3b 	.inst	0x01110b3b ; undefined
 5ec:	18400712 	ldr	w18, 806cc <uart_read_buff+0x58>
 5f0:	01194296 	.inst	0x01194296 ; undefined
 5f4:	21000013 	.inst	0x21000013 ; undefined
 5f8:	0e030034 	tbl	v20.8b, {v1.16b}, v3.8b
 5fc:	0b3b0b3a 	add	w26, w25, w27, uxtb #2
 600:	193f1349 	.inst	0x193f1349 ; undefined
 604:	00001802 	.inst	0x00001802 ; undefined
 608:	01110100 	.inst	0x01110100 ; undefined
 60c:	0b130e25 	add	w5, w17, w19, lsl #3
 610:	0e1b0e03 	dup	v3.8b, w16
 614:	07120111 	.inst	0x07120111 ; undefined
 618:	00001710 	.inst	0x00001710 ; undefined
 61c:	0b002402 	add	w2, w0, w0, lsl #9
 620:	030b3e0b 	.inst	0x030b3e0b ; undefined
 624:	03000008 	.inst	0x03000008 ; undefined
 628:	0e030113 	tbl	v19.8b, {v8.16b}, v3.8b
 62c:	0b3a0b0b 	add	w11, w24, w26, uxtb #2
 630:	13010b3b 	sbfx	w27, w25, #1, #2
 634:	0d040000 	.inst	0x0d040000 ; undefined
 638:	3a0e0300 	adcs	w0, w24, w14
 63c:	490b3b0b 	.inst	0x490b3b0b ; undefined
 640:	000b3813 	.inst	0x000b3813 ; undefined
 644:	000d0500 	.inst	0x000d0500 ; undefined
 648:	0b3a0803 	add	w3, w0, w26, uxtb #2
 64c:	13490b3b 	.inst	0x13490b3b ; undefined
 650:	00000b38 	.inst	0x00000b38 ; undefined
 654:	0b000f06 	add	w6, w24, w0, lsl #3
 658:	0013490b 	.inst	0x0013490b ; undefined
 65c:	000f0700 	.inst	0x000f0700 ; undefined
 660:	00000b0b 	.inst	0x00000b0b ; undefined
 664:	03001608 	.inst	0x03001608 ; undefined
 668:	3b0b3a0e 	.inst	0x3b0b3a0e ; undefined
 66c:	0013490b 	.inst	0x0013490b ; undefined
 670:	00240900 	.inst	0x00240900 ; NYI
 674:	0b3e0b0b 	add	w11, w24, w30, uxtb #2
 678:	00000e03 	.inst	0x00000e03 ; undefined
 67c:	4900260a 	.inst	0x4900260a ; undefined
 680:	0b000013 	add	w19, w0, w0
 684:	19270115 	.inst	0x19270115 ; undefined
 688:	13011349 	sbfx	w9, w26, #1, #4
 68c:	050c0000 	.inst	0x050c0000 ; undefined
 690:	00134900 	.inst	0x00134900 ; undefined
 694:	00260d00 	.inst	0x00260d00 ; NYI
 698:	130e0000 	sbfiz	w0, w0, #18, #1
 69c:	0b0e0301 	add	w1, w24, w14
 6a0:	3b0b3a05 	.inst	0x3b0b3a05 ; undefined
 6a4:	0013010b 	.inst	0x0013010b ; undefined
 6a8:	000d0f00 	.inst	0x000d0f00 ; undefined
 6ac:	0b3a0e03 	add	w3, w16, w26, uxtb #3
 6b0:	13490b3b 	.inst	0x13490b3b ; undefined
 6b4:	00000538 	.inst	0x00000538 ; undefined
 6b8:	03000d10 	.inst	0x03000d10 ; undefined
 6bc:	3b0b3a08 	.inst	0x3b0b3a08 ; undefined
 6c0:	3813490b 	sttrb	w11, [x8, #-204]
 6c4:	11000005 	add	w5, w0, #0x0
 6c8:	13490101 	.inst	0x13490101 ; undefined
 6cc:	00001301 	.inst	0x00001301 ; undefined
 6d0:	49002112 	.inst	0x49002112 ; undefined
 6d4:	000b2f13 	.inst	0x000b2f13 ; undefined
 6d8:	012e1300 	.inst	0x012e1300 ; undefined
 6dc:	0e03193f 	uzp1	v31.8b, v9.8b, v3.8b
 6e0:	0b3b0b3a 	add	w26, w25, w27, uxtb #2
 6e4:	07120111 	.inst	0x07120111 ; undefined
 6e8:	42961840 	.inst	0x42961840 ; undefined
 6ec:	00130119 	.inst	0x00130119 ; undefined
 6f0:	00341400 	.inst	0x00341400 ; NYI
 6f4:	0b3a0e03 	add	w3, w16, w26, uxtb #3
 6f8:	13490b3b 	.inst	0x13490b3b ; undefined
 6fc:	00001802 	.inst	0x00001802 ; undefined
 700:	03012e15 	.inst	0x03012e15 ; undefined
 704:	3b0b3a08 	.inst	0x3b0b3a08 ; undefined
 708:	1201110b 	and	w11, w8, #0x8000000f
 70c:	96184007 	bl	fffffffff8610728 <__stack_top+0xfffffffff8570728>
 710:	13011942 	sbfx	w2, w10, #1, #6
 714:	0b160000 	add	w0, w0, w22
 718:	12011101 	and	w1, w8, #0x8000000f
 71c:	17000007 	b	fffffffffc000738 <__stack_top+0xfffffffffbf60738>
 720:	08030034 	stxrb	w3, w20, [x1]
 724:	0b3b0b3a 	add	w26, w25, w27, uxtb #2
 728:	18021349 	ldr	w9, 4990 <_start-0x7b670>
 72c:	2e180000 	ext	v0.8b, v0.8b, v24.8b, #0
 730:	03193f01 	.inst	0x03193f01 ; undefined
 734:	3b0b3a0e 	.inst	0x3b0b3a0e ; undefined
 738:	1119270b 	add	w11, w24, #0x649
 73c:	40071201 	.inst	0x40071201 ; undefined
 740:	19429618 	.inst	0x19429618 ; undefined
 744:	00001301 	.inst	0x00001301 ; undefined
 748:	03000519 	.inst	0x03000519 ; undefined
 74c:	3b0b3a08 	.inst	0x3b0b3a08 ; undefined
 750:	0213490b 	.inst	0x0213490b ; undefined
 754:	1a000018 	adc	w24, w0, w0
 758:	193f002e 	.inst	0x193f002e ; undefined
 75c:	0b3a0e03 	add	w3, w16, w26, uxtb #3
 760:	01110b3b 	.inst	0x01110b3b ; undefined
 764:	18400712 	ldr	w18, 80844 <node_init+0x28>
 768:	00194296 	.inst	0x00194296 ; undefined
 76c:	00341b00 	.inst	0x00341b00 ; NYI
 770:	0b3a0e03 	add	w3, w16, w26, uxtb #3
 774:	13490b3b 	.inst	0x13490b3b ; undefined
 778:	193c193f 	.inst	0x193c193f ; undefined
 77c:	01000000 	.inst	0x01000000 ; undefined
 780:	06100011 	.inst	0x06100011 ; undefined
 784:	01120111 	.inst	0x01120111 ; undefined
 788:	081b0803 	stxrb	w27, w3, [x0]
 78c:	05130825 	mov	z5.b, p3/z, #65
 790:	01000000 	.inst	0x01000000 ; undefined
 794:	06100011 	.inst	0x06100011 ; undefined
 798:	01120111 	.inst	0x01120111 ; undefined
 79c:	081b0803 	stxrb	w27, w3, [x0]
 7a0:	05130825 	mov	z5.b, p3/z, #65
 7a4:	01000000 	.inst	0x01000000 ; undefined
 7a8:	0e250111 	saddl	v17.8h, v8.8b, v5.8b
 7ac:	0e030b13 	.inst	0x0e030b13 ; undefined
 7b0:	01110e1b 	.inst	0x01110e1b ; undefined
 7b4:	17100712 	b	fffffffffc4023fc <__stack_top+0xfffffffffc3623fc>
 7b8:	24020000 	cmphs	p0.b, p0/z, z0.b, z2.b
 7bc:	3e0b0b00 	.inst	0x3e0b0b00 ; undefined
 7c0:	0008030b 	.inst	0x0008030b ; undefined
 7c4:	01130300 	.inst	0x01130300 ; undefined
 7c8:	0b0b0e03 	add	w3, w16, w11, lsl #3
 7cc:	0b3b0b3a 	add	w26, w25, w27, uxtb #2
 7d0:	00001301 	.inst	0x00001301 ; undefined
 7d4:	03000d04 	.inst	0x03000d04 ; undefined
 7d8:	3b0b3a0e 	.inst	0x3b0b3a0e ; undefined
 7dc:	3813490b 	sttrb	w11, [x8, #-204]
 7e0:	0500000b 	orr	z11.s, z11.s, #0x1
 7e4:	0b0b000f 	add	w15, w0, w11
 7e8:	00001349 	.inst	0x00001349 ; undefined
 7ec:	0b002406 	add	w6, w0, w0, lsl #9
 7f0:	030b3e0b 	.inst	0x030b3e0b ; undefined
 7f4:	0700000e 	.inst	0x0700000e ; undefined
 7f8:	0e030016 	tbl	v22.8b, {v0.16b}, v3.8b
 7fc:	0b3b0b3a 	add	w26, w25, w27, uxtb #2
 800:	00001349 	.inst	0x00001349 ; undefined
 804:	3f012e08 	.inst	0x3f012e08 ; undefined
 808:	3a0e0319 	adcs	w25, w24, w14
 80c:	270b3b0b 	.inst	0x270b3b0b ; undefined
 810:	12011119 	and	w25, w8, #0x8000000f
 814:	96184007 	bl	fffffffff8610830 <__stack_top+0xfffffffff8570830>
 818:	13011942 	sbfx	w2, w10, #1, #6
 81c:	05090000 	.inst	0x05090000 ; undefined
 820:	3a0e0300 	adcs	w0, w24, w14
 824:	490b3b0b 	.inst	0x490b3b0b ; undefined
 828:	00180213 	.inst	0x00180213 ; undefined
 82c:	00340a00 	.inst	0x00340a00 ; NYI
 830:	0b3a0e03 	add	w3, w16, w26, uxtb #3
 834:	13490b3b 	.inst	0x13490b3b ; undefined
 838:	00001802 	.inst	0x00001802 ; undefined
 83c:	11010b0b 	add	w11, w24, #0x42
 840:	00071201 	.inst	0x00071201 ; undefined
 844:	00340c00 	.inst	0x00340c00 ; NYI
 848:	0b3a0803 	add	w3, w0, w26, uxtb #2
 84c:	13490b3b 	.inst	0x13490b3b ; undefined
 850:	00001802 	.inst	0x00001802 ; undefined
 854:	4900350d 	.inst	0x4900350d ; undefined
 858:	0e000013 	tbl	v19.8b, {v0.16b}, v0.8b
 85c:	193f012e 	.inst	0x193f012e ; undefined
 860:	0b3a0e03 	add	w3, w16, w26, uxtb #3
 864:	01110b3b 	.inst	0x01110b3b ; undefined
 868:	18400712 	ldr	w18, 80948 <list_remove_index+0x58>
 86c:	01194296 	.inst	0x01194296 ; undefined
 870:	0f000013 	.inst	0x0f000013 ; undefined
 874:	1755010b 	b	fffffffffd540ca0 <__stack_top+0xfffffffffd4a0ca0>
 878:	01100000 	.inst	0x01100000 ; undefined
 87c:	01134901 	.inst	0x01134901 ; undefined
 880:	11000013 	add	w19, w0, #0x0
 884:	13490021 	.inst	0x13490021 ; undefined
 888:	00000b2f 	.inst	0x00000b2f ; undefined
 88c:	3f012e12 	.inst	0x3f012e12 ; undefined
 890:	3a0e0319 	adcs	w25, w24, w14
 894:	270b3b0b 	.inst	0x270b3b0b ; undefined
 898:	11134919 	add	w25, w8, #0x4d2
 89c:	40071201 	.inst	0x40071201 ; undefined
 8a0:	19429718 	.inst	0x19429718 ; undefined
 8a4:	00001301 	.inst	0x00001301 ; undefined
 8a8:	11010b13 	add	w19, w24, #0x42
 8ac:	01071201 	.inst	0x01071201 ; undefined
 8b0:	14000013 	b	8fc <_start-0x7f704>
 8b4:	193f012e 	.inst	0x193f012e ; undefined
 8b8:	0b3a0e03 	add	w3, w16, w26, uxtb #3
 8bc:	19270b3b 	.inst	0x19270b3b ; undefined
 8c0:	01111349 	.inst	0x01111349 ; undefined
 8c4:	18400712 	ldr	w18, 809a4 <print_free_list+0x40>
 8c8:	01194296 	.inst	0x01194296 ; undefined
 8cc:	15000013 	b	4000918 <__stack_top+0x3f60918>
 8d0:	1755010b 	b	fffffffffd540cfc <__stack_top+0xfffffffffd4a0cfc>
 8d4:	00001301 	.inst	0x00001301 ; undefined
 8d8:	3f002e16 	.inst	0x3f002e16 ; undefined
 8dc:	3a0e0319 	adcs	w25, w24, w14
 8e0:	490b3b0b 	.inst	0x490b3b0b ; undefined
 8e4:	12011113 	and	w19, w8, #0x8000000f
 8e8:	97184007 	bl	fffffffffc610904 <__stack_top+0xfffffffffc570904>
 8ec:	00001942 	.inst	0x00001942 ; undefined
 8f0:	0b000f17 	add	w23, w24, w0, lsl #3
 8f4:	1800000b 	ldr	w11, 8f4 <_start-0x7f70c>
 8f8:	0e030034 	tbl	v20.8b, {v1.16b}, v3.8b
 8fc:	053b0b3a 	ext	z26.b, z26.b, z25.b, #218
 900:	18021349 	ldr	w9, 4b68 <_start-0x7b498>
 904:	34190000 	cbz	w0, 32904 <_start-0x4d6fc>
 908:	3a080300 	adcs	w0, w24, w8
 90c:	49053b0b 	.inst	0x49053b0b ; undefined
 910:	00180213 	.inst	0x00180213 ; undefined
 914:	00341a00 	.inst	0x00341a00 ; NYI
 918:	0b3a0e03 	add	w3, w16, w26, uxtb #3
 91c:	13490b3b 	.inst	0x13490b3b ; undefined
 920:	1802193f 	ldr	wzr, 4c44 <_start-0x7b3bc>
 924:	01000000 	.inst	0x01000000 ; undefined
 928:	0e250111 	saddl	v17.8h, v8.8b, v5.8b
 92c:	0e030b13 	.inst	0x0e030b13 ; undefined
 930:	01110e1b 	.inst	0x01110e1b ; undefined
 934:	17100712 	b	fffffffffc40257c <__stack_top+0xfffffffffc36257c>
 938:	24020000 	cmphs	p0.b, p0/z, z0.b, z2.b
 93c:	3e0b0b00 	.inst	0x3e0b0b00 ; undefined
 940:	0008030b 	.inst	0x0008030b ; undefined
 944:	000f0300 	.inst	0x000f0300 ; undefined
 948:	13490b0b 	.inst	0x13490b0b ; undefined
 94c:	24040000 	cmphs	p0.b, p0/z, z0.b, z4.b
 950:	3e0b0b00 	.inst	0x3e0b0b00 ; undefined
 954:	000e030b 	.inst	0x000e030b ; undefined
 958:	01130500 	.inst	0x01130500 ; undefined
 95c:	0b0b0e03 	add	w3, w16, w11, lsl #3
 960:	0b3b0b3a 	add	w26, w25, w27, uxtb #2
 964:	00001301 	.inst	0x00001301 ; undefined
 968:	03000d06 	.inst	0x03000d06 ; undefined
 96c:	3b0b3a0e 	.inst	0x3b0b3a0e ; undefined
 970:	3813490b 	sttrb	w11, [x8, #-204]
 974:	0700000b 	.inst	0x0700000b ; undefined
 978:	0803000d 	stxrb	w3, w13, [x0]
 97c:	0b3b0b3a 	add	w26, w25, w27, uxtb #2
 980:	0b381349 	add	w9, w26, w24, uxtb #4
 984:	0f080000 	.inst	0x0f080000 ; undefined
 988:	000b0b00 	.inst	0x000b0b00 ; undefined
 98c:	00160900 	.inst	0x00160900 ; undefined
 990:	0b3a0e03 	add	w3, w16, w26, uxtb #3
 994:	13490b3b 	.inst	0x13490b3b ; undefined
 998:	260a0000 	.inst	0x260a0000 ; undefined
 99c:	00134900 	.inst	0x00134900 ; undefined
 9a0:	01150b00 	.inst	0x01150b00 ; undefined
 9a4:	13491927 	.inst	0x13491927 ; undefined
 9a8:	00001301 	.inst	0x00001301 ; undefined
 9ac:	4900050c 	.inst	0x4900050c ; undefined
 9b0:	0d000013 	st1	{v19.b}[0], [x0]
 9b4:	00000026 	.inst	0x00000026 ; undefined
 9b8:	3f002e0e 	.inst	0x3f002e0e ; undefined
 9bc:	3a0e0319 	adcs	w25, w24, w14
 9c0:	110b3b0b 	add	w11, w24, #0x2ce
 9c4:	40071201 	.inst	0x40071201 ; undefined
 9c8:	19429618 	.inst	0x19429618 ; undefined
 9cc:	2e0f0000 	ext	v0.8b, v0.8b, v15.8b, #0
 9d0:	03193f01 	.inst	0x03193f01 ; undefined
 9d4:	3b0b3a0e 	.inst	0x3b0b3a0e ; undefined
 9d8:	1119270b 	add	w11, w24, #0x649
 9dc:	40071201 	.inst	0x40071201 ; undefined
 9e0:	19429718 	.inst	0x19429718 ; undefined
 9e4:	00001301 	.inst	0x00001301 ; undefined
 9e8:	03000510 	.inst	0x03000510 ; undefined
 9ec:	3b0b3a0e 	.inst	0x3b0b3a0e ; undefined
 9f0:	0213490b 	.inst	0x0213490b ; undefined
 9f4:	11000018 	add	w24, w0, #0x0
 9f8:	193f002e 	.inst	0x193f002e ; undefined
 9fc:	0b3a0e03 	add	w3, w16, w26, uxtb #3
 a00:	01110b3b 	.inst	0x01110b3b ; undefined
 a04:	18400712 	ldr	w18, 80ae4 <print_free_list+0x180>
 a08:	00194297 	.inst	0x00194297 ; undefined
 a0c:	012e1200 	.inst	0x012e1200 ; undefined
 a10:	0e03193f 	uzp1	v31.8b, v9.8b, v3.8b
 a14:	0b3b0b3a 	add	w26, w25, w27, uxtb #2
 a18:	07120111 	.inst	0x07120111 ; undefined
 a1c:	42961840 	.inst	0x42961840 ; undefined
 a20:	00130119 	.inst	0x00130119 ; undefined
 a24:	00341300 	.inst	0x00341300 ; NYI
 a28:	0b3a0803 	add	w3, w0, w26, uxtb #2
 a2c:	13490b3b 	.inst	0x13490b3b ; undefined
 a30:	00001802 	.inst	0x00001802 ; undefined
 a34:	03003414 	.inst	0x03003414 ; undefined
 a38:	3b0b3a0e 	.inst	0x3b0b3a0e ; undefined
 a3c:	0213490b 	.inst	0x0213490b ; undefined
 a40:	15000018 	b	4000aa0 <__stack_top+0x3f60aa0>
 a44:	0111010b 	.inst	0x0111010b ; undefined
 a48:	00000712 	.inst	0x00000712 ; undefined
 a4c:	49010116 	.inst	0x49010116 ; undefined
 a50:	00130113 	.inst	0x00130113 ; undefined
 a54:	00211700 	.inst	0x00211700 ; NYI
 a58:	0b2f1349 	add	w9, w26, w15, uxtb #4
 a5c:	01000000 	.inst	0x01000000 ; undefined
 a60:	0e250111 	saddl	v17.8h, v8.8b, v5.8b
 a64:	0e030b13 	.inst	0x0e030b13 ; undefined
 a68:	01110e1b 	.inst	0x01110e1b ; undefined
 a6c:	17100712 	b	fffffffffc4026b4 <__stack_top+0xfffffffffc3626b4>
 a70:	2e020000 	ext	v0.8b, v0.8b, v2.8b, #0
 a74:	03193f01 	.inst	0x03193f01 ; undefined
 a78:	3b0b3a0e 	.inst	0x3b0b3a0e ; undefined
 a7c:	4919270b 	.inst	0x4919270b ; undefined
 a80:	12011113 	and	w19, w8, #0x8000000f
 a84:	97184007 	bl	fffffffffc610aa0 <__stack_top+0xfffffffffc570aa0>
 a88:	13011942 	sbfx	w2, w10, #1, #6
 a8c:	05030000 	orr	z0.d, z0.d, #0x100000000
 a90:	3a080300 	adcs	w0, w24, w8
 a94:	490b3b0b 	.inst	0x490b3b0b ; undefined
 a98:	00180213 	.inst	0x00180213 ; undefined
 a9c:	00240400 	.inst	0x00240400 ; NYI
 aa0:	0b3e0b0b 	add	w11, w24, w30, uxtb #2
 aa4:	00000803 	.inst	0x00000803 ; undefined
 aa8:	0b000f05 	add	w5, w24, w0, lsl #3
 aac:	0013490b 	.inst	0x0013490b ; undefined
 ab0:	00240600 	.inst	0x00240600 ; NYI
 ab4:	0b3e0b0b 	add	w11, w24, w30, uxtb #2
 ab8:	00000e03 	.inst	0x00000e03 ; undefined
 abc:	49002607 	.inst	0x49002607 ; undefined
 ac0:	00000013 	.inst	0x00000013 ; undefined
 ac4:	25011101 	cmpge	p1.b, p4/z, z8.b, #1
 ac8:	030b130e 	.inst	0x030b130e ; undefined
 acc:	110e1b0e 	add	w14, w24, #0x386
 ad0:	10071201 	adr	x1, ed10 <_start-0x712f0>
 ad4:	02000017 	.inst	0x02000017 ; undefined
 ad8:	0e030113 	tbl	v19.8b, {v8.16b}, v3.8b
 adc:	0b3a0b0b 	add	w11, w24, w26, uxtb #2
 ae0:	13010b3b 	sbfx	w27, w25, #1, #2
 ae4:	0d030000 	.inst	0x0d030000 ; undefined
 ae8:	3a0e0300 	adcs	w0, w24, w14
 aec:	490b3b0b 	.inst	0x490b3b0b ; undefined
 af0:	000b3813 	.inst	0x000b3813 ; undefined
 af4:	000d0400 	.inst	0x000d0400 ; undefined
 af8:	0b3a0803 	add	w3, w0, w26, uxtb #2
 afc:	13490b3b 	.inst	0x13490b3b ; undefined
 b00:	00000b38 	.inst	0x00000b38 ; undefined
 b04:	0b000f05 	add	w5, w24, w0, lsl #3
 b08:	0013490b 	.inst	0x0013490b ; undefined
 b0c:	000f0600 	.inst	0x000f0600 ; undefined
 b10:	00000b0b 	.inst	0x00000b0b ; undefined
 b14:	03001607 	.inst	0x03001607 ; undefined
 b18:	3b0b3a0e 	.inst	0x3b0b3a0e ; undefined
 b1c:	0013490b 	.inst	0x0013490b ; undefined
 b20:	00240800 	.inst	0x00240800 ; NYI
 b24:	0b3e0b0b 	add	w11, w24, w30, uxtb #2
 b28:	00000e03 	.inst	0x00000e03 ; undefined
 b2c:	0b002409 	add	w9, w0, w0, lsl #9
 b30:	030b3e0b 	.inst	0x030b3e0b ; undefined
 b34:	0a000008 	and	w8, w0, w0
 b38:	13490026 	.inst	0x13490026 ; undefined
 b3c:	150b0000 	b	42c0b3c <__stack_top+0x4220b3c>
 b40:	49192701 	.inst	0x49192701 ; undefined
 b44:	00130113 	.inst	0x00130113 ; undefined
 b48:	00050c00 	.inst	0x00050c00 ; undefined
 b4c:	00001349 	.inst	0x00001349 ; undefined
 b50:	0000260d 	.inst	0x0000260d ; undefined
 b54:	01130e00 	.inst	0x01130e00 ; undefined
 b58:	050b0e03 	.inst	0x050b0e03 ; undefined
 b5c:	0b3b0b3a 	add	w26, w25, w27, uxtb #2
 b60:	00001301 	.inst	0x00001301 ; undefined
 b64:	03000d0f 	.inst	0x03000d0f ; undefined
 b68:	3b0b3a0e 	.inst	0x3b0b3a0e ; undefined
 b6c:	3813490b 	sttrb	w11, [x8, #-204]
 b70:	10000005 	adr	x5, b70 <_start-0x7f490>
 b74:	0803000d 	stxrb	w3, w13, [x0]
 b78:	0b3b0b3a 	add	w26, w25, w27, uxtb #2
 b7c:	05381349 	ext	z9.b, z9.b, z26.b, #196
 b80:	01110000 	.inst	0x01110000 ; undefined
 b84:	01134901 	.inst	0x01134901 ; undefined
 b88:	12000013 	and	w19, w0, #0x1
 b8c:	13490021 	.inst	0x13490021 ; undefined
 b90:	00000b2f 	.inst	0x00000b2f ; undefined
 b94:	3f012e13 	.inst	0x3f012e13 ; undefined
 b98:	3a0e0319 	adcs	w25, w24, w14
 b9c:	270b3b0b 	.inst	0x270b3b0b ; undefined
 ba0:	12011119 	and	w25, w8, #0x8000000f
 ba4:	97184007 	bl	fffffffffc610bc0 <__stack_top+0xfffffffffc570bc0>
 ba8:	13011942 	sbfx	w2, w10, #1, #6
 bac:	05140000 	mov	z0.b, p4/z, #0
 bb0:	3a080300 	adcs	w0, w24, w8
 bb4:	490b3b0b 	.inst	0x490b3b0b ; undefined
 bb8:	00180213 	.inst	0x00180213 ; undefined
 bbc:	00341500 	.inst	0x00341500 ; NYI
 bc0:	0b3a0e03 	add	w3, w16, w26, uxtb #3
 bc4:	13490b3b 	.inst	0x13490b3b ; undefined
 bc8:	00001802 	.inst	0x00001802 ; undefined
 bcc:	3f002e16 	.inst	0x3f002e16 ; undefined
 bd0:	3a0e0319 	adcs	w25, w24, w14
 bd4:	110b3b0b 	add	w11, w24, #0x2ce
 bd8:	40071201 	.inst	0x40071201 ; undefined
 bdc:	19429618 	.inst	0x19429618 ; undefined
 be0:	2e170000 	ext	v0.8b, v0.8b, v23.8b, #0
 be4:	03193f01 	.inst	0x03193f01 ; undefined
 be8:	3b0b3a0e 	.inst	0x3b0b3a0e ; undefined
 bec:	1119270b 	add	w11, w24, #0x649
 bf0:	40071201 	.inst	0x40071201 ; undefined
 bf4:	19429618 	.inst	0x19429618 ; undefined
 bf8:	00001301 	.inst	0x00001301 ; undefined
 bfc:	03000518 	.inst	0x03000518 ; undefined
 c00:	3b0b3a0e 	.inst	0x3b0b3a0e ; undefined
 c04:	0213490b 	.inst	0x0213490b ; undefined
 c08:	19000018 	.inst	0x19000018 ; undefined
 c0c:	193f012e 	.inst	0x193f012e ; undefined
 c10:	0b3a0e03 	add	w3, w16, w26, uxtb #3
 c14:	19270b3b 	.inst	0x19270b3b ; undefined
 c18:	01111349 	.inst	0x01111349 ; undefined
 c1c:	18400712 	ldr	w18, 80cfc <get_page_from_buckets+0x8c>
 c20:	01194296 	.inst	0x01194296 ; undefined
 c24:	1a000013 	adc	w19, w0, w0
 c28:	08030034 	stxrb	w3, w20, [x1]
 c2c:	0b3b0b3a 	add	w26, w25, w27, uxtb #2
 c30:	18021349 	ldr	w9, 4e98 <_start-0x7b168>
 c34:	0b1b0000 	add	w0, w0, w27
 c38:	12011101 	and	w1, w8, #0x8000000f
 c3c:	1c000007 	ldr	s7, c3c <_start-0x7f3c4>
 c40:	0e030034 	tbl	v20.8b, {v1.16b}, v3.8b
 c44:	0b3b0b3a 	add	w26, w25, w27, uxtb #2
 c48:	193f1349 	.inst	0x193f1349 ; undefined
 c4c:	0000193c 	.inst	0x0000193c ; undefined
 c50:	0300341d 	.inst	0x0300341d ; undefined
 c54:	3b0b3a0e 	.inst	0x3b0b3a0e ; undefined
 c58:	3f13490b 	.inst	0x3f13490b ; undefined
 c5c:	00180219 	.inst	0x00180219 ; undefined
 c60:	11010000 	add	w0, w0, #0x40
 c64:	130e2501 	sbfiz	w1, w8, #18, #10
 c68:	1b0e030b 	madd	w11, w24, w14, w0
 c6c:	1201110e 	and	w14, w8, #0x8000000f
 c70:	00171007 	.inst	0x00171007 ; undefined
 c74:	012e0200 	.inst	0x012e0200 ; undefined
 c78:	0e03193f 	uzp1	v31.8b, v9.8b, v3.8b
 c7c:	0b3b0b3a 	add	w26, w25, w27, uxtb #2
 c80:	13491927 	.inst	0x13491927 ; undefined
 c84:	07120111 	.inst	0x07120111 ; undefined
 c88:	42971840 	.inst	0x42971840 ; undefined
 c8c:	00130119 	.inst	0x00130119 ; undefined
 c90:	00050300 	.inst	0x00050300 ; undefined
 c94:	0b3a0803 	add	w3, w0, w26, uxtb #2
 c98:	13490b3b 	.inst	0x13490b3b ; undefined
 c9c:	00001802 	.inst	0x00001802 ; undefined
 ca0:	03000504 	.inst	0x03000504 ; undefined
 ca4:	3b0b3a0e 	.inst	0x3b0b3a0e ; undefined
 ca8:	0213490b 	.inst	0x0213490b ; undefined
 cac:	05000018 	orr	z24.s, z24.s, #0x1
 cb0:	08030034 	stxrb	w3, w20, [x1]
 cb4:	0b3b0b3a 	add	w26, w25, w27, uxtb #2
 cb8:	18021349 	ldr	w9, 4f20 <_start-0x7b0e0>
 cbc:	34060000 	cbz	w0, ccbc <_start-0x73344>
 cc0:	3a0e0300 	adcs	w0, w24, w14
 cc4:	490b3b0b 	.inst	0x490b3b0b ; undefined
 cc8:	00180213 	.inst	0x00180213 ; undefined
 ccc:	010b0700 	.inst	0x010b0700 ; undefined
 cd0:	07120111 	.inst	0x07120111 ; undefined
 cd4:	00001301 	.inst	0x00001301 ; undefined
 cd8:	11010b08 	add	w8, w24, #0x42
 cdc:	00071201 	.inst	0x00071201 ; undefined
 ce0:	00240900 	.inst	0x00240900 ; NYI
 ce4:	0b3e0b0b 	add	w11, w24, w30, uxtb #2
 ce8:	00000803 	.inst	0x00000803 ; undefined
 cec:	0b000f0a 	add	w10, w24, w0, lsl #3
 cf0:	0013490b 	.inst	0x0013490b ; undefined
 cf4:	00240b00 	.inst	0x00240b00 ; NYI
 cf8:	0b3e0b0b 	add	w11, w24, w30, uxtb #2
 cfc:	00000e03 	.inst	0x00000e03 ; undefined
 d00:	3f012e0c 	.inst	0x3f012e0c ; undefined
 d04:	3a0e0319 	adcs	w25, w24, w14
 d08:	270b3b0b 	.inst	0x270b3b0b ; undefined
 d0c:	12011119 	and	w25, w8, #0x8000000f
 d10:	97184007 	bl	fffffffffc610d2c <__stack_top+0xfffffffffc570d2c>
 d14:	13011942 	sbfx	w2, w10, #1, #6
 d18:	010d0000 	.inst	0x010d0000 ; undefined
 d1c:	01134901 	.inst	0x01134901 ; undefined
 d20:	0e000013 	tbl	v19.8b, {v0.16b}, v0.8b
 d24:	13490021 	.inst	0x13490021 ; undefined
 d28:	0000052f 	.inst	0x0000052f ; undefined
 d2c:	01110100 	.inst	0x01110100 ; undefined
 d30:	0b130e25 	add	w5, w17, w19, lsl #3
 d34:	0e1b0e03 	dup	v3.8b, w16
 d38:	07120111 	.inst	0x07120111 ; undefined
 d3c:	00001710 	.inst	0x00001710 ; undefined
 d40:	0b002402 	add	w2, w0, w0, lsl #9
 d44:	030b3e0b 	.inst	0x030b3e0b ; undefined
 d48:	03000008 	.inst	0x03000008 ; undefined
 d4c:	0e030113 	tbl	v19.8b, {v8.16b}, v3.8b
 d50:	0b3a0b0b 	add	w11, w24, w26, uxtb #2
 d54:	13010b3b 	sbfx	w27, w25, #1, #2
 d58:	0d040000 	.inst	0x0d040000 ; undefined
 d5c:	3a0e0300 	adcs	w0, w24, w14
 d60:	490b3b0b 	.inst	0x490b3b0b ; undefined
 d64:	000b3813 	.inst	0x000b3813 ; undefined
 d68:	000d0500 	.inst	0x000d0500 ; undefined
 d6c:	0b3a0803 	add	w3, w0, w26, uxtb #2
 d70:	13490b3b 	.inst	0x13490b3b ; undefined
 d74:	00000b38 	.inst	0x00000b38 ; undefined
 d78:	0b000f06 	add	w6, w24, w0, lsl #3
 d7c:	0013490b 	.inst	0x0013490b ; undefined
 d80:	000f0700 	.inst	0x000f0700 ; undefined
 d84:	00000b0b 	.inst	0x00000b0b ; undefined
 d88:	03001608 	.inst	0x03001608 ; undefined
 d8c:	3b0b3a0e 	.inst	0x3b0b3a0e ; undefined
 d90:	0013490b 	.inst	0x0013490b ; undefined
 d94:	00240900 	.inst	0x00240900 ; NYI
 d98:	0b3e0b0b 	add	w11, w24, w30, uxtb #2
 d9c:	00000e03 	.inst	0x00000e03 ; undefined
 da0:	4900260a 	.inst	0x4900260a ; undefined
 da4:	0b000013 	add	w19, w0, w0
 da8:	19270115 	.inst	0x19270115 ; undefined
 dac:	13011349 	sbfx	w9, w26, #1, #4
 db0:	050c0000 	.inst	0x050c0000 ; undefined
 db4:	00134900 	.inst	0x00134900 ; undefined
 db8:	00260d00 	.inst	0x00260d00 ; NYI
 dbc:	2e0e0000 	ext	v0.8b, v0.8b, v14.8b, #0
 dc0:	03193f01 	.inst	0x03193f01 ; undefined
 dc4:	3b0b3a0e 	.inst	0x3b0b3a0e ; undefined
 dc8:	1119270b 	add	w11, w24, #0x649
 dcc:	40071201 	.inst	0x40071201 ; undefined
 dd0:	19429618 	.inst	0x19429618 ; undefined
 dd4:	00001301 	.inst	0x00001301 ; undefined
 dd8:	0300050f 	.inst	0x0300050f ; undefined
 ddc:	3b0b3a0e 	.inst	0x3b0b3a0e ; undefined
 de0:	0213490b 	.inst	0x0213490b ; undefined
 de4:	10000018 	adr	x24, de4 <_start-0x7f21c>
 de8:	0e030034 	tbl	v20.8b, {v1.16b}, v3.8b
 dec:	0b3b0b3a 	add	w26, w25, w27, uxtb #2
 df0:	18021349 	ldr	w9, 5058 <_start-0x7afa8>
 df4:	0b110000 	add	w0, w0, w17
 df8:	12011101 	and	w1, w8, #0x8000000f
 dfc:	12000007 	and	w7, w0, #0x1
 e00:	08030034 	stxrb	w3, w20, [x1]
 e04:	0b3b0b3a 	add	w26, w25, w27, uxtb #2
 e08:	18021349 	ldr	w9, 5070 <_start-0x7af90>
 e0c:	2e130000 	ext	v0.8b, v0.8b, v19.8b, #0
 e10:	03193f01 	.inst	0x03193f01 ; undefined
 e14:	3b0b3a0e 	.inst	0x3b0b3a0e ; undefined
 e18:	4919270b 	.inst	0x4919270b ; undefined
 e1c:	12011113 	and	w19, w8, #0x8000000f
 e20:	96184007 	bl	fffffffff8610e3c <__stack_top+0xfffffffff8570e3c>
 e24:	13011942 	sbfx	w2, w10, #1, #6
 e28:	05140000 	mov	z0.b, p4/z, #0
 e2c:	3a080300 	adcs	w0, w24, w8
 e30:	490b3b0b 	.inst	0x490b3b0b ; undefined
 e34:	00180213 	.inst	0x00180213 ; undefined
 e38:	010b1500 	.inst	0x010b1500 ; undefined
 e3c:	07120111 	.inst	0x07120111 ; undefined
 e40:	00001301 	.inst	0x00001301 ; undefined
 e44:	3f012e16 	.inst	0x3f012e16 ; undefined
 e48:	3a0e0319 	adcs	w25, w24, w14
 e4c:	270b3b0b 	.inst	0x270b3b0b ; undefined
 e50:	11134919 	add	w25, w8, #0x4d2
 e54:	40071201 	.inst	0x40071201 ; undefined
 e58:	19429718 	.inst	0x19429718 ; undefined
 e5c:	00001301 	.inst	0x00001301 ; undefined
 e60:	55010b17 	.inst	0x55010b17 ; undefined
 e64:	00000017 	.inst	0x00000017 ; undefined
 e68:	10001101 	adr	x1, 1088 <_start-0x7ef78>
 e6c:	12011106 	and	w6, w8, #0x8000000f
 e70:	1b080301 	madd	w1, w24, w8, w0
 e74:	13082508 	sbfx	w8, w8, #8, #2
 e78:	00000005 	.inst	0x00000005 ; undefined

Disassembly of section .debug_aranges:

0000000000000000 <.debug_aranges>:
   0:	0000002c 	.inst	0x0000002c ; undefined
   4:	00000002 	.inst	0x00000002 ; undefined
   8:	00080000 	.inst	0x00080000 ; undefined
   c:	00000000 	.inst	0x00000000 ; undefined
  10:	00080000 	.inst	0x00080000 ; undefined
  14:	00000000 	.inst	0x00000000 ; undefined
  18:	00000060 	.inst	0x00000060 ; undefined
	...
  30:	0000002c 	.inst	0x0000002c ; undefined
  34:	005b0002 	.inst	0x005b0002 ; undefined
  38:	00080000 	.inst	0x00080000 ; undefined
  3c:	00000000 	.inst	0x00000000 ; undefined
  40:	00080060 	.inst	0x00080060 ; undefined
  44:	00000000 	.inst	0x00000000 ; undefined
  48:	0000028c 	.inst	0x0000028c ; undefined
	...
  60:	0000002c 	.inst	0x0000002c ; undefined
  64:	047f0002 	add	z2.h, z0.h, z31.h
  68:	00080000 	.inst	0x00080000 ; undefined
  6c:	00000000 	.inst	0x00000000 ; undefined
  70:	000802ec 	.inst	0x000802ec ; undefined
  74:	00000000 	.inst	0x00000000 ; undefined
  78:	00000530 	.inst	0x00000530 ; undefined
	...
  90:	0000002c 	.inst	0x0000002c ; undefined
  94:	07230002 	.inst	0x07230002 ; undefined
  98:	00080000 	.inst	0x00080000 ; undefined
  9c:	00000000 	.inst	0x00000000 ; undefined
  a0:	0008081c 	.inst	0x0008081c ; undefined
  a4:	00000000 	.inst	0x00000000 ; undefined
  a8:	000008f8 	.inst	0x000008f8 ; undefined
	...
  c0:	0000002c 	.inst	0x0000002c ; undefined
  c4:	0d6e0002 	.inst	0x0d6e0002 ; undefined
  c8:	00080000 	.inst	0x00080000 ; undefined
  cc:	00000000 	.inst	0x00000000 ; undefined
  d0:	00081114 	.inst	0x00081114 ; undefined
  d4:	00000000 	.inst	0x00000000 ; undefined
  d8:	00000118 	.inst	0x00000118 ; undefined
	...
  f0:	0000002c 	.inst	0x0000002c ; undefined
  f4:	0e4b0002 	.inst	0x0e4b0002 ; undefined
  f8:	00080000 	.inst	0x00080000 ; undefined
  fc:	00000000 	.inst	0x00000000 ; undefined
 100:	0008122c 	.inst	0x0008122c ; undefined
 104:	00000000 	.inst	0x00000000 ; undefined
 108:	00000024 	.inst	0x00000024 ; undefined
	...
 120:	0000002c 	.inst	0x0000002c ; undefined
 124:	0ea30002 	saddl	v2.2d, v0.2s, v3.2s
 128:	00080000 	.inst	0x00080000 ; undefined
 12c:	00000000 	.inst	0x00000000 ; undefined
 130:	00081250 	.inst	0x00081250 ; undefined
 134:	00000000 	.inst	0x00000000 ; undefined
 138:	00000924 	.inst	0x00000924 ; undefined
	...
 150:	0000002c 	.inst	0x0000002c ; undefined
 154:	19250002 	.inst	0x19250002 ; undefined
 158:	00080000 	.inst	0x00080000 ; undefined
 15c:	00000000 	.inst	0x00000000 ; undefined
 160:	00081b74 	.inst	0x00081b74 ; undefined
 164:	00000000 	.inst	0x00000000 ; undefined
 168:	00000384 	.inst	0x00000384 ; undefined
	...
 180:	0000002c 	.inst	0x0000002c ; undefined
 184:	20550002 	.inst	0x20550002 ; undefined
 188:	00080000 	.inst	0x00080000 ; undefined
 18c:	00000000 	.inst	0x00000000 ; undefined
 190:	00081ef8 	.inst	0x00081ef8 ; undefined
 194:	00000000 	.inst	0x00000000 ; undefined
 198:	00000050 	.inst	0x00000050 ; undefined
	...
 1b0:	0000002c 	.inst	0x0000002c ; undefined
 1b4:	20b00002 	.inst	0x20b00002 ; undefined
 1b8:	00080000 	.inst	0x00080000 ; undefined
 1bc:	00000000 	.inst	0x00000000 ; undefined
 1c0:	00082000 	.inst	0x00082000 ; undefined
 1c4:	00000000 	.inst	0x00000000 ; undefined
 1c8:	0000100c 	.inst	0x0000100c ; undefined
	...
 1e0:	0000002c 	.inst	0x0000002c ; undefined
 1e4:	21120002 	.inst	0x21120002 ; undefined
 1e8:	00080000 	.inst	0x00080000 ; undefined
 1ec:	00000000 	.inst	0x00000000 ; undefined
 1f0:	0008300c 	.inst	0x0008300c ; undefined
 1f4:	00000000 	.inst	0x00000000 ; undefined
 1f8:	00000b9c 	.inst	0x00000b9c ; undefined
	...
 210:	0000002c 	.inst	0x0000002c ; undefined
 214:	26430002 	.inst	0x26430002 ; undefined
 218:	00080000 	.inst	0x00080000 ; undefined
 21c:	00000000 	.inst	0x00000000 ; undefined
 220:	00083ba8 	.inst	0x00083ba8 ; undefined
 224:	00000000 	.inst	0x00000000 ; undefined
 228:	000002e0 	.inst	0x000002e0 ; undefined
	...
 240:	0000002c 	.inst	0x0000002c ; undefined
 244:	29a10002 	stp	w2, w0, [x0, #-248]!
 248:	00080000 	.inst	0x00080000 ; undefined
 24c:	00000000 	.inst	0x00000000 ; undefined
 250:	00083e88 	.inst	0x00083e88 ; undefined
 254:	00000000 	.inst	0x00000000 ; undefined
 258:	00000084 	.inst	0x00000084 ; undefined
	...
 270:	0000002c 	.inst	0x0000002c ; undefined
 274:	2a220002 	orn	w2, w0, w2
 278:	00080000 	.inst	0x00080000 ; undefined
 27c:	00000000 	.inst	0x00000000 ; undefined
 280:	00083f0c 	.inst	0x00083f0c ; undefined
 284:	00000000 	.inst	0x00000000 ; undefined
 288:	000002e8 	.inst	0x000002e8 ; undefined
	...
 2a0:	0000002c 	.inst	0x0000002c ; undefined
 2a4:	32380002 	orr	w2, w0, #0x100
 2a8:	00080000 	.inst	0x00080000 ; undefined
 2ac:	00000000 	.inst	0x00000000 ; undefined
 2b0:	000841f4 	.inst	0x000841f4 ; undefined
 2b4:	00000000 	.inst	0x00000000 ; undefined
 2b8:	00000354 	.inst	0x00000354 ; undefined
	...
 2d0:	0000002c 	.inst	0x0000002c ; undefined
 2d4:	34580002 	cbz	w2, b02d4 <__stack_top+0x102d4>
 2d8:	00080000 	.inst	0x00080000 ; undefined
 2dc:	00000000 	.inst	0x00000000 ; undefined
 2e0:	00084548 	.inst	0x00084548 ; undefined
 2e4:	00000000 	.inst	0x00000000 ; undefined
 2e8:	00000894 	.inst	0x00000894 ; undefined
	...
 300:	0000002c 	.inst	0x0000002c ; undefined
 304:	3c0a0002 	stur	b2, [x0, #160]
 308:	00080000 	.inst	0x00080000 ; undefined
 30c:	00000000 	.inst	0x00000000 ; undefined
 310:	00084de0 	.inst	0x00084de0 ; undefined
 314:	00000000 	.inst	0x00000000 ; undefined
 318:	00000090 	.inst	0x00000090 ; undefined
	...

Disassembly of section .debug_str:

0000000000000000 <.debug_str>:
   0:	6e72656b 	umax	v11.8h, v11.8h, v18.8h
   4:	762f6c65 	.inst	0x762f6c65 ; undefined
   8:	632e7366 	.inst	0x632e7366 ; undefined
   c:	746e6900 	.inst	0x746e6900 ; undefined
  10:	616e7265 	.inst	0x616e7265 ; undefined
  14:	6863006c 	.inst	0x6863006c ; undefined
  18:	00646c69 	.inst	0x00646c69 ; undefined
  1c:	75746573 	.inst	0x75746573 ; undefined
  20:	6f6d5f70 	.inst	0x6f6d5f70 ; undefined
  24:	00746e75 	.inst	0x00746e75 ; undefined
  28:	706f5f76 	adr	x22, dec17 <__stack_top+0x3ec17>
  2c:	6e760073 	uaddl2	v19.4s, v3.8h, v22.8h
  30:	5f65646f 	.inst	0x5f65646f ; undefined
  34:	7265706f 	.inst	0x7265706f ; undefined
  38:	6f697461 	uqshl	v1.2d, v3.2d, #41
  3c:	6600736e 	.inst	0x6600736e ; undefined
  40:	736f705f 	.inst	0x736f705f ; undefined
  44:	74617000 	.inst	0x74617000 ; undefined
  48:	6d616e68 	ldp	d8, d27, [x19, #-496]
  4c:	66760065 	.inst	0x66760065 ; undefined
  50:	6c635f73 	ldnp	d19, d23, [x27, #-464]
  54:	0065736f 	.inst	0x0065736f ; undefined
  58:	676e6f6c 	.inst	0x676e6f6c ; undefined
  5c:	736e7520 	.inst	0x736e7520 ; undefined
  60:	656e6769 	fnmls	z9.h, p1/m, z27.h, z14.h
  64:	6e692064 	usubl2	v4.4s, v3.8h, v9.8h
  68:	5f660074 	.inst	0x5f660074 ; undefined
  6c:	0073706f 	.inst	0x0073706f ; undefined
  70:	746f6f72 	.inst	0x746f6f72 ; undefined
  74:	73667600 	.inst	0x73667600 ; undefined
  78:	6165725f 	.inst	0x6165725f ; undefined
  7c:	69660064 	ldpsw	x4, x0, [x3, #-208]
  80:	6f5f656c 	sqshlu	v12.2d, v11.2d, #31
  84:	61726570 	.inst	0x61726570 ; undefined
  88:	6e6f6974 	.inst	0x6e6f6974 ; undefined
  8c:	682f0073 	.inst	0x682f0073 ; undefined
  90:	2f656d6f 	.inst	0x2f656d6f ; undefined
  94:	61726173 	.inst	0x61726173 ; undefined
  98:	75696863 	.inst	0x75696863 ; undefined
  9c:	74636e2f 	.inst	0x74636e2f ; undefined
  a0:	736f2f75 	.inst	0x736f2f75 ; undefined
  a4:	32303263 	orr	w3, w19, #0x1fff0000
  a8:	65720031 	fmla	z17.h, p0/m, z1.h, z18.h
  ac:	74736967 	.inst	0x74736967 ; undefined
  b0:	665f7265 	.inst	0x665f7265 ; undefined
  b4:	73656c69 	.inst	0x73656c69 ; undefined
  b8:	65747379 	fnmls	z25.h, p4/m, z27.h, z20.h
  bc:	4e47006d 	.inst	0x4e47006d ; undefined
  c0:	31432055 	adds	w21, w2, #0xc8, lsl #12
  c4:	2e352031 	usubl	v17.8h, v1.8b, v21.8b
  c8:	20302e34 	.inst	0x20302e34 ; undefined
  cc:	36313032 	tbz	w18, #6, 26d0 <_start-0x7d930>
  d0:	39303630 	strb	w16, [x17, #3085]
  d4:	6c6d2d20 	ldnp	d0, d11, [x9, #-304]
  d8:	6c747469 	ldnp	d9, d29, [x3, #-192]
  dc:	6e652d65 	uqsub	v5.8h, v11.8h, v5.8h
  e0:	6e616964 	fcvtxn2	v4.4s, v11.2d
  e4:	616d2d20 	.inst	0x616d2d20 ; undefined
  e8:	6c3d6962 	stnp	d2, d26, [x11, #-48]
  ec:	20343670 	.inst	0x20343670 ; undefined
  f0:	2d20672d 	stp	s13, s25, [x25, #-256]
  f4:	65726666 	fnmls	z6.h, p1/m, z19.h, z18.h
  f8:	61747365 	.inst	0x61747365 ; undefined
  fc:	6e69646e 	umax	v14.8h, v3.8h, v9.8h
 100:	66760067 	.inst	0x66760067 ; undefined
 104:	706f5f73 	adr	x19, decf3 <__stack_top+0x3ecf3>
 108:	77006e65 	.inst	0x77006e65 ; undefined
 10c:	65746972 	fnmls	z18.h, p2/m, z11.h, z20.h
 110:	7200665f 	tst	w18, #0x3ffffff
 114:	5f646165 	.inst	0x5f646165 ; undefined
 118:	66760066 	.inst	0x66760066 ; undefined
 11c:	72775f73 	.inst	0x72775f73 ; undefined
 120:	00657469 	.inst	0x00657469 ; undefined
 124:	646f6e76 	.inst	0x646f6e76 ; undefined
 128:	6e690065 	uaddl2	v5.4s, v3.8h, v9.8h
 12c:	00747570 	.inst	0x00747570 ; undefined
 130:	74726175 	.inst	0x74726175 ; undefined
 134:	7475705f 	.inst	0x7475705f ; undefined
 138:	6e695f73 	uqrshl	v19.8h, v27.8h, v9.8h
 13c:	656b0074 	fmla	z20.h, p0/m, z3.h, z11.h
 140:	6c656e72 	ldnp	d18, d27, [x19, #-432]
 144:	7261752f 	.inst	0x7261752f ; undefined
 148:	00632e74 	.inst	0x00632e74 ; undefined
 14c:	74726175 	.inst	0x74726175 ; undefined
 150:	6165725f 	.inst	0x6165725f ; undefined
 154:	696c5f64 	ldpsw	x4, x23, [x27, #-160]
 158:	7500656e 	.inst	0x7500656e ; undefined
 15c:	5f747261 	sqdmlsl	s1, h19, v4.h[3]
 160:	73747570 	.inst	0x73747570 ; undefined
 164:	7865685f 	ldrh	wzr, [x2, x5]
 168:	72617500 	.inst	0x72617500 ; undefined
 16c:	65725f74 	fnmla	z20.h, p7/m, z27.h, z18.h
 170:	625f6461 	.inst	0x625f6461 ; undefined
 174:	00666675 	.inst	0x00666675 ; undefined
 178:	70736964 	adr	x4, e6ea7 <__stack_top+0x46ea7>
 17c:	0079616c 	.inst	0x0079616c ; undefined
 180:	74726175 	.inst	0x74726175 ; undefined
 184:	7475705f 	.inst	0x7475705f ; undefined
 188:	61750073 	.inst	0x61750073 ; undefined
 18c:	695f7472 	ldpsw	x18, x29, [x3, #248]
 190:	0074696e 	.inst	0x0074696e ; undefined
 194:	776f6873 	.inst	0x776f6873 ; undefined
 198:	72617500 	.inst	0x72617500 ; undefined
 19c:	65675f74 	fnmla	z20.h, p7/m, z27.h, z7.h
 1a0:	75005874 	.inst	0x75005874 ; undefined
 1a4:	5f747261 	sqdmlsl	s1, h19, v4.h[3]
 1a8:	646e6573 	.inst	0x646e6573 ; undefined
 1ac:	72617500 	.inst	0x72617500 ; undefined
 1b0:	65675f74 	fnmla	z20.h, p7/m, z27.h, z7.h
 1b4:	6e006374 	ext	v20.16b, v27.16b, v0.16b, #12
 1b8:	5f65646f 	.inst	0x5f65646f ; undefined
 1bc:	74696e69 	.inst	0x74696e69 ; undefined
 1c0:	64726f00 	.inst	0x64726f00 ; undefined
 1c4:	4e007265 	tbx	v5.16b, {v19.16b-v22.16b}, v0.16b
 1c8:	0065646f 	.inst	0x0065646f ; undefined
 1cc:	6e72656b 	umax	v11.8h, v11.8h, v18.8h
 1d0:	612f6c65 	.inst	0x612f6c65 ; undefined
 1d4:	636f6c6c 	.inst	0x636f6c6c ; undefined
 1d8:	726f7461 	.inst	0x726f7461 ; undefined
 1dc:	6c00632e 	stnp	d14, d24, [x25]
 1e0:	5f747369 	sqdmlsl	s9, h27, v4.h[3]
 1e4:	6f6d6572 	sqshlu	v18.2d, v11.2d, #45
 1e8:	695f6576 	ldpsw	x22, x25, [x11, #248]
 1ec:	7865646e 	.inst	0x7865646e ; undefined
 1f0:	63756200 	.inst	0x63756200 ; undefined
 1f4:	5f74656b 	.inst	0x5f74656b ; undefined
 1f8:	65676170 	fnmls	z16.h, p0/m, z11.h, z7.h
 1fc:	6f67006e 	mla	v14.8h, v3.8h, v7.h[2]
 200:	5f6f745f 	sqshl	d31, d2, #47
 204:	7478656e 	.inst	0x7478656e ; undefined
 208:	6375625f 	.inst	0x6375625f ; undefined
 20c:	0074656b 	.inst	0x0074656b ; undefined
 210:	72727563 	.inst	0x72727563 ; undefined
 214:	6375625f 	.inst	0x6375625f ; undefined
 218:	0074656b 	.inst	0x0074656b ; undefined
 21c:	706d6574 	adr	x20, daecb <__stack_top+0x3aecb>
 220:	6f6c6200 	umlsl2	v0.4s, v16.8h, v12.h[2]
 224:	735f6b63 	.inst	0x735f6b63 ; undefined
 228:	00657a69 	.inst	0x00657a69 ; undefined
 22c:	72617473 	.inst	0x72617473 ; undefined
 230:	75625f74 	.inst	0x75625f74 ; undefined
 234:	74656b63 	.inst	0x74656b63 ; undefined
 238:	616d6b00 	.inst	0x616d6b00 ; undefined
 23c:	636f6c6c 	.inst	0x636f6c6c ; undefined
 240:	74656700 	.inst	0x74656700 ; undefined
 244:	6761705f 	.inst	0x6761705f ; undefined
 248:	72665f65 	.inst	0x72665f65 ; undefined
 24c:	625f6d6f 	.inst	0x625f6d6f ; undefined
 250:	656b6375 	fnmls	z21.h, p0/m, z27.h, z11.h
 254:	6c007374 	stnp	d20, d28, [x27]
 258:	5f747369 	sqdmlsl	s9, h27, v4.h[3]
 25c:	68737570 	.inst	0x68737570 ; undefined
 260:	72656d00 	.inst	0x72656d00 ; undefined
 264:	74006567 	.inst	0x74006567 ; undefined
 268:	65677261 	fnmls	z1.h, p4/m, z19.h, z7.h
 26c:	656d0074 	fmla	z20.h, p0/m, z3.h, z13.h
 270:	5f656772 	.inst	0x5f656772 ; undefined
 274:	636f6c62 	.inst	0x636f6c62 ; undefined
 278:	656e006b 	fmla	z11.h, p0/m, z3.h, z14.h
 27c:	625f7478 	.inst	0x625f7478 ; undefined
 280:	656b6375 	fnmls	z21.h, p0/m, z27.h, z11.h
 284:	6c007374 	stnp	d20, d28, [x27]
 288:	5f747369 	sqdmlsl	s9, h27, v4.h[3]
 28c:	64616568 	.inst	0x64616568 ; undefined
 290:	7a697300 	.inst	0x7a697300 ; undefined
 294:	70797465 	adr	x5, f3123 <__stack_top+0x53123>
 298:	65720065 	fmla	z5.h, p0/m, z3.h, z18.h
 29c:	72697571 	.inst	0x72697571 ; undefined
 2a0:	705f6465 	adr	x5, bef2f <__stack_top+0x1ef2f>
 2a4:	6e656761 	umax	v1.8h, v27.8h, v5.8h
 2a8:	73696c00 	.inst	0x73696c00 ; undefined
 2ac:	65725f74 	fnmla	z20.h, p7/m, z27.h, z18.h
 2b0:	65766f6d 	fnmls	z13.h, p3/m, z27.h, z22.h
 2b4:	696e6900 	ldpsw	x0, x26, [x8, #-144]
 2b8:	75625f74 	.inst	0x75625f74 ; undefined
 2bc:	74656b63 	.inst	0x74656b63 ; undefined
 2c0:	656e0073 	fmla	z19.h, p0/m, z3.h, z14.h
 2c4:	6f6e5f77 	.inst	0x6f6e5f77 ; undefined
 2c8:	73006564 	.inst	0x73006564 ; undefined
 2cc:	74696c70 	.inst	0x74696c70 ; undefined
 2d0:	6f6c625f 	umlsl2	v31.4s, v18.8h, v12.h[2]
 2d4:	66006b63 	.inst	0x66006b63 ; undefined
 2d8:	5f656572 	.inst	0x5f656572 ; undefined
 2dc:	65676170 	fnmls	z16.h, p0/m, z11.h, z7.h
 2e0:	78656e00 	.inst	0x78656e00 ; undefined
 2e4:	626b0074 	.inst	0x626b0074 ; undefined
 2e8:	65676170 	fnmls	z16.h, p0/m, z11.h, z7.h
 2ec:	62006e5f 	.inst	0x62006e5f ; undefined
 2f0:	656b6375 	fnmls	z21.h, p0/m, z27.h, z11.h
 2f4:	6e695f74 	uqrshl	v20.8h, v27.8h, v9.8h
 2f8:	00786564 	.inst	0x00786564 ; undefined
 2fc:	6e697270 	uabdl2	v16.4s, v19.8h, v9.8h
 300:	72665f74 	.inst	0x72665f74 ; undefined
 304:	6c5f6565 	ldnp	d5, d25, [x11, #496]
 308:	00747369 	.inst	0x00747369 ; undefined
 30c:	6e72656b 	umax	v11.8h, v11.8h, v18.8h
 310:	652f6c65 	.inst	0x652f6c65 ; undefined
 314:	70656378 	adr	x24, caf83 <__stack_top+0x2af83>
 318:	6e6f6974 	.inst	0x6e6f6974 ; undefined
 31c:	6500632e 	.inst	0x6500632e ; undefined
 320:	655f7273 	fcmne	p3.h, p4/z, z19.h, z31.h
 324:	6400316c 	.inst	0x6400316c ; undefined
 328:	53706d75 	.inst	0x53706d75 ; undefined
 32c:	65746174 	fnmls	z20.h, p0/m, z11.h, z20.h
 330:	6d756400 	ldp	d0, d25, [x0, #-176]
 334:	6d695470 	ldp	d16, d21, [x3, #-368]
 338:	63007265 	.inst	0x63007265 ; undefined
 33c:	7266746e 	.inst	0x7266746e ; undefined
 340:	6c650071 	ldnp	d17, d0, [x3, #-432]
 344:	6c655f72 	ldnp	d18, d23, [x27, #-432]
 348:	70730031 	adr	x17, e634f <__stack_top+0x4634f>
 34c:	655f7273 	fcmne	p3.h, p4/z, z19.h, z31.h
 350:	6300316c 	.inst	0x6300316c ; undefined
 354:	6370746e 	.inst	0x6370746e ; undefined
 358:	72730074 	.inst	0x72730074 ; undefined
 35c:	74735f63 	.inst	0x74735f63 ; undefined
 360:	006b6361 	.inst	0x006b6361 ; undefined
 364:	65645f6b 	fnmla	z11.h, p7/m, z27.h, z4.h
 368:	0061746c 	.inst	0x0061746c ; undefined
 36c:	6e72656b 	umax	v11.8h, v11.8h, v18.8h
 370:	732f6c65 	.inst	0x732f6c65 ; undefined
 374:	64656863 	.inst	0x64656863 ; undefined
 378:	72656c75 	.inst	0x72656c75 ; undefined
 37c:	7000632e 	adr	x14, fe3 <_start-0x7f01d>
 380:	6d656572 	ldp	d18, d25, [x11, #-432]
 384:	655f7470 	fcmne	p0.h, p5/z, z3.h, z31.h
 388:	6c62616e 	ldnp	d14, d24, [x11, #-480]
 38c:	65640065 	fmla	z5.h, p0/m, z3.h, z4.h
 390:	72007473 	ands	w19, w3, #0x3fffffff
 394:	636f6c65 	.inst	0x636f6c65 ; undefined
 398:	5f657461 	sqshl	d1, d3, #37
 39c:	75657571 	.inst	0x75657571 ; undefined
 3a0:	70730065 	adr	x5, e63af <__stack_top+0x463af>
 3a4:	5f007273 	.inst	0x5f007273 ; undefined
 3a8:	5f757063 	sqdmlsl	s3, h3, v5.h[3]
 3ac:	746e6f63 	.inst	0x746e6f63 ; undefined
 3b0:	00747865 	.inst	0x00747865 ; undefined
 3b4:	72727563 	.inst	0x72727563 ; undefined
 3b8:	00746e65 	.inst	0x00746e65 ; undefined
 3bc:	34327875 	cbz	w21, 652c8 <_start-0x1ad38>
 3c0:	32787500 	.inst	0x32787500 ; undefined
 3c4:	65640036 	fmla	z22.h, p0/m, z1.h, z4.h
 3c8:	0079616c 	.inst	0x0079616c ; undefined
 3cc:	5f6e7572 	sqshl	d18, d11, #46
 3d0:	75657571 	.inst	0x75657571 ; undefined
 3d4:	63730065 	.inst	0x63730065 ; undefined
 3d8:	75646568 	.inst	0x75646568 ; undefined
 3dc:	745f656c 	.inst	0x745f656c ; undefined
 3e0:	006c6961 	.inst	0x006c6961 ; undefined
 3e4:	7478656e 	.inst	0x7478656e ; undefined
 3e8:	646e695f 	.inst	0x646e695f ; undefined
 3ec:	75007865 	.inst	0x75007865 ; undefined
 3f0:	00303178 	.inst	0x00303178 ; NYI
 3f4:	31317875 	adds	w21, w3, #0xc5e
 3f8:	69777300 	ldpsw	x0, x28, [x24, #-72]
 3fc:	5f686374 	.inst	0x5f686374 ; undefined
 400:	61006f74 	.inst	0x61006f74 ; undefined
 404:	00766772 	.inst	0x00766772 ; undefined
 408:	69736e75 	ldpsw	x21, x27, [x19, #-104]
 40c:	64656e67 	.inst	0x64656e67 ; undefined
 410:	61686320 	.inst	0x61686320 ; undefined
 414:	6f630072 	mla	v18.8h, v3.8h, v3.h[2]
 418:	65746e75 	fnmls	z21.h, p3/m, z19.h, z20.h
 41c:	75660072 	.inst	0x75660072 ; undefined
 420:	6900636e 	.inst	0x6900636e ; undefined
 424:	00656c64 	.inst	0x00656c64 ; undefined
 428:	61657263 	.inst	0x61657263 ; undefined
 42c:	745f6574 	.inst	0x745f6574 ; undefined
 430:	61657268 	.inst	0x61657268 ; undefined
 434:	6c630064 	ldnp	d4, d0, [x3, #-464]
 438:	5f656e6f 	.inst	0x5f656e6f ; undefined
 43c:	67616c66 	.inst	0x67616c66 ; undefined
 440:	61740073 	.inst	0x61740073 ; undefined
 444:	705f6b73 	adr	x19, bf1b3 <__stack_top+0x1f1b3>
 448:	65725f74 	fnmla	z20.h, p7/m, z27.h, z18.h
 44c:	75007367 	.inst	0x75007367 ; undefined
 450:	00303278 	.inst	0x00303278 ; NYI
 454:	31327875 	adds	w21, w3, #0xc9e
 458:	32787500 	.inst	0x32787500 ; undefined
 45c:	78750032 	ldaddlh	w21, w18, [x1]
 460:	70003332 	adr	x18, ac7 <_start-0x7f539>
 464:	74617473 	.inst	0x74617473 ; undefined
 468:	64660065 	fmla	z5.h, z3.h, z6.h[4]
 46c:	6261745f 	.inst	0x6261745f ; undefined
 470:	7500656c 	.inst	0x7500656c ; undefined
 474:	00353278 	.inst	0x00353278 ; NYI
 478:	35317875 	cbnz	w21, 63384 <_start-0x1cc7c>
 47c:	32787500 	.inst	0x32787500 ; undefined
 480:	78750037 	ldaddlh	w21, w23, [x1]
 484:	63003832 	.inst	0x63003832 ; undefined
 488:	5f727275 	sqdmlsl	s21, h19, v2.h[3]
 48c:	65646e69 	fnmls	z9.h, p3/m, z19.h, z4.h
 490:	72700078 	.inst	0x72700078 ; undefined
 494:	706d6565 	adr	x5, db143 <__stack_top+0x3b143>
 498:	6c665f74 	ldnp	d20, d23, [x27, #-416]
 49c:	70006761 	adr	x1, 118b <_start-0x7ee75>
 4a0:	6d656572 	ldp	d18, d25, [x11, #-432]
 4a4:	645f7470 	fcmla	z16.h, p5/m, z3.h, z31.h, #270
 4a8:	62617369 	.inst	0x62617369 ; undefined
 4ac:	7300656c 	.inst	0x7300656c ; undefined
 4b0:	64656863 	.inst	0x64656863 ; undefined
 4b4:	72656c75 	.inst	0x72656c75 ; undefined
 4b8:	6d697400 	ldp	d0, d29, [x0, #-368]
 4bc:	745f7265 	.inst	0x745f7265 ; undefined
 4c0:	006b6369 	.inst	0x006b6369 ; undefined
 4c4:	65726874 	fnmls	z20.h, p2/m, z3.h, z18.h
 4c8:	635f6461 	.inst	0x635f6461 ; undefined
 4cc:	746e756f 	.inst	0x746e756f ; undefined
 4d0:	73656400 	.inst	0x73656400 ; undefined
 4d4:	74735f74 	.inst	0x74735f74 ; undefined
 4d8:	006b6361 	.inst	0x006b6361 ; undefined
 4dc:	6f697270 	fcmla	v16.8h, v19.8h, v9.h[1], #270
 4e0:	79746972 	ldrh	w18, [x11, #6708]
 4e4:	31787500 	adds	w0, w8, #0xe1d, lsl #12
 4e8:	78750032 	ldaddlh	w21, w18, [x1]
 4ec:	75003331 	.inst	0x75003331 ; undefined
 4f0:	00343178 	.inst	0x00343178 ; NYI
 4f4:	36317875 	tbz	w21, #6, 3400 <_start-0x7cc00>
 4f8:	31787500 	adds	w0, w8, #0xe1d, lsl #12
 4fc:	78750037 	ldaddlh	w21, w23, [x1]
 500:	75003831 	.inst	0x75003831 ; undefined
 504:	00393178 	.inst	0x00393178 ; NYI
 508:	76657270 	.inst	0x76657270 ; undefined
 50c:	6e696600 	umax	v0.8h, v16.8h, v9.8h
 510:	656e5f64 	fnmla	z4.h, p7/m, z27.h, z14.h
 514:	745f7478 	.inst	0x745f7478 ; undefined
 518:	61657268 	.inst	0x61657268 ; undefined
 51c:	616c0064 	.inst	0x616c0064 ; undefined
 520:	725f3662 	.inst	0x725f3662 ; undefined
 524:	69757165 	ldpsw	x5, x28, [x11, #-88]
 528:	5f646572 	.inst	0x5f646572 ; undefined
 52c:	616c0031 	.inst	0x616c0031 ; undefined
 530:	725f3662 	.inst	0x725f3662 ; undefined
 534:	69757165 	ldpsw	x5, x28, [x11, #-88]
 538:	5f646572 	.inst	0x5f646572 ; undefined
 53c:	6f660032 	mla	v18.8h, v1.8h, v6.h[2]
 540:	6600326f 	.inst	0x6600326f ; undefined
 544:	00336f6f 	.inst	0x00336f6f ; NYI
 548:	74736574 	.inst	0x74736574 ; undefined
 54c:	65740032 	fmla	z18.h, p0/m, z1.h, z20.h
 550:	00337473 	.inst	0x00337473 ; NYI
 554:	74736574 	.inst	0x74736574 ; undefined
 558:	656b0034 	fmla	z20.h, p0/m, z1.h, z11.h
 55c:	6c656e72 	ldnp	d18, d27, [x19, #-432]
 560:	6d65642f 	ldp	d15, d25, [x1, #-432]
 564:	75665f6f 	.inst	0x75665f6f ; undefined
 568:	632e636e 	.inst	0x632e636e ; undefined
 56c:	62616c00 	.inst	0x62616c00 ; undefined
 570:	65725f35 	fnmla	z21.h, p7/m, z25.h, z18.h
 574:	72697571 	.inst	0x72697571 ; undefined
 578:	315f6465 	adds	w5, w3, #0x7d9, lsl #12
 57c:	62616c00 	.inst	0x62616c00 ; undefined
 580:	65725f35 	fnmla	z21.h, p7/m, z25.h, z18.h
 584:	72697571 	.inst	0x72697571 ; undefined
 588:	325f6465 	.inst	0x325f6465 ; undefined
 58c:	62616c00 	.inst	0x62616c00 ; undefined
 590:	65740033 	fmla	z19.h, p0/m, z1.h, z20.h
 594:	00317473 	.inst	0x00317473 ; NYI
 598:	6d616e66 	ldp	d6, d27, [x19, #-496]
 59c:	65670065 	fmla	z5.h, p0/m, z3.h, z7.h
 5a0:	69665f74 	ldpsw	x20, x23, [x27, #-208]
 5a4:	705f656c 	adr	x12, bf253 <__stack_top+0x1f253>
 5a8:	65706f72 	fnmls	z18.h, p3/m, z27.h, z16.h
 5ac:	00797472 	.inst	0x00797472 ; undefined
 5b0:	656c6966 	fnmls	z6.h, p2/m, z11.h, z12.h
 5b4:	7a69735f 	.inst	0x7a69735f ; undefined
 5b8:	73660065 	.inst	0x73660065 ; undefined
 5bc:	00657a69 	.inst	0x00657a69 ; undefined
 5c0:	676f7270 	.inst	0x676f7270 ; undefined
 5c4:	6464615f 	.inst	0x6464615f ; undefined
 5c8:	70630072 	adr	x18, c65d7 <__stack_top+0x265d7>
 5cc:	615f6f69 	.inst	0x615f6f69 ; undefined
 5d0:	65726464 	fnmls	z4.h, p1/m, z3.h, z18.h
 5d4:	625f7373 	.inst	0x625f7373 ; undefined
 5d8:	00657361 	.inst	0x00657361 ; undefined
 5dc:	31746e63 	adds	w3, w19, #0xd1b, lsl #12
 5e0:	746e6300 	.inst	0x746e6300 ; undefined
 5e4:	74730032 	.inst	0x74730032 ; undefined
 5e8:	5f6b6361 	.inst	0x5f6b6361 ; undefined
 5ec:	00706f74 	.inst	0x00706f74 ; undefined
 5f0:	46746567 	.inst	0x46746567 ; undefined
 5f4:	44656c69 	.inst	0x44656c69 ; undefined
 5f8:	00617461 	.inst	0x00617461 ; undefined
 5fc:	72705f66 	.inst	0x72705f66 ; undefined
 600:	7000706f 	adr	x15, 140f <_start-0x7ebf1>
 604:	5f687461 	sqshl	d1, d3, #40
 608:	656d616e 	fnmls	z14.h, p0/m, z11.h, z13.h
 60c:	69706300 	ldpsw	x0, x24, [x24, #-128]
 610:	64615f6f 	.inst	0x64615f6f ; undefined
 614:	73657264 	.inst	0x73657264 ; undefined
 618:	69660073 	ldpsw	x19, x0, [x3, #-208]
 61c:	6d5f656c 	ldp	d12, d25, [x11, #496]
 620:	0065646f 	.inst	0x0065646f ; undefined
 624:	7473696c 	.inst	0x7473696c ; undefined
 628:	6c69665f 	ldnp	d31, d25, [x18, #-368]
 62c:	6f6c0065 	mla	v5.8h, v3.8h, v12.h[2]
 630:	755f6461 	.inst	0x755f6461 ; undefined
 634:	5f726573 	.inst	0x5f726573 ; undefined
 638:	676f7270 	.inst	0x676f7270 ; undefined
 63c:	5f6d6172 	.inst	0x5f6d6172 ; undefined
 640:	68746977 	.inst	0x68746977 ; undefined
 644:	76677241 	.inst	0x76677241 ; undefined
 648:	61646600 	.inst	0x61646600 ; undefined
 64c:	6c006174 	stnp	d20, d24, [x11]
 650:	5f64616f 	.inst	0x5f64616f ; undefined
 654:	72657375 	.inst	0x72657375 ; undefined
 658:	6f72705f 	.inst	0x6f72705f ; undefined
 65c:	6d617267 	ldp	d7, d28, [x19, #-496]
 660:	69736e00 	ldpsw	x0, x27, [x16, #-104]
 664:	6100657a 	.inst	0x6100657a ; undefined
 668:	5f766772 	.inst	0x5f766772 ; undefined
 66c:	73747570 	.inst	0x73747570 ; undefined
 670:	6d616e00 	ldp	d0, d27, [x16, #-496]
 674:	69735f65 	ldpsw	x5, x23, [x27, #-104]
 678:	6700657a 	.inst	0x6700657a ; undefined
 67c:	635f7465 	.inst	0x635f7465 ; undefined
 680:	5f6f6970 	.inst	0x5f6f6970 ; undefined
 684:	65736162 	fnmls	z2.h, p0/m, z11.h, z19.h
 688:	66756200 	.inst	0x66756200 ; undefined
 68c:	00726566 	.inst	0x00726566 ; undefined
 690:	6e72656b 	umax	v11.8h, v11.8h, v18.8h
 694:	632f6c65 	.inst	0x632f6c65 ; undefined
 698:	2e6f6970 	.inst	0x2e6f6970 ; undefined
 69c:	69660063 	ldpsw	x3, x0, [x3, #-208]
 6a0:	645f656c 	fcmla	z12.h, p1/m, z11.h, z31.h, #270
 6a4:	00617461 	.inst	0x00617461 ; undefined
 6a8:	646f6d66 	.inst	0x646f6d66 ; undefined
 6ac:	656b0065 	fmla	z5.h, p0/m, z3.h, z11.h
 6b0:	6c656e72 	ldnp	d18, d27, [x19, #-432]
 6b4:	69616d2f 	ldpsw	x15, x27, [x9, #-248]
 6b8:	00632e6e 	.inst	0x00632e6e ; undefined
 6bc:	706c6568 	adr	x8, d936b <__stack_top+0x3936b>
 6c0:	62657200 	.inst	0x62657200 ; undefined
 6c4:	00746f6f 	.inst	0x00746f6f ; undefined
 6c8:	636e6163 	.inst	0x636e6163 ; undefined
 6cc:	725f6c65 	.inst	0x725f6c65 ; undefined
 6d0:	74657365 	.inst	0x74657365 ; undefined
 6d4:	69616d00 	ldpsw	x0, x27, [x8, #-248]
 6d8:	6577006e 	fmla	z14.h, p0/m, z3.h, z23.h
 6dc:	6d6f636c 	ldp	d12, d24, [x27, #-272]
 6e0:	65680065 	fmla	z5.h, p0/m, z3.h, z8.h
 6e4:	006f6c6c 	.inst	0x006f6c6c ; undefined
 6e8:	6e72656b 	umax	v11.8h, v11.8h, v18.8h
 6ec:	732f6c65 	.inst	0x732f6c65 ; undefined
 6f0:	6e697274 	uabdl2	v20.4s, v19.8h, v9.8h
 6f4:	00632e67 	.inst	0x00632e67 ; undefined
 6f8:	63727473 	.inst	0x63727473 ; undefined
 6fc:	7300706d 	.inst	0x7300706d ; undefined
 700:	655f7379 	fcmne	p9.h, p4/z, z27.h, z31.h
 704:	00636578 	.inst	0x00636578 ; undefined
 708:	5f737973 	sqdmlsl	s19, h11, v3.h[7]
 70c:	74697865 	.inst	0x74697865 ; undefined
 710:	73797300 	.inst	0x73797300 ; undefined
 714:	65706f5f 	fnmls	z31.h, p3/m, z26.h, z16.h
 718:	7973006e 	ldrh	w14, [x3, #6528]
 71c:	61755f73 	.inst	0x61755f73 ; undefined
 720:	725f7472 	.inst	0x725f7472 ; undefined
 724:	00646165 	.inst	0x00646165 ; undefined
 728:	5f737973 	sqdmlsl	s19, h11, v3.h[7]
 72c:	70746567 	adr	x7, e93db <__stack_top+0x493db>
 730:	73006469 	.inst	0x73006469 ; undefined
 734:	635f7379 	.inst	0x635f7379 ; undefined
 738:	5f6c6c61 	.inst	0x5f6c6c61 ; undefined
 73c:	6c626174 	ldnp	d20, d24, [x11, #-480]
 740:	656b0065 	fmla	z5.h, p0/m, z3.h, z11.h
 744:	6c656e72 	ldnp	d18, d27, [x19, #-432]
 748:	7379732f 	.inst	0x7379732f ; undefined
 74c:	7300632e 	.inst	0x7300632e ; undefined
 750:	725f7379 	.inst	0x725f7379 ; undefined
 754:	00646165 	.inst	0x00646165 ; undefined
 758:	5f737973 	sqdmlsl	s19, h11, v3.h[7]
 75c:	74697277 	.inst	0x74697277 ; undefined
 760:	30780065 	adr	x5, f076d <__stack_top+0x5076d>
 764:	00746553 	.inst	0x00746553 ; undefined
 768:	5f737973 	sqdmlsl	s19, h11, v3.h[7]
 76c:	74726175 	.inst	0x74726175 ; undefined
 770:	6972775f 	ldpsw	xzr, x29, [x26, #-112]
 774:	73006574 	.inst	0x73006574 ; undefined
 778:	665f7379 	.inst	0x665f7379 ; undefined
 77c:	006b726f 	.inst	0x006b726f ; undefined
 780:	5f737973 	sqdmlsl	s19, h11, v3.h[7]
 784:	736f6c63 	.inst	0x736f6c63 ; undefined
 788:	61740065 	.inst	0x61740065 ; undefined
 78c:	70006b73 	adr	x19, 14fb <_start-0x7eb05>
 790:	00736552 	.inst	0x00736552 ; undefined
 794:	616f7469 	.inst	0x616f7469 ; undefined
 798:	6e656c00 	umin	v0.8h, v0.8h, v5.8h
 79c:	00687467 	.inst	0x00687467 ; undefined
 7a0:	696f7461 	ldpsw	x1, x29, [x3, #-136]
 7a4:	67696400 	.inst	0x67696400 ; undefined
 7a8:	6b007469 	subs	w9, w3, w0, lsl #29
 7ac:	656e7265 	fnmls	z5.h, p4/m, z19.h, z14.h
 7b0:	74752f6c 	.inst	0x74752f6c ; undefined
 7b4:	2e736c69 	umin	v9.4h, v3.4h, v19.4h
 7b8:	52630063 	.inst	0x52630063 ; undefined
 7bc:	6e007365 	ext	v5.16b, v27.16b, v0.16b, #14
 7c0:	74616765 	.inst	0x74616765 ; undefined
 7c4:	00657669 	.inst	0x00657669 ; undefined
 7c8:	53627573 	.inst	0x53627573 ; undefined
 7cc:	70007274 	adr	x20, 161b <_start-0x7e9e5>
 7d0:	746e6972 	.inst	0x746e6972 ; undefined
 7d4:	706d745f 	adr	xzr, db65f <__stack_top+0x3b65f>
 7d8:	72547366 	.inst	0x72547366 ; undefined
 7dc:	69006565 	.inst	0x69006565 ; undefined
 7e0:	7265746e 	.inst	0x7265746e ; undefined
 7e4:	5f6c616e 	.inst	0x5f6c616e ; undefined
 7e8:	746e6f63 	.inst	0x746e6f63 ; undefined
 7ec:	00746e65 	.inst	0x00746e65 ; undefined
 7f0:	66706d74 	.inst	0x66706d74 ; undefined
 7f4:	65725f73 	fnmla	z19.h, p7/m, z27.h, z18.h
 7f8:	69006461 	.inst	0x69006461 ; undefined
 7fc:	746e6f43 	.inst	0x746e6f43 ; undefined
 800:	00746e65 	.inst	0x00746e65 ; undefined
 804:	66706d74 	.inst	0x66706d74 ; undefined
 808:	6e695f73 	uqrshl	v19.8h, v27.8h, v9.8h
 80c:	63007469 	.inst	0x63007469 ; undefined
 810:	63617061 	.inst	0x63617061 ; undefined
 814:	00797469 	.inst	0x00797469 ; undefined
 818:	5f726964 	.inst	0x5f726964 ; undefined
 81c:	65646f6e 	fnmls	z14.h, p3/m, z27.h, z4.h
 820:	706d7400 	adr	x0, db6a3 <__stack_top+0x3b6a3>
 824:	6c5f7366 	ldnp	d6, d28, [x27, #496]
 828:	756b6f6f 	.inst	0x756b6f6f ; undefined
 82c:	65720070 	fmla	z16.h, p0/m, z3.h, z18.h
 830:	6c5f6461 	ldnp	d1, d25, [x3, #496]
 834:	63006e65 	.inst	0x63006e65 ; undefined
 838:	646c6968 	.inst	0x646c6968 ; undefined
 83c:	006e7265 	.inst	0x006e7265 ; undefined
 840:	706d6f63 	adr	x3, db62f <__stack_top+0x3b62f>
 844:	6e656e6f 	umin	v15.8h, v19.8h, v5.8h
 848:	616e5f74 	.inst	0x616e5f74 ; undefined
 84c:	7400656d 	.inst	0x7400656d ; undefined
 850:	7366706d 	.inst	0x7366706d ; undefined
 854:	6972775f 	ldpsw	xzr, x29, [x26, #-112]
 858:	74006574 	.inst	0x74006574 ; undefined
 85c:	7366706d 	.inst	0x7366706d ; undefined
 860:	6572635f 	fnmls	z31.h, p0/m, z26.h, z18.h
 864:	00657461 	.inst	0x00657461 ; undefined
 868:	6e72656b 	umax	v11.8h, v11.8h, v18.8h
 86c:	742f6c65 	.inst	0x742f6c65 ; undefined
 870:	7366706d 	.inst	0x7366706d ; undefined
 874:	7400632e 	.inst	0x7400632e ; undefined
 878:	7366706d 	.inst	0x7366706d ; undefined
 87c:	7465735f 	.inst	0x7465735f ; undefined
 880:	63007075 	.inst	0x63007075 ; undefined
 884:	646c6968 	.inst	0x646c6968 ; undefined
 888:	6e6f635f 	rsubhn2	v31.8h, v26.4s, v15.4s
 88c:	746e6574 	.inst	0x746e6574 ; undefined
	...

Disassembly of section .comment:

0000000000000000 <.comment>:
   0:	3a434347 	ccmn	w26, w3, #0x7, mi  // mi = first
   4:	62552820 	.inst	0x62552820 ; undefined
   8:	75746e75 	.inst	0x75746e75 ; undefined
   c:	6e694c2f 	uqshl	v15.8h, v1.8h, v9.8h
  10:	206f7261 	.inst	0x206f7261 ; undefined
  14:	2e342e35 	uqsub	v21.8b, v17.8b, v20.8b
  18:	75362d30 	.inst	0x75362d30 ; undefined
  1c:	746e7562 	.inst	0x746e7562 ; undefined
  20:	317e3175 	adds	w21, w11, #0xf8c, lsl #12
  24:	34302e36 	cbz	w22, 605e8 <_start-0x1fa18>
  28:	2029392e 	.inst	0x2029392e ; undefined
  2c:	2e342e35 	uqsub	v21.8b, v17.8b, v20.8b
  30:	30322030 	adr	x16, 64435 <_start-0x1bbcb>
  34:	36303631 	tbz	w17, #6, 6f8 <_start-0x7f908>
  38:	Address 0x0000000000000038 is out of bounds.


Disassembly of section .debug_frame:

0000000000000000 <.debug_frame>:
   0:	0000000c 	.inst	0x0000000c ; undefined
   4:	ffffffff 	.inst	0xffffffff ; undefined
   8:	78040001 	sturh	w1, [x0, #64]
   c:	001f0c1e 	.inst	0x001f0c1e ; undefined
  10:	00000024 	.word	0x00000024
  14:	00000000 	.word	0x00000000
  18:	00080060 	.word	0x00080060
  1c:	00000000 	.word	0x00000000
  20:	000000d4 	.word	0x000000d4
  24:	00000000 	.word	0x00000000
  28:	9d300e41 	.word	0x9d300e41
  2c:	41059e06 	.word	0x41059e06
  30:	de721d0d 	.word	0xde721d0d
  34:	001f0cdd 	.word	0x001f0cdd
  38:	0000002c 	.word	0x0000002c
  3c:	00000000 	.word	0x00000000
  40:	00080134 	.word	0x00080134
  44:	00000000 	.word	0x00000000
  48:	00000114 	.word	0x00000114
  4c:	00000000 	.word	0x00000000
  50:	9d400e41 	.word	0x9d400e41
  54:	41079e08 	.word	0x41079e08
  58:	42021d0d 	.word	0x42021d0d
  5c:	1f0cddde 	.word	0x1f0cddde
	...
  68:	00000024 	.word	0x00000024
  6c:	00000000 	.word	0x00000000
  70:	00080248 	.word	0x00080248
  74:	00000000 	.word	0x00000000
  78:	00000034 	.word	0x00000034
  7c:	00000000 	.word	0x00000000
  80:	9d200e41 	.word	0x9d200e41
  84:	41039e04 	.word	0x41039e04
  88:	de4a1d0d 	.word	0xde4a1d0d
  8c:	001f0cdd 	.word	0x001f0cdd
  90:	00000024 	.word	0x00000024
  94:	00000000 	.word	0x00000000
  98:	0008027c 	.word	0x0008027c
  9c:	00000000 	.word	0x00000000
  a0:	00000038 	.word	0x00000038
  a4:	00000000 	.word	0x00000000
  a8:	9d300e41 	.word	0x9d300e41
  ac:	41059e06 	.word	0x41059e06
  b0:	de4b1d0d 	.word	0xde4b1d0d
  b4:	001f0cdd 	.word	0x001f0cdd
  b8:	00000024 	.word	0x00000024
  bc:	00000000 	.word	0x00000000
  c0:	000802b4 	.word	0x000802b4
  c4:	00000000 	.word	0x00000000
  c8:	00000038 	.word	0x00000038
  cc:	00000000 	.word	0x00000000
  d0:	9d300e41 	.word	0x9d300e41
  d4:	41059e06 	.word	0x41059e06
  d8:	de4b1d0d 	.word	0xde4b1d0d
  dc:	001f0cdd 	.word	0x001f0cdd
  e0:	0000000c 	.word	0x0000000c
  e4:	ffffffff 	.word	0xffffffff
  e8:	78040001 	.word	0x78040001
  ec:	001f0c1e 	.word	0x001f0c1e
  f0:	00000024 	.word	0x00000024
  f4:	000000e0 	.word	0x000000e0
  f8:	000802ec 	.word	0x000802ec
  fc:	00000000 	.word	0x00000000
 100:	00000144 	.word	0x00000144
 104:	00000000 	.word	0x00000000
 108:	93200e41 	.word	0x93200e41
 10c:	d34f0204 	.word	0xd34f0204
 110:	0000000e 	.word	0x0000000e
 114:	00000000 	.word	0x00000000
 118:	0000001c 	.word	0x0000001c
 11c:	000000e0 	.word	0x000000e0
 120:	00080430 	.word	0x00080430
 124:	00000000 	.word	0x00000000
 128:	00000040 	.word	0x00000040
 12c:	00000000 	.word	0x00000000
 130:	4e100e41 	.word	0x4e100e41
 134:	0000000e 	.word	0x0000000e
 138:	0000001c 	.word	0x0000001c
 13c:	000000e0 	.word	0x000000e0
 140:	00080470 	.word	0x00080470
 144:	00000000 	.word	0x00000000
 148:	00000050 	.word	0x00000050
 14c:	00000000 	.word	0x00000000
 150:	52100e41 	.word	0x52100e41
 154:	0000000e 	.word	0x0000000e
 158:	00000024 	.word	0x00000024
 15c:	000000e0 	.word	0x000000e0
 160:	000804c0 	.word	0x000804c0
 164:	00000000 	.word	0x00000000
 168:	00000058 	.word	0x00000058
 16c:	00000000 	.word	0x00000000
 170:	9d200e41 	.word	0x9d200e41
 174:	41039e04 	.word	0x41039e04
 178:	de531d0d 	.word	0xde531d0d
 17c:	001f0cdd 	.word	0x001f0cdd
 180:	00000024 	.word	0x00000024
 184:	000000e0 	.word	0x000000e0
 188:	00080518 	.word	0x00080518
 18c:	00000000 	.word	0x00000000
 190:	0000008c 	.word	0x0000008c
 194:	00000000 	.word	0x00000000
 198:	9d300e41 	.word	0x9d300e41
 19c:	41059e06 	.word	0x41059e06
 1a0:	de601d0d 	.word	0xde601d0d
 1a4:	001f0cdd 	.word	0x001f0cdd
 1a8:	00000024 	.word	0x00000024
 1ac:	000000e0 	.word	0x000000e0
 1b0:	000805a4 	.word	0x000805a4
 1b4:	00000000 	.word	0x00000000
 1b8:	00000030 	.word	0x00000030
 1bc:	00000000 	.word	0x00000000
 1c0:	9d300e41 	.word	0x9d300e41
 1c4:	41059e06 	.word	0x41059e06
 1c8:	de491d0d 	.word	0xde491d0d
 1cc:	001f0cdd 	.word	0x001f0cdd
 1d0:	00000024 	.word	0x00000024
 1d4:	000000e0 	.word	0x000000e0
 1d8:	000805d4 	.word	0x000805d4
 1dc:	00000000 	.word	0x00000000
 1e0:	000000a0 	.word	0x000000a0
 1e4:	00000000 	.word	0x00000000
 1e8:	9d300e41 	.word	0x9d300e41
 1ec:	41059e06 	.word	0x41059e06
 1f0:	de651d0d 	.word	0xde651d0d
 1f4:	001f0cdd 	.word	0x001f0cdd
 1f8:	0000002c 	.word	0x0000002c
 1fc:	000000e0 	.word	0x000000e0
 200:	00080674 	.word	0x00080674
 204:	00000000 	.word	0x00000000
 208:	000000c4 	.word	0x000000c4
 20c:	00000000 	.word	0x00000000
 210:	9d400e41 	.word	0x9d400e41
 214:	41079e08 	.word	0x41079e08
 218:	93411d0d 	.word	0x93411d0d
 21c:	ddde6d06 	.word	0xddde6d06
 220:	001f0cd3 	.word	0x001f0cd3
 224:	00000000 	.word	0x00000000
 228:	00000024 	.word	0x00000024
 22c:	000000e0 	.word	0x000000e0
 230:	00080738 	.word	0x00080738
 234:	00000000 	.word	0x00000000
 238:	000000e4 	.word	0x000000e4
 23c:	00000000 	.word	0x00000000
 240:	9d300e41 	.word	0x9d300e41
 244:	41059e06 	.word	0x41059e06
 248:	de761d0d 	.word	0xde761d0d
 24c:	001f0cdd 	.word	0x001f0cdd
 250:	0000000c 	.word	0x0000000c
 254:	ffffffff 	.word	0xffffffff
 258:	78040001 	.word	0x78040001
 25c:	001f0c1e 	.word	0x001f0c1e
 260:	0000001c 	.word	0x0000001c
 264:	00000250 	.word	0x00000250
 268:	0008081c 	.word	0x0008081c
 26c:	00000000 	.word	0x00000000
 270:	0000002c 	.word	0x0000002c
 274:	00000000 	.word	0x00000000
 278:	49100e41 	.word	0x49100e41
 27c:	0000000e 	.word	0x0000000e
 280:	0000001c 	.word	0x0000001c
 284:	00000250 	.word	0x00000250
 288:	00080848 	.word	0x00080848
 28c:	00000000 	.word	0x00000000
 290:	0000004c 	.word	0x0000004c
 294:	00000000 	.word	0x00000000
 298:	51200e41 	.word	0x51200e41
 29c:	0000000e 	.word	0x0000000e
 2a0:	0000001c 	.word	0x0000001c
 2a4:	00000250 	.word	0x00000250
 2a8:	00080894 	.word	0x00080894
 2ac:	00000000 	.word	0x00000000
 2b0:	0000005c 	.word	0x0000005c
 2b4:	00000000 	.word	0x00000000
 2b8:	55200e41 	.word	0x55200e41
 2bc:	0000000e 	.word	0x0000000e
 2c0:	0000001c 	.word	0x0000001c
 2c4:	00000250 	.word	0x00000250
 2c8:	000808f0 	.word	0x000808f0
 2cc:	00000000 	.word	0x00000000
 2d0:	00000074 	.word	0x00000074
 2d4:	00000000 	.word	0x00000000
 2d8:	5b200e41 	.word	0x5b200e41
 2dc:	0000000e 	.word	0x0000000e
 2e0:	0000002c 	.word	0x0000002c
 2e4:	00000250 	.word	0x00000250
 2e8:	00080964 	.word	0x00080964
 2ec:	00000000 	.word	0x00000000
 2f0:	000001a4 	.word	0x000001a4
 2f4:	00000000 	.word	0x00000000
 2f8:	9d400e41 	.word	0x9d400e41
 2fc:	41079e08 	.word	0x41079e08
 300:	66021d0d 	.word	0x66021d0d
 304:	1f0cddde 	.word	0x1f0cddde
	...
 310:	00000024 	.word	0x00000024
 314:	00000250 	.word	0x00000250
 318:	00080b08 	.word	0x00080b08
 31c:	00000000 	.word	0x00000000
 320:	00000090 	.word	0x00000090
 324:	00000000 	.word	0x00000000
 328:	9d300e41 	.word	0x9d300e41
 32c:	41059e06 	.word	0x41059e06
 330:	de611d0d 	.word	0xde611d0d
 334:	001f0cdd 	.word	0x001f0cdd
 338:	00000024 	.word	0x00000024
 33c:	00000250 	.word	0x00000250
 340:	00080b98 	.word	0x00080b98
 344:	00000000 	.word	0x00000000
 348:	000000d8 	.word	0x000000d8
 34c:	00000000 	.word	0x00000000
 350:	9d400e41 	.word	0x9d400e41
 354:	41079e08 	.word	0x41079e08
 358:	de731d0d 	.word	0xde731d0d
 35c:	001f0cdd 	.word	0x001f0cdd
 360:	00000024 	.word	0x00000024
 364:	00000250 	.word	0x00000250
 368:	00080c70 	.word	0x00080c70
 36c:	00000000 	.word	0x00000000
 370:	000000a8 	.word	0x000000a8
 374:	00000000 	.word	0x00000000
 378:	9d400e41 	.word	0x9d400e41
 37c:	41079e08 	.word	0x41079e08
 380:	de671d0d 	.word	0xde671d0d
 384:	001f0cdd 	.word	0x001f0cdd
 388:	0000002c 	.word	0x0000002c
 38c:	00000250 	.word	0x00000250
 390:	00080d18 	.word	0x00080d18
 394:	00000000 	.word	0x00000000
 398:	00000158 	.word	0x00000158
 39c:	00000000 	.word	0x00000000
 3a0:	9d500e41 	.word	0x9d500e41
 3a4:	41099e0a 	.word	0x41099e0a
 3a8:	53021d0d 	.word	0x53021d0d
 3ac:	1f0cddde 	.word	0x1f0cddde
	...
 3b8:	0000002c 	.word	0x0000002c
 3bc:	00000250 	.word	0x00000250
 3c0:	00080e70 	.word	0x00080e70
 3c4:	00000000 	.word	0x00000000
 3c8:	0000017c 	.word	0x0000017c
 3cc:	00000000 	.word	0x00000000
 3d0:	9d600e41 	.word	0x9d600e41
 3d4:	410b9e0c 	.word	0x410b9e0c
 3d8:	5c021d0d 	.word	0x5c021d0d
 3dc:	1f0cddde 	.word	0x1f0cddde
	...
 3e8:	0000002c 	.word	0x0000002c
 3ec:	00000250 	.word	0x00000250
 3f0:	00080fec 	.word	0x00080fec
 3f4:	00000000 	.word	0x00000000
 3f8:	00000128 	.word	0x00000128
 3fc:	00000000 	.word	0x00000000
 400:	9d500e41 	.word	0x9d500e41
 404:	41099e0a 	.word	0x41099e0a
 408:	47021d0d 	.word	0x47021d0d
 40c:	1f0cddde 	.word	0x1f0cddde
	...
 418:	0000000c 	.word	0x0000000c
 41c:	ffffffff 	.word	0xffffffff
 420:	78040001 	.word	0x78040001
 424:	001f0c1e 	.word	0x001f0c1e
 428:	00000024 	.word	0x00000024
 42c:	00000418 	.word	0x00000418
 430:	00081114 	.word	0x00081114
 434:	00000000 	.word	0x00000000
 438:	0000009c 	.word	0x0000009c
 43c:	00000000 	.word	0x00000000
 440:	9d300e41 	.word	0x9d300e41
 444:	41059e06 	.word	0x41059e06
 448:	00001d0d 	.word	0x00001d0d
 44c:	00000000 	.word	0x00000000
 450:	00000024 	.word	0x00000024
 454:	00000418 	.word	0x00000418
 458:	000811b0 	.word	0x000811b0
 45c:	00000000 	.word	0x00000000
 460:	0000007c 	.word	0x0000007c
 464:	00000000 	.word	0x00000000
 468:	9d300e41 	.word	0x9d300e41
 46c:	41059e06 	.word	0x41059e06
 470:	de5c1d0d 	.word	0xde5c1d0d
 474:	001f0cdd 	.word	0x001f0cdd
 478:	0000000c 	.word	0x0000000c
 47c:	ffffffff 	.word	0xffffffff
 480:	78040001 	.word	0x78040001
 484:	001f0c1e 	.word	0x001f0c1e
 488:	00000014 	.word	0x00000014
 48c:	00000478 	.word	0x00000478
 490:	00081250 	.word	0x00081250
 494:	00000000 	.word	0x00000000
 498:	00000034 	.word	0x00000034
 49c:	00000000 	.word	0x00000000
 4a0:	00000014 	.word	0x00000014
 4a4:	00000478 	.word	0x00000478
 4a8:	00081284 	.word	0x00081284
 4ac:	00000000 	.word	0x00000000
 4b0:	00000034 	.word	0x00000034
 4b4:	00000000 	.word	0x00000000
 4b8:	0000001c 	.word	0x0000001c
 4bc:	00000478 	.word	0x00000478
 4c0:	000812b8 	.word	0x000812b8
 4c4:	00000000 	.word	0x00000000
 4c8:	0000002c 	.word	0x0000002c
 4cc:	00000000 	.word	0x00000000
 4d0:	49100e41 	.word	0x49100e41
 4d4:	0000000e 	.word	0x0000000e
 4d8:	00000024 	.word	0x00000024
 4dc:	00000478 	.word	0x00000478
 4e0:	000812e4 	.word	0x000812e4
 4e4:	00000000 	.word	0x00000000
 4e8:	00000044 	.word	0x00000044
 4ec:	00000000 	.word	0x00000000
 4f0:	9d300e41 	.word	0x9d300e41
 4f4:	41059e06 	.word	0x41059e06
 4f8:	de4e1d0d 	.word	0xde4e1d0d
 4fc:	001f0cdd 	.word	0x001f0cdd
 500:	0000001c 	.word	0x0000001c
 504:	00000478 	.word	0x00000478
 508:	00081328 	.word	0x00081328
 50c:	00000000 	.word	0x00000000
 510:	00000020 	.word	0x00000020
 514:	00000000 	.word	0x00000000
 518:	46200e41 	.word	0x46200e41
 51c:	0000000e 	.word	0x0000000e
 520:	0000002c 	.word	0x0000002c
 524:	00000478 	.word	0x00000478
 528:	00081348 	.word	0x00081348
 52c:	00000000 	.word	0x00000000
 530:	000002d8 	.word	0x000002d8
 534:	00000000 	.word	0x00000000
 538:	9d700e41 	.word	0x9d700e41
 53c:	410d9e0e 	.word	0x410d9e0e
 540:	b3021d0d 	.word	0xb3021d0d
 544:	1f0cddde 	.word	0x1f0cddde
	...
 550:	0000002c 	.word	0x0000002c
 554:	00000478 	.word	0x00000478
 558:	00081620 	.word	0x00081620
 55c:	00000000 	.word	0x00000000
 560:	000001c0 	.word	0x000001c0
 564:	00000000 	.word	0x00000000
 568:	9d300e41 	.word	0x9d300e41
 56c:	41059e06 	.word	0x41059e06
 570:	6d021d0d 	.word	0x6d021d0d
 574:	1f0cddde 	.word	0x1f0cddde
	...
 580:	00000024 	.word	0x00000024
 584:	00000478 	.word	0x00000478
 588:	000817e0 	.word	0x000817e0
 58c:	00000000 	.word	0x00000000
 590:	00000018 	.word	0x00000018
 594:	00000000 	.word	0x00000000
 598:	9d100e41 	.word	0x9d100e41
 59c:	41019e02 	.word	0x41019e02
 5a0:	de431d0d 	.word	0xde431d0d
 5a4:	001f0cdd 	.word	0x001f0cdd
 5a8:	00000024 	.word	0x00000024
 5ac:	00000478 	.word	0x00000478
 5b0:	000817f8 	.word	0x000817f8
 5b4:	00000000 	.word	0x00000000
 5b8:	00000068 	.word	0x00000068
 5bc:	00000000 	.word	0x00000000
 5c0:	9d100e41 	.word	0x9d100e41
 5c4:	41019e02 	.word	0x41019e02
 5c8:	de571d0d 	.word	0xde571d0d
 5cc:	001f0cdd 	.word	0x001f0cdd
 5d0:	00000024 	.word	0x00000024
 5d4:	00000478 	.word	0x00000478
 5d8:	00081860 	.word	0x00081860
 5dc:	00000000 	.word	0x00000000
 5e0:	00000060 	.word	0x00000060
 5e4:	00000000 	.word	0x00000000
 5e8:	9d100e41 	.word	0x9d100e41
 5ec:	41019e02 	.word	0x41019e02
 5f0:	de551d0d 	.word	0xde551d0d
 5f4:	001f0cdd 	.word	0x001f0cdd
 5f8:	0000002c 	.word	0x0000002c
 5fc:	00000478 	.word	0x00000478
 600:	000818c0 	.word	0x000818c0
 604:	00000000 	.word	0x00000000
 608:	0000014c 	.word	0x0000014c
 60c:	00000000 	.word	0x00000000
 610:	9d400e41 	.word	0x9d400e41
 614:	41079e08 	.word	0x41079e08
 618:	50021d0d 	.word	0x50021d0d
 61c:	1f0cddde 	.word	0x1f0cddde
	...
 628:	00000024 	.word	0x00000024
 62c:	00000478 	.word	0x00000478
 630:	00081a0c 	.word	0x00081a0c
 634:	00000000 	.word	0x00000000
 638:	00000114 	.word	0x00000114
 63c:	00000000 	.word	0x00000000
 640:	9d200e41 	.word	0x9d200e41
 644:	41039e04 	.word	0x41039e04
 648:	00001d0d 	.word	0x00001d0d
 64c:	00000000 	.word	0x00000000
 650:	00000024 	.word	0x00000024
 654:	00000478 	.word	0x00000478
 658:	00081b20 	.word	0x00081b20
 65c:	00000000 	.word	0x00000000
 660:	00000054 	.word	0x00000054
 664:	00000000 	.word	0x00000000
 668:	9d300e41 	.word	0x9d300e41
 66c:	41059e06 	.word	0x41059e06
 670:	de521d0d 	.word	0xde521d0d
 674:	001f0cdd 	.word	0x001f0cdd
 678:	0000000c 	.word	0x0000000c
 67c:	ffffffff 	.word	0xffffffff
 680:	78040001 	.word	0x78040001
 684:	001f0c1e 	.word	0x001f0c1e
 688:	00000024 	.word	0x00000024
 68c:	00000678 	.word	0x00000678
 690:	00081b74 	.word	0x00081b74
 694:	00000000 	.word	0x00000000
 698:	00000074 	.word	0x00000074
 69c:	00000000 	.word	0x00000000
 6a0:	9d300e41 	.word	0x9d300e41
 6a4:	41059e06 	.word	0x41059e06
 6a8:	de5a1d0d 	.word	0xde5a1d0d
 6ac:	001f0cdd 	.word	0x001f0cdd
 6b0:	00000024 	.word	0x00000024
 6b4:	00000678 	.word	0x00000678
 6b8:	00081be8 	.word	0x00081be8
 6bc:	00000000 	.word	0x00000000
 6c0:	00000088 	.word	0x00000088
 6c4:	00000000 	.word	0x00000000
 6c8:	9d200e41 	.word	0x9d200e41
 6cc:	41039e04 	.word	0x41039e04
 6d0:	de5f1d0d 	.word	0xde5f1d0d
 6d4:	001f0cdd 	.word	0x001f0cdd
 6d8:	00000024 	.word	0x00000024
 6dc:	00000678 	.word	0x00000678
 6e0:	00081c70 	.word	0x00081c70
 6e4:	00000000 	.word	0x00000000
 6e8:	0000007c 	.word	0x0000007c
 6ec:	00000000 	.word	0x00000000
 6f0:	9d300e41 	.word	0x9d300e41
 6f4:	41059e06 	.word	0x41059e06
 6f8:	00001d0d 	.word	0x00001d0d
 6fc:	00000000 	.word	0x00000000
 700:	00000024 	.word	0x00000024
 704:	00000678 	.word	0x00000678
 708:	00081cec 	.word	0x00081cec
 70c:	00000000 	.word	0x00000000
 710:	0000003c 	.word	0x0000003c
 714:	00000000 	.word	0x00000000
 718:	9d300e41 	.word	0x9d300e41
 71c:	41059e06 	.word	0x41059e06
 720:	de4c1d0d 	.word	0xde4c1d0d
 724:	001f0cdd 	.word	0x001f0cdd
 728:	00000024 	.word	0x00000024
 72c:	00000678 	.word	0x00000678
 730:	00081d28 	.word	0x00081d28
 734:	00000000 	.word	0x00000000
 738:	00000030 	.word	0x00000030
 73c:	00000000 	.word	0x00000000
 740:	9d200e41 	.word	0x9d200e41
 744:	41039e04 	.word	0x41039e04
 748:	00001d0d 	.word	0x00001d0d
 74c:	00000000 	.word	0x00000000
 750:	0000002c 	.word	0x0000002c
 754:	00000678 	.word	0x00000678
 758:	00081d58 	.word	0x00081d58
 75c:	00000000 	.word	0x00000000
 760:	00000138 	.word	0x00000138
 764:	00000000 	.word	0x00000000
 768:	01900e41 	.word	0x01900e41
 76c:	119e129d 	.word	0x119e129d
 770:	021d0d41 	.word	0x021d0d41
 774:	0cddde4b 	.word	0x0cddde4b
 778:	0000001f 	.word	0x0000001f
 77c:	00000000 	.word	0x00000000
 780:	00000024 	.word	0x00000024
 784:	00000678 	.word	0x00000678
 788:	00081e90 	.word	0x00081e90
 78c:	00000000 	.word	0x00000000
 790:	0000003c 	.word	0x0000003c
 794:	00000000 	.word	0x00000000
 798:	9d300e41 	.word	0x9d300e41
 79c:	41059e06 	.word	0x41059e06
 7a0:	de4c1d0d 	.word	0xde4c1d0d
 7a4:	001f0cdd 	.word	0x001f0cdd
 7a8:	00000024 	.word	0x00000024
 7ac:	00000678 	.word	0x00000678
 7b0:	00081ecc 	.word	0x00081ecc
 7b4:	00000000 	.word	0x00000000
 7b8:	0000002c 	.word	0x0000002c
 7bc:	00000000 	.word	0x00000000
 7c0:	9d100e41 	.word	0x9d100e41
 7c4:	41019e02 	.word	0x41019e02
 7c8:	00001d0d 	.word	0x00001d0d
 7cc:	00000000 	.word	0x00000000
 7d0:	0000000c 	.word	0x0000000c
 7d4:	ffffffff 	.word	0xffffffff
 7d8:	78040001 	.word	0x78040001
 7dc:	001f0c1e 	.word	0x001f0c1e
 7e0:	0000002c 	.word	0x0000002c
 7e4:	000007d0 	.word	0x000007d0
 7e8:	0008300c 	.word	0x0008300c
 7ec:	00000000 	.word	0x00000000
 7f0:	00000208 	.word	0x00000208
 7f4:	00000000 	.word	0x00000000
 7f8:	9d500e41 	.word	0x9d500e41
 7fc:	41099e0a 	.word	0x41099e0a
 800:	7f021d0d 	.word	0x7f021d0d
 804:	1f0cddde 	.word	0x1f0cddde
	...
 810:	0000002c 	.word	0x0000002c
 814:	000007d0 	.word	0x000007d0
 818:	00083214 	.word	0x00083214
 81c:	00000000 	.word	0x00000000
 820:	00000170 	.word	0x00000170
 824:	00000000 	.word	0x00000000
 828:	01900e41 	.word	0x01900e41
 82c:	119e129d 	.word	0x119e129d
 830:	021d0d41 	.word	0x021d0d41
 834:	0cddde59 	.word	0x0cddde59
 838:	0000001f 	.word	0x0000001f
 83c:	00000000 	.word	0x00000000
 840:	0000002c 	.word	0x0000002c
 844:	000007d0 	.word	0x000007d0
 848:	00083384 	.word	0x00083384
 84c:	00000000 	.word	0x00000000
 850:	00000210 	.word	0x00000210
 854:	00000000 	.word	0x00000000
 858:	01b00e41 	.word	0x01b00e41
 85c:	159e169d 	.word	0x159e169d
 860:	021d0d41 	.word	0x021d0d41
 864:	0cddde81 	.word	0x0cddde81
 868:	0000001f 	.word	0x0000001f
 86c:	00000000 	.word	0x00000000
 870:	0000001c 	.word	0x0000001c
 874:	000007d0 	.word	0x000007d0
 878:	00083594 	.word	0x00083594
 87c:	00000000 	.word	0x00000000
 880:	00000210 	.word	0x00000210
 884:	00000000 	.word	0x00000000
 888:	02400e41 	.word	0x02400e41
 88c:	00000e82 	.word	0x00000e82
 890:	0000002c 	.word	0x0000002c
 894:	000007d0 	.word	0x000007d0
 898:	000837a4 	.word	0x000837a4
 89c:	00000000 	.word	0x00000000
 8a0:	0000024c 	.word	0x0000024c
 8a4:	00000000 	.word	0x00000000
 8a8:	9d600e41 	.word	0x9d600e41
 8ac:	410b9e0c 	.word	0x410b9e0c
 8b0:	90021d0d 	.word	0x90021d0d
 8b4:	1f0cddde 	.word	0x1f0cddde
	...
 8c0:	00000014 	.word	0x00000014
 8c4:	000007d0 	.word	0x000007d0
 8c8:	000839f0 	.word	0x000839f0
 8cc:	00000000 	.word	0x00000000
 8d0:	00000010 	.word	0x00000010
 8d4:	00000000 	.word	0x00000000
 8d8:	0000002c 	.word	0x0000002c
 8dc:	000007d0 	.word	0x000007d0
 8e0:	00083a00 	.word	0x00083a00
 8e4:	00000000 	.word	0x00000000
 8e8:	000001a8 	.word	0x000001a8
 8ec:	00000000 	.word	0x00000000
 8f0:	9d500e41 	.word	0x9d500e41
 8f4:	41099e0a 	.word	0x41099e0a
 8f8:	67021d0d 	.word	0x67021d0d
 8fc:	1f0cddde 	.word	0x1f0cddde
	...
 908:	0000000c 	.word	0x0000000c
 90c:	ffffffff 	.word	0xffffffff
 910:	78040001 	.word	0x78040001
 914:	001f0c1e 	.word	0x001f0c1e
 918:	00000024 	.word	0x00000024
 91c:	00000908 	.word	0x00000908
 920:	00083ba8 	.word	0x00083ba8
 924:	00000000 	.word	0x00000000
 928:	00000020 	.word	0x00000020
 92c:	00000000 	.word	0x00000000
 930:	9d100e41 	.word	0x9d100e41
 934:	41019e02 	.word	0x41019e02
 938:	de451d0d 	.word	0xde451d0d
 93c:	001f0cdd 	.word	0x001f0cdd
 940:	00000024 	.word	0x00000024
 944:	00000908 	.word	0x00000908
 948:	00083bc8 	.word	0x00083bc8
 94c:	00000000 	.word	0x00000000
 950:	00000044 	.word	0x00000044
 954:	00000000 	.word	0x00000000
 958:	9d100e41 	.word	0x9d100e41
 95c:	41019e02 	.word	0x41019e02
 960:	de4e1d0d 	.word	0xde4e1d0d
 964:	001f0cdd 	.word	0x001f0cdd
 968:	0000001c 	.word	0x0000001c
 96c:	00000908 	.word	0x00000908
 970:	00083c0c 	.word	0x00083c0c
 974:	00000000 	.word	0x00000000
 978:	00000040 	.word	0x00000040
 97c:	00000000 	.word	0x00000000
 980:	4e100e41 	.word	0x4e100e41
 984:	0000000e 	.word	0x0000000e
 988:	00000014 	.word	0x00000014
 98c:	00000908 	.word	0x00000908
 990:	00083c4c 	.word	0x00083c4c
 994:	00000000 	.word	0x00000000
 998:	00000028 	.word	0x00000028
 99c:	00000000 	.word	0x00000000
 9a0:	00000024 	.word	0x00000024
 9a4:	00000908 	.word	0x00000908
 9a8:	00083c74 	.word	0x00083c74
 9ac:	00000000 	.word	0x00000000
 9b0:	00000028 	.word	0x00000028
 9b4:	00000000 	.word	0x00000000
 9b8:	9d100e41 	.word	0x9d100e41
 9bc:	41019e02 	.word	0x41019e02
 9c0:	de471d0d 	.word	0xde471d0d
 9c4:	001f0cdd 	.word	0x001f0cdd
 9c8:	00000024 	.word	0x00000024
 9cc:	00000908 	.word	0x00000908
 9d0:	00083c9c 	.word	0x00083c9c
 9d4:	00000000 	.word	0x00000000
 9d8:	000001ec 	.word	0x000001ec
 9dc:	00000000 	.word	0x00000000
 9e0:	9d400e41 	.word	0x9d400e41
 9e4:	41079e08 	.word	0x41079e08
 9e8:	00001d0d 	.word	0x00001d0d
 9ec:	00000000 	.word	0x00000000
 9f0:	0000000c 	.word	0x0000000c
 9f4:	ffffffff 	.word	0xffffffff
 9f8:	78040001 	.word	0x78040001
 9fc:	001f0c1e 	.word	0x001f0c1e
 a00:	0000001c 	.word	0x0000001c
 a04:	000009f0 	.word	0x000009f0
 a08:	00083e88 	.word	0x00083e88
 a0c:	00000000 	.word	0x00000000
 a10:	00000084 	.word	0x00000084
 a14:	00000000 	.word	0x00000000
 a18:	5f100e41 	.word	0x5f100e41
 a1c:	0000000e 	.word	0x0000000e
 a20:	0000000c 	.word	0x0000000c
 a24:	ffffffff 	.word	0xffffffff
 a28:	78040001 	.word	0x78040001
 a2c:	001f0c1e 	.word	0x001f0c1e
 a30:	0000001c 	.word	0x0000001c
 a34:	00000a20 	.word	0x00000a20
 a38:	00083f0c 	.word	0x00083f0c
 a3c:	00000000 	.word	0x00000000
 a40:	0000002c 	.word	0x0000002c
 a44:	00000000 	.word	0x00000000
 a48:	49200e41 	.word	0x49200e41
 a4c:	0000000e 	.word	0x0000000e
 a50:	00000024 	.word	0x00000024
 a54:	00000a20 	.word	0x00000a20
 a58:	00083f38 	.word	0x00083f38
 a5c:	00000000 	.word	0x00000000
 a60:	0000002c 	.word	0x0000002c
 a64:	00000000 	.word	0x00000000
 a68:	9d100e41 	.word	0x9d100e41
 a6c:	41019e02 	.word	0x41019e02
 a70:	de481d0d 	.word	0xde481d0d
 a74:	001f0cdd 	.word	0x001f0cdd
 a78:	00000024 	.word	0x00000024
 a7c:	00000a20 	.word	0x00000a20
 a80:	00083f64 	.word	0x00083f64
 a84:	00000000 	.word	0x00000000
 a88:	0000002c 	.word	0x0000002c
 a8c:	00000000 	.word	0x00000000
 a90:	9d200e41 	.word	0x9d200e41
 a94:	41039e04 	.word	0x41039e04
 a98:	de481d0d 	.word	0xde481d0d
 a9c:	001f0cdd 	.word	0x001f0cdd
 aa0:	00000024 	.word	0x00000024
 aa4:	00000a20 	.word	0x00000a20
 aa8:	00083f90 	.word	0x00083f90
 aac:	00000000 	.word	0x00000000
 ab0:	00000024 	.word	0x00000024
 ab4:	00000000 	.word	0x00000000
 ab8:	9d200e41 	.word	0x9d200e41
 abc:	41039e04 	.word	0x41039e04
 ac0:	de461d0d 	.word	0xde461d0d
 ac4:	001f0cdd 	.word	0x001f0cdd
 ac8:	00000024 	.word	0x00000024
 acc:	00000a20 	.word	0x00000a20
 ad0:	00083fb4 	.word	0x00083fb4
 ad4:	00000000 	.word	0x00000000
 ad8:	00000028 	.word	0x00000028
 adc:	00000000 	.word	0x00000000
 ae0:	9d200e41 	.word	0x9d200e41
 ae4:	41039e04 	.word	0x41039e04
 ae8:	de471d0d 	.word	0xde471d0d
 aec:	001f0cdd 	.word	0x001f0cdd
 af0:	00000024 	.word	0x00000024
 af4:	00000a20 	.word	0x00000a20
 af8:	00083fdc 	.word	0x00083fdc
 afc:	00000000 	.word	0x00000000
 b00:	00000018 	.word	0x00000018
 b04:	00000000 	.word	0x00000000
 b08:	9d100e41 	.word	0x9d100e41
 b0c:	41019e02 	.word	0x41019e02
 b10:	de431d0d 	.word	0xde431d0d
 b14:	001f0cdd 	.word	0x001f0cdd
 b18:	00000024 	.word	0x00000024
 b1c:	00000a20 	.word	0x00000a20
 b20:	00083ff4 	.word	0x00083ff4
 b24:	00000000 	.word	0x00000000
 b28:	00000030 	.word	0x00000030
 b2c:	00000000 	.word	0x00000000
 b30:	9d100e41 	.word	0x9d100e41
 b34:	41019e02 	.word	0x41019e02
 b38:	de491d0d 	.word	0xde491d0d
 b3c:	001f0cdd 	.word	0x001f0cdd
 b40:	00000024 	.word	0x00000024
 b44:	00000a20 	.word	0x00000a20
 b48:	00084024 	.word	0x00084024
 b4c:	00000000 	.word	0x00000000
 b50:	00000098 	.word	0x00000098
 b54:	00000000 	.word	0x00000000
 b58:	9d300e41 	.word	0x9d300e41
 b5c:	41059e06 	.word	0x41059e06
 b60:	de631d0d 	.word	0xde631d0d
 b64:	001f0cdd 	.word	0x001f0cdd
 b68:	00000024 	.word	0x00000024
 b6c:	00000a20 	.word	0x00000a20
 b70:	000840bc 	.word	0x000840bc
 b74:	00000000 	.word	0x00000000
 b78:	00000064 	.word	0x00000064
 b7c:	00000000 	.word	0x00000000
 b80:	9d300e41 	.word	0x9d300e41
 b84:	41059e06 	.word	0x41059e06
 b88:	de561d0d 	.word	0xde561d0d
 b8c:	001f0cdd 	.word	0x001f0cdd
 b90:	00000024 	.word	0x00000024
 b94:	00000a20 	.word	0x00000a20
 b98:	00084120 	.word	0x00084120
 b9c:	00000000 	.word	0x00000000
 ba0:	00000068 	.word	0x00000068
 ba4:	00000000 	.word	0x00000000
 ba8:	9d300e41 	.word	0x9d300e41
 bac:	41059e06 	.word	0x41059e06
 bb0:	de571d0d 	.word	0xde571d0d
 bb4:	001f0cdd 	.word	0x001f0cdd
 bb8:	00000024 	.word	0x00000024
 bbc:	00000a20 	.word	0x00000a20
 bc0:	00084188 	.word	0x00084188
 bc4:	00000000 	.word	0x00000000
 bc8:	0000006c 	.word	0x0000006c
 bcc:	00000000 	.word	0x00000000
 bd0:	9d300e41 	.word	0x9d300e41
 bd4:	41059e06 	.word	0x41059e06
 bd8:	de581d0d 	.word	0xde581d0d
 bdc:	001f0cdd 	.word	0x001f0cdd
 be0:	0000000c 	.word	0x0000000c
 be4:	ffffffff 	.word	0xffffffff
 be8:	78040001 	.word	0x78040001
 bec:	001f0c1e 	.word	0x001f0c1e
 bf0:	0000001c 	.word	0x0000001c
 bf4:	00000be0 	.word	0x00000be0
 bf8:	000841f4 	.word	0x000841f4
 bfc:	00000000 	.word	0x00000000
 c00:	00000148 	.word	0x00000148
 c04:	00000000 	.word	0x00000000
 c08:	02300e41 	.word	0x02300e41
 c0c:	00000e50 	.word	0x00000e50
 c10:	0000001c 	.word	0x0000001c
 c14:	00000be0 	.word	0x00000be0
 c18:	0008433c 	.word	0x0008433c
 c1c:	00000000 	.word	0x00000000
 c20:	00000194 	.word	0x00000194
 c24:	00000000 	.word	0x00000000
 c28:	02200e41 	.word	0x02200e41
 c2c:	00000e63 	.word	0x00000e63
 c30:	0000001c 	.word	0x0000001c
 c34:	00000be0 	.word	0x00000be0
 c38:	000844d0 	.word	0x000844d0
 c3c:	00000000 	.word	0x00000000
 c40:	00000078 	.word	0x00000078
 c44:	00000000 	.word	0x00000000
 c48:	5c200e41 	.word	0x5c200e41
 c4c:	0000000e 	.word	0x0000000e
 c50:	0000000c 	.word	0x0000000c
 c54:	ffffffff 	.word	0xffffffff
 c58:	78040001 	.word	0x78040001
 c5c:	001f0c1e 	.word	0x001f0c1e
 c60:	00000024 	.word	0x00000024
 c64:	00000c50 	.word	0x00000c50
 c68:	00084548 	.word	0x00084548
 c6c:	00000000 	.word	0x00000000
 c70:	00000100 	.word	0x00000100
 c74:	00000000 	.word	0x00000000
 c78:	9d400e41 	.word	0x9d400e41
 c7c:	41079e08 	.word	0x41079e08
 c80:	de7d1d0d 	.word	0xde7d1d0d
 c84:	001f0cdd 	.word	0x001f0cdd
 c88:	0000002c 	.word	0x0000002c
 c8c:	00000c50 	.word	0x00000c50
 c90:	00084648 	.word	0x00084648
 c94:	00000000 	.word	0x00000000
 c98:	00000180 	.word	0x00000180
 c9c:	00000000 	.word	0x00000000
 ca0:	9d600e41 	.word	0x9d600e41
 ca4:	410b9e0c 	.word	0x410b9e0c
 ca8:	5d021d0d 	.word	0x5d021d0d
 cac:	1f0cddde 	.word	0x1f0cddde
	...
 cb8:	0000001c 	.word	0x0000001c
 cbc:	00000c50 	.word	0x00000c50
 cc0:	000847c8 	.word	0x000847c8
 cc4:	00000000 	.word	0x00000000
 cc8:	000000dc 	.word	0x000000dc
 ccc:	00000000 	.word	0x00000000
 cd0:	75500e41 	.word	0x75500e41
 cd4:	0000000e 	.word	0x0000000e
 cd8:	0000002c 	.word	0x0000002c
 cdc:	00000c50 	.word	0x00000c50
 ce0:	000848a4 	.word	0x000848a4
 ce4:	00000000 	.word	0x00000000
 ce8:	0000015c 	.word	0x0000015c
 cec:	00000000 	.word	0x00000000
 cf0:	9d500e41 	.word	0x9d500e41
 cf4:	41099e0a 	.word	0x41099e0a
 cf8:	54021d0d 	.word	0x54021d0d
 cfc:	1f0cddde 	.word	0x1f0cddde
	...
 d08:	00000024 	.word	0x00000024
 d0c:	00000c50 	.word	0x00000c50
 d10:	00084a00 	.word	0x00084a00
 d14:	00000000 	.word	0x00000000
 d18:	000000d8 	.word	0x000000d8
 d1c:	00000000 	.word	0x00000000
 d20:	9d600e41 	.word	0x9d600e41
 d24:	410b9e0c 	.word	0x410b9e0c
 d28:	de731d0d 	.word	0xde731d0d
 d2c:	001f0cdd 	.word	0x001f0cdd
 d30:	0000002c 	.word	0x0000002c
 d34:	00000c50 	.word	0x00000c50
 d38:	00084ad8 	.word	0x00084ad8
 d3c:	00000000 	.word	0x00000000
 d40:	0000029c 	.word	0x0000029c
 d44:	00000000 	.word	0x00000000
 d48:	9d600e41 	.word	0x9d600e41
 d4c:	410b9e0c 	.word	0x410b9e0c
 d50:	a4021d0d 	.word	0xa4021d0d
 d54:	1f0cddde 	.word	0x1f0cddde
	...
 d60:	00000024 	.word	0x00000024
 d64:	00000c50 	.word	0x00000c50
 d68:	00084d74 	.word	0x00084d74
 d6c:	00000000 	.word	0x00000000
 d70:	00000068 	.word	0x00000068
 d74:	00000000 	.word	0x00000000
 d78:	9d200e41 	.word	0x9d200e41
 d7c:	41039e04 	.word	0x41039e04
 d80:	de571d0d 	.word	0xde571d0d
 d84:	001f0cdd 	.word	0x001f0cdd

Disassembly of section .debug_ranges:

0000000000000000 <.debug_ranges>:
   0:	00000674 	.inst	0x00000674 ; undefined
   4:	00000000 	.inst	0x00000000 ; undefined
   8:	00000790 	.inst	0x00000790 ; undefined
   c:	00000000 	.inst	0x00000000 ; undefined
  10:	000007ac 	.inst	0x000007ac ; undefined
  14:	00000000 	.inst	0x00000000 ; undefined
  18:	000007b0 	.inst	0x000007b0 ; undefined
	...
  30:	00000220 	.inst	0x00000220 ; undefined
  34:	00000000 	.inst	0x00000000 ; undefined
  38:	0000035c 	.inst	0x0000035c ; undefined
  3c:	00000000 	.inst	0x00000000 ; undefined
  40:	00000360 	.inst	0x00000360 ; undefined
  44:	00000000 	.inst	0x00000000 ; undefined
  48:	00000364 	.inst	0x00000364 ; undefined
	...
  60:	000007e4 	.inst	0x000007e4 ; undefined
  64:	00000000 	.inst	0x00000000 ; undefined
  68:	00000950 	.inst	0x00000950 ; undefined
  6c:	00000000 	.inst	0x00000000 ; undefined
  70:	00000958 	.inst	0x00000958 ; undefined
  74:	00000000 	.inst	0x00000000 ; undefined
  78:	00000968 	.inst	0x00000968 ; undefined
	...
  90:	00000950 	.inst	0x00000950 ; undefined
  94:	00000000 	.inst	0x00000000 ; undefined
  98:	00000958 	.inst	0x00000958 ; undefined
  9c:	00000000 	.inst	0x00000000 ; undefined
  a0:	0000096c 	.inst	0x0000096c ; undefined
  a4:	00000000 	.inst	0x00000000 ; undefined
  a8:	000009b0 	.inst	0x000009b0 ; undefined
	...
  c0:	00000688 	.inst	0x00000688 ; undefined
  c4:	00000000 	.inst	0x00000000 ; undefined
  c8:	00000810 	.inst	0x00000810 ; undefined
  cc:	00000000 	.inst	0x00000000 ; undefined
  d0:	00000814 	.inst	0x00000814 ; undefined
  d4:	00000000 	.inst	0x00000000 ; undefined
  d8:	00000818 	.inst	0x00000818 ; undefined
	...
