
build/kernel8.elf:     file format elf64-littleaarch64


Disassembly of section .text:

0000000000080000 <_start>:
   80000:	d53800a0 	mrs	x0, mpidr_el1
   80004:	92400400 	and	x0, x0, #0x3
   80008:	b4000060 	cbz	x0, 80014 <_start+0x14>
   8000c:	d503205f 	wfe
   80010:	17ffffff 	b	8000c <_start+0xc>
   80014:	9400104d 	bl	84148 <from_el2_to_el1>
   80018:	94000bfa 	bl	83000 <set_exception_vector_table>
   8001c:	58000160 	ldr	x0, 80048 <memzero+0x1c>
   80020:	58000181 	ldr	x1, 80050 <memzero+0x24>
   80024:	cb000021 	sub	x1, x1, x0
   80028:	b4000081 	cbz	x1, 80038 <memzero+0xc>

000000000008002c <memzero>:
   8002c:	f800841f 	str	xzr, [x0],#8
   80030:	f1002021 	subs	x1, x1, #0x8
   80034:	54ffffcc 	b.gt	8002c <memzero>
   80038:	58000100 	ldr	x0, 80058 <memzero+0x2c>
   8003c:	9100001f 	mov	sp, x0
   80040:	94000ea9 	bl	83ae4 <main>
   80044:	17fffff2 	b	8000c <_start+0xc>
   80048:	00084940 	.word	0x00084940
   8004c:	00000000 	.word	0x00000000
   80050:	00085060 	.word	0x00085060
   80054:	00000000 	.word	0x00000000
   80058:	000a0000 	.word	0x000a0000
   8005c:	00000000 	.word	0x00000000

0000000000080060 <uart_init>:
   80060:	f81e0ff3 	str	x19, [sp,#-32]!
   80064:	d28a0080 	mov	x0, #0x5004                	// #20484
   80068:	f2a7e420 	movk	x0, #0x3f21, lsl #16
   8006c:	d28a0081 	mov	x1, #0x5004                	// #20484
   80070:	f2a7e421 	movk	x1, #0x3f21, lsl #16
   80074:	b9400021 	ldr	w1, [x1]
   80078:	32000021 	orr	w1, w1, #0x1
   8007c:	b9000001 	str	w1, [x0]
   80080:	d28a0c00 	mov	x0, #0x5060                	// #20576
   80084:	f2a7e420 	movk	x0, #0x3f21, lsl #16
   80088:	b900001f 	str	wzr, [x0]
   8008c:	d28a0980 	mov	x0, #0x504c                	// #20556
   80090:	f2a7e420 	movk	x0, #0x3f21, lsl #16
   80094:	52800061 	mov	w1, #0x3                   	// #3
   80098:	b9000001 	str	w1, [x0]
   8009c:	d28a0a00 	mov	x0, #0x5050                	// #20560
   800a0:	f2a7e420 	movk	x0, #0x3f21, lsl #16
   800a4:	b900001f 	str	wzr, [x0]
   800a8:	d28a0880 	mov	x0, #0x5044                	// #20548
   800ac:	f2a7e420 	movk	x0, #0x3f21, lsl #16
   800b0:	b900001f 	str	wzr, [x0]
   800b4:	d28a0900 	mov	x0, #0x5048                	// #20552
   800b8:	f2a7e420 	movk	x0, #0x3f21, lsl #16
   800bc:	528018c1 	mov	w1, #0xc6                  	// #198
   800c0:	b9000001 	str	w1, [x0]
   800c4:	d28a0d00 	mov	x0, #0x5068                	// #20584
   800c8:	f2a7e420 	movk	x0, #0x3f21, lsl #16
   800cc:	528021c1 	mov	w1, #0x10e                 	// #270
   800d0:	b9000001 	str	w1, [x0]
   800d4:	d2800080 	mov	x0, #0x4                   	// #4
   800d8:	f2a7e400 	movk	x0, #0x3f20, lsl #16
   800dc:	b9400013 	ldr	w19, [x0]
   800e0:	120e6673 	and	w19, w19, #0xfffc0fff
   800e4:	52840000 	mov	w0, #0x2000                	// #8192
   800e8:	72a00020 	movk	w0, #0x1, lsl #16
   800ec:	2a000273 	orr	w19, w19, w0
   800f0:	d2800080 	mov	x0, #0x4                   	// #4
   800f4:	f2a7e400 	movk	x0, #0x3f20, lsl #16
   800f8:	b9000013 	str	w19, [x0]
   800fc:	d2801280 	mov	x0, #0x94                  	// #148
   80100:	f2a7e400 	movk	x0, #0x3f20, lsl #16
   80104:	b900001f 	str	wzr, [x0]
   80108:	528012d3 	mov	w19, #0x96                  	// #150
   8010c:	14000002 	b	80114 <uart_init+0xb4>
   80110:	d503201f 	nop
   80114:	2a1303e0 	mov	w0, w19
   80118:	51000413 	sub	w19, w0, #0x1
   8011c:	7100001f 	cmp	w0, #0x0
   80120:	54ffff81 	b.ne	80110 <uart_init+0xb0>
   80124:	d2801300 	mov	x0, #0x98                  	// #152
   80128:	f2a7e400 	movk	x0, #0x3f20, lsl #16
   8012c:	52980001 	mov	w1, #0xc000                	// #49152
   80130:	b9000001 	str	w1, [x0]
   80134:	528012d3 	mov	w19, #0x96                  	// #150
   80138:	14000002 	b	80140 <uart_init+0xe0>
   8013c:	d503201f 	nop
   80140:	2a1303e0 	mov	w0, w19
   80144:	51000413 	sub	w19, w0, #0x1
   80148:	7100001f 	cmp	w0, #0x0
   8014c:	54ffff81 	b.ne	8013c <uart_init+0xdc>
   80150:	d2801300 	mov	x0, #0x98                  	// #152
   80154:	f2a7e400 	movk	x0, #0x3f20, lsl #16
   80158:	b900001f 	str	wzr, [x0]
   8015c:	d28a0c00 	mov	x0, #0x5060                	// #20576
   80160:	f2a7e420 	movk	x0, #0x3f21, lsl #16
   80164:	52800061 	mov	w1, #0x3                   	// #3
   80168:	b9000001 	str	w1, [x0]
   8016c:	14000005 	b	80180 <uart_init+0x120>
   80170:	d28a0800 	mov	x0, #0x5040                	// #20544
   80174:	f2a7e420 	movk	x0, #0x3f21, lsl #16
   80178:	b9400000 	ldr	w0, [x0]
   8017c:	39007fe0 	strb	w0, [sp,#31]
   80180:	d28a0a80 	mov	x0, #0x5054                	// #20564
   80184:	f2a7e420 	movk	x0, #0x3f21, lsl #16
   80188:	b9400000 	ldr	w0, [x0]
   8018c:	12000000 	and	w0, w0, #0x1
   80190:	7100001f 	cmp	w0, #0x0
   80194:	54fffee1 	b.ne	80170 <uart_init+0x110>
   80198:	d503201f 	nop
   8019c:	f84207f3 	ldr	x19, [sp],#32
   801a0:	d65f03c0 	ret

00000000000801a4 <uart_send>:
   801a4:	d10043ff 	sub	sp, sp, #0x10
   801a8:	b9000fe0 	str	w0, [sp,#12]
   801ac:	d503201f 	nop
   801b0:	d28a0a80 	mov	x0, #0x5054                	// #20564
   801b4:	f2a7e420 	movk	x0, #0x3f21, lsl #16
   801b8:	b9400000 	ldr	w0, [x0]
   801bc:	121b0000 	and	w0, w0, #0x20
   801c0:	7100001f 	cmp	w0, #0x0
   801c4:	54ffff40 	b.eq	801ac <uart_send+0x8>
   801c8:	d28a0800 	mov	x0, #0x5040                	// #20544
   801cc:	f2a7e420 	movk	x0, #0x3f21, lsl #16
   801d0:	b9400fe1 	ldr	w1, [sp,#12]
   801d4:	b9000001 	str	w1, [x0]
   801d8:	d503201f 	nop
   801dc:	910043ff 	add	sp, sp, #0x10
   801e0:	d65f03c0 	ret

00000000000801e4 <uart_getc>:
   801e4:	d10043ff 	sub	sp, sp, #0x10
   801e8:	d503201f 	nop
   801ec:	d28a0a80 	mov	x0, #0x5054                	// #20564
   801f0:	f2a7e420 	movk	x0, #0x3f21, lsl #16
   801f4:	b9400000 	ldr	w0, [x0]
   801f8:	12000000 	and	w0, w0, #0x1
   801fc:	7100001f 	cmp	w0, #0x0
   80200:	54ffff40 	b.eq	801e8 <uart_getc+0x4>
   80204:	d28a0800 	mov	x0, #0x5040                	// #20544
   80208:	f2a7e420 	movk	x0, #0x3f21, lsl #16
   8020c:	b9400000 	ldr	w0, [x0]
   80210:	39003fe0 	strb	w0, [sp,#15]
   80214:	39403fe0 	ldrb	w0, [sp,#15]
   80218:	7100341f 	cmp	w0, #0xd
   8021c:	54000060 	b.eq	80228 <uart_getc+0x44>
   80220:	39403fe0 	ldrb	w0, [sp,#15]
   80224:	14000002 	b	8022c <uart_getc+0x48>
   80228:	52800140 	mov	w0, #0xa                   	// #10
   8022c:	910043ff 	add	sp, sp, #0x10
   80230:	d65f03c0 	ret

0000000000080234 <uart_puts>:
   80234:	a9be7bfd 	stp	x29, x30, [sp,#-32]!
   80238:	910003fd 	mov	x29, sp
   8023c:	f9000fa0 	str	x0, [x29,#24]
   80240:	1400000c 	b	80270 <uart_puts+0x3c>
   80244:	f9400fa0 	ldr	x0, [x29,#24]
   80248:	39400000 	ldrb	w0, [x0]
   8024c:	7100281f 	cmp	w0, #0xa
   80250:	54000061 	b.ne	8025c <uart_puts+0x28>
   80254:	528001a0 	mov	w0, #0xd                   	// #13
   80258:	97ffffd3 	bl	801a4 <uart_send>
   8025c:	f9400fa0 	ldr	x0, [x29,#24]
   80260:	91000401 	add	x1, x0, #0x1
   80264:	f9000fa1 	str	x1, [x29,#24]
   80268:	39400000 	ldrb	w0, [x0]
   8026c:	97ffffce 	bl	801a4 <uart_send>
   80270:	f9400fa0 	ldr	x0, [x29,#24]
   80274:	39400000 	ldrb	w0, [x0]
   80278:	7100001f 	cmp	w0, #0x0
   8027c:	54fffe41 	b.ne	80244 <uart_puts+0x10>
   80280:	d503201f 	nop
   80284:	a8c27bfd 	ldp	x29, x30, [sp],#32
   80288:	d65f03c0 	ret

000000000008028c <uart_read_line>:
   8028c:	a9bd7bfd 	stp	x29, x30, [sp,#-48]!
   80290:	910003fd 	mov	x29, sp
   80294:	f9000fa0 	str	x0, [x29,#24]
   80298:	b90017a1 	str	w1, [x29,#20]
   8029c:	b9002fbf 	str	wzr, [x29,#44]
   802a0:	14000018 	b	80300 <uart_read_line+0x74>
   802a4:	97ffffd0 	bl	801e4 <uart_getc>
   802a8:	3900afa0 	strb	w0, [x29,#43]
   802ac:	b94017a0 	ldr	w0, [x29,#20]
   802b0:	7100001f 	cmp	w0, #0x0
   802b4:	54000060 	b.eq	802c0 <uart_read_line+0x34>
   802b8:	3940afa0 	ldrb	w0, [x29,#43]
   802bc:	97ffffba 	bl	801a4 <uart_send>
   802c0:	3940afa0 	ldrb	w0, [x29,#43]
   802c4:	7100281f 	cmp	w0, #0xa
   802c8:	54000140 	b.eq	802f0 <uart_read_line+0x64>
   802cc:	b9802fa0 	ldrsw	x0, [x29,#44]
   802d0:	f9400fa1 	ldr	x1, [x29,#24]
   802d4:	8b000020 	add	x0, x1, x0
   802d8:	3940afa1 	ldrb	w1, [x29,#43]
   802dc:	39000001 	strb	w1, [x0]
   802e0:	b9402fa0 	ldr	w0, [x29,#44]
   802e4:	11000400 	add	w0, w0, #0x1
   802e8:	b9002fa0 	str	w0, [x29,#44]
   802ec:	14000005 	b	80300 <uart_read_line+0x74>
   802f0:	b9802fa0 	ldrsw	x0, [x29,#44]
   802f4:	f9400fa1 	ldr	x1, [x29,#24]
   802f8:	8b000020 	add	x0, x1, x0
   802fc:	3900001f 	strb	wzr, [x0]
   80300:	3940afa0 	ldrb	w0, [x29,#43]
   80304:	7100281f 	cmp	w0, #0xa
   80308:	54fffce1 	b.ne	802a4 <uart_read_line+0x18>
   8030c:	d503201f 	nop
   80310:	a8c37bfd 	ldp	x29, x30, [sp],#48
   80314:	d65f03c0 	ret

0000000000080318 <uart_puts_int>:
   80318:	a9bd7bfd 	stp	x29, x30, [sp,#-48]!
   8031c:	910003fd 	mov	x29, sp
   80320:	b9001fa0 	str	w0, [x29,#28]
   80324:	f90017bf 	str	xzr, [x29,#40]
   80328:	f94017a1 	ldr	x1, [x29,#40]
   8032c:	b9401fa0 	ldr	w0, [x29,#28]
   80330:	94000f02 	bl	83f38 <itoa>
   80334:	f94017a0 	ldr	x0, [x29,#40]
   80338:	97ffffbf 	bl	80234 <uart_puts>
   8033c:	d503201f 	nop
   80340:	a8c37bfd 	ldp	x29, x30, [sp],#48
   80344:	d65f03c0 	ret

0000000000080348 <uart_puts_hex>:
   80348:	a9bd7bfd 	stp	x29, x30, [sp,#-48]!
   8034c:	910003fd 	mov	x29, sp
   80350:	f9000fa0 	str	x0, [x29,#24]
   80354:	b9002bbf 	str	wzr, [x29,#40]
   80358:	52800380 	mov	w0, #0x1c                  	// #28
   8035c:	b9002fa0 	str	w0, [x29,#44]
   80360:	1400001c 	b	803d0 <uart_puts_hex+0x88>
   80364:	b9402fa0 	ldr	w0, [x29,#44]
   80368:	f9400fa1 	ldr	x1, [x29,#24]
   8036c:	9ac02420 	lsr	x0, x1, x0
   80370:	12000c00 	and	w0, w0, #0xf
   80374:	b90027a0 	str	w0, [x29,#36]
   80378:	b94027a0 	ldr	w0, [x29,#36]
   8037c:	7100001f 	cmp	w0, #0x0
   80380:	54000060 	b.eq	8038c <uart_puts_hex+0x44>
   80384:	52800020 	mov	w0, #0x1                   	// #1
   80388:	b9002ba0 	str	w0, [x29,#40]
   8038c:	b94027a0 	ldr	w0, [x29,#36]
   80390:	7100241f 	cmp	w0, #0x9
   80394:	54000069 	b.ls	803a0 <uart_puts_hex+0x58>
   80398:	528006e0 	mov	w0, #0x37                  	// #55
   8039c:	14000002 	b	803a4 <uart_puts_hex+0x5c>
   803a0:	52800600 	mov	w0, #0x30                  	// #48
   803a4:	b94027a1 	ldr	w1, [x29,#36]
   803a8:	0b000020 	add	w0, w1, w0
   803ac:	b90027a0 	str	w0, [x29,#36]
   803b0:	b9402ba0 	ldr	w0, [x29,#40]
   803b4:	7100001f 	cmp	w0, #0x0
   803b8:	54000060 	b.eq	803c4 <uart_puts_hex+0x7c>
   803bc:	b94027a0 	ldr	w0, [x29,#36]
   803c0:	97ffff79 	bl	801a4 <uart_send>
   803c4:	b9402fa0 	ldr	w0, [x29,#44]
   803c8:	51001000 	sub	w0, w0, #0x4
   803cc:	b9002fa0 	str	w0, [x29,#44]
   803d0:	b9402fa0 	ldr	w0, [x29,#44]
   803d4:	7100001f 	cmp	w0, #0x0
   803d8:	54fffc6a 	b.ge	80364 <uart_puts_hex+0x1c>
   803dc:	d503201f 	nop
   803e0:	a8c37bfd 	ldp	x29, x30, [sp],#48
   803e4:	d65f03c0 	ret

00000000000803e8 <uart_read_buff>:
   803e8:	a9bc7bfd 	stp	x29, x30, [sp,#-64]!
   803ec:	910003fd 	mov	x29, sp
   803f0:	f9000bf3 	str	x19, [sp,#16]
   803f4:	f90017a0 	str	x0, [x29,#40]
   803f8:	b90027a1 	str	w1, [x29,#36]
   803fc:	b90023a2 	str	w2, [x29,#32]
   80400:	b9003fbf 	str	wzr, [x29,#60]
   80404:	b9403fa1 	ldr	w1, [x29,#60]
   80408:	b94027a0 	ldr	w0, [x29,#36]
   8040c:	6b00003f 	cmp	w1, w0
   80410:	540000c1 	b.ne	80428 <uart_read_buff+0x40>
   80414:	90000020 	adrp	x0, 84000 <itoa+0xc8>
   80418:	91074000 	add	x0, x0, #0x1d0
   8041c:	97ffff86 	bl	80234 <uart_puts>
   80420:	b9403fa0 	ldr	w0, [x29,#60]
   80424:	1400001f 	b	804a0 <uart_read_buff+0xb8>
   80428:	b9803fa0 	ldrsw	x0, [x29,#60]
   8042c:	f94017a1 	ldr	x1, [x29,#40]
   80430:	8b000033 	add	x19, x1, x0
   80434:	97ffff6c 	bl	801e4 <uart_getc>
   80438:	53001c00 	uxtb	w0, w0
   8043c:	39000260 	strb	w0, [x19]
   80440:	b94023a0 	ldr	w0, [x29,#32]
   80444:	7100001f 	cmp	w0, #0x0
   80448:	540000c0 	b.eq	80460 <uart_read_buff+0x78>
   8044c:	b9803fa0 	ldrsw	x0, [x29,#60]
   80450:	f94017a1 	ldr	x1, [x29,#40]
   80454:	8b000020 	add	x0, x1, x0
   80458:	39400000 	ldrb	w0, [x0]
   8045c:	97ffff52 	bl	801a4 <uart_send>
   80460:	b9803fa0 	ldrsw	x0, [x29,#60]
   80464:	f94017a1 	ldr	x1, [x29,#40]
   80468:	8b000020 	add	x0, x1, x0
   8046c:	39400000 	ldrb	w0, [x0]
   80470:	7100281f 	cmp	w0, #0xa
   80474:	540000e1 	b.ne	80490 <uart_read_buff+0xa8>
   80478:	b9803fa0 	ldrsw	x0, [x29,#60]
   8047c:	f94017a1 	ldr	x1, [x29,#40]
   80480:	8b000020 	add	x0, x1, x0
   80484:	3900001f 	strb	wzr, [x0]
   80488:	b9403fa0 	ldr	w0, [x29,#60]
   8048c:	14000005 	b	804a0 <uart_read_buff+0xb8>
   80490:	b9403fa0 	ldr	w0, [x29,#60]
   80494:	11000400 	add	w0, w0, #0x1
   80498:	b9003fa0 	str	w0, [x29,#60]
   8049c:	17ffffda 	b	80404 <uart_read_buff+0x1c>
   804a0:	f9400bf3 	ldr	x19, [sp,#16]
   804a4:	a8c47bfd 	ldp	x29, x30, [sp],#64
   804a8:	d65f03c0 	ret

00000000000804ac <uart_getX>:
   804ac:	a9bd7bfd 	stp	x29, x30, [sp,#-48]!
   804b0:	910003fd 	mov	x29, sp
   804b4:	b9001fa0 	str	w0, [x29,#28]
   804b8:	f90017bf 	str	xzr, [x29,#40]
   804bc:	97ffff4a 	bl	801e4 <uart_getc>
   804c0:	39009fa0 	strb	w0, [x29,#39]
   804c4:	b9401fa0 	ldr	w0, [x29,#28]
   804c8:	7100001f 	cmp	w0, #0x0
   804cc:	54000060 	b.eq	804d8 <uart_getX+0x2c>
   804d0:	39409fa0 	ldrb	w0, [x29,#39]
   804d4:	97ffff34 	bl	801a4 <uart_send>
   804d8:	39409fa0 	ldrb	w0, [x29,#39]
   804dc:	7100281f 	cmp	w0, #0xa
   804e0:	54000500 	b.eq	80580 <uart_getX+0xd4>
   804e4:	39409fa0 	ldrb	w0, [x29,#39]
   804e8:	7100bc1f 	cmp	w0, #0x2f
   804ec:	54000169 	b.ls	80518 <uart_getX+0x6c>
   804f0:	39409fa0 	ldrb	w0, [x29,#39]
   804f4:	7100e41f 	cmp	w0, #0x39
   804f8:	54000108 	b.hi	80518 <uart_getX+0x6c>
   804fc:	f94017a0 	ldr	x0, [x29,#40]
   80500:	d37cec01 	lsl	x1, x0, #4
   80504:	39409fa0 	ldrb	w0, [x29,#39]
   80508:	8b000020 	add	x0, x1, x0
   8050c:	d100c000 	sub	x0, x0, #0x30
   80510:	f90017a0 	str	x0, [x29,#40]
   80514:	1400001a 	b	8057c <uart_getX+0xd0>
   80518:	39409fa0 	ldrb	w0, [x29,#39]
   8051c:	7101801f 	cmp	w0, #0x60
   80520:	54000169 	b.ls	8054c <uart_getX+0xa0>
   80524:	39409fa0 	ldrb	w0, [x29,#39]
   80528:	7101981f 	cmp	w0, #0x66
   8052c:	54000108 	b.hi	8054c <uart_getX+0xa0>
   80530:	f94017a0 	ldr	x0, [x29,#40]
   80534:	d37cec01 	lsl	x1, x0, #4
   80538:	39409fa0 	ldrb	w0, [x29,#39]
   8053c:	8b000020 	add	x0, x1, x0
   80540:	d1015c00 	sub	x0, x0, #0x57
   80544:	f90017a0 	str	x0, [x29,#40]
   80548:	1400000d 	b	8057c <uart_getX+0xd0>
   8054c:	39409fa0 	ldrb	w0, [x29,#39]
   80550:	7101001f 	cmp	w0, #0x40
   80554:	54fffb49 	b.ls	804bc <uart_getX+0x10>
   80558:	39409fa0 	ldrb	w0, [x29,#39]
   8055c:	7101181f 	cmp	w0, #0x46
   80560:	54fffae8 	b.hi	804bc <uart_getX+0x10>
   80564:	f94017a0 	ldr	x0, [x29,#40]
   80568:	d37cec01 	lsl	x1, x0, #4
   8056c:	39409fa0 	ldrb	w0, [x29,#39]
   80570:	8b000020 	add	x0, x1, x0
   80574:	d100dc00 	sub	x0, x0, #0x37
   80578:	f90017a0 	str	x0, [x29,#40]
   8057c:	17ffffd0 	b	804bc <uart_getX+0x10>
   80580:	d503201f 	nop
   80584:	f94017a0 	ldr	x0, [x29,#40]
   80588:	a8c37bfd 	ldp	x29, x30, [sp],#48
   8058c:	d65f03c0 	ret

0000000000080590 <node_init>:
   80590:	d10043ff 	sub	sp, sp, #0x10
   80594:	f90007e0 	str	x0, [sp,#8]
   80598:	b90007e1 	str	w1, [sp,#4]
   8059c:	f94007e0 	ldr	x0, [sp,#8]
   805a0:	b94007e1 	ldr	w1, [sp,#4]
   805a4:	b9000001 	str	w1, [x0]
   805a8:	f94007e0 	ldr	x0, [sp,#8]
   805ac:	f900041f 	str	xzr, [x0,#8]
   805b0:	d503201f 	nop
   805b4:	910043ff 	add	sp, sp, #0x10
   805b8:	d65f03c0 	ret

00000000000805bc <list_push>:
   805bc:	d10083ff 	sub	sp, sp, #0x20
   805c0:	f90007e0 	str	x0, [sp,#8]
   805c4:	f90003e1 	str	x1, [sp]
   805c8:	f94007e0 	ldr	x0, [sp,#8]
   805cc:	f9000fe0 	str	x0, [sp,#24]
   805d0:	14000004 	b	805e0 <list_push+0x24>
   805d4:	f9400fe0 	ldr	x0, [sp,#24]
   805d8:	f9400400 	ldr	x0, [x0,#8]
   805dc:	f9000fe0 	str	x0, [sp,#24]
   805e0:	f9400fe0 	ldr	x0, [sp,#24]
   805e4:	f9400400 	ldr	x0, [x0,#8]
   805e8:	f100001f 	cmp	x0, #0x0
   805ec:	54ffff41 	b.ne	805d4 <list_push+0x18>
   805f0:	f9400fe0 	ldr	x0, [sp,#24]
   805f4:	f94003e1 	ldr	x1, [sp]
   805f8:	f9000401 	str	x1, [x0,#8]
   805fc:	d503201f 	nop
   80600:	910083ff 	add	sp, sp, #0x20
   80604:	d65f03c0 	ret

0000000000080608 <list_remove>:
   80608:	d10083ff 	sub	sp, sp, #0x20
   8060c:	f90007e0 	str	x0, [sp,#8]
   80610:	f90003e1 	str	x1, [sp]
   80614:	f94007e0 	ldr	x0, [sp,#8]
   80618:	f9000fe0 	str	x0, [sp,#24]
   8061c:	14000004 	b	8062c <list_remove+0x24>
   80620:	f9400fe0 	ldr	x0, [sp,#24]
   80624:	f9400400 	ldr	x0, [x0,#8]
   80628:	f9000fe0 	str	x0, [sp,#24]
   8062c:	f9400fe0 	ldr	x0, [sp,#24]
   80630:	f9400401 	ldr	x1, [x0,#8]
   80634:	f94003e0 	ldr	x0, [sp]
   80638:	eb00003f 	cmp	x1, x0
   8063c:	54ffff21 	b.ne	80620 <list_remove+0x18>
   80640:	f94003e0 	ldr	x0, [sp]
   80644:	f9400401 	ldr	x1, [x0,#8]
   80648:	f9400fe0 	ldr	x0, [sp,#24]
   8064c:	f9000401 	str	x1, [x0,#8]
   80650:	f94003e0 	ldr	x0, [sp]
   80654:	f900041f 	str	xzr, [x0,#8]
   80658:	d503201f 	nop
   8065c:	910083ff 	add	sp, sp, #0x20
   80660:	d65f03c0 	ret

0000000000080664 <list_remove_index>:
   80664:	d10083ff 	sub	sp, sp, #0x20
   80668:	f90007e0 	str	x0, [sp,#8]
   8066c:	b90007e1 	str	w1, [sp,#4]
   80670:	f94007e0 	ldr	x0, [sp,#8]
   80674:	f9000fe0 	str	x0, [sp,#24]
   80678:	14000004 	b	80688 <list_remove_index+0x24>
   8067c:	f9400fe0 	ldr	x0, [sp,#24]
   80680:	f9400400 	ldr	x0, [x0,#8]
   80684:	f9000fe0 	str	x0, [sp,#24]
   80688:	f9400fe0 	ldr	x0, [sp,#24]
   8068c:	f9400400 	ldr	x0, [x0,#8]
   80690:	b9400001 	ldr	w1, [x0]
   80694:	b94007e0 	ldr	w0, [sp,#4]
   80698:	6b00003f 	cmp	w1, w0
   8069c:	54000080 	b.eq	806ac <list_remove_index+0x48>
   806a0:	f9400fe0 	ldr	x0, [sp,#24]
   806a4:	f100001f 	cmp	x0, #0x0
   806a8:	54fffea1 	b.ne	8067c <list_remove_index+0x18>
   806ac:	f9400fe0 	ldr	x0, [sp,#24]
   806b0:	f9400400 	ldr	x0, [x0,#8]
   806b4:	f9400401 	ldr	x1, [x0,#8]
   806b8:	f9400fe0 	ldr	x0, [sp,#24]
   806bc:	f9000401 	str	x1, [x0,#8]
   806c0:	f9400fe0 	ldr	x0, [sp,#24]
   806c4:	f9400400 	ldr	x0, [x0,#8]
   806c8:	f900041f 	str	xzr, [x0,#8]
   806cc:	d503201f 	nop
   806d0:	910083ff 	add	sp, sp, #0x20
   806d4:	d65f03c0 	ret

00000000000806d8 <print_free_list>:
   806d8:	a9bc7bfd 	stp	x29, x30, [sp,#-64]!
   806dc:	910003fd 	mov	x29, sp
   806e0:	b9003fbf 	str	wzr, [x29,#60]
   806e4:	1400002b 	b	80790 <print_free_list+0xb8>
   806e8:	b9403fa0 	ldr	w0, [x29,#60]
   806ec:	7100001f 	cmp	w0, #0x0
   806f0:	54000081 	b.ne	80700 <print_free_list+0x28>
   806f4:	90000020 	adrp	x0, 84000 <itoa+0xc8>
   806f8:	9107a000 	add	x0, x0, #0x1e8
   806fc:	97fffece 	bl	80234 <uart_puts>
   80700:	90000020 	adrp	x0, 84000 <itoa+0xc8>
   80704:	9107e000 	add	x0, x0, #0x1f8
   80708:	97fffecb 	bl	80234 <uart_puts>
   8070c:	b9403fa0 	ldr	w0, [x29,#60]
   80710:	97ffff02 	bl	80318 <uart_puts_int>
   80714:	90000020 	adrp	x0, 84000 <itoa+0xc8>
   80718:	91080000 	add	x0, x0, #0x200
   8071c:	97fffec6 	bl	80234 <uart_puts>
   80720:	b9803fa0 	ldrsw	x0, [x29,#60]
   80724:	d37cec01 	lsl	x1, x0, #4
   80728:	90000020 	adrp	x0, 84000 <itoa+0xc8>
   8072c:	91250000 	add	x0, x0, #0x940
   80730:	8b000020 	add	x0, x1, x0
   80734:	f9000fa0 	str	x0, [x29,#24]
   80738:	f9400fa0 	ldr	x0, [x29,#24]
   8073c:	f9400400 	ldr	x0, [x0,#8]
   80740:	f9001ba0 	str	x0, [x29,#48]
   80744:	1400000a 	b	8076c <print_free_list+0x94>
   80748:	f9401ba0 	ldr	x0, [x29,#48]
   8074c:	b9400000 	ldr	w0, [x0]
   80750:	97fffef2 	bl	80318 <uart_puts_int>
   80754:	90000020 	adrp	x0, 84000 <itoa+0xc8>
   80758:	91082000 	add	x0, x0, #0x208
   8075c:	97fffeb6 	bl	80234 <uart_puts>
   80760:	f9401ba0 	ldr	x0, [x29,#48]
   80764:	f9400400 	ldr	x0, [x0,#8]
   80768:	f9001ba0 	str	x0, [x29,#48]
   8076c:	f9401ba0 	ldr	x0, [x29,#48]
   80770:	f100001f 	cmp	x0, #0x0
   80774:	54fffea1 	b.ne	80748 <print_free_list+0x70>
   80778:	90000020 	adrp	x0, 84000 <itoa+0xc8>
   8077c:	91084000 	add	x0, x0, #0x210
   80780:	97fffead 	bl	80234 <uart_puts>
   80784:	b9403fa0 	ldr	w0, [x29,#60]
   80788:	11000400 	add	w0, w0, #0x1
   8078c:	b9003fa0 	str	w0, [x29,#60]
   80790:	b9403fa0 	ldr	w0, [x29,#60]
   80794:	71001c1f 	cmp	w0, #0x7
   80798:	54fffa8d 	b.le	806e8 <print_free_list+0x10>
   8079c:	52800100 	mov	w0, #0x8                   	// #8
   807a0:	b9002fa0 	str	w0, [x29,#44]
   807a4:	1400002d 	b	80858 <print_free_list+0x180>
   807a8:	b9402fa0 	ldr	w0, [x29,#44]
   807ac:	7100201f 	cmp	w0, #0x8
   807b0:	54000081 	b.ne	807c0 <print_free_list+0xe8>
   807b4:	90000020 	adrp	x0, 84000 <itoa+0xc8>
   807b8:	91086000 	add	x0, x0, #0x218
   807bc:	97fffe9e 	bl	80234 <uart_puts>
   807c0:	90000020 	adrp	x0, 84000 <itoa+0xc8>
   807c4:	9108a000 	add	x0, x0, #0x228
   807c8:	97fffe9b 	bl	80234 <uart_puts>
   807cc:	b9402fa0 	ldr	w0, [x29,#44]
   807d0:	51002000 	sub	w0, w0, #0x8
   807d4:	97fffed1 	bl	80318 <uart_puts_int>
   807d8:	90000020 	adrp	x0, 84000 <itoa+0xc8>
   807dc:	91080000 	add	x0, x0, #0x200
   807e0:	97fffe95 	bl	80234 <uart_puts>
   807e4:	b9802fa0 	ldrsw	x0, [x29,#44]
   807e8:	d37cec01 	lsl	x1, x0, #4
   807ec:	90000020 	adrp	x0, 84000 <itoa+0xc8>
   807f0:	91250000 	add	x0, x0, #0x940
   807f4:	8b000020 	add	x0, x1, x0
   807f8:	f9000ba0 	str	x0, [x29,#16]
   807fc:	f9400ba0 	ldr	x0, [x29,#16]
   80800:	f9400400 	ldr	x0, [x0,#8]
   80804:	f90013a0 	str	x0, [x29,#32]
   80808:	1400000b 	b	80834 <print_free_list+0x15c>
   8080c:	f94013a0 	ldr	x0, [x29,#32]
   80810:	b9400000 	ldr	w0, [x0]
   80814:	13087c00 	asr	w0, w0, #8
   80818:	97fffec0 	bl	80318 <uart_puts_int>
   8081c:	90000020 	adrp	x0, 84000 <itoa+0xc8>
   80820:	91082000 	add	x0, x0, #0x208
   80824:	97fffe84 	bl	80234 <uart_puts>
   80828:	f94013a0 	ldr	x0, [x29,#32]
   8082c:	f9400400 	ldr	x0, [x0,#8]
   80830:	f90013a0 	str	x0, [x29,#32]
   80834:	f94013a0 	ldr	x0, [x29,#32]
   80838:	f100001f 	cmp	x0, #0x0
   8083c:	54fffe81 	b.ne	8080c <print_free_list+0x134>
   80840:	90000020 	adrp	x0, 84000 <itoa+0xc8>
   80844:	91084000 	add	x0, x0, #0x210
   80848:	97fffe7b 	bl	80234 <uart_puts>
   8084c:	b9402fa0 	ldr	w0, [x29,#44]
   80850:	11000400 	add	w0, w0, #0x1
   80854:	b9002fa0 	str	w0, [x29,#44]
   80858:	b9402fa0 	ldr	w0, [x29,#44]
   8085c:	7100401f 	cmp	w0, #0x10
   80860:	54fffa4d 	b.le	807a8 <print_free_list+0xd0>
   80864:	90000020 	adrp	x0, 84000 <itoa+0xc8>
   80868:	91084000 	add	x0, x0, #0x210
   8086c:	97fffe72 	bl	80234 <uart_puts>
   80870:	d503201f 	nop
   80874:	a8c47bfd 	ldp	x29, x30, [sp],#64
   80878:	d65f03c0 	ret

000000000008087c <init_buckets>:
   8087c:	a9bd7bfd 	stp	x29, x30, [sp,#-48]!
   80880:	910003fd 	mov	x29, sp
   80884:	b9002fbf 	str	wzr, [x29,#44]
   80888:	1400000f 	b	808c4 <init_buckets+0x48>
   8088c:	b9802fa0 	ldrsw	x0, [x29,#44]
   80890:	d37cec01 	lsl	x1, x0, #4
   80894:	90000020 	adrp	x0, 84000 <itoa+0xc8>
   80898:	91250000 	add	x0, x0, #0x940
   8089c:	8b000020 	add	x0, x1, x0
   808a0:	f90013a0 	str	x0, [x29,#32]
   808a4:	f94013a0 	ldr	x0, [x29,#32]
   808a8:	f900041f 	str	xzr, [x0,#8]
   808ac:	f94013a0 	ldr	x0, [x29,#32]
   808b0:	12800001 	mov	w1, #0xffffffff            	// #-1
   808b4:	b9000001 	str	w1, [x0]
   808b8:	b9402fa0 	ldr	w0, [x29,#44]
   808bc:	11000400 	add	w0, w0, #0x1
   808c0:	b9002fa0 	str	w0, [x29,#44]
   808c4:	b9402fa0 	ldr	w0, [x29,#44]
   808c8:	7100401f 	cmp	w0, #0x10
   808cc:	54fffe0d 	b.le	8088c <init_buckets+0x10>
   808d0:	d2a02000 	mov	x0, #0x1000000             	// #16777216
   808d4:	f9000fa0 	str	x0, [x29,#24]
   808d8:	52800001 	mov	w1, #0x0                   	// #0
   808dc:	f9400fa0 	ldr	x0, [x29,#24]
   808e0:	97ffff2c 	bl	80590 <node_init>
   808e4:	90000020 	adrp	x0, 84000 <itoa+0xc8>
   808e8:	91290000 	add	x0, x0, #0xa40
   808ec:	f9400fa1 	ldr	x1, [x29,#24]
   808f0:	97ffff33 	bl	805bc <list_push>
   808f4:	90000020 	adrp	x0, 84000 <itoa+0xc8>
   808f8:	9108c000 	add	x0, x0, #0x230
   808fc:	97fffe4e 	bl	80234 <uart_puts>
   80900:	d503201f 	nop
   80904:	a8c37bfd 	ldp	x29, x30, [sp],#48
   80908:	d65f03c0 	ret

000000000008090c <split_block>:
   8090c:	a9bc7bfd 	stp	x29, x30, [sp,#-64]!
   80910:	910003fd 	mov	x29, sp
   80914:	f9000fa0 	str	x0, [x29,#24]
   80918:	b90017a1 	str	w1, [x29,#20]
   8091c:	b90013a2 	str	w2, [x29,#16]
   80920:	f9400fa0 	ldr	x0, [x29,#24]
   80924:	b9400001 	ldr	w1, [x0]
   80928:	b94013a0 	ldr	w0, [x29,#16]
   8092c:	52800022 	mov	w2, #0x1                   	// #1
   80930:	1ac02040 	lsl	w0, w2, w0
   80934:	0b000020 	add	w0, w1, w0
   80938:	b9003fa0 	str	w0, [x29,#60]
   8093c:	f9400fa0 	ldr	x0, [x29,#24]
   80940:	b9400000 	ldr	w0, [x0]
   80944:	b9003ba0 	str	w0, [x29,#56]
   80948:	14000026 	b	809e0 <split_block+0xd4>
   8094c:	b9403fa1 	ldr	w1, [x29,#60]
   80950:	b9403ba0 	ldr	w0, [x29,#56]
   80954:	4b000020 	sub	w0, w1, w0
   80958:	531f7c01 	lsr	w1, w0, #31
   8095c:	0b000020 	add	w0, w1, w0
   80960:	13017c00 	asr	w0, w0, #1
   80964:	2a0003e1 	mov	w1, w0
   80968:	b9403ba0 	ldr	w0, [x29,#56]
   8096c:	0b000020 	add	w0, w1, w0
   80970:	b90037a0 	str	w0, [x29,#52]
   80974:	b94013a0 	ldr	w0, [x29,#16]
   80978:	51000400 	sub	w0, w0, #0x1
   8097c:	b90013a0 	str	w0, [x29,#16]
   80980:	b94037a0 	ldr	w0, [x29,#52]
   80984:	531c6c00 	lsl	w0, w0, #4
   80988:	93407c01 	sxtw	x1, w0
   8098c:	d2a02000 	mov	x0, #0x1000000             	// #16777216
   80990:	8b000020 	add	x0, x1, x0
   80994:	f90017a0 	str	x0, [x29,#40]
   80998:	b94037a1 	ldr	w1, [x29,#52]
   8099c:	f94017a0 	ldr	x0, [x29,#40]
   809a0:	97fffefc 	bl	80590 <node_init>
   809a4:	b98013a0 	ldrsw	x0, [x29,#16]
   809a8:	d37cec01 	lsl	x1, x0, #4
   809ac:	90000020 	adrp	x0, 84000 <itoa+0xc8>
   809b0:	91250000 	add	x0, x0, #0x940
   809b4:	8b000020 	add	x0, x1, x0
   809b8:	f94017a1 	ldr	x1, [x29,#40]
   809bc:	97ffff00 	bl	805bc <list_push>
   809c0:	b94037a0 	ldr	w0, [x29,#52]
   809c4:	b9003fa0 	str	w0, [x29,#60]
   809c8:	b98013a0 	ldrsw	x0, [x29,#16]
   809cc:	d37cec01 	lsl	x1, x0, #4
   809d0:	90000020 	adrp	x0, 84000 <itoa+0xc8>
   809d4:	91250000 	add	x0, x0, #0x940
   809d8:	8b000020 	add	x0, x1, x0
   809dc:	f90013a0 	str	x0, [x29,#32]
   809e0:	b94013a1 	ldr	w1, [x29,#16]
   809e4:	b94017a0 	ldr	w0, [x29,#20]
   809e8:	6b00003f 	cmp	w1, w0
   809ec:	54fffb0c 	b.gt	8094c <split_block+0x40>
   809f0:	d503201f 	nop
   809f4:	a8c47bfd 	ldp	x29, x30, [sp],#64
   809f8:	d65f03c0 	ret

00000000000809fc <get_page_from_buckets>:
   809fc:	a9bc7bfd 	stp	x29, x30, [sp,#-64]!
   80a00:	910003fd 	mov	x29, sp
   80a04:	f9000fa0 	str	x0, [x29,#24]
   80a08:	b90017a1 	str	w1, [x29,#20]
   80a0c:	b90013a2 	str	w2, [x29,#16]
   80a10:	b94017a0 	ldr	w0, [x29,#20]
   80a14:	b9003fa0 	str	w0, [x29,#60]
   80a18:	14000020 	b	80a98 <get_page_from_buckets+0x9c>
   80a1c:	b9803fa0 	ldrsw	x0, [x29,#60]
   80a20:	d37cec01 	lsl	x1, x0, #4
   80a24:	90000020 	adrp	x0, 84000 <itoa+0xc8>
   80a28:	91250000 	add	x0, x0, #0x940
   80a2c:	8b000020 	add	x0, x1, x0
   80a30:	f9001ba0 	str	x0, [x29,#48]
   80a34:	f9401ba0 	ldr	x0, [x29,#48]
   80a38:	f9400400 	ldr	x0, [x0,#8]
   80a3c:	f90017a0 	str	x0, [x29,#40]
   80a40:	f94017a0 	ldr	x0, [x29,#40]
   80a44:	f100001f 	cmp	x0, #0x0
   80a48:	54000220 	b.eq	80a8c <get_page_from_buckets+0x90>
   80a4c:	f94017a0 	ldr	x0, [x29,#40]
   80a50:	b9400000 	ldr	w0, [x0]
   80a54:	b90027a0 	str	w0, [x29,#36]
   80a58:	f94017a1 	ldr	x1, [x29,#40]
   80a5c:	f9401ba0 	ldr	x0, [x29,#48]
   80a60:	97fffeea 	bl	80608 <list_remove>
   80a64:	b9403fa1 	ldr	w1, [x29,#60]
   80a68:	b94013a0 	ldr	w0, [x29,#16]
   80a6c:	6b00003f 	cmp	w1, w0
   80a70:	540000ad 	b.le	80a84 <get_page_from_buckets+0x88>
   80a74:	b9403fa2 	ldr	w2, [x29,#60]
   80a78:	b94013a1 	ldr	w1, [x29,#16]
   80a7c:	f94017a0 	ldr	x0, [x29,#40]
   80a80:	97ffffa3 	bl	8090c <split_block>
   80a84:	f94017a0 	ldr	x0, [x29,#40]
   80a88:	14000008 	b	80aa8 <get_page_from_buckets+0xac>
   80a8c:	b9403fa0 	ldr	w0, [x29,#60]
   80a90:	11000400 	add	w0, w0, #0x1
   80a94:	b9003fa0 	str	w0, [x29,#60]
   80a98:	b9403fa0 	ldr	w0, [x29,#60]
   80a9c:	7100401f 	cmp	w0, #0x10
   80aa0:	54fffbed 	b.le	80a1c <get_page_from_buckets+0x20>
   80aa4:	d2800000 	mov	x0, #0x0                   	// #0
   80aa8:	a8c47bfd 	ldp	x29, x30, [sp],#64
   80aac:	d65f03c0 	ret

0000000000080ab0 <kmalloc>:
   80ab0:	a9bb7bfd 	stp	x29, x30, [sp,#-80]!
   80ab4:	910003fd 	mov	x29, sp
   80ab8:	b9001fa0 	str	w0, [x29,#28]
   80abc:	b9401fa0 	ldr	w0, [x29,#28]
   80ac0:	53047c00 	lsr	w0, w0, #4
   80ac4:	b90043a0 	str	w0, [x29,#64]
   80ac8:	b9401fa0 	ldr	w0, [x29,#28]
   80acc:	12000c00 	and	w0, w0, #0xf
   80ad0:	7100001f 	cmp	w0, #0x0
   80ad4:	1a9f07e0 	cset	w0, ne
   80ad8:	53001c00 	uxtb	w0, w0
   80adc:	2a0003e1 	mov	w1, w0
   80ae0:	b94043a0 	ldr	w0, [x29,#64]
   80ae4:	0b010000 	add	w0, w0, w1
   80ae8:	b90043a0 	str	w0, [x29,#64]
   80aec:	b9401fa0 	ldr	w0, [x29,#28]
   80af0:	530c7c00 	lsr	w0, w0, #12
   80af4:	b9003fa0 	str	w0, [x29,#60]
   80af8:	b9401fa0 	ldr	w0, [x29,#28]
   80afc:	12002c00 	and	w0, w0, #0xfff
   80b00:	7100001f 	cmp	w0, #0x0
   80b04:	1a9f07e0 	cset	w0, ne
   80b08:	53001c00 	uxtb	w0, w0
   80b0c:	2a0003e1 	mov	w1, w0
   80b10:	b9403fa0 	ldr	w0, [x29,#60]
   80b14:	0b010000 	add	w0, w0, w1
   80b18:	b9003fa0 	str	w0, [x29,#60]
   80b1c:	b9004fbf 	str	wzr, [x29,#76]
   80b20:	b94043a0 	ldr	w0, [x29,#64]
   80b24:	b9004ba0 	str	w0, [x29,#72]
   80b28:	14000007 	b	80b44 <kmalloc+0x94>
   80b2c:	b9404fa0 	ldr	w0, [x29,#76]
   80b30:	11000400 	add	w0, w0, #0x1
   80b34:	b9004fa0 	str	w0, [x29,#76]
   80b38:	b9404ba0 	ldr	w0, [x29,#72]
   80b3c:	13017c00 	asr	w0, w0, #1
   80b40:	b9004ba0 	str	w0, [x29,#72]
   80b44:	b9404ba0 	ldr	w0, [x29,#72]
   80b48:	13017c00 	asr	w0, w0, #1
   80b4c:	7100001f 	cmp	w0, #0x0
   80b50:	54fffee1 	b.ne	80b2c <kmalloc+0x7c>
   80b54:	b94043a0 	ldr	w0, [x29,#64]
   80b58:	51000401 	sub	w1, w0, #0x1
   80b5c:	b94043a0 	ldr	w0, [x29,#64]
   80b60:	0a000020 	and	w0, w1, w0
   80b64:	7100001f 	cmp	w0, #0x0
   80b68:	54000060 	b.eq	80b74 <kmalloc+0xc4>
   80b6c:	52800020 	mov	w0, #0x1                   	// #1
   80b70:	14000002 	b	80b78 <kmalloc+0xc8>
   80b74:	52800000 	mov	w0, #0x0                   	// #0
   80b78:	b9404fa1 	ldr	w1, [x29,#76]
   80b7c:	0b000020 	add	w0, w1, w0
   80b80:	b9004fa0 	str	w0, [x29,#76]
   80b84:	b9404fa0 	ldr	w0, [x29,#76]
   80b88:	b90047a0 	str	w0, [x29,#68]
   80b8c:	14000016 	b	80be4 <kmalloc+0x134>
   80b90:	b98047a0 	ldrsw	x0, [x29,#68]
   80b94:	d37cec01 	lsl	x1, x0, #4
   80b98:	90000020 	adrp	x0, 84000 <itoa+0xc8>
   80b9c:	91250000 	add	x0, x0, #0x940
   80ba0:	8b000020 	add	x0, x1, x0
   80ba4:	f9001ba0 	str	x0, [x29,#48]
   80ba8:	f9401ba0 	ldr	x0, [x29,#48]
   80bac:	f9400400 	ldr	x0, [x0,#8]
   80bb0:	f100001f 	cmp	x0, #0x0
   80bb4:	54000120 	b.eq	80bd8 <kmalloc+0x128>
   80bb8:	b9404fa0 	ldr	w0, [x29,#76]
   80bbc:	2a0003e2 	mov	w2, w0
   80bc0:	b94047a1 	ldr	w1, [x29,#68]
   80bc4:	f9401ba0 	ldr	x0, [x29,#48]
   80bc8:	97ffff8d 	bl	809fc <get_page_from_buckets>
   80bcc:	f90017a0 	str	x0, [x29,#40]
   80bd0:	f94017a0 	ldr	x0, [x29,#40]
   80bd4:	1400000b 	b	80c00 <kmalloc+0x150>
   80bd8:	b94047a0 	ldr	w0, [x29,#68]
   80bdc:	11000400 	add	w0, w0, #0x1
   80be0:	b90047a0 	str	w0, [x29,#68]
   80be4:	b94047a0 	ldr	w0, [x29,#68]
   80be8:	7100401f 	cmp	w0, #0x10
   80bec:	54fffd2d 	b.le	80b90 <kmalloc+0xe0>
   80bf0:	90000020 	adrp	x0, 84000 <itoa+0xc8>
   80bf4:	91094000 	add	x0, x0, #0x250
   80bf8:	97fffd8f 	bl	80234 <uart_puts>
   80bfc:	d2800000 	mov	x0, #0x0                   	// #0
   80c00:	a8c57bfd 	ldp	x29, x30, [sp],#80
   80c04:	d65f03c0 	ret

0000000000080c08 <merge_block>:
   80c08:	a9ba7bfd 	stp	x29, x30, [sp,#-96]!
   80c0c:	910003fd 	mov	x29, sp
   80c10:	b9001fa0 	str	w0, [x29,#28]
   80c14:	b9001ba1 	str	w1, [x29,#24]
   80c18:	b9005fbf 	str	wzr, [x29,#92]
   80c1c:	b9401ba0 	ldr	w0, [x29,#24]
   80c20:	b9005ba0 	str	w0, [x29,#88]
   80c24:	1400004b 	b	80d50 <merge_block+0x148>
   80c28:	b90057bf 	str	wzr, [x29,#84]
   80c2c:	b9405ba0 	ldr	w0, [x29,#88]
   80c30:	52800021 	mov	w1, #0x1                   	// #1
   80c34:	1ac02021 	lsl	w1, w1, w0
   80c38:	b9401fa0 	ldr	w0, [x29,#28]
   80c3c:	4a000020 	eor	w0, w1, w0
   80c40:	b90047a0 	str	w0, [x29,#68]
   80c44:	b9805ba0 	ldrsw	x0, [x29,#88]
   80c48:	d37cec01 	lsl	x1, x0, #4
   80c4c:	90000020 	adrp	x0, 84000 <itoa+0xc8>
   80c50:	91250000 	add	x0, x0, #0x940
   80c54:	8b000020 	add	x0, x1, x0
   80c58:	f9001fa0 	str	x0, [x29,#56]
   80c5c:	f9401fa0 	ldr	x0, [x29,#56]
   80c60:	f9400400 	ldr	x0, [x0,#8]
   80c64:	f90027a0 	str	x0, [x29,#72]
   80c68:	14000031 	b	80d2c <merge_block+0x124>
   80c6c:	f94027a0 	ldr	x0, [x29,#72]
   80c70:	b9400001 	ldr	w1, [x0]
   80c74:	b94047a0 	ldr	w0, [x29,#68]
   80c78:	6b00003f 	cmp	w1, w0
   80c7c:	54000521 	b.ne	80d20 <merge_block+0x118>
   80c80:	52800020 	mov	w0, #0x1                   	// #1
   80c84:	b90057a0 	str	w0, [x29,#84]
   80c88:	52800020 	mov	w0, #0x1                   	// #1
   80c8c:	b9005fa0 	str	w0, [x29,#92]
   80c90:	f94027a1 	ldr	x1, [x29,#72]
   80c94:	f9401fa0 	ldr	x0, [x29,#56]
   80c98:	97fffe5c 	bl	80608 <list_remove>
   80c9c:	b9405ba1 	ldr	w1, [x29,#88]
   80ca0:	b9401ba0 	ldr	w0, [x29,#24]
   80ca4:	6b00003f 	cmp	w1, w0
   80ca8:	5400008d 	b.le	80cb8 <merge_block+0xb0>
   80cac:	b9401fa1 	ldr	w1, [x29,#28]
   80cb0:	f9401fa0 	ldr	x0, [x29,#56]
   80cb4:	97fffe6c 	bl	80664 <list_remove_index>
   80cb8:	b9401fa0 	ldr	w0, [x29,#28]
   80cbc:	b94047a2 	ldr	w2, [x29,#68]
   80cc0:	b94047a1 	ldr	w1, [x29,#68]
   80cc4:	6b00005f 	cmp	w2, w0
   80cc8:	1a80d020 	csel	w0, w1, w0, le
   80ccc:	b9001fa0 	str	w0, [x29,#28]
   80cd0:	b9405ba0 	ldr	w0, [x29,#88]
   80cd4:	11000400 	add	w0, w0, #0x1
   80cd8:	93407c00 	sxtw	x0, w0
   80cdc:	d37cec01 	lsl	x1, x0, #4
   80ce0:	90000020 	adrp	x0, 84000 <itoa+0xc8>
   80ce4:	91250000 	add	x0, x0, #0x940
   80ce8:	8b000020 	add	x0, x1, x0
   80cec:	f9001ba0 	str	x0, [x29,#48]
   80cf0:	b9401fa0 	ldr	w0, [x29,#28]
   80cf4:	531c6c00 	lsl	w0, w0, #4
   80cf8:	93407c01 	sxtw	x1, w0
   80cfc:	d2a02000 	mov	x0, #0x1000000             	// #16777216
   80d00:	8b000020 	add	x0, x1, x0
   80d04:	f90017a0 	str	x0, [x29,#40]
   80d08:	b9401fa1 	ldr	w1, [x29,#28]
   80d0c:	f94017a0 	ldr	x0, [x29,#40]
   80d10:	97fffe20 	bl	80590 <node_init>
   80d14:	f94017a1 	ldr	x1, [x29,#40]
   80d18:	f9401ba0 	ldr	x0, [x29,#48]
   80d1c:	97fffe28 	bl	805bc <list_push>
   80d20:	f94027a0 	ldr	x0, [x29,#72]
   80d24:	f9400400 	ldr	x0, [x0,#8]
   80d28:	f90027a0 	str	x0, [x29,#72]
   80d2c:	f94027a0 	ldr	x0, [x29,#72]
   80d30:	f100001f 	cmp	x0, #0x0
   80d34:	54fff9c1 	b.ne	80c6c <merge_block+0x64>
   80d38:	b94057a0 	ldr	w0, [x29,#84]
   80d3c:	7100001f 	cmp	w0, #0x0
   80d40:	54000100 	b.eq	80d60 <merge_block+0x158>
   80d44:	b9405ba0 	ldr	w0, [x29,#88]
   80d48:	11000400 	add	w0, w0, #0x1
   80d4c:	b9005ba0 	str	w0, [x29,#88]
   80d50:	b9405ba0 	ldr	w0, [x29,#88]
   80d54:	71003c1f 	cmp	w0, #0xf
   80d58:	54fff68d 	b.le	80c28 <merge_block+0x20>
   80d5c:	14000002 	b	80d64 <merge_block+0x15c>
   80d60:	d503201f 	nop
   80d64:	b9405fa0 	ldr	w0, [x29,#92]
   80d68:	7100001f 	cmp	w0, #0x0
   80d6c:	54000060 	b.eq	80d78 <merge_block+0x170>
   80d70:	b9401fa0 	ldr	w0, [x29,#28]
   80d74:	14000002 	b	80d7c <merge_block+0x174>
   80d78:	12800000 	mov	w0, #0xffffffff            	// #-1
   80d7c:	a8c67bfd 	ldp	x29, x30, [sp],#96
   80d80:	d65f03c0 	ret

0000000000080d84 <free_page>:
   80d84:	a9bb7bfd 	stp	x29, x30, [sp,#-80]!
   80d88:	910003fd 	mov	x29, sp
   80d8c:	f9000fa0 	str	x0, [x29,#24]
   80d90:	b90017a1 	str	w1, [x29,#20]
   80d94:	f9400fa1 	ldr	x1, [x29,#24]
   80d98:	b2689fe0 	mov	x0, #0xffffffffff000000    	// #-16777216
   80d9c:	8b000020 	add	x0, x1, x0
   80da0:	d344fc00 	lsr	x0, x0, #4
   80da4:	b90047a0 	str	w0, [x29,#68]
   80da8:	b94017a0 	ldr	w0, [x29,#20]
   80dac:	53047c00 	lsr	w0, w0, #4
   80db0:	b90043a0 	str	w0, [x29,#64]
   80db4:	b94017a0 	ldr	w0, [x29,#20]
   80db8:	12000c00 	and	w0, w0, #0xf
   80dbc:	7100001f 	cmp	w0, #0x0
   80dc0:	1a9f07e0 	cset	w0, ne
   80dc4:	53001c00 	uxtb	w0, w0
   80dc8:	2a0003e1 	mov	w1, w0
   80dcc:	b94043a0 	ldr	w0, [x29,#64]
   80dd0:	0b010000 	add	w0, w0, w1
   80dd4:	b90043a0 	str	w0, [x29,#64]
   80dd8:	b9004fbf 	str	wzr, [x29,#76]
   80ddc:	b94043a0 	ldr	w0, [x29,#64]
   80de0:	b9004ba0 	str	w0, [x29,#72]
   80de4:	14000007 	b	80e00 <free_page+0x7c>
   80de8:	b9404fa0 	ldr	w0, [x29,#76]
   80dec:	11000400 	add	w0, w0, #0x1
   80df0:	b9004fa0 	str	w0, [x29,#76]
   80df4:	b9404ba0 	ldr	w0, [x29,#72]
   80df8:	13017c00 	asr	w0, w0, #1
   80dfc:	b9004ba0 	str	w0, [x29,#72]
   80e00:	b9404ba0 	ldr	w0, [x29,#72]
   80e04:	13017c00 	asr	w0, w0, #1
   80e08:	7100001f 	cmp	w0, #0x0
   80e0c:	54fffee1 	b.ne	80de8 <free_page+0x64>
   80e10:	b94043a0 	ldr	w0, [x29,#64]
   80e14:	51000401 	sub	w1, w0, #0x1
   80e18:	b94043a0 	ldr	w0, [x29,#64]
   80e1c:	0a000020 	and	w0, w1, w0
   80e20:	7100001f 	cmp	w0, #0x0
   80e24:	54000060 	b.eq	80e30 <free_page+0xac>
   80e28:	52800020 	mov	w0, #0x1                   	// #1
   80e2c:	14000002 	b	80e34 <free_page+0xb0>
   80e30:	52800000 	mov	w0, #0x0                   	// #0
   80e34:	b9404fa1 	ldr	w1, [x29,#76]
   80e38:	0b000020 	add	w0, w1, w0
   80e3c:	b9004fa0 	str	w0, [x29,#76]
   80e40:	12800000 	mov	w0, #0xffffffff            	// #-1
   80e44:	b9003fa0 	str	w0, [x29,#60]
   80e48:	b9404fa0 	ldr	w0, [x29,#76]
   80e4c:	2a0003e1 	mov	w1, w0
   80e50:	b94047a0 	ldr	w0, [x29,#68]
   80e54:	97ffff6d 	bl	80c08 <merge_block>
   80e58:	b9003fa0 	str	w0, [x29,#60]
   80e5c:	b9403fa0 	ldr	w0, [x29,#60]
   80e60:	3100041f 	cmn	w0, #0x1
   80e64:	540001e1 	b.ne	80ea0 <free_page+0x11c>
   80e68:	b9404fa0 	ldr	w0, [x29,#76]
   80e6c:	d37cec01 	lsl	x1, x0, #4
   80e70:	90000020 	adrp	x0, 84000 <itoa+0xc8>
   80e74:	91250000 	add	x0, x0, #0x940
   80e78:	8b000020 	add	x0, x1, x0
   80e7c:	f9001ba0 	str	x0, [x29,#48]
   80e80:	f9400fa0 	ldr	x0, [x29,#24]
   80e84:	f90017a0 	str	x0, [x29,#40]
   80e88:	b94047a1 	ldr	w1, [x29,#68]
   80e8c:	f94017a0 	ldr	x0, [x29,#40]
   80e90:	97fffdc0 	bl	80590 <node_init>
   80e94:	f94017a1 	ldr	x1, [x29,#40]
   80e98:	f9401ba0 	ldr	x0, [x29,#48]
   80e9c:	97fffdc8 	bl	805bc <list_push>
   80ea0:	d503201f 	nop
   80ea4:	a8c57bfd 	ldp	x29, x30, [sp],#80
   80ea8:	d65f03c0 	ret

0000000000080eac <dumpState>:
   80eac:	a9bd7bfd 	stp	x29, x30, [sp,#-48]!
   80eb0:	910003fd 	mov	x29, sp
   80eb4:	d5384000 	mrs	x0, spsr_el1
   80eb8:	f90017a0 	str	x0, [x29,#40]
   80ebc:	d5384020 	mrs	x0, elr_el1
   80ec0:	f90013a0 	str	x0, [x29,#32]
   80ec4:	d5385200 	mrs	x0, esr_el1
   80ec8:	f9000fa0 	str	x0, [x29,#24]
   80ecc:	90000020 	adrp	x0, 84000 <itoa+0xc8>
   80ed0:	9109a000 	add	x0, x0, #0x268
   80ed4:	97fffcd8 	bl	80234 <uart_puts>
   80ed8:	90000020 	adrp	x0, 84000 <itoa+0xc8>
   80edc:	910a0000 	add	x0, x0, #0x280
   80ee0:	97fffcd5 	bl	80234 <uart_puts>
   80ee4:	f94017a0 	ldr	x0, [x29,#40]
   80ee8:	97fffd18 	bl	80348 <uart_puts_hex>
   80eec:	90000020 	adrp	x0, 84000 <itoa+0xc8>
   80ef0:	910a4000 	add	x0, x0, #0x290
   80ef4:	97fffcd0 	bl	80234 <uart_puts>
   80ef8:	90000020 	adrp	x0, 84000 <itoa+0xc8>
   80efc:	910a6000 	add	x0, x0, #0x298
   80f00:	97fffccd 	bl	80234 <uart_puts>
   80f04:	f94013a0 	ldr	x0, [x29,#32]
   80f08:	97fffd10 	bl	80348 <uart_puts_hex>
   80f0c:	90000020 	adrp	x0, 84000 <itoa+0xc8>
   80f10:	910a4000 	add	x0, x0, #0x290
   80f14:	97fffcc8 	bl	80234 <uart_puts>
   80f18:	90000020 	adrp	x0, 84000 <itoa+0xc8>
   80f1c:	910aa000 	add	x0, x0, #0x2a8
   80f20:	97fffcc5 	bl	80234 <uart_puts>
   80f24:	f9400fa0 	ldr	x0, [x29,#24]
   80f28:	97fffd08 	bl	80348 <uart_puts_hex>
   80f2c:	90000020 	adrp	x0, 84000 <itoa+0xc8>
   80f30:	910a4000 	add	x0, x0, #0x290
   80f34:	97fffcc0 	bl	80234 <uart_puts>
   80f38:	90000020 	adrp	x0, 84000 <itoa+0xc8>
   80f3c:	910ae000 	add	x0, x0, #0x2b8
   80f40:	97fffcbd 	bl	80234 <uart_puts>
   80f44:	14000000 	b	80f44 <dumpState+0x98>

0000000000080f48 <dumpTimer>:
   80f48:	a9bd7bfd 	stp	x29, x30, [sp,#-48]!
   80f4c:	910003fd 	mov	x29, sp
   80f50:	d53be000 	mrs	x0, cntfrq_el0
   80f54:	8b000000 	add	x0, x0, x0
   80f58:	d51be200 	msr	cntp_tval_el0, x0
   80f5c:	94000139 	bl	81440 <timer_tick>
   80f60:	d53be020 	mrs	x0, cntpct_el0
   80f64:	f90017a0 	str	x0, [x29,#40]
   80f68:	d53be000 	mrs	x0, cntfrq_el0
   80f6c:	f90013a0 	str	x0, [x29,#32]
   80f70:	f94017a1 	ldr	x1, [x29,#40]
   80f74:	f94013a0 	ldr	x0, [x29,#32]
   80f78:	9ac00820 	udiv	x0, x1, x0
   80f7c:	f9000fa0 	str	x0, [x29,#24]
   80f80:	90000020 	adrp	x0, 84000 <itoa+0xc8>
   80f84:	910b4000 	add	x0, x0, #0x2d0
   80f88:	97fffcab 	bl	80234 <uart_puts>
   80f8c:	90000020 	adrp	x0, 84000 <itoa+0xc8>
   80f90:	910ba000 	add	x0, x0, #0x2e8
   80f94:	97fffca8 	bl	80234 <uart_puts>
   80f98:	f9400fa0 	ldr	x0, [x29,#24]
   80f9c:	97fffcdf 	bl	80318 <uart_puts_int>
   80fa0:	90000020 	adrp	x0, 84000 <itoa+0xc8>
   80fa4:	910a4000 	add	x0, x0, #0x290
   80fa8:	97fffca3 	bl	80234 <uart_puts>
   80fac:	90000020 	adrp	x0, 84000 <itoa+0xc8>
   80fb0:	910be000 	add	x0, x0, #0x2f8
   80fb4:	97fffca0 	bl	80234 <uart_puts>
   80fb8:	d503201f 	nop
   80fbc:	a8c37bfd 	ldp	x29, x30, [sp],#48
   80fc0:	d65f03c0 	ret

0000000000080fc4 <memcpy>:
   80fc4:	f8408423 	ldr	x3, [x1],#8
   80fc8:	f8008403 	str	x3, [x0],#8
   80fcc:	f1002042 	subs	x2, x2, #0x8
   80fd0:	54ffffac 	b.gt	80fc4 <memcpy>
   80fd4:	d65f03c0 	ret

0000000000080fd8 <memzero>:
   80fd8:	f800841f 	str	xzr, [x0],#8
   80fdc:	f1002021 	subs	x1, x1, #0x8
   80fe0:	54ffffcc 	b.gt	80fd8 <memzero>
   80fe4:	d65f03c0 	ret

0000000000080fe8 <preempt_disable>:
   80fe8:	90000020 	adrp	x0, 84000 <itoa+0xc8>
   80fec:	91314000 	add	x0, x0, #0xc50
   80ff0:	f9400000 	ldr	x0, [x0]
   80ff4:	f100001f 	cmp	x0, #0x0
   80ff8:	540000e0 	b.eq	81014 <preempt_disable+0x2c>
   80ffc:	90000020 	adrp	x0, 84000 <itoa+0xc8>
   81000:	91314000 	add	x0, x0, #0xc50
   81004:	f9400000 	ldr	x0, [x0]
   81008:	b9407801 	ldr	w1, [x0,#120]
   8100c:	11000421 	add	w1, w1, #0x1
   81010:	b9007801 	str	w1, [x0,#120]
   81014:	d503201f 	nop
   81018:	d65f03c0 	ret

000000000008101c <preempt_enable>:
   8101c:	f0000000 	adrp	x0, 84000 <itoa+0xc8>
   81020:	91314000 	add	x0, x0, #0xc50
   81024:	f9400000 	ldr	x0, [x0]
   81028:	f100001f 	cmp	x0, #0x0
   8102c:	540000e0 	b.eq	81048 <preempt_enable+0x2c>
   81030:	f0000000 	adrp	x0, 84000 <itoa+0xc8>
   81034:	91314000 	add	x0, x0, #0xc50
   81038:	f9400000 	ldr	x0, [x0]
   8103c:	b9407801 	ldr	w1, [x0,#120]
   81040:	51000421 	sub	w1, w1, #0x1
   81044:	b9007801 	str	w1, [x0,#120]
   81048:	d503201f 	nop
   8104c:	d65f03c0 	ret

0000000000081050 <delay>:
   81050:	d10043ff 	sub	sp, sp, #0x10
   81054:	f90007e0 	str	x0, [sp,#8]
   81058:	f94007e0 	ldr	x0, [sp,#8]
   8105c:	d1000400 	sub	x0, x0, #0x1
   81060:	f90007e0 	str	x0, [sp,#8]
   81064:	f94007e0 	ldr	x0, [sp,#8]
   81068:	f100001f 	cmp	x0, #0x0
   8106c:	54ffff61 	b.ne	81058 <delay+0x8>
   81070:	d503201f 	nop
   81074:	910043ff 	add	sp, sp, #0x10
   81078:	d65f03c0 	ret

000000000008107c <switch_to>:
   8107c:	a9bd7bfd 	stp	x29, x30, [sp,#-48]!
   81080:	910003fd 	mov	x29, sp
   81084:	f9000fa0 	str	x0, [x29,#24]
   81088:	f0000000 	adrp	x0, 84000 <itoa+0xc8>
   8108c:	91314000 	add	x0, x0, #0xc50
   81090:	f9400000 	ldr	x0, [x0]
   81094:	f90017a0 	str	x0, [x29,#40]
   81098:	f0000000 	adrp	x0, 84000 <itoa+0xc8>
   8109c:	91314000 	add	x0, x0, #0xc50
   810a0:	f9400fa1 	ldr	x1, [x29,#24]
   810a4:	f9000001 	str	x1, [x0]
   810a8:	f9400fa1 	ldr	x1, [x29,#24]
   810ac:	f94017a0 	ldr	x0, [x29,#40]
   810b0:	9400022d 	bl	81964 <cpu_switch_to>
   810b4:	d503201f 	nop
   810b8:	a8c37bfd 	ldp	x29, x30, [sp],#48
   810bc:	d65f03c0 	ret

00000000000810c0 <task_pt_regs>:
   810c0:	d10083ff 	sub	sp, sp, #0x20
   810c4:	f90007e0 	str	x0, [sp,#8]
   810c8:	f94007e0 	ldr	x0, [sp,#8]
   810cc:	913bc000 	add	x0, x0, #0xef0
   810d0:	f9000fe0 	str	x0, [sp,#24]
   810d4:	f9400fe0 	ldr	x0, [sp,#24]
   810d8:	910083ff 	add	sp, sp, #0x20
   810dc:	d65f03c0 	ret

00000000000810e0 <create_thread>:
   810e0:	a9bb7bfd 	stp	x29, x30, [sp,#-80]!
   810e4:	910003fd 	mov	x29, sp
   810e8:	f90017a0 	str	x0, [x29,#40]
   810ec:	f90013a1 	str	x1, [x29,#32]
   810f0:	f9000fa2 	str	x2, [x29,#24]
   810f4:	f9000ba3 	str	x3, [x29,#16]
   810f8:	97ffffbc 	bl	80fe8 <preempt_disable>
   810fc:	52820000 	mov	w0, #0x1000                	// #4096
   81100:	97fffe6c 	bl	80ab0 <kmalloc>
   81104:	f90027a0 	str	x0, [x29,#72]
   81108:	f94027a0 	ldr	x0, [x29,#72]
   8110c:	f100001f 	cmp	x0, #0x0
   81110:	54000061 	b.ne	8111c <create_thread+0x3c>
   81114:	52800020 	mov	w0, #0x1                   	// #1
   81118:	14000052 	b	81260 <create_thread+0x180>
   8111c:	f94027a0 	ldr	x0, [x29,#72]
   81120:	97ffffe8 	bl	810c0 <task_pt_regs>
   81124:	f90023a0 	str	x0, [x29,#64]
   81128:	f94023a0 	ldr	x0, [x29,#64]
   8112c:	d2802201 	mov	x1, #0x110                 	// #272
   81130:	97ffffaa 	bl	80fd8 <memzero>
   81134:	f94027a0 	ldr	x0, [x29,#72]
   81138:	d2800d01 	mov	x1, #0x68                  	// #104
   8113c:	97ffffa7 	bl	80fd8 <memzero>
   81140:	f94017a0 	ldr	x0, [x29,#40]
   81144:	927f0000 	and	x0, x0, #0x2
   81148:	f100001f 	cmp	x0, #0x0
   8114c:	54000100 	b.eq	8116c <create_thread+0x8c>
   81150:	f94027a0 	ldr	x0, [x29,#72]
   81154:	f94013a1 	ldr	x1, [x29,#32]
   81158:	f9000001 	str	x1, [x0]
   8115c:	f94027a0 	ldr	x0, [x29,#72]
   81160:	f9400fa1 	ldr	x1, [x29,#24]
   81164:	f9000401 	str	x1, [x0,#8]
   81168:	14000017 	b	811c4 <create_thread+0xe4>
   8116c:	f0000000 	adrp	x0, 84000 <itoa+0xc8>
   81170:	91314000 	add	x0, x0, #0xc50
   81174:	f9400000 	ldr	x0, [x0]
   81178:	97ffffd2 	bl	810c0 <task_pt_regs>
   8117c:	f9001fa0 	str	x0, [x29,#56]
   81180:	f94023a1 	ldr	x1, [x29,#64]
   81184:	f9401fa0 	ldr	x0, [x29,#56]
   81188:	aa0103e3 	mov	x3, x1
   8118c:	aa0003e1 	mov	x1, x0
   81190:	d2802200 	mov	x0, #0x110                 	// #272
   81194:	aa0003e2 	mov	x2, x0
   81198:	aa0303e0 	mov	x0, x3
   8119c:	97ffff8a 	bl	80fc4 <memcpy>
   811a0:	f94023a0 	ldr	x0, [x29,#64]
   811a4:	f900001f 	str	xzr, [x0]
   811a8:	f9400ba0 	ldr	x0, [x29,#16]
   811ac:	91400401 	add	x1, x0, #0x1, lsl #12
   811b0:	f94023a0 	ldr	x0, [x29,#64]
   811b4:	f9007c01 	str	x1, [x0,#248]
   811b8:	f94027a0 	ldr	x0, [x29,#72]
   811bc:	f9400ba1 	ldr	x1, [x29,#16]
   811c0:	f9004001 	str	x1, [x0,#128]
   811c4:	f0000000 	adrp	x0, 84000 <itoa+0xc8>
   811c8:	91316000 	add	x0, x0, #0xc58
   811cc:	b9400000 	ldr	w0, [x0]
   811d0:	11000402 	add	w2, w0, #0x1
   811d4:	f0000001 	adrp	x1, 84000 <itoa+0xc8>
   811d8:	91316021 	add	x1, x1, #0xc58
   811dc:	b9000022 	str	w2, [x1]
   811e0:	2a0003e1 	mov	w1, w0
   811e4:	f94027a0 	ldr	x0, [x29,#72]
   811e8:	b9006801 	str	w1, [x0,#104]
   811ec:	f94027a0 	ldr	x0, [x29,#72]
   811f0:	52800021 	mov	w1, #0x1                   	// #1
   811f4:	b9006c01 	str	w1, [x0,#108]
   811f8:	f94027a0 	ldr	x0, [x29,#72]
   811fc:	52800041 	mov	w1, #0x2                   	// #2
   81200:	b9007001 	str	w1, [x0,#112]
   81204:	f94027a0 	ldr	x0, [x29,#72]
   81208:	b9407001 	ldr	w1, [x0,#112]
   8120c:	f94027a0 	ldr	x0, [x29,#72]
   81210:	b9007401 	str	w1, [x0,#116]
   81214:	f94027a0 	ldr	x0, [x29,#72]
   81218:	91424000 	add	x0, x0, #0x90, lsl #12
   8121c:	aa0003e1 	mov	x1, x0
   81220:	f94027a0 	ldr	x0, [x29,#72]
   81224:	f9003001 	str	x1, [x0,#96]
   81228:	d0000000 	adrp	x0, 83000 <set_exception_vector_table>
   8122c:	91379001 	add	x1, x0, #0xde4
   81230:	f94027a0 	ldr	x0, [x29,#72]
   81234:	f9002c01 	str	x1, [x0,#88]
   81238:	f94027a0 	ldr	x0, [x29,#72]
   8123c:	b9406801 	ldr	w1, [x0,#104]
   81240:	f0000000 	adrp	x0, 84000 <itoa+0xc8>
   81244:	91294000 	add	x0, x0, #0xa50
   81248:	2a0103e1 	mov	w1, w1
   8124c:	f94027a2 	ldr	x2, [x29,#72]
   81250:	f8217802 	str	x2, [x0,x1,lsl #3]
   81254:	97ffff72 	bl	8101c <preempt_enable>
   81258:	f94027a0 	ldr	x0, [x29,#72]
   8125c:	b9406800 	ldr	w0, [x0,#104]
   81260:	a8c57bfd 	ldp	x29, x30, [sp],#80
   81264:	d65f03c0 	ret

0000000000081268 <scheduler>:
   81268:	a9bd7bfd 	stp	x29, x30, [sp,#-48]!
   8126c:	910003fd 	mov	x29, sp
   81270:	97ffff5e 	bl	80fe8 <preempt_disable>
   81274:	f9000fbf 	str	xzr, [x29,#24]
   81278:	b9002bbf 	str	wzr, [x29,#40]
   8127c:	f0000000 	adrp	x0, 84000 <itoa+0xc8>
   81280:	91314000 	add	x0, x0, #0xc50
   81284:	f9400000 	ldr	x0, [x0]
   81288:	f100001f 	cmp	x0, #0x0
   8128c:	54000200 	b.eq	812cc <scheduler+0x64>
   81290:	f0000000 	adrp	x0, 84000 <itoa+0xc8>
   81294:	91314000 	add	x0, x0, #0xc50
   81298:	f9400000 	ldr	x0, [x0]
   8129c:	b9406c00 	ldr	w0, [x0,#108]
   812a0:	7100081f 	cmp	w0, #0x2
   812a4:	54000140 	b.eq	812cc <scheduler+0x64>
   812a8:	f0000000 	adrp	x0, 84000 <itoa+0xc8>
   812ac:	91314000 	add	x0, x0, #0xc50
   812b0:	f9400000 	ldr	x0, [x0]
   812b4:	52800021 	mov	w1, #0x1                   	// #1
   812b8:	b9006c01 	str	w1, [x0,#108]
   812bc:	f0000000 	adrp	x0, 84000 <itoa+0xc8>
   812c0:	91314000 	add	x0, x0, #0xc50
   812c4:	f9400000 	ldr	x0, [x0]
   812c8:	b900741f 	str	wzr, [x0,#116]
   812cc:	b90027bf 	str	wzr, [x29,#36]
   812d0:	14000022 	b	81358 <scheduler+0xf0>
   812d4:	f0000000 	adrp	x0, 84000 <itoa+0xc8>
   812d8:	9124c000 	add	x0, x0, #0x930
   812dc:	b9400000 	ldr	w0, [x0]
   812e0:	11000400 	add	w0, w0, #0x1
   812e4:	f0000001 	adrp	x1, 84000 <itoa+0xc8>
   812e8:	91316021 	add	x1, x1, #0xc58
   812ec:	b9400021 	ldr	w1, [x1]
   812f0:	1ac10c02 	sdiv	w2, w0, w1
   812f4:	1b017c41 	mul	w1, w2, w1
   812f8:	4b010000 	sub	w0, w0, w1
   812fc:	b9002fa0 	str	w0, [x29,#44]
   81300:	f0000000 	adrp	x0, 84000 <itoa+0xc8>
   81304:	91294000 	add	x0, x0, #0xa50
   81308:	b9802fa1 	ldrsw	x1, [x29,#44]
   8130c:	f8617800 	ldr	x0, [x0,x1,lsl #3]
   81310:	f9000fa0 	str	x0, [x29,#24]
   81314:	f9400fa0 	ldr	x0, [x29,#24]
   81318:	f100001f 	cmp	x0, #0x0
   8131c:	54000180 	b.eq	8134c <scheduler+0xe4>
   81320:	f9400fa0 	ldr	x0, [x29,#24]
   81324:	b9406c00 	ldr	w0, [x0,#108]
   81328:	7100041f 	cmp	w0, #0x1
   8132c:	54000101 	b.ne	8134c <scheduler+0xe4>
   81330:	f9400fa0 	ldr	x0, [x29,#24]
   81334:	b9407400 	ldr	w0, [x0,#116]
   81338:	7100001f 	cmp	w0, #0x0
   8133c:	54000080 	b.eq	8134c <scheduler+0xe4>
   81340:	52800020 	mov	w0, #0x1                   	// #1
   81344:	b9002ba0 	str	w0, [x29,#40]
   81348:	1400000a 	b	81370 <scheduler+0x108>
   8134c:	b94027a0 	ldr	w0, [x29,#36]
   81350:	11000400 	add	w0, w0, #0x1
   81354:	b90027a0 	str	w0, [x29,#36]
   81358:	f0000000 	adrp	x0, 84000 <itoa+0xc8>
   8135c:	91316000 	add	x0, x0, #0xc58
   81360:	b9400000 	ldr	w0, [x0]
   81364:	b94027a1 	ldr	w1, [x29,#36]
   81368:	6b00003f 	cmp	w1, w0
   8136c:	54fffb4b 	b.lt	812d4 <scheduler+0x6c>
   81370:	b9402ba0 	ldr	w0, [x29,#40]
   81374:	7100001f 	cmp	w0, #0x0
   81378:	54000341 	b.ne	813e0 <scheduler+0x178>
   8137c:	b90023bf 	str	wzr, [x29,#32]
   81380:	14000011 	b	813c4 <scheduler+0x15c>
   81384:	f0000000 	adrp	x0, 84000 <itoa+0xc8>
   81388:	91294000 	add	x0, x0, #0xa50
   8138c:	b98023a1 	ldrsw	x1, [x29,#32]
   81390:	f8617800 	ldr	x0, [x0,x1,lsl #3]
   81394:	f9000fa0 	str	x0, [x29,#24]
   81398:	f9400fa0 	ldr	x0, [x29,#24]
   8139c:	b9407400 	ldr	w0, [x0,#116]
   813a0:	53017c01 	lsr	w1, w0, #1
   813a4:	f9400fa0 	ldr	x0, [x29,#24]
   813a8:	b9407000 	ldr	w0, [x0,#112]
   813ac:	0b000021 	add	w1, w1, w0
   813b0:	f9400fa0 	ldr	x0, [x29,#24]
   813b4:	b9007401 	str	w1, [x0,#116]
   813b8:	b94023a0 	ldr	w0, [x29,#32]
   813bc:	11000400 	add	w0, w0, #0x1
   813c0:	b90023a0 	str	w0, [x29,#32]
   813c4:	f0000000 	adrp	x0, 84000 <itoa+0xc8>
   813c8:	91316000 	add	x0, x0, #0xc58
   813cc:	b9400000 	ldr	w0, [x0]
   813d0:	b94023a1 	ldr	w1, [x29,#32]
   813d4:	6b00003f 	cmp	w1, w0
   813d8:	54fffd6b 	b.lt	81384 <scheduler+0x11c>
   813dc:	b9002fbf 	str	wzr, [x29,#44]
   813e0:	f0000000 	adrp	x0, 84000 <itoa+0xc8>
   813e4:	91294000 	add	x0, x0, #0xa50
   813e8:	b9802fa1 	ldrsw	x1, [x29,#44]
   813ec:	f8617800 	ldr	x0, [x0,x1,lsl #3]
   813f0:	b9006c1f 	str	wzr, [x0,#108]
   813f4:	f0000000 	adrp	x0, 84000 <itoa+0xc8>
   813f8:	9124c000 	add	x0, x0, #0x930
   813fc:	b9402fa1 	ldr	w1, [x29,#44]
   81400:	b9000001 	str	w1, [x0]
   81404:	f0000000 	adrp	x0, 84000 <itoa+0xc8>
   81408:	91294000 	add	x0, x0, #0xa50
   8140c:	b9802fa1 	ldrsw	x1, [x29,#44]
   81410:	f8617800 	ldr	x0, [x0,x1,lsl #3]
   81414:	97ffff1a 	bl	8107c <switch_to>
   81418:	97ffff01 	bl	8101c <preempt_enable>
   8141c:	d503201f 	nop
   81420:	a8c37bfd 	ldp	x29, x30, [sp],#48
   81424:	d65f03c0 	ret

0000000000081428 <schedule_tail>:
   81428:	a9bf7bfd 	stp	x29, x30, [sp,#-16]!
   8142c:	910003fd 	mov	x29, sp
   81430:	97fffefb 	bl	8101c <preempt_enable>
   81434:	d503201f 	nop
   81438:	a8c17bfd 	ldp	x29, x30, [sp],#16
   8143c:	d65f03c0 	ret

0000000000081440 <timer_tick>:
   81440:	a9bf7bfd 	stp	x29, x30, [sp,#-16]!
   81444:	910003fd 	mov	x29, sp
   81448:	f0000000 	adrp	x0, 84000 <itoa+0xc8>
   8144c:	91314000 	add	x0, x0, #0xc50
   81450:	f9400000 	ldr	x0, [x0]
   81454:	b9407401 	ldr	w1, [x0,#116]
   81458:	51000421 	sub	w1, w1, #0x1
   8145c:	b9007401 	str	w1, [x0,#116]
   81460:	f0000000 	adrp	x0, 84000 <itoa+0xc8>
   81464:	91314000 	add	x0, x0, #0xc50
   81468:	f9400000 	ldr	x0, [x0]
   8146c:	b9407400 	ldr	w0, [x0,#116]
   81470:	7100001f 	cmp	w0, #0x0
   81474:	54000141 	b.ne	8149c <timer_tick+0x5c>
   81478:	f0000000 	adrp	x0, 84000 <itoa+0xc8>
   8147c:	91314000 	add	x0, x0, #0xc50
   81480:	f9400000 	ldr	x0, [x0]
   81484:	b900741f 	str	wzr, [x0,#116]
   81488:	f0000000 	adrp	x0, 84000 <itoa+0xc8>
   8148c:	910c4000 	add	x0, x0, #0x310
   81490:	97fffb69 	bl	80234 <uart_puts>
   81494:	97ffff75 	bl	81268 <scheduler>
   81498:	14000002 	b	814a0 <timer_tick+0x60>
   8149c:	d503201f 	nop
   814a0:	a8c17bfd 	ldp	x29, x30, [sp],#16
   814a4:	d65f03c0 	ret

00000000000814a8 <_exit>:
   814a8:	a9bf7bfd 	stp	x29, x30, [sp,#-16]!
   814ac:	910003fd 	mov	x29, sp
   814b0:	97fffece 	bl	80fe8 <preempt_disable>
   814b4:	f0000000 	adrp	x0, 84000 <itoa+0xc8>
   814b8:	91314000 	add	x0, x0, #0xc50
   814bc:	f9400000 	ldr	x0, [x0]
   814c0:	52800041 	mov	w1, #0x2                   	// #2
   814c4:	b9006c01 	str	w1, [x0,#108]
   814c8:	f0000000 	adrp	x0, 84000 <itoa+0xc8>
   814cc:	910c8000 	add	x0, x0, #0x320
   814d0:	97fffb59 	bl	80234 <uart_puts>
   814d4:	f0000000 	adrp	x0, 84000 <itoa+0xc8>
   814d8:	91314000 	add	x0, x0, #0xc50
   814dc:	f9400000 	ldr	x0, [x0]
   814e0:	b9406800 	ldr	w0, [x0,#104]
   814e4:	97fffb8d 	bl	80318 <uart_puts_int>
   814e8:	f0000000 	adrp	x0, 84000 <itoa+0xc8>
   814ec:	910ca000 	add	x0, x0, #0x328
   814f0:	97fffb51 	bl	80234 <uart_puts>
   814f4:	97fffeca 	bl	8101c <preempt_enable>
   814f8:	97ffff5c 	bl	81268 <scheduler>
   814fc:	d503201f 	nop
   81500:	a8c17bfd 	ldp	x29, x30, [sp],#16
   81504:	d65f03c0 	ret

0000000000081508 <relocate_queue>:
   81508:	a9bc7bfd 	stp	x29, x30, [sp,#-64]!
   8150c:	910003fd 	mov	x29, sp
   81510:	b9003fbf 	str	wzr, [x29,#60]
   81514:	1400002f 	b	815d0 <relocate_queue+0xc8>
   81518:	f0000000 	adrp	x0, 84000 <itoa+0xc8>
   8151c:	91294000 	add	x0, x0, #0xa50
   81520:	b9803fa1 	ldrsw	x1, [x29,#60]
   81524:	f8617800 	ldr	x0, [x0,x1,lsl #3]
   81528:	f90017a0 	str	x0, [x29,#40]
   8152c:	f94017a0 	ldr	x0, [x29,#40]
   81530:	b9406c00 	ldr	w0, [x0,#108]
   81534:	7100081f 	cmp	w0, #0x2
   81538:	54000461 	b.ne	815c4 <relocate_queue+0xbc>
   8153c:	f0000000 	adrp	x0, 84000 <itoa+0xc8>
   81540:	910ce000 	add	x0, x0, #0x338
   81544:	97fffb3c 	bl	80234 <uart_puts>
   81548:	b9403fa0 	ldr	w0, [x29,#60]
   8154c:	11000400 	add	w0, w0, #0x1
   81550:	b9003ba0 	str	w0, [x29,#56]
   81554:	14000019 	b	815b8 <relocate_queue+0xb0>
   81558:	f0000000 	adrp	x0, 84000 <itoa+0xc8>
   8155c:	91294000 	add	x0, x0, #0xa50
   81560:	b9803ba1 	ldrsw	x1, [x29,#56]
   81564:	f8617800 	ldr	x0, [x0,x1,lsl #3]
   81568:	f90013a0 	str	x0, [x29,#32]
   8156c:	f94013a0 	ldr	x0, [x29,#32]
   81570:	f100001f 	cmp	x0, #0x0
   81574:	540001c0 	b.eq	815ac <relocate_queue+0xa4>
   81578:	f94013a0 	ldr	x0, [x29,#32]
   8157c:	b9406c00 	ldr	w0, [x0,#108]
   81580:	7100081f 	cmp	w0, #0x2
   81584:	54000140 	b.eq	815ac <relocate_queue+0xa4>
   81588:	f0000000 	adrp	x0, 84000 <itoa+0xc8>
   8158c:	91294000 	add	x0, x0, #0xa50
   81590:	b9803fa1 	ldrsw	x1, [x29,#60]
   81594:	f94013a2 	ldr	x2, [x29,#32]
   81598:	f8217802 	str	x2, [x0,x1,lsl #3]
   8159c:	f0000000 	adrp	x0, 84000 <itoa+0xc8>
   815a0:	91294000 	add	x0, x0, #0xa50
   815a4:	b9803ba1 	ldrsw	x1, [x29,#56]
   815a8:	f821781f 	str	xzr, [x0,x1,lsl #3]
   815ac:	b9403ba0 	ldr	w0, [x29,#56]
   815b0:	11000400 	add	w0, w0, #0x1
   815b4:	b9003ba0 	str	w0, [x29,#56]
   815b8:	b9403ba0 	ldr	w0, [x29,#56]
   815bc:	7100fc1f 	cmp	w0, #0x3f
   815c0:	54fffccd 	b.le	81558 <relocate_queue+0x50>
   815c4:	b9403fa0 	ldr	w0, [x29,#60]
   815c8:	11000400 	add	w0, w0, #0x1
   815cc:	b9003fa0 	str	w0, [x29,#60]
   815d0:	f0000000 	adrp	x0, 84000 <itoa+0xc8>
   815d4:	91316000 	add	x0, x0, #0xc58
   815d8:	b9400000 	ldr	w0, [x0]
   815dc:	b9403fa1 	ldr	w1, [x29,#60]
   815e0:	6b00003f 	cmp	w1, w0
   815e4:	54fff9ab 	b.lt	81518 <relocate_queue+0x10>
   815e8:	b90037bf 	str	wzr, [x29,#52]
   815ec:	14000014 	b	8163c <relocate_queue+0x134>
   815f0:	f0000000 	adrp	x0, 84000 <itoa+0xc8>
   815f4:	91294000 	add	x0, x0, #0xa50
   815f8:	b98037a1 	ldrsw	x1, [x29,#52]
   815fc:	f8617800 	ldr	x0, [x0,x1,lsl #3]
   81600:	f9000fa0 	str	x0, [x29,#24]
   81604:	f9400fa0 	ldr	x0, [x29,#24]
   81608:	f100001f 	cmp	x0, #0x0
   8160c:	54000120 	b.eq	81630 <relocate_queue+0x128>
   81610:	f9400fa0 	ldr	x0, [x29,#24]
   81614:	b9406c00 	ldr	w0, [x0,#108]
   81618:	7100081f 	cmp	w0, #0x2
   8161c:	540000a1 	b.ne	81630 <relocate_queue+0x128>
   81620:	f0000000 	adrp	x0, 84000 <itoa+0xc8>
   81624:	91294000 	add	x0, x0, #0xa50
   81628:	b98037a1 	ldrsw	x1, [x29,#52]
   8162c:	f821781f 	str	xzr, [x0,x1,lsl #3]
   81630:	b94037a0 	ldr	w0, [x29,#52]
   81634:	11000400 	add	w0, w0, #0x1
   81638:	b90037a0 	str	w0, [x29,#52]
   8163c:	b94037a0 	ldr	w0, [x29,#52]
   81640:	7100fc1f 	cmp	w0, #0x3f
   81644:	54fffd6d 	b.le	815f0 <relocate_queue+0xe8>
   81648:	d503201f 	nop
   8164c:	a8c47bfd 	ldp	x29, x30, [sp],#64
   81650:	d65f03c0 	ret

0000000000081654 <idle>:
   81654:	a9be7bfd 	stp	x29, x30, [sp,#-32]!
   81658:	910003fd 	mov	x29, sp
   8165c:	97fffe63 	bl	80fe8 <preempt_disable>
   81660:	b9001fbf 	str	wzr, [x29,#28]
   81664:	1400001a 	b	816cc <idle+0x78>
   81668:	f0000000 	adrp	x0, 84000 <itoa+0xc8>
   8166c:	91294000 	add	x0, x0, #0xa50
   81670:	b9801fa1 	ldrsw	x1, [x29,#28]
   81674:	f8617800 	ldr	x0, [x0,x1,lsl #3]
   81678:	f9000ba0 	str	x0, [x29,#16]
   8167c:	f9400ba0 	ldr	x0, [x29,#16]
   81680:	f100001f 	cmp	x0, #0x0
   81684:	540001e0 	b.eq	816c0 <idle+0x6c>
   81688:	f9400ba0 	ldr	x0, [x29,#16]
   8168c:	b9406c00 	ldr	w0, [x0,#108]
   81690:	7100081f 	cmp	w0, #0x2
   81694:	54000161 	b.ne	816c0 <idle+0x6c>
   81698:	f9400ba0 	ldr	x0, [x29,#16]
   8169c:	52820001 	mov	w1, #0x1000                	// #4096
   816a0:	97fffdb9 	bl	80d84 <free_page>
   816a4:	f0000000 	adrp	x0, 84000 <itoa+0xc8>
   816a8:	91316000 	add	x0, x0, #0xc58
   816ac:	b9400000 	ldr	w0, [x0]
   816b0:	51000401 	sub	w1, w0, #0x1
   816b4:	f0000000 	adrp	x0, 84000 <itoa+0xc8>
   816b8:	91316000 	add	x0, x0, #0xc58
   816bc:	b9000001 	str	w1, [x0]
   816c0:	b9401fa0 	ldr	w0, [x29,#28]
   816c4:	11000400 	add	w0, w0, #0x1
   816c8:	b9001fa0 	str	w0, [x29,#28]
   816cc:	b9401fa0 	ldr	w0, [x29,#28]
   816d0:	7100fc1f 	cmp	w0, #0x3f
   816d4:	54fffcad 	b.le	81668 <idle+0x14>
   816d8:	97ffff8c 	bl	81508 <relocate_queue>
   816dc:	97fffe50 	bl	8101c <preempt_enable>
   816e0:	f0000000 	adrp	x0, 84000 <itoa+0xc8>
   816e4:	910d2000 	add	x0, x0, #0x348
   816e8:	97fffad3 	bl	80234 <uart_puts>
   816ec:	f0000000 	adrp	x0, 84000 <itoa+0xc8>
   816f0:	91316000 	add	x0, x0, #0xc58
   816f4:	b9400000 	ldr	w0, [x0]
   816f8:	97fffb08 	bl	80318 <uart_puts_int>
   816fc:	f0000000 	adrp	x0, 84000 <itoa+0xc8>
   81700:	910da000 	add	x0, x0, #0x368
   81704:	97fffacc 	bl	80234 <uart_puts>
   81708:	d2884800 	mov	x0, #0x4240                	// #16960
   8170c:	f2a001e0 	movk	x0, #0xf, lsl #16
   81710:	97fffe50 	bl	81050 <delay>
   81714:	97fffed5 	bl	81268 <scheduler>
   81718:	17ffffd1 	b	8165c <idle+0x8>

000000000008171c <_exec>:
   8171c:	a9bd7bfd 	stp	x29, x30, [sp,#-48]!
   81720:	910003fd 	mov	x29, sp
   81724:	f9000fa0 	str	x0, [x29,#24]
   81728:	f9000ba1 	str	x1, [x29,#16]
   8172c:	f9400ba1 	ldr	x1, [x29,#16]
   81730:	f9400fa0 	ldr	x0, [x29,#24]
   81734:	9400081c 	bl	837a4 <load_user_program_withArgv>
   81738:	93407c00 	sxtw	x0, w0
   8173c:	f90017a0 	str	x0, [x29,#40]
   81740:	f94017a0 	ldr	x0, [x29,#40]
   81744:	f100001f 	cmp	x0, #0x0
   81748:	540000c1 	b.ne	81760 <_exec+0x44>
   8174c:	f0000000 	adrp	x0, 84000 <itoa+0xc8>
   81750:	910de000 	add	x0, x0, #0x378
   81754:	97fffab8 	bl	80234 <uart_puts>
   81758:	97ffff54 	bl	814a8 <_exit>
   8175c:	14000004 	b	8176c <_exec+0x50>
   81760:	f0000000 	adrp	x0, 84000 <itoa+0xc8>
   81764:	910e6000 	add	x0, x0, #0x398
   81768:	97fffab3 	bl	80234 <uart_puts>
   8176c:	a8c37bfd 	ldp	x29, x30, [sp],#48
   81770:	d65f03c0 	ret

0000000000081774 <lab3>:
   81774:	a9bd7bfd 	stp	x29, x30, [sp,#-48]!
   81778:	910003fd 	mov	x29, sp
   8177c:	52800200 	mov	w0, #0x10                  	// #16
   81780:	97fffccc 	bl	80ab0 <kmalloc>
   81784:	f90017a0 	str	x0, [x29,#40]
   81788:	52800500 	mov	w0, #0x28                  	// #40
   8178c:	97fffcc9 	bl	80ab0 <kmalloc>
   81790:	f90013a0 	str	x0, [x29,#32]
   81794:	52820000 	mov	w0, #0x1000                	// #4096
   81798:	97fffcc6 	bl	80ab0 <kmalloc>
   8179c:	f9000fa0 	str	x0, [x29,#24]
   817a0:	52808000 	mov	w0, #0x400                 	// #1024
   817a4:	97fffcc3 	bl	80ab0 <kmalloc>
   817a8:	f9000ba0 	str	x0, [x29,#16]
   817ac:	52820001 	mov	w1, #0x1000                	// #4096
   817b0:	f9400fa0 	ldr	x0, [x29,#24]
   817b4:	97fffd74 	bl	80d84 <free_page>
   817b8:	52808001 	mov	w1, #0x400                 	// #1024
   817bc:	f9400ba0 	ldr	x0, [x29,#16]
   817c0:	97fffd71 	bl	80d84 <free_page>
   817c4:	52800501 	mov	w1, #0x28                  	// #40
   817c8:	f94013a0 	ldr	x0, [x29,#32]
   817cc:	97fffd6e 	bl	80d84 <free_page>
   817d0:	52800201 	mov	w1, #0x10                  	// #16
   817d4:	f94017a0 	ldr	x0, [x29,#40]
   817d8:	97fffd6b 	bl	80d84 <free_page>
   817dc:	d503201f 	nop
   817e0:	a8c37bfd 	ldp	x29, x30, [sp],#48
   817e4:	d65f03c0 	ret

00000000000817e8 <foo>:
   817e8:	a9be7bfd 	stp	x29, x30, [sp,#-32]!
   817ec:	910003fd 	mov	x29, sp
   817f0:	b9001fbf 	str	wzr, [x29,#28]
   817f4:	14000018 	b	81854 <foo+0x6c>
   817f8:	f0000000 	adrp	x0, 84000 <itoa+0xc8>
   817fc:	910ee000 	add	x0, x0, #0x3b8
   81800:	97fffa8d 	bl	80234 <uart_puts>
   81804:	f0000000 	adrp	x0, 84000 <itoa+0xc8>
   81808:	91314000 	add	x0, x0, #0xc50
   8180c:	f9400000 	ldr	x0, [x0]
   81810:	b9406800 	ldr	w0, [x0,#104]
   81814:	97fffac1 	bl	80318 <uart_puts_int>
   81818:	f0000000 	adrp	x0, 84000 <itoa+0xc8>
   8181c:	910f2000 	add	x0, x0, #0x3c8
   81820:	97fffa85 	bl	80234 <uart_puts>
   81824:	b9401fa0 	ldr	w0, [x29,#28]
   81828:	97fffabc 	bl	80318 <uart_puts_int>
   8182c:	f0000000 	adrp	x0, 84000 <itoa+0xc8>
   81830:	910f4000 	add	x0, x0, #0x3d0
   81834:	97fffa80 	bl	80234 <uart_puts>
   81838:	d2884800 	mov	x0, #0x4240                	// #16960
   8183c:	f2a001e0 	movk	x0, #0xf, lsl #16
   81840:	97fffe04 	bl	81050 <delay>
   81844:	97fffe89 	bl	81268 <scheduler>
   81848:	b9401fa0 	ldr	w0, [x29,#28]
   8184c:	11000400 	add	w0, w0, #0x1
   81850:	b9001fa0 	str	w0, [x29,#28]
   81854:	b9401fa0 	ldr	w0, [x29,#28]
   81858:	7100241f 	cmp	w0, #0x9
   8185c:	54fffced 	b.le	817f8 <foo+0x10>
   81860:	97ffff12 	bl	814a8 <_exit>
   81864:	d503201f 	nop
   81868:	a8c27bfd 	ldp	x29, x30, [sp],#32
   8186c:	d65f03c0 	ret

0000000000081870 <lab5_required_1>:
   81870:	a9bd7bfd 	stp	x29, x30, [sp,#-48]!
   81874:	910003fd 	mov	x29, sp
   81878:	b9001fa0 	str	w0, [x29,#28]
   8187c:	b9002fbf 	str	wzr, [x29,#44]
   81880:	1400000c 	b	818b0 <lab5_required_1+0x40>
   81884:	90000000 	adrp	x0, 81000 <preempt_disable+0x18>
   81888:	911fa000 	add	x0, x0, #0x7e8
   8188c:	d2800003 	mov	x3, #0x0                   	// #0
   81890:	d2800002 	mov	x2, #0x0                   	// #0
   81894:	aa0003e1 	mov	x1, x0
   81898:	d2800040 	mov	x0, #0x2                   	// #2
   8189c:	97fffe11 	bl	810e0 <create_thread>
   818a0:	b9002ba0 	str	w0, [x29,#40]
   818a4:	b9402fa0 	ldr	w0, [x29,#44]
   818a8:	11000400 	add	w0, w0, #0x1
   818ac:	b9002fa0 	str	w0, [x29,#44]
   818b0:	b9402fa1 	ldr	w1, [x29,#44]
   818b4:	b9401fa0 	ldr	w0, [x29,#28]
   818b8:	6b00003f 	cmp	w1, w0
   818bc:	54fffe4b 	b.lt	81884 <lab5_required_1+0x14>
   818c0:	90000000 	adrp	x0, 81000 <preempt_disable+0x18>
   818c4:	91195000 	add	x0, x0, #0x654
   818c8:	d2800003 	mov	x3, #0x0                   	// #0
   818cc:	d2800002 	mov	x2, #0x0                   	// #0
   818d0:	aa0003e1 	mov	x1, x0
   818d4:	d2800040 	mov	x0, #0x2                   	// #2
   818d8:	97fffe02 	bl	810e0 <create_thread>
   818dc:	b90027a0 	str	w0, [x29,#36]
   818e0:	97fffe62 	bl	81268 <scheduler>
   818e4:	17ffffff 	b	818e0 <lab5_required_1+0x70>

00000000000818e8 <foo2>:
   818e8:	a9bc7bfd 	stp	x29, x30, [sp,#-64]!
   818ec:	910003fd 	mov	x29, sp
   818f0:	f0000000 	adrp	x0, 84000 <itoa+0xc8>
   818f4:	91104001 	add	x1, x0, #0x410
   818f8:	910063a0 	add	x0, x29, #0x18
   818fc:	a9400c22 	ldp	x2, x3, [x1]
   81900:	a9000c02 	stp	x2, x3, [x0]
   81904:	a9410c22 	ldp	x2, x3, [x1,#16]
   81908:	a9010c02 	stp	x2, x3, [x0,#16]
   8190c:	f9401021 	ldr	x1, [x1,#32]
   81910:	f9001001 	str	x1, [x0,#32]
   81914:	910063a1 	add	x1, x29, #0x18
   81918:	f0000000 	adrp	x0, 84000 <itoa+0xc8>
   8191c:	910f6000 	add	x0, x0, #0x3d8
   81920:	97ffff7f 	bl	8171c <_exec>
   81924:	97fffe51 	bl	81268 <scheduler>
   81928:	d503201f 	nop
   8192c:	a8c47bfd 	ldp	x29, x30, [sp],#64
   81930:	d65f03c0 	ret

0000000000081934 <lab5_required_2>:
   81934:	a9be7bfd 	stp	x29, x30, [sp,#-32]!
   81938:	910003fd 	mov	x29, sp
   8193c:	90000000 	adrp	x0, 81000 <preempt_disable+0x18>
   81940:	9123a000 	add	x0, x0, #0x8e8
   81944:	d2800003 	mov	x3, #0x0                   	// #0
   81948:	d2800002 	mov	x2, #0x0                   	// #0
   8194c:	aa0003e1 	mov	x1, x0
   81950:	d2800040 	mov	x0, #0x2                   	// #2
   81954:	97fffde3 	bl	810e0 <create_thread>
   81958:	b9001fa0 	str	w0, [x29,#28]
   8195c:	97fffe43 	bl	81268 <scheduler>
   81960:	17ffffff 	b	8195c <lab5_required_2+0x28>

0000000000081964 <cpu_switch_to>:
   81964:	a9005013 	stp	x19, x20, [x0]
   81968:	a9015815 	stp	x21, x22, [x0,#16]
   8196c:	a9026017 	stp	x23, x24, [x0,#32]
   81970:	a9036819 	stp	x25, x26, [x0,#48]
   81974:	a904701b 	stp	x27, x28, [x0,#64]
   81978:	a905781d 	stp	x29, x30, [x0,#80]
   8197c:	910003e9 	mov	x9, sp
   81980:	f9003009 	str	x9, [x0,#96]
   81984:	a9405033 	ldp	x19, x20, [x1]
   81988:	a9415835 	ldp	x21, x22, [x1,#16]
   8198c:	a9426037 	ldp	x23, x24, [x1,#32]
   81990:	a9436839 	ldp	x25, x26, [x1,#48]
   81994:	a944703b 	ldp	x27, x28, [x1,#64]
   81998:	a945783d 	ldp	x29, x30, [x1,#80]
   8199c:	f9403029 	ldr	x9, [x1,#96]
   819a0:	9100013f 	mov	sp, x9
   819a4:	d518d081 	msr	tpidr_el1, x1
   819a8:	d65f03c0 	ret

00000000000819ac <get_current>:
   819ac:	d538d080 	mrs	x0, tpidr_el1
   819b0:	d65f03c0 	ret
	...

0000000000082000 <exception_handler>:
   82000:	d10443ff 	sub	sp, sp, #0x110
   82004:	a90007e0 	stp	x0, x1, [sp]
   82008:	a9010fe2 	stp	x2, x3, [sp,#16]
   8200c:	a90217e4 	stp	x4, x5, [sp,#32]
   82010:	a9031fe6 	stp	x6, x7, [sp,#48]
   82014:	a90427e8 	stp	x8, x9, [sp,#64]
   82018:	a9052fea 	stp	x10, x11, [sp,#80]
   8201c:	a90637ec 	stp	x12, x13, [sp,#96]
   82020:	a9073fee 	stp	x14, x15, [sp,#112]
   82024:	a90847f0 	stp	x16, x17, [sp,#128]
   82028:	a9094ff2 	stp	x18, x19, [sp,#144]
   8202c:	a90a57f4 	stp	x20, x21, [sp,#160]
   82030:	a90b5ff6 	stp	x22, x23, [sp,#176]
   82034:	a90c67f8 	stp	x24, x25, [sp,#192]
   82038:	a90d6ffa 	stp	x26, x27, [sp,#208]
   8203c:	a90e77fc 	stp	x28, x29, [sp,#224]
   82040:	d5384115 	mrs	x21, sp_el0
   82044:	d5384036 	mrs	x22, elr_el1
   82048:	d5384017 	mrs	x23, spsr_el1
   8204c:	a90f57fe 	stp	x30, x21, [sp,#240]
   82050:	a9105ff6 	stp	x22, x23, [sp,#256]
   82054:	97fffb96 	bl	80eac <dumpState>
   82058:	a9505ff6 	ldp	x22, x23, [sp,#256]
   8205c:	a94f57fe 	ldp	x30, x21, [sp,#240]
   82060:	d5184115 	msr	sp_el0, x21
   82064:	d5184036 	msr	elr_el1, x22
   82068:	d5184017 	msr	spsr_el1, x23
   8206c:	a94007e0 	ldp	x0, x1, [sp]
   82070:	a9410fe2 	ldp	x2, x3, [sp,#16]
   82074:	a94217e4 	ldp	x4, x5, [sp,#32]
   82078:	a9431fe6 	ldp	x6, x7, [sp,#48]
   8207c:	a94427e8 	ldp	x8, x9, [sp,#64]
   82080:	a9452fea 	ldp	x10, x11, [sp,#80]
   82084:	a94637ec 	ldp	x12, x13, [sp,#96]
   82088:	a9473fee 	ldp	x14, x15, [sp,#112]
   8208c:	a94847f0 	ldp	x16, x17, [sp,#128]
   82090:	a9494ff2 	ldp	x18, x19, [sp,#144]
   82094:	a94a57f4 	ldp	x20, x21, [sp,#160]
   82098:	a94b5ff6 	ldp	x22, x23, [sp,#176]
   8209c:	a94c67f8 	ldp	x24, x25, [sp,#192]
   820a0:	a94d6ffa 	ldp	x26, x27, [sp,#208]
   820a4:	a94e77fc 	ldp	x28, x29, [sp,#224]
   820a8:	910443ff 	add	sp, sp, #0x110
   820ac:	d69f03e0 	eret

00000000000820b0 <core_timer_handler>:
   820b0:	d10443ff 	sub	sp, sp, #0x110
   820b4:	a90007e0 	stp	x0, x1, [sp]
   820b8:	a9010fe2 	stp	x2, x3, [sp,#16]
   820bc:	a90217e4 	stp	x4, x5, [sp,#32]
   820c0:	a9031fe6 	stp	x6, x7, [sp,#48]
   820c4:	a90427e8 	stp	x8, x9, [sp,#64]
   820c8:	a9052fea 	stp	x10, x11, [sp,#80]
   820cc:	a90637ec 	stp	x12, x13, [sp,#96]
   820d0:	a9073fee 	stp	x14, x15, [sp,#112]
   820d4:	a90847f0 	stp	x16, x17, [sp,#128]
   820d8:	a9094ff2 	stp	x18, x19, [sp,#144]
   820dc:	a90a57f4 	stp	x20, x21, [sp,#160]
   820e0:	a90b5ff6 	stp	x22, x23, [sp,#176]
   820e4:	a90c67f8 	stp	x24, x25, [sp,#192]
   820e8:	a90d6ffa 	stp	x26, x27, [sp,#208]
   820ec:	a90e77fc 	stp	x28, x29, [sp,#224]
   820f0:	d5384115 	mrs	x21, sp_el0
   820f4:	d5384036 	mrs	x22, elr_el1
   820f8:	d5384017 	mrs	x23, spsr_el1
   820fc:	a90f57fe 	stp	x30, x21, [sp,#240]
   82100:	a9105ff6 	stp	x22, x23, [sp,#256]
   82104:	97fffb91 	bl	80f48 <dumpTimer>
   82108:	a9505ff6 	ldp	x22, x23, [sp,#256]
   8210c:	a94f57fe 	ldp	x30, x21, [sp,#240]
   82110:	d5184115 	msr	sp_el0, x21
   82114:	d5184036 	msr	elr_el1, x22
   82118:	d5184017 	msr	spsr_el1, x23
   8211c:	a94007e0 	ldp	x0, x1, [sp]
   82120:	a9410fe2 	ldp	x2, x3, [sp,#16]
   82124:	a94217e4 	ldp	x4, x5, [sp,#32]
   82128:	a9431fe6 	ldp	x6, x7, [sp,#48]
   8212c:	a94427e8 	ldp	x8, x9, [sp,#64]
   82130:	a9452fea 	ldp	x10, x11, [sp,#80]
   82134:	a94637ec 	ldp	x12, x13, [sp,#96]
   82138:	a9473fee 	ldp	x14, x15, [sp,#112]
   8213c:	a94847f0 	ldp	x16, x17, [sp,#128]
   82140:	a9494ff2 	ldp	x18, x19, [sp,#144]
   82144:	a94a57f4 	ldp	x20, x21, [sp,#160]
   82148:	a94b5ff6 	ldp	x22, x23, [sp,#176]
   8214c:	a94c67f8 	ldp	x24, x25, [sp,#192]
   82150:	a94d6ffa 	ldp	x26, x27, [sp,#208]
   82154:	a94e77fc 	ldp	x28, x29, [sp,#224]
   82158:	910443ff 	add	sp, sp, #0x110
   8215c:	d69f03e0 	eret

0000000000082160 <el0_sync>:
   82160:	d10443ff 	sub	sp, sp, #0x110
   82164:	a90007e0 	stp	x0, x1, [sp]
   82168:	a9010fe2 	stp	x2, x3, [sp,#16]
   8216c:	a90217e4 	stp	x4, x5, [sp,#32]
   82170:	a9031fe6 	stp	x6, x7, [sp,#48]
   82174:	a90427e8 	stp	x8, x9, [sp,#64]
   82178:	a9052fea 	stp	x10, x11, [sp,#80]
   8217c:	a90637ec 	stp	x12, x13, [sp,#96]
   82180:	a9073fee 	stp	x14, x15, [sp,#112]
   82184:	a90847f0 	stp	x16, x17, [sp,#128]
   82188:	a9094ff2 	stp	x18, x19, [sp,#144]
   8218c:	a90a57f4 	stp	x20, x21, [sp,#160]
   82190:	a90b5ff6 	stp	x22, x23, [sp,#176]
   82194:	a90c67f8 	stp	x24, x25, [sp,#192]
   82198:	a90d6ffa 	stp	x26, x27, [sp,#208]
   8219c:	a90e77fc 	stp	x28, x29, [sp,#224]
   821a0:	d5384115 	mrs	x21, sp_el0
   821a4:	d5384036 	mrs	x22, elr_el1
   821a8:	d5384017 	mrs	x23, spsr_el1
   821ac:	a90f57fe 	stp	x30, x21, [sp,#240]
   821b0:	a9105ff6 	stp	x22, x23, [sp,#256]
   821b4:	d5385219 	mrs	x25, esr_el1
   821b8:	d35aff38 	lsr	x24, x25, #26
   821bc:	f100571f 	cmp	x24, #0x15
   821c0:	54000020 	b.eq	821c4 <el0_svc>

00000000000821c4 <el0_svc>:
   821c4:	100139bb 	adr	x27, 848f8 <sys_call_table>
   821c8:	2a0803fa 	mov	w26, w8
   821cc:	d2800079 	mov	x25, #0x3                   	// #3
   821d0:	eb19035f 	cmp	x26, x25
   821d4:	f87a7b70 	ldr	x16, [x27,x26,lsl #3]
   821d8:	d63f0200 	blr	x16
   821dc:	14000001 	b	821e0 <ret_from_syscall>

00000000000821e0 <ret_from_syscall>:
   821e0:	f90003e0 	str	x0, [sp]
   821e4:	a9505ff6 	ldp	x22, x23, [sp,#256]
   821e8:	a94f57fe 	ldp	x30, x21, [sp,#240]
   821ec:	d5184115 	msr	sp_el0, x21
   821f0:	d5184036 	msr	elr_el1, x22
   821f4:	d5184017 	msr	spsr_el1, x23
   821f8:	a94007e0 	ldp	x0, x1, [sp]
   821fc:	a9410fe2 	ldp	x2, x3, [sp,#16]
   82200:	a94217e4 	ldp	x4, x5, [sp,#32]
   82204:	a9431fe6 	ldp	x6, x7, [sp,#48]
   82208:	a94427e8 	ldp	x8, x9, [sp,#64]
   8220c:	a9452fea 	ldp	x10, x11, [sp,#80]
   82210:	a94637ec 	ldp	x12, x13, [sp,#96]
   82214:	a9473fee 	ldp	x14, x15, [sp,#112]
   82218:	a94847f0 	ldp	x16, x17, [sp,#128]
   8221c:	a9494ff2 	ldp	x18, x19, [sp,#144]
   82220:	a94a57f4 	ldp	x20, x21, [sp,#160]
   82224:	a94b5ff6 	ldp	x22, x23, [sp,#176]
   82228:	a94c67f8 	ldp	x24, x25, [sp,#192]
   8222c:	a94d6ffa 	ldp	x26, x27, [sp,#208]
   82230:	a94e77fc 	ldp	x28, x29, [sp,#224]
   82234:	910443ff 	add	sp, sp, #0x110
   82238:	d69f03e0 	eret
   8223c:	d503201f 	nop
   82240:	d503201f 	nop
   82244:	d503201f 	nop
   82248:	d503201f 	nop
   8224c:	d503201f 	nop
   82250:	d503201f 	nop
   82254:	d503201f 	nop
   82258:	d503201f 	nop
   8225c:	d503201f 	nop
   82260:	d503201f 	nop
   82264:	d503201f 	nop
   82268:	d503201f 	nop
   8226c:	d503201f 	nop
   82270:	d503201f 	nop
   82274:	d503201f 	nop
   82278:	d503201f 	nop
   8227c:	d503201f 	nop
   82280:	d503201f 	nop
   82284:	d503201f 	nop
   82288:	d503201f 	nop
   8228c:	d503201f 	nop
   82290:	d503201f 	nop
   82294:	d503201f 	nop
   82298:	d503201f 	nop
   8229c:	d503201f 	nop
   822a0:	d503201f 	nop
   822a4:	d503201f 	nop
   822a8:	d503201f 	nop
   822ac:	d503201f 	nop
   822b0:	d503201f 	nop
   822b4:	d503201f 	nop
   822b8:	d503201f 	nop
   822bc:	d503201f 	nop
   822c0:	d503201f 	nop
   822c4:	d503201f 	nop
   822c8:	d503201f 	nop
   822cc:	d503201f 	nop
   822d0:	d503201f 	nop
   822d4:	d503201f 	nop
   822d8:	d503201f 	nop
   822dc:	d503201f 	nop
   822e0:	d503201f 	nop
   822e4:	d503201f 	nop
   822e8:	d503201f 	nop
   822ec:	d503201f 	nop
   822f0:	d503201f 	nop
   822f4:	d503201f 	nop
   822f8:	d503201f 	nop
   822fc:	d503201f 	nop
   82300:	d503201f 	nop
   82304:	d503201f 	nop
   82308:	d503201f 	nop
   8230c:	d503201f 	nop
   82310:	d503201f 	nop
   82314:	d503201f 	nop
   82318:	d503201f 	nop
   8231c:	d503201f 	nop
   82320:	d503201f 	nop
   82324:	d503201f 	nop
   82328:	d503201f 	nop
   8232c:	d503201f 	nop
   82330:	d503201f 	nop
   82334:	d503201f 	nop
   82338:	d503201f 	nop
   8233c:	d503201f 	nop
   82340:	d503201f 	nop
   82344:	d503201f 	nop
   82348:	d503201f 	nop
   8234c:	d503201f 	nop
   82350:	d503201f 	nop
   82354:	d503201f 	nop
   82358:	d503201f 	nop
   8235c:	d503201f 	nop
   82360:	d503201f 	nop
   82364:	d503201f 	nop
   82368:	d503201f 	nop
   8236c:	d503201f 	nop
   82370:	d503201f 	nop
   82374:	d503201f 	nop
   82378:	d503201f 	nop
   8237c:	d503201f 	nop
   82380:	d503201f 	nop
   82384:	d503201f 	nop
   82388:	d503201f 	nop
   8238c:	d503201f 	nop
   82390:	d503201f 	nop
   82394:	d503201f 	nop
   82398:	d503201f 	nop
   8239c:	d503201f 	nop
   823a0:	d503201f 	nop
   823a4:	d503201f 	nop
   823a8:	d503201f 	nop
   823ac:	d503201f 	nop
   823b0:	d503201f 	nop
   823b4:	d503201f 	nop
   823b8:	d503201f 	nop
   823bc:	d503201f 	nop
   823c0:	d503201f 	nop
   823c4:	d503201f 	nop
   823c8:	d503201f 	nop
   823cc:	d503201f 	nop
   823d0:	d503201f 	nop
   823d4:	d503201f 	nop
   823d8:	d503201f 	nop
   823dc:	d503201f 	nop
   823e0:	d503201f 	nop
   823e4:	d503201f 	nop
   823e8:	d503201f 	nop
   823ec:	d503201f 	nop
   823f0:	d503201f 	nop
   823f4:	d503201f 	nop
   823f8:	d503201f 	nop
   823fc:	d503201f 	nop
   82400:	d503201f 	nop
   82404:	d503201f 	nop
   82408:	d503201f 	nop
   8240c:	d503201f 	nop
   82410:	d503201f 	nop
   82414:	d503201f 	nop
   82418:	d503201f 	nop
   8241c:	d503201f 	nop
   82420:	d503201f 	nop
   82424:	d503201f 	nop
   82428:	d503201f 	nop
   8242c:	d503201f 	nop
   82430:	d503201f 	nop
   82434:	d503201f 	nop
   82438:	d503201f 	nop
   8243c:	d503201f 	nop
   82440:	d503201f 	nop
   82444:	d503201f 	nop
   82448:	d503201f 	nop
   8244c:	d503201f 	nop
   82450:	d503201f 	nop
   82454:	d503201f 	nop
   82458:	d503201f 	nop
   8245c:	d503201f 	nop
   82460:	d503201f 	nop
   82464:	d503201f 	nop
   82468:	d503201f 	nop
   8246c:	d503201f 	nop
   82470:	d503201f 	nop
   82474:	d503201f 	nop
   82478:	d503201f 	nop
   8247c:	d503201f 	nop
   82480:	d503201f 	nop
   82484:	d503201f 	nop
   82488:	d503201f 	nop
   8248c:	d503201f 	nop
   82490:	d503201f 	nop
   82494:	d503201f 	nop
   82498:	d503201f 	nop
   8249c:	d503201f 	nop
   824a0:	d503201f 	nop
   824a4:	d503201f 	nop
   824a8:	d503201f 	nop
   824ac:	d503201f 	nop
   824b0:	d503201f 	nop
   824b4:	d503201f 	nop
   824b8:	d503201f 	nop
   824bc:	d503201f 	nop
   824c0:	d503201f 	nop
   824c4:	d503201f 	nop
   824c8:	d503201f 	nop
   824cc:	d503201f 	nop
   824d0:	d503201f 	nop
   824d4:	d503201f 	nop
   824d8:	d503201f 	nop
   824dc:	d503201f 	nop
   824e0:	d503201f 	nop
   824e4:	d503201f 	nop
   824e8:	d503201f 	nop
   824ec:	d503201f 	nop
   824f0:	d503201f 	nop
   824f4:	d503201f 	nop
   824f8:	d503201f 	nop
   824fc:	d503201f 	nop
   82500:	d503201f 	nop
   82504:	d503201f 	nop
   82508:	d503201f 	nop
   8250c:	d503201f 	nop
   82510:	d503201f 	nop
   82514:	d503201f 	nop
   82518:	d503201f 	nop
   8251c:	d503201f 	nop
   82520:	d503201f 	nop
   82524:	d503201f 	nop
   82528:	d503201f 	nop
   8252c:	d503201f 	nop
   82530:	d503201f 	nop
   82534:	d503201f 	nop
   82538:	d503201f 	nop
   8253c:	d503201f 	nop
   82540:	d503201f 	nop
   82544:	d503201f 	nop
   82548:	d503201f 	nop
   8254c:	d503201f 	nop
   82550:	d503201f 	nop
   82554:	d503201f 	nop
   82558:	d503201f 	nop
   8255c:	d503201f 	nop
   82560:	d503201f 	nop
   82564:	d503201f 	nop
   82568:	d503201f 	nop
   8256c:	d503201f 	nop
   82570:	d503201f 	nop
   82574:	d503201f 	nop
   82578:	d503201f 	nop
   8257c:	d503201f 	nop
   82580:	d503201f 	nop
   82584:	d503201f 	nop
   82588:	d503201f 	nop
   8258c:	d503201f 	nop
   82590:	d503201f 	nop
   82594:	d503201f 	nop
   82598:	d503201f 	nop
   8259c:	d503201f 	nop
   825a0:	d503201f 	nop
   825a4:	d503201f 	nop
   825a8:	d503201f 	nop
   825ac:	d503201f 	nop
   825b0:	d503201f 	nop
   825b4:	d503201f 	nop
   825b8:	d503201f 	nop
   825bc:	d503201f 	nop
   825c0:	d503201f 	nop
   825c4:	d503201f 	nop
   825c8:	d503201f 	nop
   825cc:	d503201f 	nop
   825d0:	d503201f 	nop
   825d4:	d503201f 	nop
   825d8:	d503201f 	nop
   825dc:	d503201f 	nop
   825e0:	d503201f 	nop
   825e4:	d503201f 	nop
   825e8:	d503201f 	nop
   825ec:	d503201f 	nop
   825f0:	d503201f 	nop
   825f4:	d503201f 	nop
   825f8:	d503201f 	nop
   825fc:	d503201f 	nop
   82600:	d503201f 	nop
   82604:	d503201f 	nop
   82608:	d503201f 	nop
   8260c:	d503201f 	nop
   82610:	d503201f 	nop
   82614:	d503201f 	nop
   82618:	d503201f 	nop
   8261c:	d503201f 	nop
   82620:	d503201f 	nop
   82624:	d503201f 	nop
   82628:	d503201f 	nop
   8262c:	d503201f 	nop
   82630:	d503201f 	nop
   82634:	d503201f 	nop
   82638:	d503201f 	nop
   8263c:	d503201f 	nop
   82640:	d503201f 	nop
   82644:	d503201f 	nop
   82648:	d503201f 	nop
   8264c:	d503201f 	nop
   82650:	d503201f 	nop
   82654:	d503201f 	nop
   82658:	d503201f 	nop
   8265c:	d503201f 	nop
   82660:	d503201f 	nop
   82664:	d503201f 	nop
   82668:	d503201f 	nop
   8266c:	d503201f 	nop
   82670:	d503201f 	nop
   82674:	d503201f 	nop
   82678:	d503201f 	nop
   8267c:	d503201f 	nop
   82680:	d503201f 	nop
   82684:	d503201f 	nop
   82688:	d503201f 	nop
   8268c:	d503201f 	nop
   82690:	d503201f 	nop
   82694:	d503201f 	nop
   82698:	d503201f 	nop
   8269c:	d503201f 	nop
   826a0:	d503201f 	nop
   826a4:	d503201f 	nop
   826a8:	d503201f 	nop
   826ac:	d503201f 	nop
   826b0:	d503201f 	nop
   826b4:	d503201f 	nop
   826b8:	d503201f 	nop
   826bc:	d503201f 	nop
   826c0:	d503201f 	nop
   826c4:	d503201f 	nop
   826c8:	d503201f 	nop
   826cc:	d503201f 	nop
   826d0:	d503201f 	nop
   826d4:	d503201f 	nop
   826d8:	d503201f 	nop
   826dc:	d503201f 	nop
   826e0:	d503201f 	nop
   826e4:	d503201f 	nop
   826e8:	d503201f 	nop
   826ec:	d503201f 	nop
   826f0:	d503201f 	nop
   826f4:	d503201f 	nop
   826f8:	d503201f 	nop
   826fc:	d503201f 	nop
   82700:	d503201f 	nop
   82704:	d503201f 	nop
   82708:	d503201f 	nop
   8270c:	d503201f 	nop
   82710:	d503201f 	nop
   82714:	d503201f 	nop
   82718:	d503201f 	nop
   8271c:	d503201f 	nop
   82720:	d503201f 	nop
   82724:	d503201f 	nop
   82728:	d503201f 	nop
   8272c:	d503201f 	nop
   82730:	d503201f 	nop
   82734:	d503201f 	nop
   82738:	d503201f 	nop
   8273c:	d503201f 	nop
   82740:	d503201f 	nop
   82744:	d503201f 	nop
   82748:	d503201f 	nop
   8274c:	d503201f 	nop
   82750:	d503201f 	nop
   82754:	d503201f 	nop
   82758:	d503201f 	nop
   8275c:	d503201f 	nop
   82760:	d503201f 	nop
   82764:	d503201f 	nop
   82768:	d503201f 	nop
   8276c:	d503201f 	nop
   82770:	d503201f 	nop
   82774:	d503201f 	nop
   82778:	d503201f 	nop
   8277c:	d503201f 	nop
   82780:	d503201f 	nop
   82784:	d503201f 	nop
   82788:	d503201f 	nop
   8278c:	d503201f 	nop
   82790:	d503201f 	nop
   82794:	d503201f 	nop
   82798:	d503201f 	nop
   8279c:	d503201f 	nop
   827a0:	d503201f 	nop
   827a4:	d503201f 	nop
   827a8:	d503201f 	nop
   827ac:	d503201f 	nop
   827b0:	d503201f 	nop
   827b4:	d503201f 	nop
   827b8:	d503201f 	nop
   827bc:	d503201f 	nop
   827c0:	d503201f 	nop
   827c4:	d503201f 	nop
   827c8:	d503201f 	nop
   827cc:	d503201f 	nop
   827d0:	d503201f 	nop
   827d4:	d503201f 	nop
   827d8:	d503201f 	nop
   827dc:	d503201f 	nop
   827e0:	d503201f 	nop
   827e4:	d503201f 	nop
   827e8:	d503201f 	nop
   827ec:	d503201f 	nop
   827f0:	d503201f 	nop
   827f4:	d503201f 	nop
   827f8:	d503201f 	nop
   827fc:	d503201f 	nop

0000000000082800 <exception_vector_table>:
   82800:	17fffe00 	b	82000 <exception_handler>
   82804:	d503201f 	nop
   82808:	d503201f 	nop
   8280c:	d503201f 	nop
   82810:	d503201f 	nop
   82814:	d503201f 	nop
   82818:	d503201f 	nop
   8281c:	d503201f 	nop
   82820:	d503201f 	nop
   82824:	d503201f 	nop
   82828:	d503201f 	nop
   8282c:	d503201f 	nop
   82830:	d503201f 	nop
   82834:	d503201f 	nop
   82838:	d503201f 	nop
   8283c:	d503201f 	nop
   82840:	d503201f 	nop
   82844:	d503201f 	nop
   82848:	d503201f 	nop
   8284c:	d503201f 	nop
   82850:	d503201f 	nop
   82854:	d503201f 	nop
   82858:	d503201f 	nop
   8285c:	d503201f 	nop
   82860:	d503201f 	nop
   82864:	d503201f 	nop
   82868:	d503201f 	nop
   8286c:	d503201f 	nop
   82870:	d503201f 	nop
   82874:	d503201f 	nop
   82878:	d503201f 	nop
   8287c:	d503201f 	nop
   82880:	17fffde0 	b	82000 <exception_handler>
   82884:	d503201f 	nop
   82888:	d503201f 	nop
   8288c:	d503201f 	nop
   82890:	d503201f 	nop
   82894:	d503201f 	nop
   82898:	d503201f 	nop
   8289c:	d503201f 	nop
   828a0:	d503201f 	nop
   828a4:	d503201f 	nop
   828a8:	d503201f 	nop
   828ac:	d503201f 	nop
   828b0:	d503201f 	nop
   828b4:	d503201f 	nop
   828b8:	d503201f 	nop
   828bc:	d503201f 	nop
   828c0:	d503201f 	nop
   828c4:	d503201f 	nop
   828c8:	d503201f 	nop
   828cc:	d503201f 	nop
   828d0:	d503201f 	nop
   828d4:	d503201f 	nop
   828d8:	d503201f 	nop
   828dc:	d503201f 	nop
   828e0:	d503201f 	nop
   828e4:	d503201f 	nop
   828e8:	d503201f 	nop
   828ec:	d503201f 	nop
   828f0:	d503201f 	nop
   828f4:	d503201f 	nop
   828f8:	d503201f 	nop
   828fc:	d503201f 	nop
   82900:	17fffdc0 	b	82000 <exception_handler>
   82904:	d503201f 	nop
   82908:	d503201f 	nop
   8290c:	d503201f 	nop
   82910:	d503201f 	nop
   82914:	d503201f 	nop
   82918:	d503201f 	nop
   8291c:	d503201f 	nop
   82920:	d503201f 	nop
   82924:	d503201f 	nop
   82928:	d503201f 	nop
   8292c:	d503201f 	nop
   82930:	d503201f 	nop
   82934:	d503201f 	nop
   82938:	d503201f 	nop
   8293c:	d503201f 	nop
   82940:	d503201f 	nop
   82944:	d503201f 	nop
   82948:	d503201f 	nop
   8294c:	d503201f 	nop
   82950:	d503201f 	nop
   82954:	d503201f 	nop
   82958:	d503201f 	nop
   8295c:	d503201f 	nop
   82960:	d503201f 	nop
   82964:	d503201f 	nop
   82968:	d503201f 	nop
   8296c:	d503201f 	nop
   82970:	d503201f 	nop
   82974:	d503201f 	nop
   82978:	d503201f 	nop
   8297c:	d503201f 	nop
   82980:	17fffda0 	b	82000 <exception_handler>
   82984:	d503201f 	nop
   82988:	d503201f 	nop
   8298c:	d503201f 	nop
   82990:	d503201f 	nop
   82994:	d503201f 	nop
   82998:	d503201f 	nop
   8299c:	d503201f 	nop
   829a0:	d503201f 	nop
   829a4:	d503201f 	nop
   829a8:	d503201f 	nop
   829ac:	d503201f 	nop
   829b0:	d503201f 	nop
   829b4:	d503201f 	nop
   829b8:	d503201f 	nop
   829bc:	d503201f 	nop
   829c0:	d503201f 	nop
   829c4:	d503201f 	nop
   829c8:	d503201f 	nop
   829cc:	d503201f 	nop
   829d0:	d503201f 	nop
   829d4:	d503201f 	nop
   829d8:	d503201f 	nop
   829dc:	d503201f 	nop
   829e0:	d503201f 	nop
   829e4:	d503201f 	nop
   829e8:	d503201f 	nop
   829ec:	d503201f 	nop
   829f0:	d503201f 	nop
   829f4:	d503201f 	nop
   829f8:	d503201f 	nop
   829fc:	d503201f 	nop
   82a00:	17fffd80 	b	82000 <exception_handler>
   82a04:	d503201f 	nop
   82a08:	d503201f 	nop
   82a0c:	d503201f 	nop
   82a10:	d503201f 	nop
   82a14:	d503201f 	nop
   82a18:	d503201f 	nop
   82a1c:	d503201f 	nop
   82a20:	d503201f 	nop
   82a24:	d503201f 	nop
   82a28:	d503201f 	nop
   82a2c:	d503201f 	nop
   82a30:	d503201f 	nop
   82a34:	d503201f 	nop
   82a38:	d503201f 	nop
   82a3c:	d503201f 	nop
   82a40:	d503201f 	nop
   82a44:	d503201f 	nop
   82a48:	d503201f 	nop
   82a4c:	d503201f 	nop
   82a50:	d503201f 	nop
   82a54:	d503201f 	nop
   82a58:	d503201f 	nop
   82a5c:	d503201f 	nop
   82a60:	d503201f 	nop
   82a64:	d503201f 	nop
   82a68:	d503201f 	nop
   82a6c:	d503201f 	nop
   82a70:	d503201f 	nop
   82a74:	d503201f 	nop
   82a78:	d503201f 	nop
   82a7c:	d503201f 	nop
   82a80:	17fffd60 	b	82000 <exception_handler>
   82a84:	d503201f 	nop
   82a88:	d503201f 	nop
   82a8c:	d503201f 	nop
   82a90:	d503201f 	nop
   82a94:	d503201f 	nop
   82a98:	d503201f 	nop
   82a9c:	d503201f 	nop
   82aa0:	d503201f 	nop
   82aa4:	d503201f 	nop
   82aa8:	d503201f 	nop
   82aac:	d503201f 	nop
   82ab0:	d503201f 	nop
   82ab4:	d503201f 	nop
   82ab8:	d503201f 	nop
   82abc:	d503201f 	nop
   82ac0:	d503201f 	nop
   82ac4:	d503201f 	nop
   82ac8:	d503201f 	nop
   82acc:	d503201f 	nop
   82ad0:	d503201f 	nop
   82ad4:	d503201f 	nop
   82ad8:	d503201f 	nop
   82adc:	d503201f 	nop
   82ae0:	d503201f 	nop
   82ae4:	d503201f 	nop
   82ae8:	d503201f 	nop
   82aec:	d503201f 	nop
   82af0:	d503201f 	nop
   82af4:	d503201f 	nop
   82af8:	d503201f 	nop
   82afc:	d503201f 	nop
   82b00:	17fffd40 	b	82000 <exception_handler>
   82b04:	d503201f 	nop
   82b08:	d503201f 	nop
   82b0c:	d503201f 	nop
   82b10:	d503201f 	nop
   82b14:	d503201f 	nop
   82b18:	d503201f 	nop
   82b1c:	d503201f 	nop
   82b20:	d503201f 	nop
   82b24:	d503201f 	nop
   82b28:	d503201f 	nop
   82b2c:	d503201f 	nop
   82b30:	d503201f 	nop
   82b34:	d503201f 	nop
   82b38:	d503201f 	nop
   82b3c:	d503201f 	nop
   82b40:	d503201f 	nop
   82b44:	d503201f 	nop
   82b48:	d503201f 	nop
   82b4c:	d503201f 	nop
   82b50:	d503201f 	nop
   82b54:	d503201f 	nop
   82b58:	d503201f 	nop
   82b5c:	d503201f 	nop
   82b60:	d503201f 	nop
   82b64:	d503201f 	nop
   82b68:	d503201f 	nop
   82b6c:	d503201f 	nop
   82b70:	d503201f 	nop
   82b74:	d503201f 	nop
   82b78:	d503201f 	nop
   82b7c:	d503201f 	nop
   82b80:	17fffd20 	b	82000 <exception_handler>
   82b84:	d503201f 	nop
   82b88:	d503201f 	nop
   82b8c:	d503201f 	nop
   82b90:	d503201f 	nop
   82b94:	d503201f 	nop
   82b98:	d503201f 	nop
   82b9c:	d503201f 	nop
   82ba0:	d503201f 	nop
   82ba4:	d503201f 	nop
   82ba8:	d503201f 	nop
   82bac:	d503201f 	nop
   82bb0:	d503201f 	nop
   82bb4:	d503201f 	nop
   82bb8:	d503201f 	nop
   82bbc:	d503201f 	nop
   82bc0:	d503201f 	nop
   82bc4:	d503201f 	nop
   82bc8:	d503201f 	nop
   82bcc:	d503201f 	nop
   82bd0:	d503201f 	nop
   82bd4:	d503201f 	nop
   82bd8:	d503201f 	nop
   82bdc:	d503201f 	nop
   82be0:	d503201f 	nop
   82be4:	d503201f 	nop
   82be8:	d503201f 	nop
   82bec:	d503201f 	nop
   82bf0:	d503201f 	nop
   82bf4:	d503201f 	nop
   82bf8:	d503201f 	nop
   82bfc:	d503201f 	nop
   82c00:	17fffd58 	b	82160 <el0_sync>
   82c04:	d503201f 	nop
   82c08:	d503201f 	nop
   82c0c:	d503201f 	nop
   82c10:	d503201f 	nop
   82c14:	d503201f 	nop
   82c18:	d503201f 	nop
   82c1c:	d503201f 	nop
   82c20:	d503201f 	nop
   82c24:	d503201f 	nop
   82c28:	d503201f 	nop
   82c2c:	d503201f 	nop
   82c30:	d503201f 	nop
   82c34:	d503201f 	nop
   82c38:	d503201f 	nop
   82c3c:	d503201f 	nop
   82c40:	d503201f 	nop
   82c44:	d503201f 	nop
   82c48:	d503201f 	nop
   82c4c:	d503201f 	nop
   82c50:	d503201f 	nop
   82c54:	d503201f 	nop
   82c58:	d503201f 	nop
   82c5c:	d503201f 	nop
   82c60:	d503201f 	nop
   82c64:	d503201f 	nop
   82c68:	d503201f 	nop
   82c6c:	d503201f 	nop
   82c70:	d503201f 	nop
   82c74:	d503201f 	nop
   82c78:	d503201f 	nop
   82c7c:	d503201f 	nop
   82c80:	17fffd0c 	b	820b0 <core_timer_handler>
   82c84:	d503201f 	nop
   82c88:	d503201f 	nop
   82c8c:	d503201f 	nop
   82c90:	d503201f 	nop
   82c94:	d503201f 	nop
   82c98:	d503201f 	nop
   82c9c:	d503201f 	nop
   82ca0:	d503201f 	nop
   82ca4:	d503201f 	nop
   82ca8:	d503201f 	nop
   82cac:	d503201f 	nop
   82cb0:	d503201f 	nop
   82cb4:	d503201f 	nop
   82cb8:	d503201f 	nop
   82cbc:	d503201f 	nop
   82cc0:	d503201f 	nop
   82cc4:	d503201f 	nop
   82cc8:	d503201f 	nop
   82ccc:	d503201f 	nop
   82cd0:	d503201f 	nop
   82cd4:	d503201f 	nop
   82cd8:	d503201f 	nop
   82cdc:	d503201f 	nop
   82ce0:	d503201f 	nop
   82ce4:	d503201f 	nop
   82ce8:	d503201f 	nop
   82cec:	d503201f 	nop
   82cf0:	d503201f 	nop
   82cf4:	d503201f 	nop
   82cf8:	d503201f 	nop
   82cfc:	d503201f 	nop
   82d00:	17fffcc0 	b	82000 <exception_handler>
   82d04:	d503201f 	nop
   82d08:	d503201f 	nop
   82d0c:	d503201f 	nop
   82d10:	d503201f 	nop
   82d14:	d503201f 	nop
   82d18:	d503201f 	nop
   82d1c:	d503201f 	nop
   82d20:	d503201f 	nop
   82d24:	d503201f 	nop
   82d28:	d503201f 	nop
   82d2c:	d503201f 	nop
   82d30:	d503201f 	nop
   82d34:	d503201f 	nop
   82d38:	d503201f 	nop
   82d3c:	d503201f 	nop
   82d40:	d503201f 	nop
   82d44:	d503201f 	nop
   82d48:	d503201f 	nop
   82d4c:	d503201f 	nop
   82d50:	d503201f 	nop
   82d54:	d503201f 	nop
   82d58:	d503201f 	nop
   82d5c:	d503201f 	nop
   82d60:	d503201f 	nop
   82d64:	d503201f 	nop
   82d68:	d503201f 	nop
   82d6c:	d503201f 	nop
   82d70:	d503201f 	nop
   82d74:	d503201f 	nop
   82d78:	d503201f 	nop
   82d7c:	d503201f 	nop
   82d80:	17fffca0 	b	82000 <exception_handler>
   82d84:	d503201f 	nop
   82d88:	d503201f 	nop
   82d8c:	d503201f 	nop
   82d90:	d503201f 	nop
   82d94:	d503201f 	nop
   82d98:	d503201f 	nop
   82d9c:	d503201f 	nop
   82da0:	d503201f 	nop
   82da4:	d503201f 	nop
   82da8:	d503201f 	nop
   82dac:	d503201f 	nop
   82db0:	d503201f 	nop
   82db4:	d503201f 	nop
   82db8:	d503201f 	nop
   82dbc:	d503201f 	nop
   82dc0:	d503201f 	nop
   82dc4:	d503201f 	nop
   82dc8:	d503201f 	nop
   82dcc:	d503201f 	nop
   82dd0:	d503201f 	nop
   82dd4:	d503201f 	nop
   82dd8:	d503201f 	nop
   82ddc:	d503201f 	nop
   82de0:	d503201f 	nop
   82de4:	d503201f 	nop
   82de8:	d503201f 	nop
   82dec:	d503201f 	nop
   82df0:	d503201f 	nop
   82df4:	d503201f 	nop
   82df8:	d503201f 	nop
   82dfc:	d503201f 	nop
   82e00:	17fffc80 	b	82000 <exception_handler>
   82e04:	d503201f 	nop
   82e08:	d503201f 	nop
   82e0c:	d503201f 	nop
   82e10:	d503201f 	nop
   82e14:	d503201f 	nop
   82e18:	d503201f 	nop
   82e1c:	d503201f 	nop
   82e20:	d503201f 	nop
   82e24:	d503201f 	nop
   82e28:	d503201f 	nop
   82e2c:	d503201f 	nop
   82e30:	d503201f 	nop
   82e34:	d503201f 	nop
   82e38:	d503201f 	nop
   82e3c:	d503201f 	nop
   82e40:	d503201f 	nop
   82e44:	d503201f 	nop
   82e48:	d503201f 	nop
   82e4c:	d503201f 	nop
   82e50:	d503201f 	nop
   82e54:	d503201f 	nop
   82e58:	d503201f 	nop
   82e5c:	d503201f 	nop
   82e60:	d503201f 	nop
   82e64:	d503201f 	nop
   82e68:	d503201f 	nop
   82e6c:	d503201f 	nop
   82e70:	d503201f 	nop
   82e74:	d503201f 	nop
   82e78:	d503201f 	nop
   82e7c:	d503201f 	nop
   82e80:	17fffc60 	b	82000 <exception_handler>
   82e84:	d503201f 	nop
   82e88:	d503201f 	nop
   82e8c:	d503201f 	nop
   82e90:	d503201f 	nop
   82e94:	d503201f 	nop
   82e98:	d503201f 	nop
   82e9c:	d503201f 	nop
   82ea0:	d503201f 	nop
   82ea4:	d503201f 	nop
   82ea8:	d503201f 	nop
   82eac:	d503201f 	nop
   82eb0:	d503201f 	nop
   82eb4:	d503201f 	nop
   82eb8:	d503201f 	nop
   82ebc:	d503201f 	nop
   82ec0:	d503201f 	nop
   82ec4:	d503201f 	nop
   82ec8:	d503201f 	nop
   82ecc:	d503201f 	nop
   82ed0:	d503201f 	nop
   82ed4:	d503201f 	nop
   82ed8:	d503201f 	nop
   82edc:	d503201f 	nop
   82ee0:	d503201f 	nop
   82ee4:	d503201f 	nop
   82ee8:	d503201f 	nop
   82eec:	d503201f 	nop
   82ef0:	d503201f 	nop
   82ef4:	d503201f 	nop
   82ef8:	d503201f 	nop
   82efc:	d503201f 	nop
   82f00:	17fffc40 	b	82000 <exception_handler>
   82f04:	d503201f 	nop
   82f08:	d503201f 	nop
   82f0c:	d503201f 	nop
   82f10:	d503201f 	nop
   82f14:	d503201f 	nop
   82f18:	d503201f 	nop
   82f1c:	d503201f 	nop
   82f20:	d503201f 	nop
   82f24:	d503201f 	nop
   82f28:	d503201f 	nop
   82f2c:	d503201f 	nop
   82f30:	d503201f 	nop
   82f34:	d503201f 	nop
   82f38:	d503201f 	nop
   82f3c:	d503201f 	nop
   82f40:	d503201f 	nop
   82f44:	d503201f 	nop
   82f48:	d503201f 	nop
   82f4c:	d503201f 	nop
   82f50:	d503201f 	nop
   82f54:	d503201f 	nop
   82f58:	d503201f 	nop
   82f5c:	d503201f 	nop
   82f60:	d503201f 	nop
   82f64:	d503201f 	nop
   82f68:	d503201f 	nop
   82f6c:	d503201f 	nop
   82f70:	d503201f 	nop
   82f74:	d503201f 	nop
   82f78:	d503201f 	nop
   82f7c:	d503201f 	nop
   82f80:	17fffc20 	b	82000 <exception_handler>
   82f84:	d503201f 	nop
   82f88:	d503201f 	nop
   82f8c:	d503201f 	nop
   82f90:	d503201f 	nop
   82f94:	d503201f 	nop
   82f98:	d503201f 	nop
   82f9c:	d503201f 	nop
   82fa0:	d503201f 	nop
   82fa4:	d503201f 	nop
   82fa8:	d503201f 	nop
   82fac:	d503201f 	nop
   82fb0:	d503201f 	nop
   82fb4:	d503201f 	nop
   82fb8:	d503201f 	nop
   82fbc:	d503201f 	nop
   82fc0:	d503201f 	nop
   82fc4:	d503201f 	nop
   82fc8:	d503201f 	nop
   82fcc:	d503201f 	nop
   82fd0:	d503201f 	nop
   82fd4:	d503201f 	nop
   82fd8:	d503201f 	nop
   82fdc:	d503201f 	nop
   82fe0:	d503201f 	nop
   82fe4:	d503201f 	nop
   82fe8:	d503201f 	nop
   82fec:	d503201f 	nop
   82ff0:	d503201f 	nop
   82ff4:	d503201f 	nop
   82ff8:	d503201f 	nop
   82ffc:	d503201f 	nop

0000000000083000 <set_exception_vector_table>:
   83000:	10ffc000 	adr	x0, 82800 <exception_vector_table>
   83004:	d518c000 	msr	vbar_el1, x0
   83008:	d65f03c0 	ret

000000000008300c <getFileData>:
   8300c:	a9bb7bfd 	stp	x29, x30, [sp,#-80]!
   83010:	910003fd 	mov	x29, sp
   83014:	f9000fa0 	str	x0, [x29,#24]
   83018:	b0000000 	adrp	x0, 84000 <itoa+0xc8>
   8301c:	9110e000 	add	x0, x0, #0x438
   83020:	97fff485 	bl	80234 <uart_puts>
   83024:	52800021 	mov	w1, #0x1                   	// #1
   83028:	f9400fa0 	ldr	x0, [x29,#24]
   8302c:	97fff498 	bl	8028c <uart_read_line>
   83030:	528001a0 	mov	w0, #0xd                   	// #13
   83034:	97fff45c 	bl	801a4 <uart_send>
   83038:	b0000000 	adrp	x0, 84000 <itoa+0xc8>
   8303c:	9124e000 	add	x0, x0, #0x938
   83040:	f9400000 	ldr	x0, [x0]
   83044:	f90027a0 	str	x0, [x29,#72]
   83048:	b90043bf 	str	wzr, [x29,#64]
   8304c:	b9003fbf 	str	wzr, [x29,#60]
   83050:	f94027a0 	ldr	x0, [x29,#72]
   83054:	9100d800 	add	x0, x0, #0x36
   83058:	f90027a0 	str	x0, [x29,#72]
   8305c:	52800101 	mov	w1, #0x8                   	// #8
   83060:	f94027a0 	ldr	x0, [x29,#72]
   83064:	9400041a 	bl	840cc <subStr>
   83068:	52800201 	mov	w1, #0x10                  	// #16
   8306c:	94000361 	bl	83df0 <atoi>
   83070:	b90043a0 	str	w0, [x29,#64]
   83074:	f94027a0 	ldr	x0, [x29,#72]
   83078:	9100a000 	add	x0, x0, #0x28
   8307c:	f90027a0 	str	x0, [x29,#72]
   83080:	52800101 	mov	w1, #0x8                   	// #8
   83084:	f94027a0 	ldr	x0, [x29,#72]
   83088:	94000411 	bl	840cc <subStr>
   8308c:	52800201 	mov	w1, #0x10                  	// #16
   83090:	94000358 	bl	83df0 <atoi>
   83094:	b9003fa0 	str	w0, [x29,#60]
   83098:	b9403fa0 	ldr	w0, [x29,#60]
   8309c:	1101b800 	add	w0, w0, #0x6e
   830a0:	12000400 	and	w0, w0, #0x3
   830a4:	7100001f 	cmp	w0, #0x0
   830a8:	54000140 	b.eq	830d0 <getFileData+0xc4>
   830ac:	b9403fa0 	ldr	w0, [x29,#60]
   830b0:	1101b800 	add	w0, w0, #0x6e
   830b4:	6b0003e1 	negs	w1, w0
   830b8:	12000400 	and	w0, w0, #0x3
   830bc:	12000421 	and	w1, w1, #0x3
   830c0:	5a814400 	csneg	w0, w0, w1, mi
   830c4:	52800081 	mov	w1, #0x4                   	// #4
   830c8:	4b000020 	sub	w0, w1, w0
   830cc:	14000002 	b	830d4 <getFileData+0xc8>
   830d0:	52800000 	mov	w0, #0x0                   	// #0
   830d4:	b9403fa1 	ldr	w1, [x29,#60]
   830d8:	0b000020 	add	w0, w1, w0
   830dc:	b9003fa0 	str	w0, [x29,#60]
   830e0:	b94043a0 	ldr	w0, [x29,#64]
   830e4:	12000400 	and	w0, w0, #0x3
   830e8:	7100001f 	cmp	w0, #0x0
   830ec:	54000120 	b.eq	83110 <getFileData+0x104>
   830f0:	b94043a0 	ldr	w0, [x29,#64]
   830f4:	6b0003e1 	negs	w1, w0
   830f8:	12000400 	and	w0, w0, #0x3
   830fc:	12000421 	and	w1, w1, #0x3
   83100:	5a814400 	csneg	w0, w0, w1, mi
   83104:	52800081 	mov	w1, #0x4                   	// #4
   83108:	4b000020 	sub	w0, w1, w0
   8310c:	14000002 	b	83114 <getFileData+0x108>
   83110:	52800000 	mov	w0, #0x0                   	// #0
   83114:	b94043a1 	ldr	w1, [x29,#64]
   83118:	0b000020 	add	w0, w1, w0
   8311c:	b90043a0 	str	w0, [x29,#64]
   83120:	f94027a0 	ldr	x0, [x29,#72]
   83124:	91004000 	add	x0, x0, #0x10
   83128:	f90027a0 	str	x0, [x29,#72]
   8312c:	f94027a0 	ldr	x0, [x29,#72]
   83130:	f9001ba0 	str	x0, [x29,#48]
   83134:	b0000000 	adrp	x0, 84000 <itoa+0xc8>
   83138:	91116000 	add	x0, x0, #0x458
   8313c:	aa0003e1 	mov	x1, x0
   83140:	f9401ba0 	ldr	x0, [x29,#48]
   83144:	940002cd 	bl	83c78 <strcmp>
   83148:	7100001f 	cmp	w0, #0x0
   8314c:	540000a1 	b.ne	83160 <getFileData+0x154>
   83150:	b0000000 	adrp	x0, 84000 <itoa+0xc8>
   83154:	9111a000 	add	x0, x0, #0x468
   83158:	97fff437 	bl	80234 <uart_puts>
   8315c:	1400002b 	b	83208 <getFileData+0x1fc>
   83160:	b9803fa0 	ldrsw	x0, [x29,#60]
   83164:	f94027a1 	ldr	x1, [x29,#72]
   83168:	8b000020 	add	x0, x1, x0
   8316c:	f90027a0 	str	x0, [x29,#72]
   83170:	f94027a0 	ldr	x0, [x29,#72]
   83174:	f90017a0 	str	x0, [x29,#40]
   83178:	f9400fa1 	ldr	x1, [x29,#24]
   8317c:	f9401ba0 	ldr	x0, [x29,#48]
   83180:	940002be 	bl	83c78 <strcmp>
   83184:	7100001f 	cmp	w0, #0x0
   83188:	54000361 	b.ne	831f4 <getFileData+0x1e8>
   8318c:	b90047bf 	str	wzr, [x29,#68]
   83190:	14000011 	b	831d4 <getFileData+0x1c8>
   83194:	b98047a0 	ldrsw	x0, [x29,#68]
   83198:	f94017a1 	ldr	x1, [x29,#40]
   8319c:	8b000020 	add	x0, x1, x0
   831a0:	39400000 	ldrb	w0, [x0]
   831a4:	7100281f 	cmp	w0, #0xa
   831a8:	54000061 	b.ne	831b4 <getFileData+0x1a8>
   831ac:	528001a0 	mov	w0, #0xd                   	// #13
   831b0:	97fff3fd 	bl	801a4 <uart_send>
   831b4:	b98047a0 	ldrsw	x0, [x29,#68]
   831b8:	f94017a1 	ldr	x1, [x29,#40]
   831bc:	8b000020 	add	x0, x1, x0
   831c0:	39400000 	ldrb	w0, [x0]
   831c4:	97fff3f8 	bl	801a4 <uart_send>
   831c8:	b94047a0 	ldr	w0, [x29,#68]
   831cc:	11000400 	add	w0, w0, #0x1
   831d0:	b90047a0 	str	w0, [x29,#68]
   831d4:	b94047a1 	ldr	w1, [x29,#68]
   831d8:	b94043a0 	ldr	w0, [x29,#64]
   831dc:	6b00003f 	cmp	w1, w0
   831e0:	54fffdab 	b.lt	83194 <getFileData+0x188>
   831e4:	b0000000 	adrp	x0, 84000 <itoa+0xc8>
   831e8:	9111e000 	add	x0, x0, #0x478
   831ec:	97fff412 	bl	80234 <uart_puts>
   831f0:	14000006 	b	83208 <getFileData+0x1fc>
   831f4:	b98043a0 	ldrsw	x0, [x29,#64]
   831f8:	f94027a1 	ldr	x1, [x29,#72]
   831fc:	8b000020 	add	x0, x1, x0
   83200:	f90027a0 	str	x0, [x29,#72]
   83204:	17ffff91 	b	83048 <getFileData+0x3c>
   83208:	d503201f 	nop
   8320c:	a8c57bfd 	ldp	x29, x30, [sp],#80
   83210:	d65f03c0 	ret

0000000000083214 <list_file>:
   83214:	a9b77bfd 	stp	x29, x30, [sp,#-144]!
   83218:	910003fd 	mov	x29, sp
   8321c:	b0000000 	adrp	x0, 84000 <itoa+0xc8>
   83220:	9124e000 	add	x0, x0, #0x938
   83224:	f9400000 	ldr	x0, [x0]
   83228:	f90047a0 	str	x0, [x29,#136]
   8322c:	b90087bf 	str	wzr, [x29,#132]
   83230:	b90083bf 	str	wzr, [x29,#128]
   83234:	f94047a0 	ldr	x0, [x29,#136]
   83238:	9100d800 	add	x0, x0, #0x36
   8323c:	f90047a0 	str	x0, [x29,#136]
   83240:	52800101 	mov	w1, #0x8                   	// #8
   83244:	f94047a0 	ldr	x0, [x29,#136]
   83248:	940003a1 	bl	840cc <subStr>
   8324c:	52800201 	mov	w1, #0x10                  	// #16
   83250:	940002e8 	bl	83df0 <atoi>
   83254:	b90087a0 	str	w0, [x29,#132]
   83258:	f94047a0 	ldr	x0, [x29,#136]
   8325c:	9100a000 	add	x0, x0, #0x28
   83260:	f90047a0 	str	x0, [x29,#136]
   83264:	52800101 	mov	w1, #0x8                   	// #8
   83268:	f94047a0 	ldr	x0, [x29,#136]
   8326c:	94000398 	bl	840cc <subStr>
   83270:	52800201 	mov	w1, #0x10                  	// #16
   83274:	940002df 	bl	83df0 <atoi>
   83278:	b90083a0 	str	w0, [x29,#128]
   8327c:	b94083a0 	ldr	w0, [x29,#128]
   83280:	1101b800 	add	w0, w0, #0x6e
   83284:	12000400 	and	w0, w0, #0x3
   83288:	7100001f 	cmp	w0, #0x0
   8328c:	54000140 	b.eq	832b4 <list_file+0xa0>
   83290:	b94083a0 	ldr	w0, [x29,#128]
   83294:	1101b800 	add	w0, w0, #0x6e
   83298:	6b0003e1 	negs	w1, w0
   8329c:	12000400 	and	w0, w0, #0x3
   832a0:	12000421 	and	w1, w1, #0x3
   832a4:	5a814400 	csneg	w0, w0, w1, mi
   832a8:	52800081 	mov	w1, #0x4                   	// #4
   832ac:	4b000020 	sub	w0, w1, w0
   832b0:	14000002 	b	832b8 <list_file+0xa4>
   832b4:	52800000 	mov	w0, #0x0                   	// #0
   832b8:	b94083a1 	ldr	w1, [x29,#128]
   832bc:	0b000020 	add	w0, w1, w0
   832c0:	b90083a0 	str	w0, [x29,#128]
   832c4:	b94087a0 	ldr	w0, [x29,#132]
   832c8:	12000400 	and	w0, w0, #0x3
   832cc:	7100001f 	cmp	w0, #0x0
   832d0:	54000120 	b.eq	832f4 <list_file+0xe0>
   832d4:	b94087a0 	ldr	w0, [x29,#132]
   832d8:	6b0003e1 	negs	w1, w0
   832dc:	12000400 	and	w0, w0, #0x3
   832e0:	12000421 	and	w1, w1, #0x3
   832e4:	5a814400 	csneg	w0, w0, w1, mi
   832e8:	52800081 	mov	w1, #0x4                   	// #4
   832ec:	4b000020 	sub	w0, w1, w0
   832f0:	14000002 	b	832f8 <list_file+0xe4>
   832f4:	52800000 	mov	w0, #0x0                   	// #0
   832f8:	b94087a1 	ldr	w1, [x29,#132]
   832fc:	0b000020 	add	w0, w1, w0
   83300:	b90087a0 	str	w0, [x29,#132]
   83304:	f94047a0 	ldr	x0, [x29,#136]
   83308:	91004000 	add	x0, x0, #0x10
   8330c:	f90047a0 	str	x0, [x29,#136]
   83310:	f94047a0 	ldr	x0, [x29,#136]
   83314:	f9003fa0 	str	x0, [x29,#120]
   83318:	b0000000 	adrp	x0, 84000 <itoa+0xc8>
   8331c:	91116000 	add	x0, x0, #0x458
   83320:	aa0003e1 	mov	x1, x0
   83324:	f9403fa0 	ldr	x0, [x29,#120]
   83328:	94000254 	bl	83c78 <strcmp>
   8332c:	7100001f 	cmp	w0, #0x0
   83330:	540001e0 	b.eq	8336c <list_file+0x158>
   83334:	f9403fa0 	ldr	x0, [x29,#120]
   83338:	97fff3bf 	bl	80234 <uart_puts>
   8333c:	b0000000 	adrp	x0, 84000 <itoa+0xc8>
   83340:	9111e000 	add	x0, x0, #0x478
   83344:	97fff3bc 	bl	80234 <uart_puts>
   83348:	b98083a0 	ldrsw	x0, [x29,#128]
   8334c:	f94047a1 	ldr	x1, [x29,#136]
   83350:	8b000020 	add	x0, x1, x0
   83354:	f90047a0 	str	x0, [x29,#136]
   83358:	b98087a0 	ldrsw	x0, [x29,#132]
   8335c:	f94047a1 	ldr	x1, [x29,#136]
   83360:	8b000020 	add	x0, x1, x0
   83364:	f90047a0 	str	x0, [x29,#136]
   83368:	17ffffb1 	b	8322c <list_file+0x18>
   8336c:	d503201f 	nop
   83370:	910043a0 	add	x0, x29, #0x10
   83374:	97ffff26 	bl	8300c <getFileData>
   83378:	d503201f 	nop
   8337c:	a8c97bfd 	ldp	x29, x30, [sp],#144
   83380:	d65f03c0 	ret

0000000000083384 <load_user_program>:
   83384:	a9b57bfd 	stp	x29, x30, [sp,#-176]!
   83388:	910003fd 	mov	x29, sp
   8338c:	b0000000 	adrp	x0, 84000 <itoa+0xc8>
   83390:	9110e000 	add	x0, x0, #0x438
   83394:	97fff3a8 	bl	80234 <uart_puts>
   83398:	910043a0 	add	x0, x29, #0x10
   8339c:	52800021 	mov	w1, #0x1                   	// #1
   833a0:	97fff3bb 	bl	8028c <uart_read_line>
   833a4:	528001a0 	mov	w0, #0xd                   	// #13
   833a8:	97fff37f 	bl	801a4 <uart_send>
   833ac:	d2a00200 	mov	x0, #0x100000              	// #1048576
   833b0:	f9004fa0 	str	x0, [x29,#152]
   833b4:	f9404fa0 	ldr	x0, [x29,#152]
   833b8:	91400400 	add	x0, x0, #0x1, lsl #12
   833bc:	f9004ba0 	str	x0, [x29,#144]
   833c0:	b0000000 	adrp	x0, 84000 <itoa+0xc8>
   833c4:	9124e000 	add	x0, x0, #0x938
   833c8:	f9400000 	ldr	x0, [x0]
   833cc:	f90057a0 	str	x0, [x29,#168]
   833d0:	b9008fbf 	str	wzr, [x29,#140]
   833d4:	b9008bbf 	str	wzr, [x29,#136]
   833d8:	f94057a0 	ldr	x0, [x29,#168]
   833dc:	9100d800 	add	x0, x0, #0x36
   833e0:	f90057a0 	str	x0, [x29,#168]
   833e4:	52800101 	mov	w1, #0x8                   	// #8
   833e8:	f94057a0 	ldr	x0, [x29,#168]
   833ec:	94000338 	bl	840cc <subStr>
   833f0:	52800201 	mov	w1, #0x10                  	// #16
   833f4:	9400027f 	bl	83df0 <atoi>
   833f8:	b9008fa0 	str	w0, [x29,#140]
   833fc:	f94057a0 	ldr	x0, [x29,#168]
   83400:	9100a000 	add	x0, x0, #0x28
   83404:	f90057a0 	str	x0, [x29,#168]
   83408:	52800101 	mov	w1, #0x8                   	// #8
   8340c:	f94057a0 	ldr	x0, [x29,#168]
   83410:	9400032f 	bl	840cc <subStr>
   83414:	52800201 	mov	w1, #0x10                  	// #16
   83418:	94000276 	bl	83df0 <atoi>
   8341c:	b9008ba0 	str	w0, [x29,#136]
   83420:	b9408ba0 	ldr	w0, [x29,#136]
   83424:	1101b800 	add	w0, w0, #0x6e
   83428:	12000400 	and	w0, w0, #0x3
   8342c:	7100001f 	cmp	w0, #0x0
   83430:	54000140 	b.eq	83458 <load_user_program+0xd4>
   83434:	b9408ba0 	ldr	w0, [x29,#136]
   83438:	1101b800 	add	w0, w0, #0x6e
   8343c:	6b0003e1 	negs	w1, w0
   83440:	12000400 	and	w0, w0, #0x3
   83444:	12000421 	and	w1, w1, #0x3
   83448:	5a814400 	csneg	w0, w0, w1, mi
   8344c:	52800081 	mov	w1, #0x4                   	// #4
   83450:	4b000020 	sub	w0, w1, w0
   83454:	14000002 	b	8345c <load_user_program+0xd8>
   83458:	52800000 	mov	w0, #0x0                   	// #0
   8345c:	b9408ba1 	ldr	w1, [x29,#136]
   83460:	0b000020 	add	w0, w1, w0
   83464:	b9008ba0 	str	w0, [x29,#136]
   83468:	b9408fa0 	ldr	w0, [x29,#140]
   8346c:	12000400 	and	w0, w0, #0x3
   83470:	7100001f 	cmp	w0, #0x0
   83474:	54000120 	b.eq	83498 <load_user_program+0x114>
   83478:	b9408fa0 	ldr	w0, [x29,#140]
   8347c:	6b0003e1 	negs	w1, w0
   83480:	12000400 	and	w0, w0, #0x3
   83484:	12000421 	and	w1, w1, #0x3
   83488:	5a814400 	csneg	w0, w0, w1, mi
   8348c:	52800081 	mov	w1, #0x4                   	// #4
   83490:	4b000020 	sub	w0, w1, w0
   83494:	14000002 	b	8349c <load_user_program+0x118>
   83498:	52800000 	mov	w0, #0x0                   	// #0
   8349c:	b9408fa1 	ldr	w1, [x29,#140]
   834a0:	0b000020 	add	w0, w1, w0
   834a4:	b9008fa0 	str	w0, [x29,#140]
   834a8:	f94057a0 	ldr	x0, [x29,#168]
   834ac:	91004000 	add	x0, x0, #0x10
   834b0:	f90057a0 	str	x0, [x29,#168]
   834b4:	f94057a0 	ldr	x0, [x29,#168]
   834b8:	f90043a0 	str	x0, [x29,#128]
   834bc:	b0000000 	adrp	x0, 84000 <itoa+0xc8>
   834c0:	91116000 	add	x0, x0, #0x458
   834c4:	aa0003e1 	mov	x1, x0
   834c8:	f94043a0 	ldr	x0, [x29,#128]
   834cc:	940001eb 	bl	83c78 <strcmp>
   834d0:	7100001f 	cmp	w0, #0x0
   834d4:	540000a1 	b.ne	834e8 <load_user_program+0x164>
   834d8:	b0000000 	adrp	x0, 84000 <itoa+0xc8>
   834dc:	9111a000 	add	x0, x0, #0x468
   834e0:	97fff355 	bl	80234 <uart_puts>
   834e4:	14000029 	b	83588 <load_user_program+0x204>
   834e8:	b9808ba0 	ldrsw	x0, [x29,#136]
   834ec:	f94057a1 	ldr	x1, [x29,#168]
   834f0:	8b000020 	add	x0, x1, x0
   834f4:	f90057a0 	str	x0, [x29,#168]
   834f8:	f94057a0 	ldr	x0, [x29,#168]
   834fc:	f9003fa0 	str	x0, [x29,#120]
   83500:	910043a0 	add	x0, x29, #0x10
   83504:	aa0003e1 	mov	x1, x0
   83508:	f94043a0 	ldr	x0, [x29,#128]
   8350c:	940001db 	bl	83c78 <strcmp>
   83510:	7100001f 	cmp	w0, #0x0
   83514:	54000301 	b.ne	83574 <load_user_program+0x1f0>
   83518:	b900a7bf 	str	wzr, [x29,#164]
   8351c:	1400000c 	b	8354c <load_user_program+0x1c8>
   83520:	b980a7a0 	ldrsw	x0, [x29,#164]
   83524:	f9404fa1 	ldr	x1, [x29,#152]
   83528:	8b000020 	add	x0, x1, x0
   8352c:	b980a7a1 	ldrsw	x1, [x29,#164]
   83530:	f9403fa2 	ldr	x2, [x29,#120]
   83534:	8b010041 	add	x1, x2, x1
   83538:	39400021 	ldrb	w1, [x1]
   8353c:	39000001 	strb	w1, [x0]
   83540:	b940a7a0 	ldr	w0, [x29,#164]
   83544:	11000400 	add	w0, w0, #0x1
   83548:	b900a7a0 	str	w0, [x29,#164]
   8354c:	b940a7a1 	ldr	w1, [x29,#164]
   83550:	b9408fa0 	ldr	w0, [x29,#140]
   83554:	6b00003f 	cmp	w1, w0
   83558:	54fffe4b 	b.lt	83520 <load_user_program+0x19c>
   8355c:	b0000000 	adrp	x0, 84000 <itoa+0xc8>
   83560:	91120000 	add	x0, x0, #0x480
   83564:	97fff334 	bl	80234 <uart_puts>
   83568:	f9404fa0 	ldr	x0, [x29,#152]
   8356c:	f9404ba1 	ldr	x1, [x29,#144]
   83570:	94000304 	bl	84180 <run_user_program>
   83574:	b9808fa0 	ldrsw	x0, [x29,#140]
   83578:	f94057a1 	ldr	x1, [x29,#168]
   8357c:	8b000020 	add	x0, x1, x0
   83580:	f90057a0 	str	x0, [x29,#168]
   83584:	17ffff93 	b	833d0 <load_user_program+0x4c>
   83588:	d503201f 	nop
   8358c:	a8cb7bfd 	ldp	x29, x30, [sp],#176
   83590:	d65f03c0 	ret

0000000000083594 <argv_puts>:
   83594:	d10103ff 	sub	sp, sp, #0x40
   83598:	f90007e0 	str	x0, [sp,#8]
   8359c:	f90003e1 	str	x1, [sp]
   835a0:	b9003fff 	str	wzr, [sp,#60]
   835a4:	b9003bff 	str	wzr, [sp,#56]
   835a8:	b90037ff 	str	wzr, [sp,#52]
   835ac:	b9403fe0 	ldr	w0, [sp,#60]
   835b0:	11000400 	add	w0, w0, #0x1
   835b4:	b9003fe0 	str	w0, [sp,#60]
   835b8:	b98037e0 	ldrsw	x0, [sp,#52]
   835bc:	d37df000 	lsl	x0, x0, #3
   835c0:	f94007e1 	ldr	x1, [sp,#8]
   835c4:	8b000020 	add	x0, x1, x0
   835c8:	f9400000 	ldr	x0, [x0]
   835cc:	f100001f 	cmp	x0, #0x0
   835d0:	54000300 	b.eq	83630 <argv_puts+0x9c>
   835d4:	b90033ff 	str	wzr, [sp,#48]
   835d8:	b9403be0 	ldr	w0, [sp,#56]
   835dc:	11000400 	add	w0, w0, #0x1
   835e0:	b9003be0 	str	w0, [sp,#56]
   835e4:	b98037e0 	ldrsw	x0, [sp,#52]
   835e8:	d37df000 	lsl	x0, x0, #3
   835ec:	f94007e1 	ldr	x1, [sp,#8]
   835f0:	8b000020 	add	x0, x1, x0
   835f4:	f9400001 	ldr	x1, [x0]
   835f8:	b98033e0 	ldrsw	x0, [sp,#48]
   835fc:	8b000020 	add	x0, x1, x0
   83600:	39400000 	ldrb	w0, [x0]
   83604:	7100001f 	cmp	w0, #0x0
   83608:	540000a0 	b.eq	8361c <argv_puts+0x88>
   8360c:	b94033e0 	ldr	w0, [sp,#48]
   83610:	11000400 	add	w0, w0, #0x1
   83614:	b90033e0 	str	w0, [sp,#48]
   83618:	17fffff0 	b	835d8 <argv_puts+0x44>
   8361c:	d503201f 	nop
   83620:	b94037e0 	ldr	w0, [sp,#52]
   83624:	11000400 	add	w0, w0, #0x1
   83628:	b90037e0 	str	w0, [sp,#52]
   8362c:	17ffffe0 	b	835ac <argv_puts+0x18>
   83630:	d503201f 	nop
   83634:	b9403fe0 	ldr	w0, [sp,#60]
   83638:	11000800 	add	w0, w0, #0x2
   8363c:	531d7001 	lsl	w1, w0, #3
   83640:	b9403be0 	ldr	w0, [sp,#56]
   83644:	0b000020 	add	w0, w1, w0
   83648:	b90017e0 	str	w0, [sp,#20]
   8364c:	b98017e0 	ldrsw	x0, [sp,#20]
   83650:	f94003e1 	ldr	x1, [sp]
   83654:	cb000020 	sub	x0, x1, x0
   83658:	f90003e0 	str	x0, [sp]
   8365c:	f94003e0 	ldr	x0, [sp]
   83660:	927cec00 	and	x0, x0, #0xfffffffffffffff0
   83664:	f90003e0 	str	x0, [sp]
   83668:	f94003e0 	ldr	x0, [sp]
   8366c:	f90017e0 	str	x0, [sp,#40]
   83670:	b9403fe0 	ldr	w0, [sp,#60]
   83674:	51000400 	sub	w0, w0, #0x1
   83678:	93407c01 	sxtw	x1, w0
   8367c:	f94017e0 	ldr	x0, [sp,#40]
   83680:	f9000001 	str	x1, [x0]
   83684:	f94017e0 	ldr	x0, [sp,#40]
   83688:	91002000 	add	x0, x0, #0x8
   8368c:	f90017e0 	str	x0, [sp,#40]
   83690:	f94017e0 	ldr	x0, [sp,#40]
   83694:	91002000 	add	x0, x0, #0x8
   83698:	aa0003e1 	mov	x1, x0
   8369c:	f94017e0 	ldr	x0, [sp,#40]
   836a0:	f9000001 	str	x1, [x0]
   836a4:	f94017e0 	ldr	x0, [sp,#40]
   836a8:	91002000 	add	x0, x0, #0x8
   836ac:	f90017e0 	str	x0, [sp,#40]
   836b0:	b9403fe0 	ldr	w0, [sp,#60]
   836b4:	531d7000 	lsl	w0, w0, #3
   836b8:	93407c00 	sxtw	x0, w0
   836bc:	f94017e1 	ldr	x1, [sp,#40]
   836c0:	8b000020 	add	x0, x1, x0
   836c4:	f90013e0 	str	x0, [sp,#32]
   836c8:	b9001fff 	str	wzr, [sp,#28]
   836cc:	1400002f 	b	83788 <argv_puts+0x1f4>
   836d0:	b9401fe0 	ldr	w0, [sp,#28]
   836d4:	11000401 	add	w1, w0, #0x1
   836d8:	b9403fe0 	ldr	w0, [sp,#60]
   836dc:	6b00003f 	cmp	w1, w0
   836e0:	54000081 	b.ne	836f0 <argv_puts+0x15c>
   836e4:	f94017e0 	ldr	x0, [sp,#40]
   836e8:	f900001f 	str	xzr, [x0]
   836ec:	14000024 	b	8377c <argv_puts+0x1e8>
   836f0:	f94013e1 	ldr	x1, [sp,#32]
   836f4:	f94017e0 	ldr	x0, [sp,#40]
   836f8:	f9000001 	str	x1, [x0]
   836fc:	f94017e0 	ldr	x0, [sp,#40]
   83700:	91002000 	add	x0, x0, #0x8
   83704:	f90017e0 	str	x0, [sp,#40]
   83708:	b9001bff 	str	wzr, [sp,#24]
   8370c:	b9801fe0 	ldrsw	x0, [sp,#28]
   83710:	d37df000 	lsl	x0, x0, #3
   83714:	f94007e1 	ldr	x1, [sp,#8]
   83718:	8b000020 	add	x0, x1, x0
   8371c:	f9400001 	ldr	x1, [x0]
   83720:	b9801be0 	ldrsw	x0, [sp,#24]
   83724:	8b000020 	add	x0, x1, x0
   83728:	39400001 	ldrb	w1, [x0]
   8372c:	f94013e0 	ldr	x0, [sp,#32]
   83730:	39000001 	strb	w1, [x0]
   83734:	f94013e0 	ldr	x0, [sp,#32]
   83738:	91000400 	add	x0, x0, #0x1
   8373c:	f90013e0 	str	x0, [sp,#32]
   83740:	b9801fe0 	ldrsw	x0, [sp,#28]
   83744:	d37df000 	lsl	x0, x0, #3
   83748:	f94007e1 	ldr	x1, [sp,#8]
   8374c:	8b000020 	add	x0, x1, x0
   83750:	f9400001 	ldr	x1, [x0]
   83754:	b9801be0 	ldrsw	x0, [sp,#24]
   83758:	8b000020 	add	x0, x1, x0
   8375c:	39400000 	ldrb	w0, [x0]
   83760:	7100001f 	cmp	w0, #0x0
   83764:	540000a0 	b.eq	83778 <argv_puts+0x1e4>
   83768:	b9401be0 	ldr	w0, [sp,#24]
   8376c:	11000400 	add	w0, w0, #0x1
   83770:	b9001be0 	str	w0, [sp,#24]
   83774:	17ffffe6 	b	8370c <argv_puts+0x178>
   83778:	d503201f 	nop
   8377c:	b9401fe0 	ldr	w0, [sp,#28]
   83780:	11000400 	add	w0, w0, #0x1
   83784:	b9001fe0 	str	w0, [sp,#28]
   83788:	b9401fe1 	ldr	w1, [sp,#28]
   8378c:	b9403fe0 	ldr	w0, [sp,#60]
   83790:	6b00003f 	cmp	w1, w0
   83794:	54fff9eb 	b.lt	836d0 <argv_puts+0x13c>
   83798:	f94003e0 	ldr	x0, [sp]
   8379c:	910103ff 	add	sp, sp, #0x40
   837a0:	d65f03c0 	ret

00000000000837a4 <load_user_program_withArgv>:
   837a4:	a9ba7bfd 	stp	x29, x30, [sp,#-96]!
   837a8:	910003fd 	mov	x29, sp
   837ac:	f9000fa0 	str	x0, [x29,#24]
   837b0:	f9000ba1 	str	x1, [x29,#16]
   837b4:	b0000000 	adrp	x0, 84000 <itoa+0xc8>
   837b8:	91124000 	add	x0, x0, #0x490
   837bc:	97fff29e 	bl	80234 <uart_puts>
   837c0:	52800020 	mov	w0, #0x1                   	// #1
   837c4:	97fff33a 	bl	804ac <uart_getX>
   837c8:	f90027a0 	str	x0, [x29,#72]
   837cc:	f94027a0 	ldr	x0, [x29,#72]
   837d0:	91400400 	add	x0, x0, #0x1, lsl #12
   837d4:	f90023a0 	str	x0, [x29,#64]
   837d8:	b0000000 	adrp	x0, 84000 <itoa+0xc8>
   837dc:	9124e000 	add	x0, x0, #0x938
   837e0:	f9400000 	ldr	x0, [x0]
   837e4:	f9002fa0 	str	x0, [x29,#88]
   837e8:	f9001fbf 	str	xzr, [x29,#56]
   837ec:	b90037bf 	str	wzr, [x29,#52]
   837f0:	b90037bf 	str	wzr, [x29,#52]
   837f4:	b90033bf 	str	wzr, [x29,#48]
   837f8:	f9402fa0 	ldr	x0, [x29,#88]
   837fc:	9100d800 	add	x0, x0, #0x36
   83800:	f9002fa0 	str	x0, [x29,#88]
   83804:	52800101 	mov	w1, #0x8                   	// #8
   83808:	f9402fa0 	ldr	x0, [x29,#88]
   8380c:	94000230 	bl	840cc <subStr>
   83810:	52800201 	mov	w1, #0x10                  	// #16
   83814:	94000177 	bl	83df0 <atoi>
   83818:	b90037a0 	str	w0, [x29,#52]
   8381c:	f9402fa0 	ldr	x0, [x29,#88]
   83820:	9100a000 	add	x0, x0, #0x28
   83824:	f9002fa0 	str	x0, [x29,#88]
   83828:	52800101 	mov	w1, #0x8                   	// #8
   8382c:	f9402fa0 	ldr	x0, [x29,#88]
   83830:	94000227 	bl	840cc <subStr>
   83834:	52800201 	mov	w1, #0x10                  	// #16
   83838:	9400016e 	bl	83df0 <atoi>
   8383c:	b90033a0 	str	w0, [x29,#48]
   83840:	b94033a0 	ldr	w0, [x29,#48]
   83844:	1101b800 	add	w0, w0, #0x6e
   83848:	12000400 	and	w0, w0, #0x3
   8384c:	7100001f 	cmp	w0, #0x0
   83850:	54000140 	b.eq	83878 <load_user_program_withArgv+0xd4>
   83854:	b94033a0 	ldr	w0, [x29,#48]
   83858:	1101b800 	add	w0, w0, #0x6e
   8385c:	6b0003e1 	negs	w1, w0
   83860:	12000400 	and	w0, w0, #0x3
   83864:	12000421 	and	w1, w1, #0x3
   83868:	5a814400 	csneg	w0, w0, w1, mi
   8386c:	52800081 	mov	w1, #0x4                   	// #4
   83870:	4b000020 	sub	w0, w1, w0
   83874:	14000002 	b	8387c <load_user_program_withArgv+0xd8>
   83878:	52800000 	mov	w0, #0x0                   	// #0
   8387c:	b94033a1 	ldr	w1, [x29,#48]
   83880:	0b000020 	add	w0, w1, w0
   83884:	b90033a0 	str	w0, [x29,#48]
   83888:	b94037a0 	ldr	w0, [x29,#52]
   8388c:	12000400 	and	w0, w0, #0x3
   83890:	7100001f 	cmp	w0, #0x0
   83894:	54000120 	b.eq	838b8 <load_user_program_withArgv+0x114>
   83898:	b94037a0 	ldr	w0, [x29,#52]
   8389c:	6b0003e1 	negs	w1, w0
   838a0:	12000400 	and	w0, w0, #0x3
   838a4:	12000421 	and	w1, w1, #0x3
   838a8:	5a814400 	csneg	w0, w0, w1, mi
   838ac:	52800081 	mov	w1, #0x4                   	// #4
   838b0:	4b000020 	sub	w0, w1, w0
   838b4:	14000002 	b	838bc <load_user_program_withArgv+0x118>
   838b8:	52800000 	mov	w0, #0x0                   	// #0
   838bc:	b94037a1 	ldr	w1, [x29,#52]
   838c0:	0b000020 	add	w0, w1, w0
   838c4:	b90037a0 	str	w0, [x29,#52]
   838c8:	f9402fa0 	ldr	x0, [x29,#88]
   838cc:	91004000 	add	x0, x0, #0x10
   838d0:	f9002fa0 	str	x0, [x29,#88]
   838d4:	f9402fa0 	ldr	x0, [x29,#88]
   838d8:	f90017a0 	str	x0, [x29,#40]
   838dc:	b0000000 	adrp	x0, 84000 <itoa+0xc8>
   838e0:	91116000 	add	x0, x0, #0x458
   838e4:	aa0003e1 	mov	x1, x0
   838e8:	f94017a0 	ldr	x0, [x29,#40]
   838ec:	940000e3 	bl	83c78 <strcmp>
   838f0:	7100001f 	cmp	w0, #0x0
   838f4:	540000c1 	b.ne	8390c <load_user_program_withArgv+0x168>
   838f8:	b0000000 	adrp	x0, 84000 <itoa+0xc8>
   838fc:	9111a000 	add	x0, x0, #0x468
   83900:	97fff24d 	bl	80234 <uart_puts>
   83904:	d2800000 	mov	x0, #0x0                   	// #0
   83908:	14000038 	b	839e8 <load_user_program_withArgv+0x244>
   8390c:	b98033a0 	ldrsw	x0, [x29,#48]
   83910:	f9402fa1 	ldr	x1, [x29,#88]
   83914:	8b000020 	add	x0, x1, x0
   83918:	f9002fa0 	str	x0, [x29,#88]
   8391c:	f9402fa0 	ldr	x0, [x29,#88]
   83920:	f9001fa0 	str	x0, [x29,#56]
   83924:	f9400fa1 	ldr	x1, [x29,#24]
   83928:	f94017a0 	ldr	x0, [x29,#40]
   8392c:	940000d3 	bl	83c78 <strcmp>
   83930:	7100001f 	cmp	w0, #0x0
   83934:	54000181 	b.ne	83964 <load_user_program_withArgv+0x1c0>
   83938:	b0000000 	adrp	x0, 84000 <itoa+0xc8>
   8393c:	9112e000 	add	x0, x0, #0x4b8
   83940:	97fff23d 	bl	80234 <uart_puts>
   83944:	f94017a0 	ldr	x0, [x29,#40]
   83948:	97fff23b 	bl	80234 <uart_puts>
   8394c:	b0000000 	adrp	x0, 84000 <itoa+0xc8>
   83950:	9111e000 	add	x0, x0, #0x478
   83954:	97fff238 	bl	80234 <uart_puts>
   83958:	d503201f 	nop
   8395c:	b90057bf 	str	wzr, [x29,#84]
   83960:	14000013 	b	839ac <load_user_program_withArgv+0x208>
   83964:	b98037a0 	ldrsw	x0, [x29,#52]
   83968:	f9402fa1 	ldr	x1, [x29,#88]
   8396c:	8b000020 	add	x0, x1, x0
   83970:	f9002fa0 	str	x0, [x29,#88]
   83974:	17ffff9f 	b	837f0 <load_user_program_withArgv+0x4c>
   83978:	b98057a0 	ldrsw	x0, [x29,#84]
   8397c:	d37df000 	lsl	x0, x0, #3
   83980:	f94027a1 	ldr	x1, [x29,#72]
   83984:	8b000020 	add	x0, x1, x0
   83988:	b98057a1 	ldrsw	x1, [x29,#84]
   8398c:	d37df021 	lsl	x1, x1, #3
   83990:	f9401fa2 	ldr	x2, [x29,#56]
   83994:	8b010041 	add	x1, x2, x1
   83998:	f9400021 	ldr	x1, [x1]
   8399c:	f9000001 	str	x1, [x0]
   839a0:	b94057a0 	ldr	w0, [x29,#84]
   839a4:	11000400 	add	w0, w0, #0x1
   839a8:	b90057a0 	str	w0, [x29,#84]
   839ac:	b94057a1 	ldr	w1, [x29,#84]
   839b0:	b94037a0 	ldr	w0, [x29,#52]
   839b4:	6b00003f 	cmp	w1, w0
   839b8:	54fffe0b 	b.lt	83978 <load_user_program_withArgv+0x1d4>
   839bc:	b0000000 	adrp	x0, 84000 <itoa+0xc8>
   839c0:	91130000 	add	x0, x0, #0x4c0
   839c4:	97fff21c 	bl	80234 <uart_puts>
   839c8:	f94023a1 	ldr	x1, [x29,#64]
   839cc:	f9400ba0 	ldr	x0, [x29,#16]
   839d0:	97fffef1 	bl	83594 <argv_puts>
   839d4:	f90023a0 	str	x0, [x29,#64]
   839d8:	f94027a0 	ldr	x0, [x29,#72]
   839dc:	f94023a1 	ldr	x1, [x29,#64]
   839e0:	940001e8 	bl	84180 <run_user_program>
   839e4:	d2800020 	mov	x0, #0x1                   	// #1
   839e8:	a8c67bfd 	ldp	x29, x30, [sp],#96
   839ec:	d65f03c0 	ret

00000000000839f0 <hello>:
   839f0:	a9bf7bfd 	stp	x29, x30, [sp,#-16]!
   839f4:	910003fd 	mov	x29, sp
   839f8:	b0000000 	adrp	x0, 84000 <itoa+0xc8>
   839fc:	91138000 	add	x0, x0, #0x4e0
   83a00:	97fff20d 	bl	80234 <uart_puts>
   83a04:	d503201f 	nop
   83a08:	a8c17bfd 	ldp	x29, x30, [sp],#16
   83a0c:	d65f03c0 	ret

0000000000083a10 <help>:
   83a10:	a9bf7bfd 	stp	x29, x30, [sp,#-16]!
   83a14:	910003fd 	mov	x29, sp
   83a18:	b0000000 	adrp	x0, 84000 <itoa+0xc8>
   83a1c:	9113c000 	add	x0, x0, #0x4f0
   83a20:	97fff205 	bl	80234 <uart_puts>
   83a24:	b0000000 	adrp	x0, 84000 <itoa+0xc8>
   83a28:	91146000 	add	x0, x0, #0x518
   83a2c:	97fff202 	bl	80234 <uart_puts>
   83a30:	b0000000 	adrp	x0, 84000 <itoa+0xc8>
   83a34:	9114e000 	add	x0, x0, #0x538
   83a38:	97fff1ff 	bl	80234 <uart_puts>
   83a3c:	b0000000 	adrp	x0, 84000 <itoa+0xc8>
   83a40:	91152000 	add	x0, x0, #0x548
   83a44:	97fff1fc 	bl	80234 <uart_puts>
   83a48:	d503201f 	nop
   83a4c:	a8c17bfd 	ldp	x29, x30, [sp],#16
   83a50:	d65f03c0 	ret

0000000000083a54 <reset>:
   83a54:	d10043ff 	sub	sp, sp, #0x10
   83a58:	b9000fe0 	str	w0, [sp,#12]
   83a5c:	d2800380 	mov	x0, #0x1c                  	// #28
   83a60:	f2a7e200 	movk	x0, #0x3f10, lsl #16
   83a64:	52800401 	mov	w1, #0x20                  	// #32
   83a68:	72ab4001 	movk	w1, #0x5a00, lsl #16
   83a6c:	b9000001 	str	w1, [x0]
   83a70:	d2800480 	mov	x0, #0x24                  	// #36
   83a74:	f2a7e200 	movk	x0, #0x3f10, lsl #16
   83a78:	b9400fe2 	ldr	w2, [sp,#12]
   83a7c:	52ab4001 	mov	w1, #0x5a000000            	// #1509949440
   83a80:	2a010041 	orr	w1, w2, w1
   83a84:	b9000001 	str	w1, [x0]
   83a88:	d503201f 	nop
   83a8c:	910043ff 	add	sp, sp, #0x10
   83a90:	d65f03c0 	ret

0000000000083a94 <cancel_reset>:
   83a94:	d2800380 	mov	x0, #0x1c                  	// #28
   83a98:	f2a7e200 	movk	x0, #0x3f10, lsl #16
   83a9c:	52ab4001 	mov	w1, #0x5a000000            	// #1509949440
   83aa0:	b9000001 	str	w1, [x0]
   83aa4:	d2800480 	mov	x0, #0x24                  	// #36
   83aa8:	f2a7e200 	movk	x0, #0x3f10, lsl #16
   83aac:	52ab4001 	mov	w1, #0x5a000000            	// #1509949440
   83ab0:	b9000001 	str	w1, [x0]
   83ab4:	d503201f 	nop
   83ab8:	d65f03c0 	ret

0000000000083abc <reboot>:
   83abc:	a9bf7bfd 	stp	x29, x30, [sp,#-16]!
   83ac0:	910003fd 	mov	x29, sp
   83ac4:	b0000000 	adrp	x0, 84000 <itoa+0xc8>
   83ac8:	91158000 	add	x0, x0, #0x560
   83acc:	97fff1da 	bl	80234 <uart_puts>
   83ad0:	52800c80 	mov	w0, #0x64                  	// #100
   83ad4:	97ffffe0 	bl	83a54 <reset>
   83ad8:	d503201f 	nop
   83adc:	a8c17bfd 	ldp	x29, x30, [sp],#16
   83ae0:	d65f03c0 	ret

0000000000083ae4 <main>:
   83ae4:	a9bd7bfd 	stp	x29, x30, [sp,#-48]!
   83ae8:	910003fd 	mov	x29, sp
   83aec:	97fff15d 	bl	80060 <uart_init>
   83af0:	97fff363 	bl	8087c <init_buckets>
   83af4:	b0000000 	adrp	x0, 84000 <itoa+0xc8>
   83af8:	9115c000 	add	x0, x0, #0x570
   83afc:	f90017a0 	str	x0, [x29,#40]
   83b00:	f94017a0 	ldr	x0, [x29,#40]
   83b04:	97fff1cc 	bl	80234 <uart_puts>
   83b08:	b0000000 	adrp	x0, 84000 <itoa+0xc8>
   83b0c:	91218000 	add	x0, x0, #0x860
   83b10:	97fff1c9 	bl	80234 <uart_puts>
   83b14:	910043a0 	add	x0, x29, #0x10
   83b18:	52800021 	mov	w1, #0x1                   	// #1
   83b1c:	97fff1dc 	bl	8028c <uart_read_line>
   83b20:	528001a0 	mov	w0, #0xd                   	// #13
   83b24:	97fff1a0 	bl	801a4 <uart_send>
   83b28:	b0000000 	adrp	x0, 84000 <itoa+0xc8>
   83b2c:	9121a001 	add	x1, x0, #0x868
   83b30:	910043a0 	add	x0, x29, #0x10
   83b34:	94000051 	bl	83c78 <strcmp>
   83b38:	7100001f 	cmp	w0, #0x0
   83b3c:	54000061 	b.ne	83b48 <main+0x64>
   83b40:	97ffffac 	bl	839f0 <hello>
   83b44:	17fffff1 	b	83b08 <main+0x24>
   83b48:	b0000000 	adrp	x0, 84000 <itoa+0xc8>
   83b4c:	9121c001 	add	x1, x0, #0x870
   83b50:	910043a0 	add	x0, x29, #0x10
   83b54:	94000049 	bl	83c78 <strcmp>
   83b58:	7100001f 	cmp	w0, #0x0
   83b5c:	54000061 	b.ne	83b68 <main+0x84>
   83b60:	97ffffac 	bl	83a10 <help>
   83b64:	17ffffe9 	b	83b08 <main+0x24>
   83b68:	b0000000 	adrp	x0, 84000 <itoa+0xc8>
   83b6c:	9121e001 	add	x1, x0, #0x878
   83b70:	910043a0 	add	x0, x29, #0x10
   83b74:	94000041 	bl	83c78 <strcmp>
   83b78:	7100001f 	cmp	w0, #0x0
   83b7c:	54000061 	b.ne	83b88 <main+0xa4>
   83b80:	97ffffcf 	bl	83abc <reboot>
   83b84:	17ffffe1 	b	83b08 <main+0x24>
   83b88:	b0000000 	adrp	x0, 84000 <itoa+0xc8>
   83b8c:	91220001 	add	x1, x0, #0x880
   83b90:	910043a0 	add	x0, x29, #0x10
   83b94:	94000039 	bl	83c78 <strcmp>
   83b98:	7100001f 	cmp	w0, #0x0
   83b9c:	54000061 	b.ne	83ba8 <main+0xc4>
   83ba0:	97fffd9d 	bl	83214 <list_file>
   83ba4:	17ffffd9 	b	83b08 <main+0x24>
   83ba8:	b0000000 	adrp	x0, 84000 <itoa+0xc8>
   83bac:	91222001 	add	x1, x0, #0x888
   83bb0:	910043a0 	add	x0, x29, #0x10
   83bb4:	94000031 	bl	83c78 <strcmp>
   83bb8:	7100001f 	cmp	w0, #0x0
   83bbc:	54000061 	b.ne	83bc8 <main+0xe4>
   83bc0:	97fff6ed 	bl	81774 <lab3>
   83bc4:	17ffffd1 	b	83b08 <main+0x24>
   83bc8:	b0000000 	adrp	x0, 84000 <itoa+0xc8>
   83bcc:	91224001 	add	x1, x0, #0x890
   83bd0:	910043a0 	add	x0, x29, #0x10
   83bd4:	94000029 	bl	83c78 <strcmp>
   83bd8:	7100001f 	cmp	w0, #0x0
   83bdc:	54000061 	b.ne	83be8 <main+0x104>
   83be0:	97fffde9 	bl	83384 <load_user_program>
   83be4:	17ffffc9 	b	83b08 <main+0x24>
   83be8:	b0000000 	adrp	x0, 84000 <itoa+0xc8>
   83bec:	91226001 	add	x1, x0, #0x898
   83bf0:	910043a0 	add	x0, x29, #0x10
   83bf4:	94000021 	bl	83c78 <strcmp>
   83bf8:	7100001f 	cmp	w0, #0x0
   83bfc:	54000081 	b.ne	83c0c <main+0x128>
   83c00:	9400016a 	bl	841a8 <core_timer_enable>
   83c04:	94000159 	bl	84168 <from_el1_to_el0>
   83c08:	17ffffc0 	b	83b08 <main+0x24>
   83c0c:	b0000000 	adrp	x0, 84000 <itoa+0xc8>
   83c10:	91228001 	add	x1, x0, #0x8a0
   83c14:	910043a0 	add	x0, x29, #0x10
   83c18:	94000018 	bl	83c78 <strcmp>
   83c1c:	7100001f 	cmp	w0, #0x0
   83c20:	54000081 	b.ne	83c30 <main+0x14c>
   83c24:	52800040 	mov	w0, #0x2                   	// #2
   83c28:	97fff712 	bl	81870 <lab5_required_1>
   83c2c:	17ffffb7 	b	83b08 <main+0x24>
   83c30:	b0000000 	adrp	x0, 84000 <itoa+0xc8>
   83c34:	9122a001 	add	x1, x0, #0x8a8
   83c38:	910043a0 	add	x0, x29, #0x10
   83c3c:	9400000f 	bl	83c78 <strcmp>
   83c40:	7100001f 	cmp	w0, #0x0
   83c44:	54000081 	b.ne	83c54 <main+0x170>
   83c48:	94000158 	bl	841a8 <core_timer_enable>
   83c4c:	97fff73a 	bl	81934 <lab5_required_2>
   83c50:	17ffffae 	b	83b08 <main+0x24>
   83c54:	b0000000 	adrp	x0, 84000 <itoa+0xc8>
   83c58:	9122c000 	add	x0, x0, #0x8b0
   83c5c:	97fff176 	bl	80234 <uart_puts>
   83c60:	910043a0 	add	x0, x29, #0x10
   83c64:	97fff174 	bl	80234 <uart_puts>
   83c68:	b0000000 	adrp	x0, 84000 <itoa+0xc8>
   83c6c:	9122e000 	add	x0, x0, #0x8b8
   83c70:	97fff171 	bl	80234 <uart_puts>
   83c74:	17ffffa5 	b	83b08 <main+0x24>

0000000000083c78 <strcmp>:
   83c78:	d10043ff 	sub	sp, sp, #0x10
   83c7c:	f90007e0 	str	x0, [sp,#8]
   83c80:	f90003e1 	str	x1, [sp]
   83c84:	1400000f 	b	83cc0 <strcmp+0x48>
   83c88:	f94007e0 	ldr	x0, [sp,#8]
   83c8c:	39400001 	ldrb	w1, [x0]
   83c90:	f94003e0 	ldr	x0, [sp]
   83c94:	39400000 	ldrb	w0, [x0]
   83c98:	6b00003f 	cmp	w1, w0
   83c9c:	54000060 	b.eq	83ca8 <strcmp+0x30>
   83ca0:	52800020 	mov	w0, #0x1                   	// #1
   83ca4:	14000014 	b	83cf4 <strcmp+0x7c>
   83ca8:	f94007e0 	ldr	x0, [sp,#8]
   83cac:	91000400 	add	x0, x0, #0x1
   83cb0:	f90007e0 	str	x0, [sp,#8]
   83cb4:	f94003e0 	ldr	x0, [sp]
   83cb8:	91000400 	add	x0, x0, #0x1
   83cbc:	f90003e0 	str	x0, [sp]
   83cc0:	f94007e0 	ldr	x0, [sp,#8]
   83cc4:	39400000 	ldrb	w0, [x0]
   83cc8:	7100001f 	cmp	w0, #0x0
   83ccc:	54fffde1 	b.ne	83c88 <strcmp+0x10>
   83cd0:	f94007e0 	ldr	x0, [sp,#8]
   83cd4:	39400001 	ldrb	w1, [x0]
   83cd8:	f94003e0 	ldr	x0, [sp]
   83cdc:	39400000 	ldrb	w0, [x0]
   83ce0:	6b00003f 	cmp	w1, w0
   83ce4:	54000060 	b.eq	83cf0 <strcmp+0x78>
   83ce8:	52800020 	mov	w0, #0x1                   	// #1
   83cec:	14000002 	b	83cf4 <strcmp+0x7c>
   83cf0:	52800000 	mov	w0, #0x0                   	// #0
   83cf4:	910043ff 	add	sp, sp, #0x10
   83cf8:	d65f03c0 	ret

0000000000083cfc <sys_getpid>:
   83cfc:	b0000000 	adrp	x0, 84000 <itoa+0xc8>
   83d00:	91314000 	add	x0, x0, #0xc50
   83d04:	f9400000 	ldr	x0, [x0]
   83d08:	b9406800 	ldr	w0, [x0,#104]
   83d0c:	d65f03c0 	ret

0000000000083d10 <sys_uart_read>:
   83d10:	a9be7bfd 	stp	x29, x30, [sp,#-32]!
   83d14:	910003fd 	mov	x29, sp
   83d18:	f9000fa0 	str	x0, [x29,#24]
   83d1c:	b90017a1 	str	w1, [x29,#20]
   83d20:	52800022 	mov	w2, #0x1                   	// #1
   83d24:	b94017a1 	ldr	w1, [x29,#20]
   83d28:	f9400fa0 	ldr	x0, [x29,#24]
   83d2c:	97fff1af 	bl	803e8 <uart_read_buff>
   83d30:	d503201f 	nop
   83d34:	a8c27bfd 	ldp	x29, x30, [sp],#32
   83d38:	d65f03c0 	ret

0000000000083d3c <sys_uart_write>:
   83d3c:	a9be7bfd 	stp	x29, x30, [sp,#-32]!
   83d40:	910003fd 	mov	x29, sp
   83d44:	f9000fa0 	str	x0, [x29,#24]
   83d48:	b90017a1 	str	w1, [x29,#20]
   83d4c:	f9400fa0 	ldr	x0, [x29,#24]
   83d50:	97fff139 	bl	80234 <uart_puts>
   83d54:	d503201f 	nop
   83d58:	a8c27bfd 	ldp	x29, x30, [sp],#32
   83d5c:	d65f03c0 	ret

0000000000083d60 <sys_exec>:
   83d60:	a9be7bfd 	stp	x29, x30, [sp,#-32]!
   83d64:	910003fd 	mov	x29, sp
   83d68:	f9000fa0 	str	x0, [x29,#24]
   83d6c:	f9000ba1 	str	x1, [x29,#16]
   83d70:	f9400ba1 	ldr	x1, [x29,#16]
   83d74:	f9400fa0 	ldr	x0, [x29,#24]
   83d78:	97fffe8b 	bl	837a4 <load_user_program_withArgv>
   83d7c:	d503201f 	nop
   83d80:	a8c27bfd 	ldp	x29, x30, [sp],#32
   83d84:	d65f03c0 	ret

0000000000083d88 <sys_exit>:
   83d88:	a9bf7bfd 	stp	x29, x30, [sp,#-16]!
   83d8c:	910003fd 	mov	x29, sp
   83d90:	97fff5c6 	bl	814a8 <_exit>
   83d94:	d503201f 	nop
   83d98:	a8c17bfd 	ldp	x29, x30, [sp],#16
   83d9c:	d65f03c0 	ret

0000000000083da0 <sys_fork>:
   83da0:	a9be7bfd 	stp	x29, x30, [sp,#-32]!
   83da4:	910003fd 	mov	x29, sp
   83da8:	52820000 	mov	w0, #0x1000                	// #4096
   83dac:	97fff341 	bl	80ab0 <kmalloc>
   83db0:	93407c00 	sxtw	x0, w0
   83db4:	f9000fa0 	str	x0, [x29,#24]
   83db8:	f9400fa0 	ldr	x0, [x29,#24]
   83dbc:	f100001f 	cmp	x0, #0x0
   83dc0:	54000041 	b.ne	83dc8 <sys_fork+0x28>
   83dc4:	14000000 	b	83dc4 <sys_fork+0x24>
   83dc8:	f9400fa3 	ldr	x3, [x29,#24]
   83dcc:	d2800002 	mov	x2, #0x0                   	// #0
   83dd0:	d2800001 	mov	x1, #0x0                   	// #0
   83dd4:	d2800000 	mov	x0, #0x0                   	// #0
   83dd8:	97fff4c2 	bl	810e0 <create_thread>
   83ddc:	a8c27bfd 	ldp	x29, x30, [sp],#32
   83de0:	d65f03c0 	ret

0000000000083de4 <ret_from_fork>:
   83de4:	97fff591 	bl	81428 <schedule_tail>
   83de8:	aa1403e0 	mov	x0, x20
   83dec:	d63f0260 	blr	x19

0000000000083df0 <atoi>:
   83df0:	d100c3ff 	sub	sp, sp, #0x30
   83df4:	f90007e0 	str	x0, [sp,#8]
   83df8:	b90007e1 	str	w1, [sp,#4]
   83dfc:	b9002fff 	str	wzr, [sp,#44]
   83e00:	b9002bff 	str	wzr, [sp,#40]
   83e04:	b90027ff 	str	wzr, [sp,#36]
   83e08:	1400003b 	b	83ef4 <atoi+0x104>
   83e0c:	b9402fe0 	ldr	w0, [sp,#44]
   83e10:	7100001f 	cmp	w0, #0x0
   83e14:	54000121 	b.ne	83e38 <atoi+0x48>
   83e18:	b9802fe0 	ldrsw	x0, [sp,#44]
   83e1c:	f94007e1 	ldr	x1, [sp,#8]
   83e20:	8b000020 	add	x0, x1, x0
   83e24:	39400000 	ldrb	w0, [x0]
   83e28:	7100b41f 	cmp	w0, #0x2d
   83e2c:	54000061 	b.ne	83e38 <atoi+0x48>
   83e30:	52800020 	mov	w0, #0x1                   	// #1
   83e34:	b90027e0 	str	w0, [sp,#36]
   83e38:	b94007e0 	ldr	w0, [sp,#4]
   83e3c:	7100281f 	cmp	w0, #0xa
   83e40:	54000201 	b.ne	83e80 <atoi+0x90>
   83e44:	b9802fe0 	ldrsw	x0, [sp,#44]
   83e48:	f94007e1 	ldr	x1, [sp,#8]
   83e4c:	8b000020 	add	x0, x1, x0
   83e50:	39400000 	ldrb	w0, [x0]
   83e54:	5100c000 	sub	w0, w0, #0x30
   83e58:	b90023e0 	str	w0, [sp,#32]
   83e5c:	b9402be1 	ldr	w1, [sp,#40]
   83e60:	2a0103e0 	mov	w0, w1
   83e64:	531e7400 	lsl	w0, w0, #2
   83e68:	0b010000 	add	w0, w0, w1
   83e6c:	531f7800 	lsl	w0, w0, #1
   83e70:	2a0003e1 	mov	w1, w0
   83e74:	b94023e0 	ldr	w0, [sp,#32]
   83e78:	0b000020 	add	w0, w1, w0
   83e7c:	b9002be0 	str	w0, [sp,#40]
   83e80:	b94007e0 	ldr	w0, [sp,#4]
   83e84:	7100401f 	cmp	w0, #0x10
   83e88:	54000301 	b.ne	83ee8 <atoi+0xf8>
   83e8c:	b9802fe0 	ldrsw	x0, [sp,#44]
   83e90:	f94007e1 	ldr	x1, [sp,#8]
   83e94:	8b000020 	add	x0, x1, x0
   83e98:	39400000 	ldrb	w0, [x0]
   83e9c:	7101001f 	cmp	w0, #0x40
   83ea0:	540000e9 	b.ls	83ebc <atoi+0xcc>
   83ea4:	b9802fe0 	ldrsw	x0, [sp,#44]
   83ea8:	f94007e1 	ldr	x1, [sp,#8]
   83eac:	8b000020 	add	x0, x1, x0
   83eb0:	39400000 	ldrb	w0, [x0]
   83eb4:	5100dc00 	sub	w0, w0, #0x37
   83eb8:	14000006 	b	83ed0 <atoi+0xe0>
   83ebc:	b9802fe0 	ldrsw	x0, [sp,#44]
   83ec0:	f94007e1 	ldr	x1, [sp,#8]
   83ec4:	8b000020 	add	x0, x1, x0
   83ec8:	39400000 	ldrb	w0, [x0]
   83ecc:	5100c000 	sub	w0, w0, #0x30
   83ed0:	b9001fe0 	str	w0, [sp,#28]
   83ed4:	b9402be0 	ldr	w0, [sp,#40]
   83ed8:	531c6c01 	lsl	w1, w0, #4
   83edc:	b9401fe0 	ldr	w0, [sp,#28]
   83ee0:	0b000020 	add	w0, w1, w0
   83ee4:	b9002be0 	str	w0, [sp,#40]
   83ee8:	b9402fe0 	ldr	w0, [sp,#44]
   83eec:	11000400 	add	w0, w0, #0x1
   83ef0:	b9002fe0 	str	w0, [sp,#44]
   83ef4:	b9802fe0 	ldrsw	x0, [sp,#44]
   83ef8:	f94007e1 	ldr	x1, [sp,#8]
   83efc:	8b000020 	add	x0, x1, x0
   83f00:	39400000 	ldrb	w0, [x0]
   83f04:	7100001f 	cmp	w0, #0x0
   83f08:	54fff821 	b.ne	83e0c <atoi+0x1c>
   83f0c:	b94027e0 	ldr	w0, [sp,#36]
   83f10:	7100001f 	cmp	w0, #0x0
   83f14:	540000c0 	b.eq	83f2c <atoi+0x13c>
   83f18:	b9402be0 	ldr	w0, [sp,#40]
   83f1c:	4b0003e0 	neg	w0, w0
   83f20:	b9002be0 	str	w0, [sp,#40]
   83f24:	b9402be0 	ldr	w0, [sp,#40]
   83f28:	14000002 	b	83f30 <atoi+0x140>
   83f2c:	b9402be0 	ldr	w0, [sp,#40]
   83f30:	9100c3ff 	add	sp, sp, #0x30
   83f34:	d65f03c0 	ret

0000000000083f38 <itoa>:
   83f38:	d10083ff 	sub	sp, sp, #0x20
   83f3c:	b9000fe0 	str	w0, [sp,#12]
   83f40:	f90003e1 	str	x1, [sp]
   83f44:	b9001fff 	str	wzr, [sp,#28]
   83f48:	b9400fe0 	ldr	w0, [sp,#12]
   83f4c:	7100001f 	cmp	w0, #0x0
   83f50:	54000581 	b.ne	84000 <itoa+0xc8>
   83f54:	b9401fe0 	ldr	w0, [sp,#28]
   83f58:	11000401 	add	w1, w0, #0x1
   83f5c:	b9001fe1 	str	w1, [sp,#28]
   83f60:	93407c00 	sxtw	x0, w0
   83f64:	f94003e1 	ldr	x1, [sp]
   83f68:	8b000020 	add	x0, x1, x0
   83f6c:	52800601 	mov	w1, #0x30                  	// #48
   83f70:	39000001 	strb	w1, [x0]
   83f74:	14000023 	b	84000 <itoa+0xc8>
   83f78:	b9400fe1 	ldr	w1, [sp,#12]
   83f7c:	528ccce0 	mov	w0, #0x6667                	// #26215
   83f80:	72acccc0 	movk	w0, #0x6666, lsl #16
   83f84:	9b207c20 	smull	x0, w1, w0
   83f88:	d360fc00 	lsr	x0, x0, #32
   83f8c:	13027c02 	asr	w2, w0, #2
   83f90:	131f7c20 	asr	w0, w1, #31
   83f94:	4b000042 	sub	w2, w2, w0
   83f98:	2a0203e0 	mov	w0, w2
   83f9c:	531e7400 	lsl	w0, w0, #2
   83fa0:	0b020000 	add	w0, w0, w2
   83fa4:	531f7800 	lsl	w0, w0, #1
   83fa8:	4b000020 	sub	w0, w1, w0
   83fac:	b90017e0 	str	w0, [sp,#20]
   83fb0:	b9401fe0 	ldr	w0, [sp,#28]
   83fb4:	11000401 	add	w1, w0, #0x1
   83fb8:	b9001fe1 	str	w1, [sp,#28]
   83fbc:	93407c00 	sxtw	x0, w0
   83fc0:	f94003e1 	ldr	x1, [sp]
   83fc4:	8b000020 	add	x0, x1, x0
   83fc8:	b94017e1 	ldr	w1, [sp,#20]
   83fcc:	53001c21 	uxtb	w1, w1
   83fd0:	1100c021 	add	w1, w1, #0x30
   83fd4:	53001c21 	uxtb	w1, w1
   83fd8:	39000001 	strb	w1, [x0]
   83fdc:	b9400fe0 	ldr	w0, [sp,#12]
   83fe0:	528ccce1 	mov	w1, #0x6667                	// #26215
   83fe4:	72acccc1 	movk	w1, #0x6666, lsl #16
   83fe8:	9b217c01 	smull	x1, w0, w1
   83fec:	d360fc21 	lsr	x1, x1, #32
   83ff0:	13027c21 	asr	w1, w1, #2
   83ff4:	131f7c00 	asr	w0, w0, #31
   83ff8:	4b000020 	sub	w0, w1, w0
   83ffc:	b9000fe0 	str	w0, [sp,#12]
   84000:	b9400fe0 	ldr	w0, [sp,#12]
   84004:	7100001f 	cmp	w0, #0x0
   84008:	54fffb81 	b.ne	83f78 <itoa+0x40>
   8400c:	b9801fe0 	ldrsw	x0, [sp,#28]
   84010:	f94003e1 	ldr	x1, [sp]
   84014:	8b000020 	add	x0, x1, x0
   84018:	3900001f 	strb	wzr, [x0]
   8401c:	b9401fe0 	ldr	w0, [sp,#28]
   84020:	51000400 	sub	w0, w0, #0x1
   84024:	b9001be0 	str	w0, [sp,#24]
   84028:	1400001e 	b	840a0 <itoa+0x168>
   8402c:	b9801be0 	ldrsw	x0, [sp,#24]
   84030:	f94003e1 	ldr	x1, [sp]
   84034:	8b000020 	add	x0, x1, x0
   84038:	39400000 	ldrb	w0, [x0]
   8403c:	39004fe0 	strb	w0, [sp,#19]
   84040:	b9801be0 	ldrsw	x0, [sp,#24]
   84044:	f94003e1 	ldr	x1, [sp]
   84048:	8b000020 	add	x0, x1, x0
   8404c:	b9401fe1 	ldr	w1, [sp,#28]
   84050:	51000422 	sub	w2, w1, #0x1
   84054:	b9401be1 	ldr	w1, [sp,#24]
   84058:	4b010041 	sub	w1, w2, w1
   8405c:	93407c21 	sxtw	x1, w1
   84060:	f94003e2 	ldr	x2, [sp]
   84064:	8b010041 	add	x1, x2, x1
   84068:	39400021 	ldrb	w1, [x1]
   8406c:	39000001 	strb	w1, [x0]
   84070:	b9401fe0 	ldr	w0, [sp,#28]
   84074:	51000401 	sub	w1, w0, #0x1
   84078:	b9401be0 	ldr	w0, [sp,#24]
   8407c:	4b000020 	sub	w0, w1, w0
   84080:	93407c00 	sxtw	x0, w0
   84084:	f94003e1 	ldr	x1, [sp]
   84088:	8b000020 	add	x0, x1, x0
   8408c:	39404fe1 	ldrb	w1, [sp,#19]
   84090:	39000001 	strb	w1, [x0]
   84094:	b9401be0 	ldr	w0, [sp,#24]
   84098:	51000400 	sub	w0, w0, #0x1
   8409c:	b9001be0 	str	w0, [sp,#24]
   840a0:	b9401fe0 	ldr	w0, [sp,#28]
   840a4:	531f7c01 	lsr	w1, w0, #31
   840a8:	0b000020 	add	w0, w1, w0
   840ac:	13017c00 	asr	w0, w0, #1
   840b0:	2a0003e1 	mov	w1, w0
   840b4:	b9401be0 	ldr	w0, [sp,#24]
   840b8:	6b00003f 	cmp	w1, w0
   840bc:	54fffb8d 	b.le	8402c <itoa+0xf4>
   840c0:	d503201f 	nop
   840c4:	910083ff 	add	sp, sp, #0x20
   840c8:	d65f03c0 	ret

00000000000840cc <subStr>:
   840cc:	d10083ff 	sub	sp, sp, #0x20
   840d0:	f90007e0 	str	x0, [sp,#8]
   840d4:	b90007e1 	str	w1, [sp,#4]
   840d8:	90000000 	adrp	x0, 84000 <itoa+0xc8>
   840dc:	91318000 	add	x0, x0, #0xc60
   840e0:	f9000fe0 	str	x0, [sp,#24]
   840e4:	b90017ff 	str	wzr, [sp,#20]
   840e8:	1400000d 	b	8411c <subStr+0x50>
   840ec:	b98017e0 	ldrsw	x0, [sp,#20]
   840f0:	f94007e1 	ldr	x1, [sp,#8]
   840f4:	8b000020 	add	x0, x1, x0
   840f8:	39400001 	ldrb	w1, [x0]
   840fc:	f9400fe0 	ldr	x0, [sp,#24]
   84100:	39000001 	strb	w1, [x0]
   84104:	f9400fe0 	ldr	x0, [sp,#24]
   84108:	91000400 	add	x0, x0, #0x1
   8410c:	f9000fe0 	str	x0, [sp,#24]
   84110:	b94017e0 	ldr	w0, [sp,#20]
   84114:	11000400 	add	w0, w0, #0x1
   84118:	b90017e0 	str	w0, [sp,#20]
   8411c:	b94017e1 	ldr	w1, [sp,#20]
   84120:	b94007e0 	ldr	w0, [sp,#4]
   84124:	6b00003f 	cmp	w1, w0
   84128:	54fffe2b 	b.lt	840ec <subStr+0x20>
   8412c:	f9400fe0 	ldr	x0, [sp,#24]
   84130:	3900001f 	strb	wzr, [x0]
   84134:	90000000 	adrp	x0, 84000 <itoa+0xc8>
   84138:	91318000 	add	x0, x0, #0xc60
   8413c:	910083ff 	add	sp, sp, #0x20
   84140:	d65f03c0 	ret
   84144:	00000000 	.inst	0x00000000 ; undefined

0000000000084148 <from_el2_to_el1>:
   84148:	d2b00000 	mov	x0, #0x80000000            	// #2147483648
   8414c:	d51c1100 	msr	hcr_el2, x0
   84150:	d28078a0 	mov	x0, #0x3c5                 	// #965
   84154:	d51c4000 	msr	spsr_el2, x0
   84158:	d51c403e 	msr	elr_el2, x30
   8415c:	d2a00600 	mov	x0, #0x300000              	// #3145728
   84160:	d5181040 	msr	cpacr_el1, x0
   84164:	d69f03e0 	eret

0000000000084168 <from_el1_to_el0>:
   84168:	d2800000 	mov	x0, #0x0                   	// #0
   8416c:	d5184000 	msr	spsr_el1, x0
   84170:	910003e0 	mov	x0, sp
   84174:	d5184100 	msr	sp_el0, x0
   84178:	d518403e 	msr	elr_el1, x30
   8417c:	d69f03e0 	eret

0000000000084180 <run_user_program>:
   84180:	aa0003e2 	mov	x2, x0
   84184:	d5184022 	msr	elr_el1, x2
   84188:	aa0103e2 	mov	x2, x1
   8418c:	d5184102 	msr	sp_el0, x2
   84190:	d2806802 	mov	x2, #0x340                 	// #832
   84194:	d5184002 	msr	spsr_el1, x2
   84198:	d5384103 	mrs	x3, sp_el0
   8419c:	f9400060 	ldr	x0, [x3]
   841a0:	f9400461 	ldr	x1, [x3,#8]
   841a4:	d69f03e0 	eret

00000000000841a8 <core_timer_enable>:
   841a8:	d2800020 	mov	x0, #0x1                   	// #1
   841ac:	d51be220 	msr	cntp_ctl_el0, x0
   841b0:	d53be000 	mrs	x0, cntfrq_el0
   841b4:	d51be200 	msr	cntp_tval_el0, x0
   841b8:	d2800040 	mov	x0, #0x2                   	// #2
   841bc:	58000061 	ldr	x1, 841c8 <core_timer_enable+0x20>
   841c0:	b9000020 	str	w0, [x1]
   841c4:	d65f03c0 	ret
   841c8:	40000040 	.word	0x40000040
   841cc:	00000000 	.word	0x00000000
