
build/kernel8.elf:     file format elf64-littleaarch64


Disassembly of section .text:

0000000000080000 <_start>:
   80000:	d53800a0 	mrs	x0, mpidr_el1
   80004:	92400400 	and	x0, x0, #0x3
   80008:	b4000060 	cbz	x0, 80014 <_start+0x14>
   8000c:	d503205f 	wfe
   80010:	17ffffff 	b	8000c <_start+0xc>
   80014:	9400104d 	bl	84148 <from_el2_to_el1>
   80018:	94000bfa 	bl	83000 <set_exception_vector_table>
   8001c:	58000160 	ldr	x0, 80048 <memzero+0x1c>
   80020:	58000181 	ldr	x1, 80050 <memzero+0x24>
   80024:	cb000021 	sub	x1, x1, x0
   80028:	b4000081 	cbz	x1, 80038 <memzero+0xc>

000000000008002c <memzero>:
   8002c:	f800841f 	str	xzr, [x0],#8
   80030:	f1002021 	subs	x1, x1, #0x8
   80034:	54ffffcc 	b.gt	8002c <memzero>
   80038:	58000100 	ldr	x0, 80058 <memzero+0x2c>
   8003c:	9100001f 	mov	sp, x0
   80040:	94000ea9 	bl	83ae4 <main>
   80044:	17fffff2 	b	8000c <_start+0xc>
   80048:	00084940 	.word	0x00084940
   8004c:	00000000 	.word	0x00000000
   80050:	00085060 	.word	0x00085060
   80054:	00000000 	.word	0x00000000
   80058:	000a0000 	.word	0x000a0000
   8005c:	00000000 	.word	0x00000000

0000000000080060 <uart_init>:
   80060:	f81e0ff3 	str	x19, [sp,#-32]!
   80064:	d28a0080 	mov	x0, #0x5004                	// #20484
   80068:	f2a7e420 	movk	x0, #0x3f21, lsl #16
   8006c:	d28a0081 	mov	x1, #0x5004                	// #20484
   80070:	f2a7e421 	movk	x1, #0x3f21, lsl #16
   80074:	b9400021 	ldr	w1, [x1]
   80078:	32000021 	orr	w1, w1, #0x1
   8007c:	b9000001 	str	w1, [x0]
   80080:	d28a0c00 	mov	x0, #0x5060                	// #20576
   80084:	f2a7e420 	movk	x0, #0x3f21, lsl #16
   80088:	b900001f 	str	wzr, [x0]
   8008c:	d28a0980 	mov	x0, #0x504c                	// #20556
   80090:	f2a7e420 	movk	x0, #0x3f21, lsl #16
   80094:	52800061 	mov	w1, #0x3                   	// #3
   80098:	b9000001 	str	w1, [x0]
   8009c:	d28a0a00 	mov	x0, #0x5050                	// #20560
   800a0:	f2a7e420 	movk	x0, #0x3f21, lsl #16
   800a4:	b900001f 	str	wzr, [x0]
   800a8:	d28a0880 	mov	x0, #0x5044                	// #20548
   800ac:	f2a7e420 	movk	x0, #0x3f21, lsl #16
   800b0:	b900001f 	str	wzr, [x0]
   800b4:	d28a0900 	mov	x0, #0x5048                	// #20552
   800b8:	f2a7e420 	movk	x0, #0x3f21, lsl #16
   800bc:	528018c1 	mov	w1, #0xc6                  	// #198
   800c0:	b9000001 	str	w1, [x0]
   800c4:	d28a0d00 	mov	x0, #0x5068                	// #20584
   800c8:	f2a7e420 	movk	x0, #0x3f21, lsl #16
   800cc:	528021c1 	mov	w1, #0x10e                 	// #270
   800d0:	b9000001 	str	w1, [x0]
   800d4:	d2800080 	mov	x0, #0x4                   	// #4
   800d8:	f2a7e400 	movk	x0, #0x3f20, lsl #16
   800dc:	b9400013 	ldr	w19, [x0]
   800e0:	120e6673 	and	w19, w19, #0xfffc0fff
   800e4:	52840000 	mov	w0, #0x2000                	// #8192
   800e8:	72a00020 	movk	w0, #0x1, lsl #16
   800ec:	2a000273 	orr	w19, w19, w0
   800f0:	d2800080 	mov	x0, #0x4                   	// #4
   800f4:	f2a7e400 	movk	x0, #0x3f20, lsl #16
   800f8:	b9000013 	str	w19, [x0]
   800fc:	d2801280 	mov	x0, #0x94                  	// #148
   80100:	f2a7e400 	movk	x0, #0x3f20, lsl #16
   80104:	b900001f 	str	wzr, [x0]
   80108:	528012d3 	mov	w19, #0x96                  	// #150
   8010c:	14000002 	b	80114 <uart_init+0xb4>
   80110:	d503201f 	nop
   80114:	2a1303e0 	mov	w0, w19
   80118:	51000413 	sub	w19, w0, #0x1
   8011c:	7100001f 	cmp	w0, #0x0
   80120:	54ffff81 	b.ne	80110 <uart_init+0xb0>
   80124:	d2801300 	mov	x0, #0x98                  	// #152
   80128:	f2a7e400 	movk	x0, #0x3f20, lsl #16
   8012c:	52980001 	mov	w1, #0xc000                	// #49152
   80130:	b9000001 	str	w1, [x0]
   80134:	528012d3 	mov	w19, #0x96                  	// #150
   80138:	14000002 	b	80140 <uart_init+0xe0>
   8013c:	d503201f 	nop
   80140:	2a1303e0 	mov	w0, w19
   80144:	51000413 	sub	w19, w0, #0x1
   80148:	7100001f 	cmp	w0, #0x0
   8014c:	54ffff81 	b.ne	8013c <uart_init+0xdc>
   80150:	d2801300 	mov	x0, #0x98                  	// #152
   80154:	f2a7e400 	movk	x0, #0x3f20, lsl #16
   80158:	b900001f 	str	wzr, [x0]
   8015c:	d28a0c00 	mov	x0, #0x5060                	// #20576
   80160:	f2a7e420 	movk	x0, #0x3f21, lsl #16
   80164:	52800061 	mov	w1, #0x3                   	// #3
   80168:	b9000001 	str	w1, [x0]
   8016c:	14000005 	b	80180 <uart_init+0x120>
   80170:	d28a0800 	mov	x0, #0x5040                	// #20544
   80174:	f2a7e420 	movk	x0, #0x3f21, lsl #16
   80178:	b9400000 	ldr	w0, [x0]
   8017c:	39007fe0 	strb	w0, [sp,#31]
   80180:	d28a0a80 	mov	x0, #0x5054                	// #20564
   80184:	f2a7e420 	movk	x0, #0x3f21, lsl #16
   80188:	b9400000 	ldr	w0, [x0]
   8018c:	12000000 	and	w0, w0, #0x1
   80190:	7100001f 	cmp	w0, #0x0
   80194:	54fffee1 	b.ne	80170 <uart_init+0x110>
   80198:	d503201f 	nop
   8019c:	f84207f3 	ldr	x19, [sp],#32
   801a0:	d65f03c0 	ret

00000000000801a4 <uart_send>:
   801a4:	d10043ff 	sub	sp, sp, #0x10
   801a8:	b9000fe0 	str	w0, [sp,#12]
   801ac:	d503201f 	nop
   801b0:	d28a0a80 	mov	x0, #0x5054                	// #20564
   801b4:	f2a7e420 	movk	x0, #0x3f21, lsl #16
   801b8:	b9400000 	ldr	w0, [x0]
   801bc:	121b0000 	and	w0, w0, #0x20
   801c0:	7100001f 	cmp	w0, #0x0
   801c4:	54ffff40 	b.eq	801ac <uart_send+0x8>
   801c8:	d28a0800 	mov	x0, #0x5040                	// #20544
   801cc:	f2a7e420 	movk	x0, #0x3f21, lsl #16
   801d0:	b9400fe1 	ldr	w1, [sp,#12]
   801d4:	b9000001 	str	w1, [x0]
   801d8:	d503201f 	nop
   801dc:	910043ff 	add	sp, sp, #0x10
   801e0:	d65f03c0 	ret

00000000000801e4 <uart_getc>:
   801e4:	d10043ff 	sub	sp, sp, #0x10
   801e8:	d503201f 	nop
   801ec:	d28a0a80 	mov	x0, #0x5054                	// #20564
   801f0:	f2a7e420 	movk	x0, #0x3f21, lsl #16
   801f4:	b9400000 	ldr	w0, [x0]
   801f8:	12000000 	and	w0, w0, #0x1
   801fc:	7100001f 	cmp	w0, #0x0
   80200:	54ffff40 	b.eq	801e8 <uart_getc+0x4>
   80204:	d28a0800 	mov	x0, #0x5040                	// #20544
   80208:	f2a7e420 	movk	x0, #0x3f21, lsl #16
   8020c:	b9400000 	ldr	w0, [x0]
   80210:	39003fe0 	strb	w0, [sp,#15]
   80214:	39403fe0 	ldrb	w0, [sp,#15]
   80218:	7100341f 	cmp	w0, #0xd
   8021c:	54000060 	b.eq	80228 <uart_getc+0x44>
   80220:	39403fe0 	ldrb	w0, [sp,#15]
   80224:	14000002 	b	8022c <uart_getc+0x48>
   80228:	52800140 	mov	w0, #0xa                   	// #10
   8022c:	910043ff 	add	sp, sp, #0x10
   80230:	d65f03c0 	ret

0000000000080234 <uart_puts>:
   80234:	a9be7bfd 	stp	x29, x30, [sp,#-32]!
   80238:	910003fd 	mov	x29, sp
   8023c:	f9000fa0 	str	x0, [x29,#24]
   80240:	1400000c 	b	80270 <uart_puts+0x3c>
   80244:	f9400fa0 	ldr	x0, [x29,#24]
   80248:	39400000 	ldrb	w0, [x0]
   8024c:	7100281f 	cmp	w0, #0xa
   80250:	54000061 	b.ne	8025c <uart_puts+0x28>
   80254:	528001a0 	mov	w0, #0xd                   	// #13
   80258:	97ffffd3 	bl	801a4 <uart_send>
   8025c:	f9400fa0 	ldr	x0, [x29,#24]
   80260:	91000401 	add	x1, x0, #0x1
   80264:	f9000fa1 	str	x1, [x29,#24]
   80268:	39400000 	ldrb	w0, [x0]
   8026c:	97ffffce 	bl	801a4 <uart_send>
   80270:	f9400fa0 	ldr	x0, [x29,#24]
   80274:	39400000 	ldrb	w0, [x0]
   80278:	7100001f 	cmp	w0, #0x0
   8027c:	54fffe41 	b.ne	80244 <uart_puts+0x10>
   80280:	d503201f 	nop
   80284:	a8c27bfd 	ldp	x29, x30, [sp],#32
   80288:	d65f03c0 	ret

000000000008028c <uart_read_line>:
   8028c:	a9bd7bfd 	stp	x29, x30, [sp,#-48]!
   80290:	910003fd 	mov	x29, sp
   80294:	f9000fa0 	str	x0, [x29,#24]
   80298:	b90017a1 	str	w1, [x29,#20]
   8029c:	b9002fbf 	str	wzr, [x29,#44]
   802a0:	14000018 	b	80300 <uart_read_line+0x74>
   802a4:	97ffffd0 	bl	801e4 <uart_getc>
   802a8:	3900afa0 	strb	w0, [x29,#43]
   802ac:	b94017a0 	ldr	w0, [x29,#20]
   802b0:	7100001f 	cmp	w0, #0x0
   802b4:	54000060 	b.eq	802c0 <uart_read_line+0x34>
   802b8:	3940afa0 	ldrb	w0, [x29,#43]
   802bc:	97ffffba 	bl	801a4 <uart_send>
   802c0:	3940afa0 	ldrb	w0, [x29,#43]
   802c4:	7100281f 	cmp	w0, #0xa
   802c8:	54000140 	b.eq	802f0 <uart_read_line+0x64>
   802cc:	b9802fa0 	ldrsw	x0, [x29,#44]
   802d0:	f9400fa1 	ldr	x1, [x29,#24]
   802d4:	8b000020 	add	x0, x1, x0
   802d8:	3940afa1 	ldrb	w1, [x29,#43]
   802dc:	39000001 	strb	w1, [x0]
   802e0:	b9402fa0 	ldr	w0, [x29,#44]
   802e4:	11000400 	add	w0, w0, #0x1
   802e8:	b9002fa0 	str	w0, [x29,#44]
   802ec:	14000005 	b	80300 <uart_read_line+0x74>
   802f0:	b9802fa0 	ldrsw	x0, [x29,#44]
   802f4:	f9400fa1 	ldr	x1, [x29,#24]
   802f8:	8b000020 	add	x0, x1, x0
   802fc:	3900001f 	strb	wzr, [x0]
   80300:	3940afa0 	ldrb	w0, [x29,#43]
   80304:	7100281f 	cmp	w0, #0xa
   80308:	54fffce1 	b.ne	802a4 <uart_read_line+0x18>
   8030c:	d503201f 	nop
   80310:	a8c37bfd 	ldp	x29, x30, [sp],#48
   80314:	d65f03c0 	ret

0000000000080318 <uart_puts_int>:
   80318:	a9bd7bfd 	stp	x29, x30, [sp,#-48]!
   8031c:	910003fd 	mov	x29, sp
   80320:	b9001fa0 	str	w0, [x29,#28]
   80324:	f90017bf 	str	xzr, [x29,#40]
   80328:	f94017a1 	ldr	x1, [x29,#40]
   8032c:	b9401fa0 	ldr	w0, [x29,#28]
   80330:	94000f02 	bl	83f38 <itoa>
   80334:	f94017a0 	ldr	x0, [x29,#40]
   80338:	97ffffbf 	bl	80234 <uart_puts>
   8033c:	d503201f 	nop
   80340:	a8c37bfd 	ldp	x29, x30, [sp],#48
   80344:	d65f03c0 	ret

0000000000080348 <uart_puts_hex>:
   80348:	a9bd7bfd 	stp	x29, x30, [sp,#-48]!
   8034c:	910003fd 	mov	x29, sp
   80350:	f9000fa0 	str	x0, [x29,#24]
   80354:	b9002bbf 	str	wzr, [x29,#40]
   80358:	52800380 	mov	w0, #0x1c                  	// #28
   8035c:	b9002fa0 	str	w0, [x29,#44]
   80360:	1400001c 	b	803d0 <uart_puts_hex+0x88>
   80364:	b9402fa0 	ldr	w0, [x29,#44]
   80368:	f9400fa1 	ldr	x1, [x29,#24]
   8036c:	9ac02420 	lsr	x0, x1, x0
   80370:	12000c00 	and	w0, w0, #0xf
   80374:	b90027a0 	str	w0, [x29,#36]
   80378:	b94027a0 	ldr	w0, [x29,#36]
   8037c:	7100001f 	cmp	w0, #0x0
   80380:	54000060 	b.eq	8038c <uart_puts_hex+0x44>
   80384:	52800020 	mov	w0, #0x1                   	// #1
   80388:	b9002ba0 	str	w0, [x29,#40]
   8038c:	b94027a0 	ldr	w0, [x29,#36]
   80390:	7100241f 	cmp	w0, #0x9
   80394:	54000069 	b.ls	803a0 <uart_puts_hex+0x58>
   80398:	528006e0 	mov	w0, #0x37                  	// #55
   8039c:	14000002 	b	803a4 <uart_puts_hex+0x5c>
   803a0:	52800600 	mov	w0, #0x30                  	// #48
   803a4:	b94027a1 	ldr	w1, [x29,#36]
   803a8:	0b000020 	add	w0, w1, w0
   803ac:	b90027a0 	str	w0, [x29,#36]
   803b0:	b9402ba0 	ldr	w0, [x29,#40]
   803b4:	7100001f 	cmp	w0, #0x0
   803b8:	54000060 	b.eq	803c4 <uart_puts_hex+0x7c>
   803bc:	b94027a0 	ldr	w0, [x29,#36]
   803c0:	97ffff79 	bl	801a4 <uart_send>
   803c4:	b9402fa0 	ldr	w0, [x29,#44]
   803c8:	51001000 	sub	w0, w0, #0x4
   803cc:	b9002fa0 	str	w0, [x29,#44]
   803d0:	b9402fa0 	ldr	w0, [x29,#44]
   803d4:	7100001f 	cmp	w0, #0x0
   803d8:	54fffc6a 	b.ge	80364 <uart_puts_hex+0x1c>
   803dc:	d503201f 	nop
   803e0:	a8c37bfd 	ldp	x29, x30, [sp],#48
   803e4:	d65f03c0 	ret

00000000000803e8 <uart_read_buff>:
   803e8:	a9bc7bfd 	stp	x29, x30, [sp,#-64]!
   803ec:	910003fd 	mov	x29, sp
   803f0:	f9000bf3 	str	x19, [sp,#16]
   803f4:	f90017a0 	str	x0, [x29,#40]
   803f8:	b90027a1 	str	w1, [x29,#36]
   803fc:	b90023a2 	str	w2, [x29,#32]
   80400:	b9003fbf 	str	wzr, [x29,#60]
   80404:	b9403fa1 	ldr	w1, [x29,#60]
   80408:	b94027a0 	ldr	w0, [x29,#36]
   8040c:	6b00003f 	cmp	w1, w0
   80410:	540000c1 	b.ne	80428 <uart_read_buff+0x40>
   80414:	90000020 	adrp	x0, 84000 <itoa+0xc8>
   80418:	91074000 	add	x0, x0, #0x1d0
   8041c:	97ffff86 	bl	80234 <uart_puts>
   80420:	b9403fa0 	ldr	w0, [x29,#60]
   80424:	1400001f 	b	804a0 <uart_read_buff+0xb8>
   80428:	b9803fa0 	ldrsw	x0, [x29,#60]
   8042c:	f94017a1 	ldr	x1, [x29,#40]
   80430:	8b000033 	add	x19, x1, x0
   80434:	97ffff6c 	bl	801e4 <uart_getc>
   80438:	53001c00 	uxtb	w0, w0
   8043c:	39000260 	strb	w0, [x19]
   80440:	b94023a0 	ldr	w0, [x29,#32]
   80444:	7100001f 	cmp	w0, #0x0
   80448:	540000c0 	b.eq	80460 <uart_read_buff+0x78>
   8044c:	b9803fa0 	ldrsw	x0, [x29,#60]
   80450:	f94017a1 	ldr	x1, [x29,#40]
   80454:	8b000020 	add	x0, x1, x0
   80458:	39400000 	ldrb	w0, [x0]
   8045c:	97ffff52 	bl	801a4 <uart_send>
   80460:	b9803fa0 	ldrsw	x0, [x29,#60]
   80464:	f94017a1 	ldr	x1, [x29,#40]
   80468:	8b000020 	add	x0, x1, x0
   8046c:	39400000 	ldrb	w0, [x0]
   80470:	7100281f 	cmp	w0, #0xa
   80474:	540000e1 	b.ne	80490 <uart_read_buff+0xa8>
   80478:	b9803fa0 	ldrsw	x0, [x29,#60]
   8047c:	f94017a1 	ldr	x1, [x29,#40]
   80480:	8b000020 	add	x0, x1, x0
   80484:	3900001f 	strb	wzr, [x0]
   80488:	b9403fa0 	ldr	w0, [x29,#60]
   8048c:	14000005 	b	804a0 <uart_read_buff+0xb8>
   80490:	b9403fa0 	ldr	w0, [x29,#60]
   80494:	11000400 	add	w0, w0, #0x1
   80498:	b9003fa0 	str	w0, [x29,#60]
   8049c:	17ffffda 	b	80404 <uart_read_buff+0x1c>
   804a0:	f9400bf3 	ldr	x19, [sp,#16]
   804a4:	a8c47bfd 	ldp	x29, x30, [sp],#64
   804a8:	d65f03c0 	ret

00000000000804ac <uart_getX>:
   804ac:	a9bd7bfd 	stp	x29, x30, [sp,#-48]!
   804b0:	910003fd 	mov	x29, sp
   804b4:	b9001fa0 	str	w0, [x29,#28]
   804b8:	f90017bf 	str	xzr, [x29,#40]
   804bc:	97ffff4a 	bl	801e4 <uart_getc>
   804c0:	39009fa0 	strb	w0, [x29,#39]
   804c4:	b9401fa0 	ldr	w0, [x29,#28]
   804c8:	7100001f 	cmp	w0, #0x0
   804cc:	54000060 	b.eq	804d8 <uart_getX+0x2c>
   804d0:	39409fa0 	ldrb	w0, [x29,#39]
   804d4:	97ffff34 	bl	801a4 <uart_send>
   804d8:	39409fa0 	ldrb	w0, [x29,#39]
   804dc:	7100281f 	cmp	w0, #0xa
   804e0:	54000500 	b.eq	80580 <uart_getX+0xd4>
   804e4:	39409fa0 	ldrb	w0, [x29,#39]
   804e8:	7100bc1f 	cmp	w0, #0x2f
   804ec:	54000169 	b.ls	80518 <uart_getX+0x6c>
   804f0:	39409fa0 	ldrb	w0, [x29,#39]
   804f4:	7100e41f 	cmp	w0, #0x39
   804f8:	54000108 	b.hi	80518 <uart_getX+0x6c>
   804fc:	f94017a0 	ldr	x0, [x29,#40]
   80500:	d37cec01 	lsl	x1, x0, #4
   80504:	39409fa0 	ldrb	w0, [x29,#39]
   80508:	8b000020 	add	x0, x1, x0
   8050c:	d100c000 	sub	x0, x0, #0x30
   80510:	f90017a0 	str	x0, [x29,#40]
   80514:	1400001a 	b	8057c <uart_getX+0xd0>
   80518:	39409fa0 	ldrb	w0, [x29,#39]
   8051c:	7101801f 	cmp	w0, #0x60
   80520:	54000169 	b.ls	8054c <uart_getX+0xa0>
   80524:	39409fa0 	ldrb	w0, [x29,#39]
   80528:	7101981f 	cmp	w0, #0x66
   8052c:	54000108 	b.hi	8054c <uart_getX+0xa0>
   80530:	f94017a0 	ldr	x0, [x29,#40]
   80534:	d37cec01 	lsl	x1, x0, #4
   80538:	39409fa0 	ldrb	w0, [x29,#39]
   8053c:	8b000020 	add	x0, x1, x0
   80540:	d1015c00 	sub	x0, x0, #0x57
   80544:	f90017a0 	str	x0, [x29,#40]
   80548:	1400000d 	b	8057c <uart_getX+0xd0>
   8054c:	39409fa0 	ldrb	w0, [x29,#39]
   80550:	7101001f 	cmp	w0, #0x40
   80554:	54fffb49 	b.ls	804bc <uart_getX+0x10>
   80558:	39409fa0 	ldrb	w0, [x29,#39]
   8055c:	7101181f 	cmp	w0, #0x46
   80560:	54fffae8 	b.hi	804bc <uart_getX+0x10>
   80564:	f94017a0 	ldr	x0, [x29,#40]
   80568:	d37cec01 	lsl	x1, x0, #4
   8056c:	39409fa0 	ldrb	w0, [x29,#39]
   80570:	8b000020 	add	x0, x1, x0
   80574:	d100dc00 	sub	x0, x0, #0x37
   80578:	f90017a0 	str	x0, [x29,#40]
   8057c:	17ffffd0 	b	804bc <uart_getX+0x10>
   80580:	d503201f 	nop
   80584:	f94017a0 	ldr	x0, [x29,#40]
   80588:	a8c37bfd 	ldp	x29, x30, [sp],#48
   8058c:	d65f03c0 	ret

0000000000080590 <node_init>:
   80590:	d10043ff 	sub	sp, sp, #0x10
   80594:	f90007e0 	str	x0, [sp,#8]
   80598:	b90007e1 	str	w1, [sp,#4]
   8059c:	f94007e0 	ldr	x0, [sp,#8]
   805a0:	b94007e1 	ldr	w1, [sp,#4]
   805a4:	b9000001 	str	w1, [x0]
   805a8:	f94007e0 	ldr	x0, [sp,#8]
   805ac:	f900041f 	str	xzr, [x0,#8]
   805b0:	d503201f 	nop
   805b4:	910043ff 	add	sp, sp, #0x10
   805b8:	d65f03c0 	ret

00000000000805bc <list_push>:
   805bc:	d10083ff 	sub	sp, sp, #0x20
   805c0:	f90007e0 	str	x0, [sp,#8]
   805c4:	f90003e1 	str	x1, [sp]
   805c8:	f94007e0 	ldr	x0, [sp,#8]
   805cc:	f9000fe0 	str	x0, [sp,#24]
   805d0:	14000004 	b	805e0 <list_push+0x24>
   805d4:	f9400fe0 	ldr	x0, [sp,#24]
   805d8:	f9400400 	ldr	x0, [x0,#8]
   805dc:	f9000fe0 	str	x0, [sp,#24]
   805e0:	f9400fe0 	ldr	x0, [sp,#24]
   805e4:	f9400400 	ldr	x0, [x0,#8]
   805e8:	f100001f 	cmp	x0, #0x0
   805ec:	54ffff41 	b.ne	805d4 <list_push+0x18>
   805f0:	f9400fe0 	ldr	x0, [sp,#24]
   805f4:	f94003e1 	ldr	x1, [sp]
   805f8:	f9000401 	str	x1, [x0,#8]
   805fc:	d503201f 	nop
   80600:	910083ff 	add	sp, sp, #0x20
   80604:	d65f03c0 	ret

0000000000080608 <list_remove>:
   80608:	d10083ff 	sub	sp, sp, #0x20
   8060c:	f90007e0 	str	x0, [sp,#8]
   80610:	f90003e1 	str	x1, [sp]
   80614:	f94007e0 	ldr	x0, [sp,#8]
   80618:	f9000fe0 	str	x0, [sp,#24]
   8061c:	14000004 	b	8062c <list_remove+0x24>
   80620:	f9400fe0 	ldr	x0, [sp,#24]
   80624:	f9400400 	ldr	x0, [x0,#8]
   80628:	f9000fe0 	str	x0, [sp,#24]
   8062c:	f9400fe0 	ldr	x0, [sp,#24]
   80630:	f9400401 	ldr	x1, [x0,#8]
   80634:	f94003e0 	ldr	x0, [sp]
   80638:	eb00003f 	cmp	x1, x0
   8063c:	54ffff21 	b.ne	80620 <list_remove+0x18>
   80640:	f94003e0 	ldr	x0, [sp]
   80644:	f9400401 	ldr	x1, [x0,#8]
   80648:	f9400fe0 	ldr	x0, [sp,#24]
   8064c:	f9000401 	str	x1, [x0,#8]
   80650:	f94003e0 	ldr	x0, [sp]
   80654:	f900041f 	str	xzr, [x0,#8]
   80658:	d503201f 	nop
   8065c:	910083ff 	add	sp, sp, #0x20
   80660:	d65f03c0 	ret

0000000000080664 <list_remove_index>:
   80664:	d10083ff 	sub	sp, sp, #0x20
   80668:	f90007e0 	str	x0, [sp,#8]
   8066c:	b90007e1 	str	w1, [sp,#4]
   80670:	f94007e0 	ldr	x0, [sp,#8]
   80674:	f9000fe0 	str	x0, [sp,#24]
   80678:	14000004 	b	80688 <list_remove_index+0x24>
   8067c:	f9400fe0 	ldr	x0, [sp,#24]
   80680:	f9400400 	ldr	x0, [x0,#8]
   80684:	f9000fe0 	str	x0, [sp,#24]
   80688:	f9400fe0 	ldr	x0, [sp,#24]
   8068c:	f9400400 	ldr	x0, [x0,#8]
   80690:	b9400001 	ldr	w1, [x0]
   80694:	b94007e0 	ldr	w0, [sp,#4]
   80698:	6b00003f 	cmp	w1, w0
   8069c:	54000080 	b.eq	806ac <list_remove_index+0x48>
   806a0:	f9400fe0 	ldr	x0, [sp,#24]
   806a4:	f100001f 	cmp	x0, #0x0
   806a8:	54fffea1 	b.ne	8067c <list_remove_index+0x18>
   806ac:	f9400fe0 	ldr	x0, [sp,#24]
   806b0:	f9400400 	ldr	x0, [x0,#8]
   806b4:	f9400401 	ldr	x1, [x0,#8]
   806b8:	f9400fe0 	ldr	x0, [sp,#24]
   806bc:	f9000401 	str	x1, [x0,#8]
   806c0:	f9400fe0 	ldr	x0, [sp,#24]
   806c4:	f9400400 	ldr	x0, [x0,#8]
   806c8:	f900041f 	str	xzr, [x0,#8]
   806cc:	d503201f 	nop
   806d0:	910083ff 	add	sp, sp, #0x20
   806d4:	d65f03c0 	ret

00000000000806d8 <print_free_list>:
   806d8:	a9bc7bfd 	stp	x29, x30, [sp,#-64]!
   806dc:	910003fd 	mov	x29, sp
   806e0:	b9003fbf 	str	wzr, [x29,#60]
   806e4:	1400002b 	b	80790 <print_free_list+0xb8>
   806e8:	b9403fa0 	ldr	w0, [x29,#60]
   806ec:	7100001f 	cmp	w0, #0x0
   806f0:	54000081 	b.ne	80700 <print_free_list+0x28>
   806f4:	90000020 	adrp	x0, 84000 <itoa+0xc8>
   806f8:	9107a000 	add	x0, x0, #0x1e8
   806fc:	97fffece 	bl	80234 <uart_puts>
   80700:	90000020 	adrp	x0, 84000 <itoa+0xc8>
   80704:	9107e000 	add	x0, x0, #0x1f8
   80708:	97fffecb 	bl	80234 <uart_puts>
   8070c:	b9403fa0 	ldr	w0, [x29,#60]
   80710:	97ffff02 	bl	80318 <uart_puts_int>
   80714:	90000020 	adrp	x0, 84000 <itoa+0xc8>
   80718:	91080000 	add	x0, x0, #0x200
   8071c:	97fffec6 	bl	80234 <uart_puts>
   80720:	b9803fa0 	ldrsw	x0, [x29,#60]
   80724:	d37cec01 	lsl	x1, x0, #4
   80728:	90000020 	adrp	x0, 84000 <itoa+0xc8>
   8072c:	91250000 	add	x0, x0, #0x940
   80730:	8b000020 	add	x0, x1, x0
   80734:	f9000fa0 	str	x0, [x29,#24]
   80738:	f9400fa0 	ldr	x0, [x29,#24]
   8073c:	f9400400 	ldr	x0, [x0,#8]
   80740:	f9001ba0 	str	x0, [x29,#48]
   80744:	1400000a 	b	8076c <print_free_list+0x94>
   80748:	f9401ba0 	ldr	x0, [x29,#48]
   8074c:	b9400000 	ldr	w0, [x0]
   80750:	97fffef2 	bl	80318 <uart_puts_int>
   80754:	90000020 	adrp	x0, 84000 <itoa+0xc8>
   80758:	91082000 	add	x0, x0, #0x208
   8075c:	97fffeb6 	bl	80234 <uart_puts>
   80760:	f9401ba0 	ldr	x0, [x29,#48]
   80764:	f9400400 	ldr	x0, [x0,#8]
   80768:	f9001ba0 	str	x0, [x29,#48]
   8076c:	f9401ba0 	ldr	x0, [x29,#48]
   80770:	f100001f 	cmp	x0, #0x0
   80774:	54fffea1 	b.ne	80748 <print_free_list+0x70>
   80778:	90000020 	adrp	x0, 84000 <itoa+0xc8>
   8077c:	91084000 	add	x0, x0, #0x210
   80780:	97fffead 	bl	80234 <uart_puts>
   80784:	b9403fa0 	ldr	w0, [x29,#60]
   80788:	11000400 	add	w0, w0, #0x1
   8078c:	b9003fa0 	str	w0, [x29,#60]
   80790:	b9403fa0 	ldr	w0, [x29,#60]
   80794:	71001c1f 	cmp	w0, #0x7
   80798:	54fffa8d 	b.le	806e8 <print_free_list+0x10>
   8079c:	52800100 	mov	w0, #0x8                   	// #8
   807a0:	b9002fa0 	str	w0, [x29,#44]
   807a4:	1400002d 	b	80858 <print_free_list+0x180>
   807a8:	b9402fa0 	ldr	w0, [x29,#44]
   807ac:	7100201f 	cmp	w0, #0x8
   807b0:	54000081 	b.ne	807c0 <print_free_list+0xe8>
   807b4:	90000020 	adrp	x0, 84000 <itoa+0xc8>
   807b8:	91086000 	add	x0, x0, #0x218
   807bc:	97fffe9e 	bl	80234 <uart_puts>
   807c0:	90000020 	adrp	x0, 84000 <itoa+0xc8>
   807c4:	9108a000 	add	x0, x0, #0x228
   807c8:	97fffe9b 	bl	80234 <uart_puts>
   807cc:	b9402fa0 	ldr	w0, [x29,#44]
   807d0:	51002000 	sub	w0, w0, #0x8
   807d4:	97fffed1 	bl	80318 <uart_puts_int>
   807d8:	90000020 	adrp	x0, 84000 <itoa+0xc8>
   807dc:	91080000 	add	x0, x0, #0x200
   807e0:	97fffe95 	bl	80234 <uart_puts>
   807e4:	b9802fa0 	ldrsw	x0, [x29,#44]
   807e8:	d37cec01 	lsl	x1, x0, #4
   807ec:	90000020 	adrp	x0, 84000 <itoa+0xc8>
   807f0:	91250000 	add	x0, x0, #0x940
   807f4:	8b000020 	add	x0, x1, x0
   807f8:	f9000ba0 	str	x0, [x29,#16]
   807fc:	f9400ba0 	ldr	x0, [x29,#16]
   80800:	f9400400 	ldr	x0, [x0,#8]
   80804:	f90013a0 	str	x0, [x29,#32]
   80808:	1400000b 	b	80834 <print_free_list+0x15c>
   8080c:	f94013a0 	ldr	x0, [x29,#32]
   80810:	b9400000 	ldr	w0, [x0]
   80814:	13087c00 	asr	w0, w0, #8
   80818:	97fffec0 	bl	80318 <uart_puts_int>
   8081c:	90000020 	adrp	x0, 84000 <itoa+0xc8>
   80820:	91082000 	add	x0, x0, #0x208
   80824:	97fffe84 	bl	80234 <uart_puts>
   80828:	f94013a0 	ldr	x0, [x29,#32]
   8082c:	f9400400 	ldr	x0, [x0,#8]
   80830:	f90013a0 	str	x0, [x29,#32]
   80834:	f94013a0 	ldr	x0, [x29,#32]
   80838:	f100001f 	cmp	x0, #0x0
   8083c:	54fffe81 	b.ne	8080c <print_free_list+0x134>
   80840:	90000020 	adrp	x0, 84000 <itoa+0xc8>
   80844:	91084000 	add	x0, x0, #0x210
   80848:	97fffe7b 	bl	80234 <uart_puts>
   8084c:	b9402fa0 	ldr	w0, [x29,#44]
   80850:	11000400 	add	w0, w0, #0x1
   80854:	b9002fa0 	str	w0, [x29,#44]
   80858:	b9402fa0 	ldr	w0, [x29,#44]
   8085c:	7100401f 	cmp	w0, #0x10
   80860:	54fffa4d 	b.le	807a8 <print_free_list+0xd0>
   80864:	90000020 	adrp	x0, 84000 <itoa+0xc8>
   80868:	91084000 	add	x0, x0, #0x210
   8086c:	97fffe72 	bl	80234 <uart_puts>
   80870:	d503201f 	nop
   80874:	a8c47bfd 	ldp	x29, x30, [sp],#64
   80878:	d65f03c0 	ret

000000000008087c <init_buckets>:
   8087c:	a9bd7bfd 	stp	x29, x30, [sp,#-48]!
   80880:	910003fd 	mov	x29, sp
   80884:	b9002fbf 	str	wzr, [x29,#44]
   80888:	1400000f 	b	808c4 <init_buckets+0x48>
   8088c:	b9802fa0 	ldrsw	x0, [x29,#44]
   80890:	d37cec01 	lsl	x1, x0, #4
   80894:	90000020 	adrp	x0, 84000 <itoa+0xc8>
   80898:	91250000 	add	x0, x0, #0x940
   8089c:	8b000020 	add	x0, x1, x0
   808a0:	f90013a0 	str	x0, [x29,#32]
   808a4:	f94013a0 	ldr	x0, [x29,#32]
   808a8:	f900041f 	str	xzr, [x0,#8]
   808ac:	f94013a0 	ldr	x0, [x29,#32]
   808b0:	12800001 	mov	w1, #0xffffffff            	// #-1
   808b4:	b9000001 	str	w1, [x0]
   808b8:	b9402fa0 	ldr	w0, [x29,#44]
   808bc:	11000400 	add	w0, w0, #0x1
   808c0:	b9002fa0 	str	w0, [x29,#44]
   808c4:	b9402fa0 	ldr	w0, [x29,#44]
   808c8:	7100401f 	cmp	w0, #0x10
   808cc:	54fffe0d 	b.le	8088c <init_buckets+0x10>
   808d0:	d2a02000 	mov	x0, #0x1000000             	// #16777216
   808d4:	f9000fa0 	str	x0, [x29,#24]
   808d8:	52800001 	mov	w1, #0x0                   	// #0
   808dc:	f9400fa0 	ldr	x0, [x29,#24]
   808e0:	97ffff2c 	bl	80590 <node_init>
   808e4:	90000020 	adrp	x0, 84000 <itoa+0xc8>
   808e8:	91290000 	add	x0, x0, #0xa40
   808ec:	f9400fa1 	ldr	x1, [x29,#24]
   808f0:	97ffff33 	bl	805bc <list_push>
   808f4:	90000020 	adrp	x0, 84000 <itoa+0xc8>
   808f8:	9108c000 	add	x0, x0, #0x230
   808fc:	97fffe4e 	bl	80234 <uart_puts>
   80900:	d503201f 	nop
   80904:	a8c37bfd 	ldp	x29, x30, [sp],#48
   80908:	d65f03c0 	ret

000000000008090c <split_block>:
   8090c:	a9bc7bfd 	stp	x29, x30, [sp,#-64]!
   80910:	910003fd 	mov	x29, sp
   80914:	f9000fa0 	str	x0, [x29,#24]
   80918:	b90017a1 	str	w1, [x29,#20]
   8091c:	b90013a2 	str	w2, [x29,#16]
   80920:	f9400fa0 	ldr	x0, [x29,#24]
   80924:	b9400001 	ldr	w1, [x0]
   80928:	b94013a0 	ldr	w0, [x29,#16]
   8092c:	52800022 	mov	w2, #0x1                   	// #1
   80930:	1ac02040 	lsl	w0, w2, w0
   80934:	0b000020 	add	w0, w1, w0
   80938:	b9003fa0 	str	w0, [x29,#60]
   8093c:	f9400fa0 	ldr	x0, [x29,#24]
   80940:	b9400000 	ldr	w0, [x0]
   80944:	b9003ba0 	str	w0, [x29,#56]
   80948:	14000026 	b	809e0 <split_block+0xd4>
   8094c:	b9403fa1 	ldr	w1, [x29,#60]
   80950:	b9403ba0 	ldr	w0, [x29,#56]
   80954:	4b000020 	sub	w0, w1, w0
   80958:	531f7c01 	lsr	w1, w0, #31
   8095c:	0b000020 	add	w0, w1, w0
   80960:	13017c00 	asr	w0, w0, #1
   80964:	2a0003e1 	mov	w1, w0
   80968:	b9403ba0 	ldr	w0, [x29,#56]
   8096c:	0b000020 	add	w0, w1, w0
   80970:	b90037a0 	str	w0, [x29,#52]
   80974:	b94013a0 	ldr	w0, [x29,#16]
   80978:	51000400 	sub	w0, w0, #0x1
   8097c:	b90013a0 	str	w0, [x29,#16]
   80980:	b94037a0 	ldr	w0, [x29,#52]
   80984:	531c6c00 	lsl	w0, w0, #4
   80988:	93407c01 	sxtw	x1, w0
   8098c:	d2a02000 	mov	x0, #0x1000000             	// #16777216
   80990:	8b000020 	add	x0, x1, x0
   80994:	f90017a0 	str	x0, [x29,#40]
   80998:	b94037a1 	ldr	w1, [x29,#52]
   8099c:	f94017a0 	ldr	x0, [x29,#40]
   809a0:	97fffefc 	bl	80590 <node_init>
   809a4:	b98013a0 	ldrsw	x0, [x29,#16]
   809a8:	d37cec01 	lsl	x1, x0, #4
   809ac:	90000020 	adrp	x0, 84000 <itoa+0xc8>
   809b0:	91250000 	add	x0, x0, #0x940
   809b4:	8b000020 	add	x0, x1, x0
   809b8:	f94017a1 	ldr	x1, [x29,#40]
   809bc:	97ffff00 	bl	805bc <list_push>
   809c0:	b94037a0 	ldr	w0, [x29,#52]
   809c4:	b9003fa0 	str	w0, [x29,#60]
   809c8:	b98013a0 	ldrsw	x0, [x29,#16]
   809cc:	d37cec01 	lsl	x1, x0, #4
   809d0:	90000020 	adrp	x0, 84000 <itoa+0xc8>
   809d4:	91250000 	add	x0, x0, #0x940
   809d8:	8b000020 	add	x0, x1, x0
   809dc:	f90013a0 	str	x0, [x29,#32]
   809e0:	b94013a1 	ldr	w1, [x29,#16]
   809e4:	b94017a0 	ldr	w0, [x29,#20]
   809e8:	6b00003f 	cmp	w1, w0
   809ec:	54fffb0c 	b.gt	8094c <split_block+0x40>
   809f0:	d503201f 	nop
   809f4:	a8c47bfd 	ldp	x29, x30, [sp],#64
   809f8:	d65f03c0 	ret

00000000000809fc <get_page_from_buckets>:
   809fc:	a9bc7bfd 	stp	x29, x30, [sp,#-64]!
   80a00:	910003fd 	mov	x29, sp
   80a04:	f9000fa0 	str	x0, [x29,#24]
   80a08:	b90017a1 	str	w1, [x29,#20]
   80a0c:	b90013a2 	str	w2, [x29,#16]
   80a10:	b94017a0 	ldr	w0, [x29,#20]
   80a14:	b9003fa0 	str	w0, [x29,#60]
   80a18:	14000020 	b	80a98 <get_page_from_buckets+0x9c>
   80a1c:	b9803fa0 	ldrsw	x0, [x29,#60]
   80a20:	d37cec01 	lsl	x1, x0, #4
   80a24:	90000020 	adrp	x0, 84000 <itoa+0xc8>
   80a28:	91250000 	add	x0, x0, #0x940
   80a2c:	8b000020 	add	x0, x1, x0
   80a30:	f9001ba0 	str	x0, [x29,#48]
   80a34:	f9401ba0 	ldr	x0, [x29,#48]
   80a38:	f9400400 	ldr	x0, [x0,#8]
   80a3c:	f90017a0 	str	x0, [x29,#40]
   80a40:	f94017a0 	ldr	x0, [x29,#40]
   80a44:	f100001f 	cmp	x0, #0x0
   80a48:	54000220 	b.eq	80a8c <get_page_from_buckets+0x90>
   80a4c:	f94017a0 	ldr	x0, [x29,#40]
   80a50:	b9400000 	ldr	w0, [x0]
   80a54:	b90027a0 	str	w0, [x29,#36]
   80a58:	f94017a1 	ldr	x1, [x29,#40]
   80a5c:	f9401ba0 	ldr	x0, [x29,#48]
   80a60:	97fffeea 	bl	80608 <list_remove>
   80a64:	b9403fa1 	ldr	w1, [x29,#60]
   80a68:	b94013a0 	ldr	w0, [x29,#16]
   80a6c:	6b00003f 	cmp	w1, w0
   80a70:	540000ad 	b.le	80a84 <get_page_from_buckets+0x88>
   80a74:	b9403fa2 	ldr	w2, [x29,#60]
   80a78:	b94013a1 	ldr	w1, [x29,#16]
   80a7c:	f94017a0 	ldr	x0, [x29,#40]
   80a80:	97ffffa3 	bl	8090c <split_block>
   80a84:	f94017a0 	ldr	x0, [x29,#40]
   80a88:	14000008 	b	80aa8 <get_page_from_buckets+0xac>
   80a8c:	b9403fa0 	ldr	w0, [x29,#60]
   80a90:	11000400 	add	w0, w0, #0x1
   80a94:	b9003fa0 	str	w0, [x29,#60]
   80a98:	b9403fa0 	ldr	w0, [x29,#60]
   80a9c:	7100401f 	cmp	w0, #0x10
   80aa0:	54fffbed 	b.le	80a1c <get_page_from_buckets+0x20>
   80aa4:	d2800000 	mov	x0, #0x0                   	// #0
   80aa8:	a8c47bfd 	ldp	x29, x30, [sp],#64
   80aac:	d65f03c0 	ret

0000000000080ab0 <kmalloc>:
   80ab0:	a9bb7bfd 	stp	x29, x30, [sp,#-80]!
   80ab4:	910003fd 	mov	x29, sp
   80ab8:	b9001fa0 	str	w0, [x29,#28]
   80abc:	b9401fa0 	ldr	w0, [x29,#28]
   80ac0:	53047c00 	lsr	w0, w0, #4
   80ac4:	b90043a0 	str	w0, [x29,#64]
   80ac8:	b9401fa0 	ldr	w0, [x29,#28]
   80acc:	12000c00 	and	w0, w0, #0xf
   80ad0:	7100001f 	cmp	w0, #0x0
   80ad4:	1a9f07e0 	cset	w0, ne
   80ad8:	53001c00 	uxtb	w0, w0
   80adc:	2a0003e1 	mov	w1, w0
   80ae0:	b94043a0 	ldr	w0, [x29,#64]
   80ae4:	0b010000 	add	w0, w0, w1
   80ae8:	b90043a0 	str	w0, [x29,#64]
   80aec:	b9401fa0 	ldr	w0, [x29,#28]
   80af0:	530c7c00 	lsr	w0, w0, #12
   80af4:	b9003fa0 	str	w0, [x29,#60]
   80af8:	b9401fa0 	ldr	w0, [x29,#28]
   80afc:	12002c00 	and	w0, w0, #0xfff
   80b00:	7100001f 	cmp	w0, #0x0
   80b04:	1a9f07e0 	cset	w0, ne
   80b08:	53001c00 	uxtb	w0, w0
   80b0c:	2a0003e1 	mov	w1, w0
   80b10:	b9403fa0 	ldr	w0, [x29,#60]
   80b14:	0b010000 	add	w0, w0, w1
   80b18:	b9003fa0 	str	w0, [x29,#60]
   80b1c:	b9004fbf 	str	wzr, [x29,#76]
   80b20:	b94043a0 	ldr	w0, [x29,#64]
   80b24:	b9004ba0 	str	w0, [x29,#72]
   80b28:	14000007 	b	80b44 <kmalloc+0x94>
   80b2c:	b9404fa0 	ldr	w0, [x29,#76]
   80b30:	11000400 	add	w0, w0, #0x1
   80b34:	b9004fa0 	str	w0, [x29,#76]
   80b38:	b9404ba0 	ldr	w0, [x29,#72]
   80b3c:	13017c00 	asr	w0, w0, #1
   80b40:	b9004ba0 	str	w0, [x29,#72]
   80b44:	b9404ba0 	ldr	w0, [x29,#72]
   80b48:	13017c00 	asr	w0, w0, #1
   80b4c:	7100001f 	cmp	w0, #0x0
   80b50:	54fffee1 	b.ne	80b2c <kmalloc+0x7c>
   80b54:	b94043a0 	ldr	w0, [x29,#64]
   80b58:	51000401 	sub	w1, w0, #0x1
   80b5c:	b94043a0 	ldr	w0, [x29,#64]
   80b60:	0a000020 	and	w0, w1, w0
   80b64:	7100001f 	cmp	w0, #0x0
   80b68:	54000060 	b.eq	80b74 <kmalloc+0xc4>
   80b6c:	52800020 	mov	w0, #0x1                   	// #1
   80b70:	14000002 	b	80b78 <kmalloc+0xc8>
   80b74:	52800000 	mov	w0, #0x0                   	// #0
   80b78:	b9404fa1 	ldr	w1, [x29,#76]
   80b7c:	0b000020 	add	w0, w1, w0
   80b80:	b9004fa0 	str	w0, [x29,#76]
   80b84:	b9404fa0 	ldr	w0, [x29,#76]
   80b88:	b90047a0 	str	w0, [x29,#68]
   80b8c:	14000016 	b	80be4 <kmalloc+0x134>
   80b90:	b98047a0 	ldrsw	x0, [x29,#68]
   80b94:	d37cec01 	lsl	x1, x0, #4
   80b98:	90000020 	adrp	x0, 84000 <itoa+0xc8>
   80b9c:	91250000 	add	x0, x0, #0x940
   80ba0:	8b000020 	add	x0, x1, x0
   80ba4:	f9001ba0 	str	x0, [x29,#48]
   80ba8:	f9401ba0 	ldr	x0, [x29,#48]
   80bac:	f9400400 	ldr	x0, [x0,#8]
   80bb0:	f100001f 	cmp	x0, #0x0
   80bb4:	54000120 	b.eq	80bd8 <kmalloc+0x128>
   80bb8:	b9404fa0 	ldr	w0, [x29,#76]
   80bbc:	2a0003e2 	mov	w2, w0
   80bc0:	b94047a1 	ldr	w1, [x29,#68]
   80bc4:	f9401ba0 	ldr	x0, [x29,#48]
   80bc8:	97ffff8d 	bl	809fc <get_page_from_buckets>
   80bcc:	f90017a0 	str	x0, [x29,#40]
   80bd0:	f94017a0 	ldr	x0, [x29,#40]
   80bd4:	1400000b 	b	80c00 <kmalloc+0x150>
   80bd8:	b94047a0 	ldr	w0, [x29,#68]
   80bdc:	11000400 	add	w0, w0, #0x1
   80be0:	b90047a0 	str	w0, [x29,#68]
   80be4:	b94047a0 	ldr	w0, [x29,#68]
   80be8:	7100401f 	cmp	w0, #0x10
   80bec:	54fffd2d 	b.le	80b90 <kmalloc+0xe0>
   80bf0:	90000020 	adrp	x0, 84000 <itoa+0xc8>
   80bf4:	91094000 	add	x0, x0, #0x250
   80bf8:	97fffd8f 	bl	80234 <uart_puts>
   80bfc:	d2800000 	mov	x0, #0x0                   	// #0
   80c00:	a8c57bfd 	ldp	x29, x30, [sp],#80
   80c04:	d65f03c0 	ret

0000000000080c08 <merge_block>:
   80c08:	a9ba7bfd 	stp	x29, x30, [sp,#-96]!
   80c0c:	910003fd 	mov	x29, sp
   80c10:	b9001fa0 	str	w0, [x29,#28]
   80c14:	b9001ba1 	str	w1, [x29,#24]
   80c18:	b9005fbf 	str	wzr, [x29,#92]
   80c1c:	b9401ba0 	ldr	w0, [x29,#24]
   80c20:	b9005ba0 	str	w0, [x29,#88]
   80c24:	1400004b 	b	80d50 <merge_block+0x148>
   80c28:	b90057bf 	str	wzr, [x29,#84]
   80c2c:	b9405ba0 	ldr	w0, [x29,#88]
   80c30:	52800021 	mov	w1, #0x1                   	// #1
   80c34:	1ac02021 	lsl	w1, w1, w0
   80c38:	b9401fa0 	ldr	w0, [x29,#28]
   80c3c:	4a000020 	eor	w0, w1, w0
   80c40:	b90047a0 	str	w0, [x29,#68]
   80c44:	b9805ba0 	ldrsw	x0, [x29,#88]
   80c48:	d37cec01 	lsl	x1, x0, #4
   80c4c:	90000020 	adrp	x0, 84000 <itoa+0xc8>
   80c50:	91250000 	add	x0, x0, #0x940
   80c54:	8b000020 	add	x0, x1, x0
   80c58:	f9001fa0 	str	x0, [x29,#56]
   80c5c:	f9401fa0 	ldr	x0, [x29,#56]
   80c60:	f9400400 	ldr	x0, [x0,#8]
   80c64:	f90027a0 	str	x0, [x29,#72]
   80c68:	14000031 	b	80d2c <merge_block+0x124>
   80c6c:	f94027a0 	ldr	x0, [x29,#72]
   80c70:	b9400001 	ldr	w1, [x0]
   80c74:	b94047a0 	ldr	w0, [x29,#68]
   80c78:	6b00003f 	cmp	w1, w0
   80c7c:	54000521 	b.ne	80d20 <merge_block+0x118>
   80c80:	52800020 	mov	w0, #0x1                   	// #1
   80c84:	b90057a0 	str	w0, [x29,#84]
   80c88:	52800020 	mov	w0, #0x1                   	// #1
   80c8c:	b9005fa0 	str	w0, [x29,#92]
   80c90:	f94027a1 	ldr	x1, [x29,#72]
   80c94:	f9401fa0 	ldr	x0, [x29,#56]
   80c98:	97fffe5c 	bl	80608 <list_remove>
   80c9c:	b9405ba1 	ldr	w1, [x29,#88]
   80ca0:	b9401ba0 	ldr	w0, [x29,#24]
   80ca4:	6b00003f 	cmp	w1, w0
   80ca8:	5400008d 	b.le	80cb8 <merge_block+0xb0>
   80cac:	b9401fa1 	ldr	w1, [x29,#28]
   80cb0:	f9401fa0 	ldr	x0, [x29,#56]
   80cb4:	97fffe6c 	bl	80664 <list_remove_index>
   80cb8:	b9401fa0 	ldr	w0, [x29,#28]
   80cbc:	b94047a2 	ldr	w2, [x29,#68]
   80cc0:	b94047a1 	ldr	w1, [x29,#68]
   80cc4:	6b00005f 	cmp	w2, w0
   80cc8:	1a80d020 	csel	w0, w1, w0, le
   80ccc:	b9001fa0 	str	w0, [x29,#28]
   80cd0:	b9405ba0 	ldr	w0, [x29,#88]
   80cd4:	11000400 	add	w0, w0, #0x1
   80cd8:	93407c00 	sxtw	x0, w0
   80cdc:	d37cec01 	lsl	x1, x0, #4
   80ce0:	90000020 	adrp	x0, 84000 <itoa+0xc8>
   80ce4:	91250000 	add	x0, x0, #0x940
   80ce8:	8b000020 	add	x0, x1, x0
   80cec:	f9001ba0 	str	x0, [x29,#48]
   80cf0:	b9401fa0 	ldr	w0, [x29,#28]
   80cf4:	531c6c00 	lsl	w0, w0, #4
   80cf8:	93407c01 	sxtw	x1, w0
   80cfc:	d2a02000 	mov	x0, #0x1000000             	// #16777216
   80d00:	8b000020 	add	x0, x1, x0
   80d04:	f90017a0 	str	x0, [x29,#40]
   80d08:	b9401fa1 	ldr	w1, [x29,#28]
   80d0c:	f94017a0 	ldr	x0, [x29,#40]
   80d10:	97fffe20 	bl	80590 <node_init>
   80d14:	f94017a1 	ldr	x1, [x29,#40]
   80d18:	f9401ba0 	ldr	x0, [x29,#48]
   80d1c:	97fffe28 	bl	805bc <list_push>
   80d20:	f94027a0 	ldr	x0, [x29,#72]
   80d24:	f9400400 	ldr	x0, [x0,#8]
   80d28:	f90027a0 	str	x0, [x29,#72]
   80d2c:	f94027a0 	ldr	x0, [x29,#72]
   80d30:	f100001f 	cmp	x0, #0x0
   80d34:	54fff9c1 	b.ne	80c6c <merge_block+0x64>
   80d38:	b94057a0 	ldr	w0, [x29,#84]
   80d3c:	7100001f 	cmp	w0, #0x0
   80d40:	54000100 	b.eq	80d60 <merge_block+0x158>
   80d44:	b9405ba0 	ldr	w0, [x29,#88]
   80d48:	11000400 	add	w0, w0, #0x1
   80d4c:	b9005ba0 	str	w0, [x29,#88]
   80d50:	b9405ba0 	ldr	w0, [x29,#88]
   80d54:	71003c1f 	cmp	w0, #0xf
   80d58:	54fff68d 	b.le	80c28 <merge_block+0x20>
   80d5c:	14000002 	b	80d64 <merge_block+0x15c>
   80d60:	d503201f 	nop
   80d64:	b9405fa0 	ldr	w0, [x29,#92]
   80d68:	7100001f 	cmp	w0, #0x0
   80d6c:	54000060 	b.eq	80d78 <merge_block+0x170>
   80d70:	b9401fa0 	ldr	w0, [x29,#28]
   80d74:	14000002 	b	80d7c <merge_block+0x174>
   80d78:	12800000 	mov	w0, #0xffffffff            	// #-1
   80d7c:	a8c67bfd 	ldp	x29, x30, [sp],#96
   80d80:	d65f03c0 	ret

0000000000080d84 <free_page>:
   80d84:	a9bb7bfd 	stp	x29, x30, [sp,#-80]!
   80d88:	910003fd 	mov	x29, sp
   80d8c:	f9000fa0 	str	x0, [x29,#24]
   80d90:	b90017a1 	str	w1, [x29,#20]
   80d94:	f9400fa1 	ldr	x1, [x29,#24]
   80d98:	b2689fe0 	mov	x0, #0xffffffffff000000    	// #-16777216
   80d9c:	8b000020 	add	x0, x1, x0
   80da0:	d344fc00 	lsr	x0, x0, #4
   80da4:	b90047a0 	str	w0, [x29,#68]
   80da8:	b94017a0 	ldr	w0, [x29,#20]
   80dac:	53047c00 	lsr	w0, w0, #4
   80db0:	b90043a0 	str	w0, [x29,#64]
   80db4:	b94017a0 	ldr	w0, [x29,#20]
   80db8:	12000c00 	and	w0, w0, #0xf
   80dbc:	7100001f 	cmp	w0, #0x0
   80dc0:	1a9f07e0 	cset	w0, ne
   80dc4:	53001c00 	uxtb	w0, w0
   80dc8:	2a0003e1 	mov	w1, w0
   80dcc:	b94043a0 	ldr	w0, [x29,#64]
   80dd0:	0b010000 	add	w0, w0, w1
   80dd4:	b90043a0 	str	w0, [x29,#64]
   80dd8:	b9004fbf 	str	wzr, [x29,#76]
   80ddc:	b94043a0 	ldr	w0, [x29,#64]
   80de0:	b9004ba0 	str	w0, [x29,#72]
   80de4:	14000007 	b	80e00 <free_page+0x7c>
   80de8:	b9404fa0 	ldr	w0, [x29,#76]
   80dec:	11000400 	add	w0, w0, #0x1
   80df0:	b9004fa0 	str	w0, [x29,#76]
   80df4:	b9404ba0 	ldr	w0, [x29,#72]
   80df8:	13017c00 	asr	w0, w0, #1
   80dfc:	b9004ba0 	str	w0, [x29,#72]
   80e00:	b9404ba0 	ldr	w0, [x29,#72]
   80e04:	13017c00 	asr	w0, w0, #1
   80e08:	7100001f 	cmp	w0, #0x0
   80e0c:	54fffee1 	b.ne	80de8 <free_page+0x64>
   80e10:	b94043a0 	ldr	w0, [x29,#64]
   80e14:	51000401 	sub	w1, w0, #0x1
   80e18:	b94043a0 	ldr	w0, [x29,#64]
   80e1c:	0a000020 	and	w0, w1, w0
   80e20:	7100001f 	cmp	w0, #0x0
   80e24:	54000060 	b.eq	80e30 <free_page+0xac>
   80e28:	52800020 	mov	w0, #0x1                   	// #1
   80e2c:	14000002 	b	80e34 <free_page+0xb0>
   80e30:	52800000 	mov	w0, #0x0                   	// #0
   80e34:	b9404fa1 	ldr	w1, [x29,#76]
   80e38:	0b000020 	add	w0, w1, w0
   80e3c:	b9004fa0 	str	w0, [x29,#76]
   80e40:	12800000 	mov	w0, #0xffffffff            	// #-1
   80e44:	b9003fa0 	str	w0, [x29,#60]
   80e48:	b9404fa0 	ldr	w0, [x29,#76]
   80e4c:	2a0003e1 	mov	w1, w0
   80e50:	b94047a0 	ldr	w0, [x29,#68]
   80e54:	97ffff6d 	bl	80c08 <merge_block>
   80e58:	b9003fa0 	str	w0, [x29,#60]
   80e5c:	b9403fa0 	ldr	w0, [x29,#60]
   80e60:	3100041f 	cmn	w0, #0x1
   80e64:	540001e1 	b.ne	80ea0 <free_page+0x11c>
   80e68:	b9404fa0 	ldr	w0, [x29,#76]
   80e6c:	d37cec01 	lsl	x1, x0, #4
   80e70:	90000020 	adrp	x0, 84000 <itoa+0xc8>
   80e74:	91250000 	add	x0, x0, #0x940
   80e78:	8b000020 	add	x0, x1, x0
   80e7c:	f9001ba0 	str	x0, [x29,#48]
   80e80:	f9400fa0 	ldr	x0, [x29,#24]
   80e84:	f90017a0 	str	x0, [x29,#40]
   80e88:	b94047a1 	ldr	w1, [x29,#68]
   80e8c:	f94017a0 	ldr	x0, [x29,#40]
   80e90:	97fffdc0 	bl	80590 <node_init>
   80e94:	f94017a1 	ldr	x1, [x29,#40]
   80e98:	f9401ba0 	ldr	x0, [x29,#48]
   80e9c:	97fffdc8 	bl	805bc <list_push>
   80ea0:	d503201f 	nop
   80ea4:	a8c57bfd 	ldp	x29, x30, [sp],#80
   80ea8:	d65f03c0 	ret

0000000000080eac <dumpState>:
   80eac:	a9bd7bfd 	stp	x29, x30, [sp,#-48]!
   80eb0:	910003fd 	mov	x29, sp
   80eb4:	d5384000 	mrs	x0, spsr_el1
   80eb8:	f90017a0 	str	x0, [x29,#40]
   80ebc:	d5384020 	mrs	x0, elr_el1
   80ec0:	f90013a0 	str	x0, [x29,#32]
   80ec4:	d5385200 	mrs	x0, esr_el1
   80ec8:	f9000fa0 	str	x0, [x29,#24]
   80ecc:	90000020 	adrp	x0, 84000 <itoa+0xc8>
   80ed0:	9109a000 	add	x0, x0, #0x268
   80ed4:	97fffcd8 	bl	80234 <uart_puts>
   80ed8:	90000020 	adrp	x0, 84000 <itoa+0xc8>
   80edc:	910a0000 	add	x0, x0, #0x280
   80ee0:	97fffcd5 	bl	80234 <uart_puts>
   80ee4:	f94017a0 	ldr	x0, [x29,#40]
   80ee8:	97fffd18 	bl	80348 <uart_puts_hex>
   80eec:	90000020 	adrp	x0, 84000 <itoa+0xc8>
   80ef0:	910a4000 	add	x0, x0, #0x290
   80ef4:	97fffcd0 	bl	80234 <uart_puts>
   80ef8:	90000020 	adrp	x0, 84000 <itoa+0xc8>
   80efc:	910a6000 	add	x0, x0, #0x298
   80f00:	97fffccd 	bl	80234 <uart_puts>
   80f04:	f94013a0 	ldr	x0, [x29,#32]
   80f08:	97fffd10 	bl	80348 <uart_puts_hex>
   80f0c:	90000020 	adrp	x0, 84000 <itoa+0xc8>
   80f10:	910a4000 	add	x0, x0, #0x290
   80f14:	97fffcc8 	bl	80234 <uart_puts>
   80f18:	90000020 	adrp	x0, 84000 <itoa+0xc8>
   80f1c:	910aa000 	add	x0, x0, #0x2a8
   80f20:	97fffcc5 	bl	80234 <uart_puts>
   80f24:	f9400fa0 	ldr	x0, [x29,#24]
   80f28:	97fffd08 	bl	80348 <uart_puts_hex>
   80f2c:	90000020 	adrp	x0, 84000 <itoa+0xc8>
   80f30:	910a4000 	add	x0, x0, #0x290
   80f34:	97fffcc0 	bl	80234 <uart_puts>
   80f38:	90000020 	adrp	x0, 84000 <itoa+0xc8>
   80f3c:	910ae000 	add	x0, x0, #0x2b8
   80f40:	97fffcbd 	bl	80234 <uart_puts>
   80f44:	14000000 	b	80f44 <dumpState+0x98>

0000000000080f48 <dumpTimer>:
   80f48:	a9bd7bfd 	stp	x29, x30, [sp,#-48]!
   80f4c:	910003fd 	mov	x29, sp
   80f50:	d53be000 	mrs	x0, cntfrq_el0
   80f54:	8b000000 	add	x0, x0, x0
   80f58:	d51be200 	msr	cntp_tval_el0, x0
   80f5c:	94000139 	bl	81440 <timer_tick>
   80f60:	d53be020 	mrs	x0, cntpct_el0
   80f64:	f90017a0 	str	x0, [x29,#40]
   80f68:	d53be000 	mrs	x0, cntfrq_el0
   80f6c:	f90013a0 	str	x0, [x29,#32]
   80f70:	f94017a1 	ldr	x1, [x29,#40]
   80f74:	f94013a0 	ldr	x0, [x29,#32]
   80f78:	9ac00820 	udiv	x0, x1, x0
   80f7c:	f9000fa0 	str	x0, [x29,#24]
   80f80:	90000020 	adrp	x0, 84000 <itoa+0xc8>
   80f84:	910b4000 	add	x0, x0, #0x2d0
   80f88:	97fffcab 	bl	80234 <uart_puts>
   80f8c:	90000020 	adrp	x0, 84000 <itoa+0xc8>
   80f90:	910ba000 	add	x0, x0, #0x2e8
   80f94:	97fffca8 	bl	80234 <uart_puts>
   80f98:	f9400fa0 	ldr	x0, [x29,#24]
   80f9c:	97fffcdf 	bl	80318 <uart_puts_int>
   80fa0:	90000020 	adrp	x0, 84000 <itoa+0xc8>
   80fa4:	910a4000 	add	x0, x0, #0x290
   80fa8:	97fffca3 	bl	80234 <uart_puts>
   80fac:	90000020 	adrp	x0, 84000 <itoa+0xc8>
   80fb0:	910be000 	add	x0, x0, #0x2f8
   80fb4:	97fffca0 	bl	80234 <uart_puts>
   80fb8:	d503201f 	nop
   80fbc:	a8c37bfd 	ldp	x29, x30, [sp],#48
   80fc0:	d65f03c0 	ret

0000000000080fc4 <memcpy>:
   80fc4:	f8408423 	ldr	x3, [x1],#8
   80fc8:	f8008403 	str	x3, [x0],#8
   80fcc:	f1002042 	subs	x2, x2, #0x8
   80fd0:	54ffffac 	b.gt	80fc4 <memcpy>
   80fd4:	d65f03c0 	ret

0000000000080fd8 <memzero>:
   80fd8:	f800841f 	str	xzr, [x0],#8
   80fdc:	f1002021 	subs	x1, x1, #0x8
   80fe0:	54ffffcc 	b.gt	80fd8 <memzero>
   80fe4:	d65f03c0 	ret

0000000000080fe8 <preempt_disable>:
   80fe8:	90000020 	adrp	x0, 84000 <itoa+0xc8>
   80fec:	91314000 	add	x0, x0, #0xc50
   80ff0:	f9400000 	ldr	x0, [x0]
   80ff4:	f100001f 	cmp	x0, #0x0
   80ff8:	540000e0 	b.eq	81014 <preempt_disable+0x2c>
   80ffc:	90000020 	adrp	x0, 84000 <itoa+0xc8>
   81000:	91314000 	add	x0, x0, #0xc50
   81004:	f9400000 	ldr	x0, [x0]
   81008:	b9407801 	ldr	w1, [x0,#120]
   8100c:	11000421 	add	w1, w1, #0x1
   81010:	b9007801 	str	w1, [x0,#120]
   81014:	d503201f 	nop
   81018:	d65f03c0 	ret

000000000008101c <preempt_enable>:
   8101c:	f0000000 	adrp	x0, 84000 <itoa+0xc8>
   81020:	91314000 	add	x0, x0, #0xc50
   81024:	f9400000 	ldr	x0, [x0]
   81028:	f100001f 	cmp	x0, #0x0
   8102c:	540000e0 	b.eq	81048 <preempt_enable+0x2c>
   81030:	f0000000 	adrp	x0, 84000 <itoa+0xc8>
   81034:	91314000 	add	x0, x0, #0xc50
   81038:	f9400000 	ldr	x0, [x0]
   8103c:	b9407801 	ldr	w1, [x0,#120]
   81040:	51000421 	sub	w1, w1, #0x1
   81044:	b9007801 	str	w1, [x0,#120]
   81048:	d503201f 	nop
   8104c:	d65f03c0 	ret

0000000000081050 <delay>:
   81050:	d10043ff 	sub	sp, sp, #0x10
   81054:	f90007e0 	str	x0, [sp,#8]
   81058:	f94007e0 	ldr	x0, [sp,#8]
   8105c:	d1000400 	sub	x0, x0, #0x1
   81060:	f90007e0 	str	x0, [sp,#8]
   81064:	f94007e0 	ldr	x0, [sp,#8]
   81068:	f100001f 	cmp	x0, #0x0
   8106c:	54ffff61 	b.ne	81058 <delay+0x8>
   81070:	d503201f 	nop
   81074:	910043ff 	add	sp, sp, #0x10
   81078:	d65f03c0 	ret

000000000008107c <switch_to>:
   8107c:	a9bd7bfd 	stp	x29, x30, [sp,#-48]!
   81080:	910003fd 	mov	x29, sp
   81084:	f9000fa0 	str	x0, [x29,#24]
   81088:	f0000000 	adrp	x0, 84000 <itoa+0xc8>
   8108c:	91314000 	add	x0, x0, #0xc50
   81090:	f9400000 	ldr	x0, [x0]
   81094:	f90017a0 	str	x0, [x29,#40]
   81098:	f0000000 	adrp	x0, 84000 <itoa+0xc8>
   8109c:	91314000 	add	x0, x0, #0xc50
   810a0:	f9400fa1 	ldr	x1, [x29,#24]
   810a4:	f9000001 	str	x1, [x0]
   810a8:	f9400fa1 	ldr	x1, [x29,#24]
   810ac:	f94017a0 	ldr	x0, [x29,#40]
   810b0:	9400022d 	bl	81964 <cpu_switch_to>
   810b4:	d503201f 	nop
   810b8:	a8c37bfd 	ldp	x29, x30, [sp],#48
   810bc:	d65f03c0 	ret

00000000000810c0 <task_pt_regs>:
   810c0:	d10083ff 	sub	sp, sp, #0x20
   810c4:	f90007e0 	str	x0, [sp,#8]
   810c8:	f94007e0 	ldr	x0, [sp,#8]
   810cc:	913bc000 	add	x0, x0, #0xef0
   810d0:	f9000fe0 	str	x0, [sp,#24]
   810d4:	f9400fe0 	ldr	x0, [sp,#24]
   810d8:	910083ff 	add	sp, sp, #0x20
   810dc:	d65f03c0 	ret

00000000000810e0 <create_thread>:
   810e0:	a9bb7bfd 	stp	x29, x30, [sp,#-80]!
   810e4:	910003fd 	mov	x29, sp
   810e8:	f90017a0 	str	x0, [x29,#40]
   810ec:	f90013a1 	str	x1, [x29,#32]
   810f0:	f9000fa2 	str	x2, [x29,#24]
   810f4:	f9000ba3 	str	x3, [x29,#16]
   810f8:	97ffffbc 	bl	80fe8 <preempt_disable>
   810fc:	52820000 	mov	w0, #0x1000                	// #4096
   81100:	97fffe6c 	bl	80ab0 <kmalloc>
   81104:	f90027a0 	str	x0, [x29,#72]
   81108:	f94027a0 	ldr	x0, [x29,#72]
   8110c:	f100001f 	cmp	x0, #0x0
   81110:	54000061 	b.ne	8111c <create_thread+0x3c>
   81114:	52800020 	mov	w0, #0x1                   	// #1
   81118:	14000052 	b	81260 <create_thread+0x180>
   8111c:	f94027a0 	ldr	x0, [x29,#72]
   81120:	97ffffe8 	bl	810c0 <task_pt_regs>
   81124:	f90023a0 	str	x0, [x29,#64]
   81128:	f94023a0 	ldr	x0, [x29,#64]
   8112c:	d2802201 	mov	x1, #0x110                 	// #272
   81130:	97ffffaa 	bl	80fd8 <memzero>
   81134:	f94027a0 	ldr	x0, [x29,#72]
   81138:	d2800d01 	mov	x1, #0x68                  	// #104
   8113c:	97ffffa7 	bl	80fd8 <memzero>
   81140:	f94017a0 	ldr	x0, [x29,#40]
   81144:	927f0000 	and	x0, x0, #0x2
   81148:	f100001f 	cmp	x0, #0x0
   8114c:	54000100 	b.eq	8116c <create_thread+0x8c>
   81150:	f94027a0 	ldr	x0, [x29,#72]
   81154:	f94013a1 	ldr	x1, [x29,#32]
   81158:	f9000001 	str	x1, [x0]
   8115c:	f94027a0 	ldr	x0, [x29,#72]
   81160:	f9400fa1 	ldr	x1, [x29,#24]
   81164:	f9000401 	str	x1, [x0,#8]
   81168:	14000017 	b	811c4 <create_thread+0xe4>
   8116c:	f0000000 	adrp	x0, 84000 <itoa+0xc8>
   81170:	91314000 	add	x0, x0, #0xc50
   81174:	f9400000 	ldr	x0, [x0]
   81178:	97ffffd2 	bl	810c0 <task_pt_regs>
   8117c:	f9001fa0 	str	x0, [x29,#56]
   81180:	f94023a1 	ldr	x1, [x29,#64]
   81184:	f9401fa0 	ldr	x0, [x29,#56]
   81188:	aa0103e3 	mov	x3, x1
   8118c:	aa0003e1 	mov	x1, x0
   81190:	d2802200 	mov	x0, #0x110                 	// #272
   81194:	aa0003e2 	mov	x2, x0
   81198:	aa0303e0 	mov	x0, x3
   8119c:	97ffff8a 	bl	80fc4 <memcpy>
   811a0:	f94023a0 	ldr	x0, [x29,#64]
   811a4:	f900001f 	str	xzr, [x0]
   811a8:	f9400ba0 	ldr	x0, [x29,#16]
   811ac:	91400401 	add	x1, x0, #0x1, lsl #12
   811b0:	f94023a0 	ldr	x0, [x29,#64]
   811b4:	f9007c01 	str	x1, [x0,#248]
   811b8:	f94027a0 	ldr	x0, [x29,#72]
   811bc:	f9400ba1 	ldr	x1, [x29,#16]
   811c0:	f9004001 	str	x1, [x0,#128]
   811c4:	f0000000 	adrp	x0, 84000 <itoa+0xc8>
   811c8:	91316000 	add	x0, x0, #0xc58
   811cc:	b9400000 	ldr	w0, [x0]
   811d0:	11000402 	add	w2, w0, #0x1
   811d4:	f0000001 	adrp	x1, 84000 <itoa+0xc8>
   811d8:	91316021 	add	x1, x1, #0xc58
   811dc:	b9000022 	str	w2, [x1]
   811e0:	2a0003e1 	mov	w1, w0
   811e4:	f94027a0 	ldr	x0, [x29,#72]
   811e8:	b9006801 	str	w1, [x0,#104]
   811ec:	f94027a0 	ldr	x0, [x29,#72]
   811f0:	52800021 	mov	w1, #0x1                   	// #1
   811f4:	b9006c01 	str	w1, [x0,#108]
   811f8:	f94027a0 	ldr	x0, [x29,#72]
   811fc:	52800041 	mov	w1, #0x2                   	// #2
   81200:	b9007001 	str	w1, [x0,#112]
   81204:	f94027a0 	ldr	x0, [x29,#72]
   81208:	b9407001 	ldr	w1, [x0,#112]
   8120c:	f94027a0 	ldr	x0, [x29,#72]
   81210:	b9007401 	str	w1, [x0,#116]
   81214:	f94027a0 	ldr	x0, [x29,#72]
   81218:	91424000 	add	x0, x0, #0x90, lsl #12
   8121c:	aa0003e1 	mov	x1, x0
   81220:	f94027a0 	ldr	x0, [x29,#72]
   81224:	f9003001 	str	x1, [x0,#96]
   81228:	d0000000 	adrp	x0, 83000 <set_exception_vector_table>
   8122c:	91379001 	add	x1, x0, #0xde4
   81230:	f94027a0 	ldr	x0, [x29,#72]
   81234:	f9002c01 	str	x1, [x0,#88]
   81238:	f94027a0 	ldr	x0, [x29,#72]
   8123c:	b9406801 	ldr	w1, [x0,#104]
   81240:	f0000000 	adrp	x0, 84000 <itoa+0xc8>
   81244:	91294000 	add	x0, x0, #0xa50
   81248:	2a0103e1 	mov	w1, w1
   8124c:	f94027a2 	ldr	x2, [x29,#72]
   81250:	f8217802 	str	x2, [x0,x1,lsl #3]
   81254:	97ffff72 	bl	8101c <preempt_enable>
   81258:	f94027a0 	ldr	x0, [x29,#72]
   8125c:	b9406800 	ldr	w0, [x0,#104]
   81260:	a8c57bfd 	ldp	x29, x30, [sp],#80
   81264:	d65f03c0 	ret

0000000000081268 <scheduler>:
   81268:	a9bd7bfd 	stp	x29, x30, [sp,#-48]!
   8126c:	910003fd 	mov	x29, sp
   81270:	97ffff5e 	bl	80fe8 <preempt_disable>
   81274:	f9000fbf 	str	xzr, [x29,#24]
   81278:	b9002bbf 	str	wzr, [x29,#40]
   8127c:	f0000000 	adrp	x0, 84000 <itoa+0xc8>
   81280:	91314000 	add	x0, x0, #0xc50
   81284:	f9400000 	ldr	x0, [x0]
   81288:	f100001f 	cmp	x0, #0x0
   8128c:	54000200 	b.eq	812cc <scheduler+0x64>
   81290:	f0000000 	adrp	x0, 84000 <itoa+0xc8>
   81294:	91314000 	add	x0, x0, #0xc50
   81298:	f9400000 	ldr	x0, [x0]
   8129c:	b9406c00 	ldr	w0, [x0,#108]
   812a0:	7100081f 	cmp	w0, #0x2
   812a4:	54000140 	b.eq	812cc <scheduler+0x64>
   812a8:	f0000000 	adrp	x0, 84000 <itoa+0xc8>
   812ac:	91314000 	add	x0, x0, #0xc50
   812b0:	f9400000 	ldr	x0, [x0]
   812b4:	52800021 	mov	w1, #0x1                   	// #1
   812b8:	b9006c01 	str	w1, [x0,#108]
   812bc:	f0000000 	adrp	x0, 84000 <itoa+0xc8>
   812c0:	91314000 	add	x0, x0, #0xc50
   812c4:	f9400000 	ldr	x0, [x0]
   812c8:	b900741f 	str	wzr, [x0,#116]
   812cc:	b90027bf 	str	wzr, [x29,#36]
   812d0:	14000022 	b	81358 <scheduler+0xf0>
   812d4:	f0000000 	adrp	x0, 84000 <itoa+0xc8>
   812d8:	9124c000 	add	x0, x0, #0x930
   812dc:	b9400000 	ldr	w0, [x0]
   812e0:	11000400 	add	w0, w0, #0x1
   812e4:	f0000001 	adrp	x1, 84000 <itoa+0xc8>
   812e8:	91316021 	add	x1, x1, #0xc58
   812ec:	b9400021 	ldr	w1, [x1]
   812f0:	1ac10c02 	sdiv	w2, w0, w1
   812f4:	1b017c41 	mul	w1, w2, w1
   812f8:	4b010000 	sub	w0, w0, w1
   812fc:	b9002fa0 	str	w0, [x29,#44]
   81300:	f0000000 	adrp	x0, 84000 <itoa+0xc8>
   81304:	91294000 	add	x0, x0, #0xa50
   81308:	b9802fa1 	ldrsw	x1, [x29,#44]
   8130c:	f8617800 	ldr	x0, [x0,x1,lsl #3]
   81310:	f9000fa0 	str	x0, [x29,#24]
   81314:	f9400fa0 	ldr	x0, [x29,#24]
   81318:	f100001f 	cmp	x0, #0x0
   8131c:	54000180 	b.eq	8134c <scheduler+0xe4>
   81320:	f9400fa0 	ldr	x0, [x29,#24]
   81324:	b9406c00 	ldr	w0, [x0,#108]
   81328:	7100041f 	cmp	w0, #0x1
   8132c:	54000101 	b.ne	8134c <scheduler+0xe4>
   81330:	f9400fa0 	ldr	x0, [x29,#24]
   81334:	b9407400 	ldr	w0, [x0,#116]
   81338:	7100001f 	cmp	w0, #0x0
   8133c:	54000080 	b.eq	8134c <scheduler+0xe4>
   81340:	52800020 	mov	w0, #0x1                   	// #1
   81344:	b9002ba0 	str	w0, [x29,#40]
   81348:	1400000a 	b	81370 <scheduler+0x108>
   8134c:	b94027a0 	ldr	w0, [x29,#36]
   81350:	11000400 	add	w0, w0, #0x1
   81354:	b90027a0 	str	w0, [x29,#36]
   81358:	f0000000 	adrp	x0, 84000 <itoa+0xc8>
   8135c:	91316000 	add	x0, x0, #0xc58
   81360:	b9400000 	ldr	w0, [x0]
   81364:	b94027a1 	ldr	w1, [x29,#36]
   81368:	6b00003f 	cmp	w1, w0
   8136c:	54fffb4b 	b.lt	812d4 <scheduler+0x6c>
   81370:	b9402ba0 	ldr	w0, [x29,#40]
   81374:	7100001f 	cmp	w0, #0x0
   81378:	54000341 	b.ne	813e0 <scheduler+0x178>
   8137c:	b90023bf 	str	wzr, [x29,#32]
   81380:	14000011 	b	813c4 <scheduler+0x15c>
   81384:	f0000000 	adrp	x0, 84000 <itoa+0xc8>
   81388:	91294000 	add	x0, x0, #0xa50
   8138c:	b98023a1 	ldrsw	x1, [x29,#32]
   81390:	f8617800 	ldr	x0, [x0,x1,lsl #3]
   81394:	f9000fa0 	str	x0, [x29,#24]
   81398:	f9400fa0 	ldr	x0, [x29,#24]
   8139c:	b9407400 	ldr	w0, [x0,#116]
   813a0:	53017c01 	lsr	w1, w0, #1
   813a4:	f9400fa0 	ldr	x0, [x29,#24]
   813a8:	b9407000 	ldr	w0, [x0,#112]
   813ac:	0b000021 	add	w1, w1, w0
   813b0:	f9400fa0 	ldr	x0, [x29,#24]
   813b4:	b9007401 	str	w1, [x0,#116]
   813b8:	b94023a0 	ldr	w0, [x29,#32]
   813bc:	11000400 	add	w0, w0, #0x1
   813c0:	b90023a0 	str	w0, [x29,#32]
   813c4:	f0000000 	adrp	x0, 84000 <itoa+0xc8>
   813c8:	91316000 	add	x0, x0, #0xc58
   813cc:	b9400000 	ldr	w0, [x0]
   813d0:	b94023a1 	ldr	w1, [x29,#32]
   813d4:	6b00003f 	cmp	w1, w0
   813d8:	54fffd6b 	b.lt	81384 <scheduler+0x11c>
   813dc:	b9002fbf 	str	wzr, [x29,#44]
   813e0:	f0000000 	adrp	x0, 84000 <itoa+0xc8>
   813e4:	91294000 	add	x0, x0, #0xa50
   813e8:	b9802fa1 	ldrsw	x1, [x29,#44]
   813ec:	f8617800 	ldr	x0, [x0,x1,lsl #3]
   813f0:	b9006c1f 	str	wzr, [x0,#108]
   813f4:	f0000000 	adrp	x0, 84000 <itoa+0xc8>
   813f8:	9124c000 	add	x0, x0, #0x930
   813fc:	b9402fa1 	ldr	w1, [x29,#44]
   81400:	b9000001 	str	w1, [x0]
   81404:	f0000000 	adrp	x0, 84000 <itoa+0xc8>
   81408:	91294000 	add	x0, x0, #0xa50
   8140c:	b9802fa1 	ldrsw	x1, [x29,#44]
   81410:	f8617800 	ldr	x0, [x0,x1,lsl #3]
   81414:	97ffff1a 	bl	8107c <switch_to>
   81418:	97ffff01 	bl	8101c <preempt_enable>
   8141c:	d503201f 	nop
   81420:	a8c37bfd 	ldp	x29, x30, [sp],#48
   81424:	d65f03c0 	ret

0000000000081428 <schedule_tail>:
   81428:	a9bf7bfd 	stp	x29, x30, [sp,#-16]!
   8142c:	910003fd 	mov	x29, sp
   81430:	97fffefb 	bl	8101c <preempt_enable>
   81434:	d503201f 	nop
   81438:	a8c17bfd 	ldp	x29, x30, [sp],#16
   8143c:	d65f03c0 	ret

0000000000081440 <timer_tick>:
   81440:	a9bf7bfd 	stp	x29, x30, [sp,#-16]!
   81444:	910003fd 	mov	x29, sp
   81448:	f0000000 	adrp	x0, 84000 <itoa+0xc8>
   8144c:	91314000 	add	x0, x0, #0xc50
   81450:	f9400000 	ldr	x0, [x0]
   81454:	b9407401 	ldr	w1, [x0,#116]
   81458:	51000421 	sub	w1, w1, #0x1
   8145c:	b9007401 	str	w1, [x0,#116]
   81460:	f0000000 	adrp	x0, 84000 <itoa+0xc8>
   81464:	91314000 	add	x0, x0, #0xc50
   81468:	f9400000 	ldr	x0, [x0]
   8146c:	b9407400 	ldr	w0, [x0,#116]
   81470:	7100001f 	cmp	w0, #0x0
   81474:	54000141 	b.ne	8149c <timer_tick+0x5c>
   81478:	f0000000 	adrp	x0, 84000 <itoa+0xc8>
   8147c:	91314000 	add	x0, x0, #0xc50
   81480:	f9400000 	ldr	x0, [x0]
   81484:	b900741f 	str	wzr, [x0,#116]
   81488:	f0000000 	adrp	x0, 84000 <itoa+0xc8>
   8148c:	910c4000 	add	x0, x0, #0x310
   81490:	97fffb69 	bl	80234 <uart_puts>
   81494:	97ffff75 	bl	81268 <scheduler>
   81498:	14000002 	b	814a0 <timer_tick+0x60>
   8149c:	d503201f 	nop
   814a0:	a8c17bfd 	ldp	x29, x30, [sp],#16
   814a4:	d65f03c0 	ret

00000000000814a8 <_exit>:
   814a8:	a9bf7bfd 	stp	x29, x30, [sp,#-16]!
   814ac:	910003fd 	mov	x29, sp
   814b0:	97fffece 	bl	80fe8 <preempt_disable>
   814b4:	f0000000 	adrp	x0, 84000 <itoa+0xc8>
   814b8:	91314000 	add	x0, x0, #0xc50
   814bc:	f9400000 	ldr	x0, [x0]
   814c0:	52800041 	mov	w1, #0x2                   	// #2
   814c4:	b9006c01 	str	w1, [x0,#108]
   814c8:	f0000000 	adrp	x0, 84000 <itoa+0xc8>
   814cc:	910c8000 	add	x0, x0, #0x320
   814d0:	97fffb59 	bl	80234 <uart_puts>
   814d4:	f0000000 	adrp	x0, 84000 <itoa+0xc8>
   814d8:	91314000 	add	x0, x0, #0xc50
   814dc:	f9400000 	ldr	x0, [x0]
   814e0:	b9406800 	ldr	w0, [x0,#104]
   814e4:	97fffb8d 	bl	80318 <uart_puts_int>
   814e8:	f0000000 	adrp	x0, 84000 <itoa+0xc8>
   814ec:	910ca000 	add	x0, x0, #0x328
   814f0:	97fffb51 	bl	80234 <uart_puts>
   814f4:	97fffeca 	bl	8101c <preempt_enable>
   814f8:	97ffff5c 	bl	81268 <scheduler>
   814fc:	d503201f 	nop
   81500:	a8c17bfd 	ldp	x29, x30, [sp],#16
   81504:	d65f03c0 	ret

0000000000081508 <relocate_queue>:
   81508:	a9bc7bfd 	stp	x29, x30, [sp,#-64]!
   8150c:	910003fd 	mov	x29, sp
   81510:	b9003fbf 	str	wzr, [x29,#60]
   81514:	1400002f 	b	815d0 <relocate_queue+0xc8>
   81518:	f0000000 	adrp	x0, 84000 <itoa+0xc8>
   8151c:	91294000 	add	x0, x0, #0xa50
   81520:	b9803fa1 	ldrsw	x1, [x29,#60]
   81524:	f8617800 	ldr	x0, [x0,x1,lsl #3]
   81528:	f90017a0 	str	x0, [x29,#40]
   8152c:	f94017a0 	ldr	x0, [x29,#40]
   81530:	b9406c00 	ldr	w0, [x0,#108]
   81534:	7100081f 	cmp	w0, #0x2
   81538:	54000461 	b.ne	815c4 <relocate_queue+0xbc>
   8153c:	f0000000 	adrp	x0, 84000 <itoa+0xc8>
   81540:	910ce000 	add	x0, x0, #0x338
   81544:	97fffb3c 	bl	80234 <uart_puts>
   81548:	b9403fa0 	ldr	w0, [x29,#60]
   8154c:	11000400 	add	w0, w0, #0x1
   81550:	b9003ba0 	str	w0, [x29,#56]
   81554:	14000019 	b	815b8 <relocate_queue+0xb0>
   81558:	f0000000 	adrp	x0, 84000 <itoa+0xc8>
   8155c:	91294000 	add	x0, x0, #0xa50
   81560:	b9803ba1 	ldrsw	x1, [x29,#56]
   81564:	f8617800 	ldr	x0, [x0,x1,lsl #3]
   81568:	f90013a0 	str	x0, [x29,#32]
   8156c:	f94013a0 	ldr	x0, [x29,#32]
   81570:	f100001f 	cmp	x0, #0x0
   81574:	540001c0 	b.eq	815ac <relocate_queue+0xa4>
   81578:	f94013a0 	ldr	x0, [x29,#32]
   8157c:	b9406c00 	ldr	w0, [x0,#108]
   81580:	7100081f 	cmp	w0, #0x2
   81584:	54000140 	b.eq	815ac <relocate_queue+0xa4>
   81588:	f0000000 	adrp	x0, 84000 <itoa+0xc8>
   8158c:	91294000 	add	x0, x0, #0xa50
   81590:	b9803fa1 	ldrsw	x1, [x29,#60]
   81594:	f94013a2 	ldr	x2, [x29,#32]
   81598:	f8217802 	str	x2, [x0,x1,lsl #3]
   8159c:	f0000000 	adrp	x0, 84000 <itoa+0xc8>
   815a0:	91294000 	add	x0, x0, #0xa50
   815a4:	b9803ba1 	ldrsw	x1, [x29,#56]
   815a8:	f821781f 	str	xzr, [x0,x1,lsl #3]
   815ac:	b9403ba0 	ldr	w0, [x29,#56]
   815b0:	11000400 	add	w0, w0, #0x1
   815b4:	b9003ba0 	str	w0, [x29,#56]
   815b8:	b9403ba0 	ldr	w0, [x29,#56]
   815bc:	7100fc1f 	cmp	w0, #0x3f
   815c0:	54fffccd 	b.le	81558 <relocate_queue+0x50>
   815c4:	b9403fa0 	ldr	w0, [x29,#60]
   815c8:	11000400 	add	w0, w0, #0x1
   815cc:	b9003fa0 	str	w0, [x29,#60]
   815d0:	f0000000 	adrp	x0, 84000 <itoa+0xc8>
   815d4:	91316000 	add	x0, x0, #0xc58
   815d8:	b9400000 	ldr	w0, [x0]
   815dc:	b9403fa1 	ldr	w1, [x29,#60]
   815e0:	6b00003f 	cmp	w1, w0
   815e4:	54fff9ab 	b.lt	81518 <relocate_queue+0x10>
   815e8:	b90037bf 	str	wzr, [x29,#52]
   815ec:	14000014 	b	8163c <relocate_queue+0x134>
   815f0:	f0000000 	adrp	x0, 84000 <itoa+0xc8>
   815f4:	91294000 	add	x0, x0, #0xa50
   815f8:	b98037a1 	ldrsw	x1, [x29,#52]
   815fc:	f8617800 	ldr	x0, [x0,x1,lsl #3]
   81600:	f9000fa0 	str	x0, [x29,#24]
   81604:	f9400fa0 	ldr	x0, [x29,#24]
   81608:	f100001f 	cmp	x0, #0x0
   8160c:	54000120 	b.eq	81630 <relocate_queue+0x128>
   81610:	f9400fa0 	ldr	x0, [x29,#24]
   81614:	b9406c00 	ldr	w0, [x0,#108]
   81618:	7100081f 	cmp	w0, #0x2
   8161c:	540000a1 	b.ne	81630 <relocate_queue+0x128>
   81620:	f0000000 	adrp	x0, 84000 <itoa+0xc8>
   81624:	91294000 	add	x0, x0, #0xa50
   81628:	b98037a1 	ldrsw	x1, [x29,#52]
   8162c:	f821781f 	str	xzr, [x0,x1,lsl #3]
   81630:	b94037a0 	ldr	w0, [x29,#52]
   81634:	11000400 	add	w0, w0, #0x1
   81638:	b90037a0 	str	w0, [x29,#52]
   8163c:	b94037a0 	ldr	w0, [x29,#52]
   81640:	7100fc1f 	cmp	w0, #0x3f
   81644:	54fffd6d 	b.le	815f0 <relocate_queue+0xe8>
   81648:	d503201f 	nop
   8164c:	a8c47bfd 	ldp	x29, x30, [sp],#64
   81650:	d65f03c0 	ret

0000000000081654 <idle>:
   81654:	a9be7bfd 	stp	x29, x30, [sp,#-32]!
   81658:	910003fd 	mov	x29, sp
   8165c:	97fffe63 	bl	80fe8 <preempt_disable>
   81660:	b9001fbf 	str	wzr, [x29,#28]
   81664:	1400001a 	b	816cc <idle+0x78>
   81668:	f0000000 	adrp	x0, 84000 <itoa+0xc8>
   8166c:	91294000 	add	x0, x0, #0xa50
   81670:	b9801fa1 	ldrsw	x1, [x29,#28]
   81674:	f8617800 	ldr	x0, [x0,x1,lsl #3]
   81678:	f9000ba0 	str	x0, [x29,#16]
   8167c:	f9400ba0 	ldr	x0, [x29,#16]
   81680:	f100001f 	cmp	x0, #0x0
   81684:	540001e0 	b.eq	816c0 <idle+0x6c>
   81688:	f9400ba0 	ldr	x0, [x29,#16]
   8168c:	b9406c00 	ldr	w0, [x0,#108]
   81690:	7100081f 	cmp	w0, #0x2
   81694:	54000161 	b.ne	816c0 <idle+0x6c>
   81698:	f9400ba0 	ldr	x0, [x29,#16]
   8169c:	52820001 	mov	w1, #0x1000                	// #4096
   816a0:	97fffdb9 	bl	80d84 <free_page>
   816a4:	f0000000 	adrp	x0, 84000 <itoa+0xc8>
   816a8:	91316000 	add	x0, x0, #0xc58
   816ac:	b9400000 	ldr	w0, [x0]
   816b0:	51000401 	sub	w1, w0, #0x1
   816b4:	f0000000 	adrp	x0, 84000 <itoa+0xc8>
   816b8:	91316000 	add	x0, x0, #0xc58
   816bc:	b9000001 	str	w1, [x0]
   816c0:	b9401fa0 	ldr	w0, [x29,#28]
   816c4:	11000400 	add	w0, w0, #0x1
   816c8:	b9001fa0 	str	w0, [x29,#28]
   816cc:	b9401fa0 	ldr	w0, [x29,#28]
   816d0:	7100fc1f 	cmp	w0, #0x3f
   816d4:	54fffcad 	b.le	81668 <idle+0x14>
   816d8:	97ffff8c 	bl	81508 <relocate_queue>
   816dc:	97fffe50 	bl	8101c <preempt_enable>
   816e0:	f0000000 	adrp	x0, 84000 <itoa+0xc8>
   816e4:	910d2000 	add	x0, x0, #0x348
   816e8:	97fffad3 	bl	80234 <uart_puts>
   816ec:	f0000000 	adrp	x0, 84000 <itoa+0xc8>
   816f0:	91316000 	add	x0, x0, #0xc58
   816f4:	b9400000 	ldr	w0, [x0]
   816f8:	97fffb08 	bl	80318 <uart_puts_int>
   816fc:	f0000000 	adrp	x0, 84000 <itoa+0xc8>
   81700:	910da000 	add	x0, x0, #0x368
   81704:	97fffacc 	bl	80234 <uart_puts>
   81708:	d2884800 	mov	x0, #0x4240                	// #16960
   8170c:	f2a001e0 	movk	x0, #0xf, lsl #16
   81710:	97fffe50 	bl	81050 <delay>
   81714:	97fffed5 	bl	81268 <scheduler>
   81718:	17ffffd1 	b	8165c <idle+0x8>

000000000008171c <_exec>:
   8171c:	a9bd7bfd 	stp	x29, x30, [sp,#-48]!
   81720:	910003fd 	mov	x29, sp
   81724:	f9000fa0 	str	x0, [x29,#24]
   81728:	f9000ba1 	str	x1, [x29,#16]
   8172c:	f9400ba1 	ldr	x1, [x29,#16]
   81730:	f9400fa0 	ldr	x0, [x29,#24]
   81734:	9400081c 	bl	837a4 <load_user_program_withArgv>
   81738:	93407c00 	sxtw	x0, w0
   8173c:	f90017a0 	str	x0, [x29,#40]
   81740:	f94017a0 	ldr	x0, [x29,#40]
   81744:	f100001f 	cmp	x0, #0x0
   81748:	540000c1 	b.ne	81760 <_exec+0x44>
   8174c:	f0000000 	adrp	x0, 84000 <itoa+0xc8>
   81750:	910de000 	add	x0, x0, #0x378
   81754:	97fffab8 	bl	80234 <uart_puts>
   81758:	97ffff54 	bl	814a8 <_exit>
   8175c:	14000004 	b	8176c <_exec+0x50>
   81760:	f0000000 	adrp	x0, 84000 <itoa+0xc8>
   81764:	910e6000 	add	x0, x0, #0x398
   81768:	97fffab3 	bl	80234 <uart_puts>
   8176c:	a8c37bfd 	ldp	x29, x30, [sp],#48
   81770:	d65f03c0 	ret

0000000000081774 <lab3>:
   81774:	a9bd7bfd 	stp	x29, x30, [sp,#-48]!
   81778:	910003fd 	mov	x29, sp
   8177c:	52800200 	mov	w0, #0x10                  	// #16
   81780:	97fffccc 	bl	80ab0 <kmalloc>
   81784:	f90017a0 	str	x0, [x29,#40]
   81788:	52800500 	mov	w0, #0x28                  	// #40
   8178c:	97fffcc9 	bl	80ab0 <kmalloc>
   81790:	f90013a0 	str	x0, [x29,#32]
   81794:	52820000 	mov	w0, #0x1000                	// #4096
   81798:	97fffcc6 	bl	80ab0 <kmalloc>
   8179c:	f9000fa0 	str	x0, [x29,#24]
   817a0:	52808000 	mov	w0, #0x400                 	// #1024
   817a4:	97fffcc3 	bl	80ab0 <kmalloc>
   817a8:	f9000ba0 	str	x0, [x29,#16]
   817ac:	52820001 	mov	w1, #0x1000                	// #4096
   817b0:	f9400fa0 	ldr	x0, [x29,#24]
   817b4:	97fffd74 	bl	80d84 <free_page>
   817b8:	52808001 	mov	w1, #0x400                 	// #1024
   817bc:	f9400ba0 	ldr	x0, [x29,#16]
   817c0:	97fffd71 	bl	80d84 <free_page>
   817c4:	52800501 	mov	w1, #0x28                  	// #40
   817c8:	f94013a0 	ldr	x0, [x29,#32]
   817cc:	97fffd6e 	bl	80d84 <free_page>
   817d0:	52800201 	mov	w1, #0x10                  	// #16
   817d4:	f94017a0 	ldr	x0, [x29,#40]
   817d8:	97fffd6b 	bl	80d84 <free_page>
   817dc:	d503201f 	nop
   817e0:	a8c37bfd 	ldp	x29, x30, [sp],#48
   817e4:	d65f03c0 	ret

00000000000817e8 <foo>:
   817e8:	a9be7bfd 	stp	x29, x30, [sp,#-32]!
   817ec:	910003fd 	mov	x29, sp
   817f0:	b9001fbf 	str	wzr, [x29,#28]
   817f4:	14000018 	b	81854 <foo+0x6c>
   817f8:	f0000000 	adrp	x0, 84000 <itoa+0xc8>
   817fc:	910ee000 	add	x0, x0, #0x3b8
   81800:	97fffa8d 	bl	80234 <uart_puts>
   81804:	f0000000 	adrp	x0, 84000 <itoa+0xc8>
   81808:	91314000 	add	x0, x0, #0xc50
   8180c:	f9400000 	ldr	x0, [x0]
   81810:	b9406800 	ldr	w0, [x0,#104]
   81814:	97fffac1 	bl	80318 <uart_puts_int>
   81818:	f0000000 	adrp	x0, 84000 <itoa+0xc8>
   8181c:	910f2000 	add	x0, x0, #0x3c8
   81820:	97fffa85 	bl	80234 <uart_puts>
   81824:	b9401fa0 	ldr	w0, [x29,#28]
   81828:	97fffabc 	bl	80318 <uart_puts_int>
   8182c:	f0000000 	adrp	x0, 84000 <itoa+0xc8>
   81830:	910f4000 	add	x0, x0, #0x3d0
   81834:	97fffa80 	bl	80234 <uart_puts>
   81838:	d2884800 	mov	x0, #0x4240                	// #16960
   8183c:	f2a001e0 	movk	x0, #0xf, lsl #16
   81840:	97fffe04 	bl	81050 <delay>
   81844:	97fffe89 	bl	81268 <scheduler>
   81848:	b9401fa0 	ldr	w0, [x29,#28]
   8184c:	11000400 	add	w0, w0, #0x1
   81850:	b9001fa0 	str	w0, [x29,#28]
   81854:	b9401fa0 	ldr	w0, [x29,#28]
   81858:	7100241f 	cmp	w0, #0x9
   8185c:	54fffced 	b.le	817f8 <foo+0x10>
   81860:	97ffff12 	bl	814a8 <_exit>
   81864:	d503201f 	nop
   81868:	a8c27bfd 	ldp	x29, x30, [sp],#32
   8186c:	d65f03c0 	ret

0000000000081870 <lab5_required_1>:
   81870:	a9bd7bfd 	stp	x29, x30, [sp,#-48]!
   81874:	910003fd 	mov	x29, sp
   81878:	b9001fa0 	str	w0, [x29,#28]
   8187c:	b9002fbf 	str	wzr, [x29,#44]
   81880:	1400000c 	b	818b0 <lab5_required_1+0x40>
   81884:	90000000 	adrp	x0, 81000 <preempt_disable+0x18>
   81888:	911fa000 	add	x0, x0, #0x7e8
   8188c:	d2800003 	mov	x3, #0x0                   	// #0
   81890:	d2800002 	mov	x2, #0x0                   	// #0
   81894:	aa0003e1 	mov	x1, x0
   81898:	d2800040 	mov	x0, #0x2                   	// #2
   8189c:	97fffe11 	bl	810e0 <create_thread>
   818a0:	b9002ba0 	str	w0, [x29,#40]
   818a4:	b9402fa0 	ldr	w0, [x29,#44]
   818a8:	11000400 	add	w0, w0, #0x1
   818ac:	b9002fa0 	str	w0, [x29,#44]
   818b0:	b9402fa1 	ldr	w1, [x29,#44]
   818b4:	b9401fa0 	ldr	w0, [x29,#28]
   818b8:	6b00003f 	cmp	w1, w0
   818bc:	54fffe4b 	b.lt	81884 <lab5_required_1+0x14>
   818c0:	90000000 	adrp	x0, 81000 <preempt_disable+0x18>
   818c4:	91195000 	add	x0, x0, #0x654
   818c8:	d2800003 	mov	x3, #0x0                   	// #0
   818cc:	d2800002 	mov	x2, #0x0                   	// #0
   818d0:	aa0003e1 	mov	x1, x0
   818d4:	d2800040 	mov	x0, #0x2                   	// #2
   818d8:	97fffe02 	bl	810e0 <create_thread>
   818dc:	b90027a0 	str	w0, [x29,#36]
   818e0:	97fffe62 	bl	81268 <scheduler>
   818e4:	17ffffff 	b	818e0 <lab5_required_1+0x70>

00000000000818e8 <foo2>:
   818e8:	a9bc7bfd 	stp	x29, x30, [sp,#-64]!
   818ec:	910003fd 	mov	x29, sp
   818f0:	f0000000 	adrp	x0, 84000 <itoa+0xc8>
   818f4:	91104001 	add	x1, x0, #0x410
   818f8:	910063a0 	add	x0, x29, #0x18
   818fc:	a9400c22 	ldp	x2, x3, [x1]
   81900:	a9000c02 	stp	x2, x3, [x0]
   81904:	a9410c22 	ldp	x2, x3, [x1,#16]
   81908:	a9010c02 	stp	x2, x3, [x0,#16]
   8190c:	f9401021 	ldr	x1, [x1,#32]
   81910:	f9001001 	str	x1, [x0,#32]
   81914:	910063a1 	add	x1, x29, #0x18
   81918:	f0000000 	adrp	x0, 84000 <itoa+0xc8>
   8191c:	910f6000 	add	x0, x0, #0x3d8
   81920:	97ffff7f 	bl	8171c <_exec>
   81924:	97fffe51 	bl	81268 <scheduler>
   81928:	d503201f 	nop
   8192c:	a8c47bfd 	ldp	x29, x30, [sp],#64
   81930:	d65f03c0 	ret

0000000000081934 <lab5_required_2>:
   81934:	a9be7bfd 	stp	x29, x30, [sp,#-32]!
   81938:	910003fd 	mov	x29, sp
   8193c:	90000000 	adrp	x0, 81000 <preempt_disable+0x18>
   81940:	9123a000 	add	x0, x0, #0x8e8
   81944:	d2800003 	mov	x3, #0x0                   	// #0
   81948:	d2800002 	mov	x2, #0x0                   	// #0
   8194c:	aa0003e1 	mov	x1, x0
   81950:	d2800040 	mov	x0, #0x2                   	// #2
   81954:	97fffde3 	bl	810e0 <create_thread>
   81958:	b9001fa0 	str	w0, [x29,#28]
   8195c:	97fffe43 	bl	81268 <scheduler>
   81960:	17ffffff 	b	8195c <lab5_required_2+0x28>

0000000000081964 <cpu_switch_to>:
   81964:	a9005013 	stp	x19, x20, [x0]
   81968:	a9015815 	stp	x21, x22, [x0,#16]
   8196c:	a9026017 	stp	x23, x24, [x0,#32]
   81970:	a9036819 	stp	x25, x26, [x0,#48]
   81974:	a904701b 	stp	x27, x28, [x0,#64]
   81978:	a905781d 	stp	x29, x30, [x0,#80]
   8197c:	910003e9 	mov	x9, sp
   81980:	f9003009 	str	x9, [x0,#96]
   81984:	a9405033 	ldp	x19, x20, [x1]
   81988:	a9415835 	ldp	x21, x22, [x1,#16]
   8198c:	a9426037 	ldp	x23, x24, [x1,#32]
   81990:	a9436839 	ldp	x25, x26, [x1,#48]
   81994:	a944703b 	ldp	x27, x28, [x1,#64]
   81998:	a945783d 	ldp	x29, x30, [x1,#80]
   8199c:	f9403029 	ldr	x9, [x1,#96]
   819a0:	9100013f 	mov	sp, x9
   819a4:	d518d081 	msr	tpidr_el1, x1
   819a8:	d65f03c0 	ret

00000000000819ac <get_current>:
   819ac:	d538d080 	mrs	x0, tpidr_el1
   819b0:	d65f03c0 	ret
	...

0000000000082000 <exception_handler>:
   82000:	d10443ff 	sub	sp, sp, #0x110
   82004:	a90007e0 	stp	x0, x1, [sp]
   82008:	a9010fe2 	stp	x2, x3, [sp,#16]
   8200c:	a90217e4 	stp	x4, x5, [sp,#32]
   82010:	a9031fe6 	stp	x6, x7, [sp,#48]
   82014:	a90427e8 	stp	x8, x9, [sp,#64]
   82018:	a9052fea 	stp	x10, x11, [sp,#80]
   8201c:	a90637ec 	stp	x12, x13, [sp,#96]
   82020:	a9073fee 	stp	x14, x15, [sp,#112]
   82024:	a90847f0 	stp	x16, x17, [sp,#128]
   82028:	a9094ff2 	stp	x18, x19, [sp,#144]
   8202c:	a90a57f4 	stp	x20, x21, [sp,#160]
   82030:	a90b5ff6 	stp	x22, x23, [sp,#176]
   82034:	a90c67f8 	stp	x24, x25, [sp,#192]
   82038:	a90d6ffa 	stp	x26, x27, [sp,#208]
   8203c:	a90e77fc 	stp	x28, x29, [sp,#224]
   82040:	d5384115 	mrs	x21, sp_el0
   82044:	d5384036 	mrs	x22, elr_el1
   82048:	d5384017 	mrs	x23, spsr_el1
   8204c:	a90f57fe 	stp	x30, x21, [sp,#240]
   82050:	a9105ff6 	stp	x22, x23, [sp,#256]
   82054:	97fffb96 	bl	80eac <dumpState>
   82058:	a9505ff6 	ldp	x22, x23, [sp,#256]
   8205c:	a94f57fe 	ldp	x30, x21, [sp,#240]
   82060:	d5184115 	msr	sp_el0, x21
   82064:	d5184036 	msr	elr_el1, x22
   82068:	d5184017 	msr	spsr_el1, x23
   8206c:	a94007e0 	ldp	x0, x1, [sp]
   82070:	a9410fe2 	ldp	x2, x3, [sp,#16]
   82074:	a94217e4 	ldp	x4, x5, [sp,#32]
   82078:	a9431fe6 	ldp	x6, x7, [sp,#48]
   8207c:	a94427e8 	ldp	x8, x9, [sp,#64]
   82080:	a9452fea 	ldp	x10, x11, [sp,#80]
   82084:	a94637ec 	ldp	x12, x13, [sp,#96]
   82088:	a9473fee 	ldp	x14, x15, [sp,#112]
   8208c:	a94847f0 	ldp	x16, x17, [sp,#128]
   82090:	a9494ff2 	ldp	x18, x19, [sp,#144]
   82094:	a94a57f4 	ldp	x20, x21, [sp,#160]
   82098:	a94b5ff6 	ldp	x22, x23, [sp,#176]
   8209c:	a94c67f8 	ldp	x24, x25, [sp,#192]
   820a0:	a94d6ffa 	ldp	x26, x27, [sp,#208]
   820a4:	a94e77fc 	ldp	x28, x29, [sp,#224]
   820a8:	910443ff 	add	sp, sp, #0x110
   820ac:	d69f03e0 	eret

00000000000820b0 <core_timer_handler>:
   820b0:	d10443ff 	sub	sp, sp, #0x110
   820b4:	a90007e0 	stp	x0, x1, [sp]
   820b8:	a9010fe2 	stp	x2, x3, [sp,#16]
   820bc:	a90217e4 	stp	x4, x5, [sp,#32]
   820c0:	a9031fe6 	stp	x6, x7, [sp,#48]
   820c4:	a90427e8 	stp	x8, x9, [sp,#64]
   820c8:	a9052fea 	stp	x10, x11, [sp,#80]
   820cc:	a90637ec 	stp	x12, x13, [sp,#96]
   820d0:	a9073fee 	stp	x14, x15, [sp,#112]
   820d4:	a90847f0 	stp	x16, x17, [sp,#128]
   820d8:	a9094ff2 	stp	x18, x19, [sp,#144]
   820dc:	a90a57f4 	stp	x20, x21, [sp,#160]
   820e0:	a90b5ff6 	stp	x22, x23, [sp,#176]
   820e4:	a90c67f8 	stp	x24, x25, [sp,#192]
   820e8:	a90d6ffa 	stp	x26, x27, [sp,#208]
   820ec:	a90e77fc 	stp	x28, x29, [sp,#224]
   820f0:	d5384115 	mrs	x21, sp_el0
   820f4:	d5384036 	mrs	x22, elr_el1
   820f8:	d5384017 	mrs	x23, spsr_el1
   820fc:	a90f57fe 	stp	x30, x21, [sp,#240]
   82100:	a9105ff6 	stp	x22, x23, [sp,#256]
   82104:	97fffb91 	bl	80f48 <dumpTimer>
   82108:	a9505ff6 	ldp	x22, x23, [sp,#256]
   8210c:	a94f57fe 	ldp	x30, x21, [sp,#240]
   82110:	d5184115 	msr	sp_el0, x21
   82114:	d5184036 	msr	elr_el1, x22
   82118:	d5184017 	msr	spsr_el1, x23
   8211c:	a94007e0 	ldp	x0, x1, [sp]
   82120:	a9410fe2 	ldp	x2, x3, [sp,#16]
   82124:	a94217e4 	ldp	x4, x5, [sp,#32]
   82128:	a9431fe6 	ldp	x6, x7, [sp,#48]
   8212c:	a94427e8 	ldp	x8, x9, [sp,#64]
   82130:	a9452fea 	ldp	x10, x11, [sp,#80]
   82134:	a94637ec 	ldp	x12, x13, [sp,#96]
   82138:	a9473fee 	ldp	x14, x15, [sp,#112]
   8213c:	a94847f0 	ldp	x16, x17, [sp,#128]
   82140:	a9494ff2 	ldp	x18, x19, [sp,#144]
   82144:	a94a57f4 	ldp	x20, x21, [sp,#160]
   82148:	a94b5ff6 	ldp	x22, x23, [sp,#176]
   8214c:	a94c67f8 	ldp	x24, x25, [sp,#192]
   82150:	a94d6ffa 	ldp	x26, x27, [sp,#208]
   82154:	a94e77fc 	ldp	x28, x29, [sp,#224]
   82158:	910443ff 	add	sp, sp, #0x110
   8215c:	d69f03e0 	eret

0000000000082160 <el0_sync>:
   82160:	d10443ff 	sub	sp, sp, #0x110
   82164:	a90007e0 	stp	x0, x1, [sp]
   82168:	a9010fe2 	stp	x2, x3, [sp,#16]
   8216c:	a90217e4 	stp	x4, x5, [sp,#32]
   82170:	a9031fe6 	stp	x6, x7, [sp,#48]
   82174:	a90427e8 	stp	x8, x9, [sp,#64]
   82178:	a9052fea 	stp	x10, x11, [sp,#80]
   8217c:	a90637ec 	stp	x12, x13, [sp,#96]
   82180:	a9073fee 	stp	x14, x15, [sp,#112]
   82184:	a90847f0 	stp	x16, x17, [sp,#128]
   82188:	a9094ff2 	stp	x18, x19, [sp,#144]
   8218c:	a90a57f4 	stp	x20, x21, [sp,#160]
   82190:	a90b5ff6 	stp	x22, x23, [sp,#176]
   82194:	a90c67f8 	stp	x24, x25, [sp,#192]
   82198:	a90d6ffa 	stp	x26, x27, [sp,#208]
   8219c:	a90e77fc 	stp	x28, x29, [sp,#224]
   821a0:	d5384115 	mrs	x21, sp_el0
   821a4:	d5384036 	mrs	x22, elr_el1
   821a8:	d5384017 	mrs	x23, spsr_el1
   821ac:	a90f57fe 	stp	x30, x21, [sp,#240]
   821b0:	a9105ff6 	stp	x22, x23, [sp,#256]
   821b4:	d5385219 	mrs	x25, esr_el1
   821b8:	d35aff38 	lsr	x24, x25, #26
   821bc:	f100571f 	cmp	x24, #0x15
   821c0:	54000020 	b.eq	821c4 <el0_svc>

00000000000821c4 <el0_svc>:
   821c4:	100139bb 	adr	x27, 848f8 <sys_call_table>
   821c8:	2a0803fa 	mov	w26, w8
   821cc:	d2800079 	mov	x25, #0x3                   	// #3
   821d0:	eb19035f 	cmp	x26, x25
   821d4:	f87a7b70 	ldr	x16, [x27,x26,lsl #3]
   821d8:	d63f0200 	blr	x16
   821dc:	14000001 	b	821e0 <ret_from_syscall>

00000000000821e0 <ret_from_syscall>:
   821e0:	f90003e0 	str	x0, [sp]
   821e4:	a9505ff6 	ldp	x22, x23, [sp,#256]
   821e8:	a94f57fe 	ldp	x30, x21, [sp,#240]
   821ec:	d5184115 	msr	sp_el0, x21
   821f0:	d5184036 	msr	elr_el1, x22
   821f4:	d5184017 	msr	spsr_el1, x23
   821f8:	a94007e0 	ldp	x0, x1, [sp]
   821fc:	a9410fe2 	ldp	x2, x3, [sp,#16]
   82200:	a94217e4 	ldp	x4, x5, [sp,#32]
   82204:	a9431fe6 	ldp	x6, x7, [sp,#48]
   82208:	a94427e8 	ldp	x8, x9, [sp,#64]
   8220c:	a9452fea 	ldp	x10, x11, [sp,#80]
   82210:	a94637ec 	ldp	x12, x13, [sp,#96]
   82214:	a9473fee 	ldp	x14, x15, [sp,#112]
   82218:	a94847f0 	ldp	x16, x17, [sp,#128]
   8221c:	a9494ff2 	ldp	x18, x19, [sp,#144]
   82220:	a94a57f4 	ldp	x20, x21, [sp,#160]
   82224:	a94b5ff6 	ldp	x22, x23, [sp,#176]
   82228:	a94c67f8 	ldp	x24, x25, [sp,#192]
   8222c:	a94d6ffa 	ldp	x26, x27, [sp,#208]
   82230:	a94e77fc 	ldp	x28, x29, [sp,#224]
   82234:	910443ff 	add	sp, sp, #0x110
   82238:	d69f03e0 	eret
   8223c:	d503201f 	nop
   82240:	d503201f 	nop
   82244:	d503201f 	nop
   82248:	d503201f 	nop
   8224c:	d503201f 	nop
   82250:	d503201f 	nop
   82254:	d503201f 	nop
   82258:	d503201f 	nop
   8225c:	d503201f 	nop
   82260:	d503201f 	nop
   82264:	d503201f 	nop
   82268:	d503201f 	nop
   8226c:	d503201f 	nop
   82270:	d503201f 	nop
   82274:	d503201f 	nop
   82278:	d503201f 	nop
   8227c:	d503201f 	nop
   82280:	d503201f 	nop
   82284:	d503201f 	nop
   82288:	d503201f 	nop
   8228c:	d503201f 	nop
   82290:	d503201f 	nop
   82294:	d503201f 	nop
   82298:	d503201f 	nop
   8229c:	d503201f 	nop
   822a0:	d503201f 	nop
   822a4:	d503201f 	nop
   822a8:	d503201f 	nop
   822ac:	d503201f 	nop
   822b0:	d503201f 	nop
   822b4:	d503201f 	nop
   822b8:	d503201f 	nop
   822bc:	d503201f 	nop
   822c0:	d503201f 	nop
   822c4:	d503201f 	nop
   822c8:	d503201f 	nop
   822cc:	d503201f 	nop
   822d0:	d503201f 	nop
   822d4:	d503201f 	nop
   822d8:	d503201f 	nop
   822dc:	d503201f 	nop
   822e0:	d503201f 	nop
   822e4:	d503201f 	nop
   822e8:	d503201f 	nop
   822ec:	d503201f 	nop
   822f0:	d503201f 	nop
   822f4:	d503201f 	nop
   822f8:	d503201f 	nop
   822fc:	d503201f 	nop
   82300:	d503201f 	nop
   82304:	d503201f 	nop
   82308:	d503201f 	nop
   8230c:	d503201f 	nop
   82310:	d503201f 	nop
   82314:	d503201f 	nop
   82318:	d503201f 	nop
   8231c:	d503201f 	nop
   82320:	d503201f 	nop
   82324:	d503201f 	nop
   82328:	d503201f 	nop
   8232c:	d503201f 	nop
   82330:	d503201f 	nop
   82334:	d503201f 	nop
   82338:	d503201f 	nop
   8233c:	d503201f 	nop
   82340:	d503201f 	nop
   82344:	d503201f 	nop
   82348:	d503201f 	nop
   8234c:	d503201f 	nop
   82350:	d503201f 	nop
   82354:	d503201f 	nop
   82358:	d503201f 	nop
   8235c:	d503201f 	nop
   82360:	d503201f 	nop
   82364:	d503201f 	nop
   82368:	d503201f 	nop
   8236c:	d503201f 	nop
   82370:	d503201f 	nop
   82374:	d503201f 	nop
   82378:	d503201f 	nop
   8237c:	d503201f 	nop
   82380:	d503201f 	nop
   82384:	d503201f 	nop
   82388:	d503201f 	nop
   8238c:	d503201f 	nop
   82390:	d503201f 	nop
   82394:	d503201f 	nop
   82398:	d503201f 	nop
   8239c:	d503201f 	nop
   823a0:	d503201f 	nop
   823a4:	d503201f 	nop
   823a8:	d503201f 	nop
   823ac:	d503201f 	nop
   823b0:	d503201f 	nop
   823b4:	d503201f 	nop
   823b8:	d503201f 	nop
   823bc:	d503201f 	nop
   823c0:	d503201f 	nop
   823c4:	d503201f 	nop
   823c8:	d503201f 	nop
   823cc:	d503201f 	nop
   823d0:	d503201f 	nop
   823d4:	d503201f 	nop
   823d8:	d503201f 	nop
   823dc:	d503201f 	nop
   823e0:	d503201f 	nop
   823e4:	d503201f 	nop
   823e8:	d503201f 	nop
   823ec:	d503201f 	nop
   823f0:	d503201f 	nop
   823f4:	d503201f 	nop
   823f8:	d503201f 	nop
   823fc:	d503201f 	nop
   82400:	d503201f 	nop
   82404:	d503201f 	nop
   82408:	d503201f 	nop
   8240c:	d503201f 	nop
   82410:	d503201f 	nop
   82414:	d503201f 	nop
   82418:	d503201f 	nop
   8241c:	d503201f 	nop
   82420:	d503201f 	nop
   82424:	d503201f 	nop
   82428:	d503201f 	nop
   8242c:	d503201f 	nop
   82430:	d503201f 	nop
   82434:	d503201f 	nop
   82438:	d503201f 	nop
   8243c:	d503201f 	nop
   82440:	d503201f 	nop
   82444:	d503201f 	nop
   82448:	d503201f 	nop
   8244c:	d503201f 	nop
   82450:	d503201f 	nop
   82454:	d503201f 	nop
   82458:	d503201f 	nop
   8245c:	d503201f 	nop
   82460:	d503201f 	nop
   82464:	d503201f 	nop
   82468:	d503201f 	nop
   8246c:	d503201f 	nop
   82470:	d503201f 	nop
   82474:	d503201f 	nop
   82478:	d503201f 	nop
   8247c:	d503201f 	nop
   82480:	d503201f 	nop
   82484:	d503201f 	nop
   82488:	d503201f 	nop
   8248c:	d503201f 	nop
   82490:	d503201f 	nop
   82494:	d503201f 	nop
   82498:	d503201f 	nop
   8249c:	d503201f 	nop
   824a0:	d503201f 	nop
   824a4:	d503201f 	nop
   824a8:	d503201f 	nop
   824ac:	d503201f 	nop
   824b0:	d503201f 	nop
   824b4:	d503201f 	nop
   824b8:	d503201f 	nop
   824bc:	d503201f 	nop
   824c0:	d503201f 	nop
   824c4:	d503201f 	nop
   824c8:	d503201f 	nop
   824cc:	d503201f 	nop
   824d0:	d503201f 	nop
   824d4:	d503201f 	nop
   824d8:	d503201f 	nop
   824dc:	d503201f 	nop
   824e0:	d503201f 	nop
   824e4:	d503201f 	nop
   824e8:	d503201f 	nop
   824ec:	d503201f 	nop
   824f0:	d503201f 	nop
   824f4:	d503201f 	nop
   824f8:	d503201f 	nop
   824fc:	d503201f 	nop
   82500:	d503201f 	nop
   82504:	d503201f 	nop
   82508:	d503201f 	nop
   8250c:	d503201f 	nop
   82510:	d503201f 	nop
   82514:	d503201f 	nop
   82518:	d503201f 	nop
   8251c:	d503201f 	nop
   82520:	d503201f 	nop
   82524:	d503201f 	nop
   82528:	d503201f 	nop
   8252c:	d503201f 	nop
   82530:	d503201f 	nop
   82534:	d503201f 	nop
   82538:	d503201f 	nop
   8253c:	d503201f 	nop
   82540:	d503201f 	nop
   82544:	d503201f 	nop
   82548:	d503201f 	nop
   8254c:	d503201f 	nop
   82550:	d503201f 	nop
   82554:	d503201f 	nop
   82558:	d503201f 	nop
   8255c:	d503201f 	nop
   82560:	d503201f 	nop
   82564:	d503201f 	nop
   82568:	d503201f 	nop
   8256c:	d503201f 	nop
   82570:	d503201f 	nop
   82574:	d503201f 	nop
   82578:	d503201f 	nop
   8257c:	d503201f 	nop
   82580:	d503201f 	nop
   82584:	d503201f 	nop
   82588:	d503201f 	nop
   8258c:	d503201f 	nop
   82590:	d503201f 	nop
   82594:	d503201f 	nop
   82598:	d503201f 	nop
   8259c:	d503201f 	nop
   825a0:	d503201f 	nop
   825a4:	d503201f 	nop
   825a8:	d503201f 	nop
   825ac:	d503201f 	nop
   825b0:	d503201f 	nop
   825b4:	d503201f 	nop
   825b8:	d503201f 	nop
   825bc:	d503201f 	nop
   825c0:	d503201f 	nop
   825c4:	d503201f 	nop
   825c8:	d503201f 	nop
   825cc:	d503201f 	nop
   825d0:	d503201f 	nop
   825d4:	d503201f 	nop
   825d8:	d503201f 	nop
   825dc:	d503201f 	nop
   825e0:	d503201f 	nop
   825e4:	d503201f 	nop
   825e8:	d503201f 	nop
   825ec:	d503201f 	nop
   825f0:	d503201f 	nop
   825f4:	d503201f 	nop
   825f8:	d503201f 	nop
   825fc:	d503201f 	nop
   82600:	d503201f 	nop
   82604:	d503201f 	nop
   82608:	d503201f 	nop
   8260c:	d503201f 	nop
   82610:	d503201f 	nop
   82614:	d503201f 	nop
   82618:	d503201f 	nop
   8261c:	d503201f 	nop
   82620:	d503201f 	nop
   82624:	d503201f 	nop
   82628:	d503201f 	nop
   8262c:	d503201f 	nop
   82630:	d503201f 	nop
   82634:	d503201f 	nop
   82638:	d503201f 	nop
   8263c:	d503201f 	nop
   82640:	d503201f 	nop
   82644:	d503201f 	nop
   82648:	d503201f 	nop
   8264c:	d503201f 	nop
   82650:	d503201f 	nop
   82654:	d503201f 	nop
   82658:	d503201f 	nop
   8265c:	d503201f 	nop
   82660:	d503201f 	nop
   82664:	d503201f 	nop
   82668:	d503201f 	nop
   8266c:	d503201f 	nop
   82670:	d503201f 	nop
   82674:	d503201f 	nop
   82678:	d503201f 	nop
   8267c:	d503201f 	nop
   82680:	d503201f 	nop
   82684:	d503201f 	nop
   82688:	d503201f 	nop
   8268c:	d503201f 	nop
   82690:	d503201f 	nop
   82694:	d503201f 	nop
   82698:	d503201f 	nop
   8269c:	d503201f 	nop
   826a0:	d503201f 	nop
   826a4:	d503201f 	nop
   826a8:	d503201f 	nop
   826ac:	d503201f 	nop
   826b0:	d503201f 	nop
   826b4:	d503201f 	nop
   826b8:	d503201f 	nop
   826bc:	d503201f 	nop
   826c0:	d503201f 	nop
   826c4:	d503201f 	nop
   826c8:	d503201f 	nop
   826cc:	d503201f 	nop
   826d0:	d503201f 	nop
   826d4:	d503201f 	nop
   826d8:	d503201f 	nop
   826dc:	d503201f 	nop
   826e0:	d503201f 	nop
   826e4:	d503201f 	nop
   826e8:	d503201f 	nop
   826ec:	d503201f 	nop
   826f0:	d503201f 	nop
   826f4:	d503201f 	nop
   826f8:	d503201f 	nop
   826fc:	d503201f 	nop
   82700:	d503201f 	nop
   82704:	d503201f 	nop
   82708:	d503201f 	nop
   8270c:	d503201f 	nop
   82710:	d503201f 	nop
   82714:	d503201f 	nop
   82718:	d503201f 	nop
   8271c:	d503201f 	nop
   82720:	d503201f 	nop
   82724:	d503201f 	nop
   82728:	d503201f 	nop
   8272c:	d503201f 	nop
   82730:	d503201f 	nop
   82734:	d503201f 	nop
   82738:	d503201f 	nop
   8273c:	d503201f 	nop
   82740:	d503201f 	nop
   82744:	d503201f 	nop
   82748:	d503201f 	nop
   8274c:	d503201f 	nop
   82750:	d503201f 	nop
   82754:	d503201f 	nop
   82758:	d503201f 	nop
   8275c:	d503201f 	nop
   82760:	d503201f 	nop
   82764:	d503201f 	nop
   82768:	d503201f 	nop
   8276c:	d503201f 	nop
   82770:	d503201f 	nop
   82774:	d503201f 	nop
   82778:	d503201f 	nop
   8277c:	d503201f 	nop
   82780:	d503201f 	nop
   82784:	d503201f 	nop
   82788:	d503201f 	nop
   8278c:	d503201f 	nop
   82790:	d503201f 	nop
   82794:	d503201f 	nop
   82798:	d503201f 	nop
   8279c:	d503201f 	nop
   827a0:	d503201f 	nop
   827a4:	d503201f 	nop
   827a8:	d503201f 	nop
   827ac:	d503201f 	nop
   827b0:	d503201f 	nop
   827b4:	d503201f 	nop
   827b8:	d503201f 	nop
   827bc:	d503201f 	nop
   827c0:	d503201f 	nop
   827c4:	d503201f 	nop
   827c8:	d503201f 	nop
   827cc:	d503201f 	nop
   827d0:	d503201f 	nop
   827d4:	d503201f 	nop
   827d8:	d503201f 	nop
   827dc:	d503201f 	nop
   827e0:	d503201f 	nop
   827e4:	d503201f 	nop
   827e8:	d503201f 	nop
   827ec:	d503201f 	nop
   827f0:	d503201f 	nop
   827f4:	d503201f 	nop
   827f8:	d503201f 	nop
   827fc:	d503201f 	nop

0000000000082800 <exception_vector_table>:
   82800:	17fffe00 	b	82000 <exception_handler>
   82804:	d503201f 	nop
   82808:	d503201f 	nop
   8280c:	d503201f 	nop
   82810:	d503201f 	nop
   82814:	d503201f 	nop
   82818:	d503201f 	nop
   8281c:	d503201f 	nop
   82820:	d503201f 	nop
   82824:	d503201f 	nop
   82828:	d503201f 	nop
   8282c:	d503201f 	nop
   82830:	d503201f 	nop
   82834:	d503201f 	nop
   82838:	d503201f 	nop
   8283c:	d503201f 	nop
   82840:	d503201f 	nop
   82844:	d503201f 	nop
   82848:	d503201f 	nop
   8284c:	d503201f 	nop
   82850:	d503201f 	nop
   82854:	d503201f 	nop
   82858:	d503201f 	nop
   8285c:	d503201f 	nop
   82860:	d503201f 	nop
   82864:	d503201f 	nop
   82868:	d503201f 	nop
   8286c:	d503201f 	nop
   82870:	d503201f 	nop
   82874:	d503201f 	nop
   82878:	d503201f 	nop
   8287c:	d503201f 	nop
   82880:	17fffde0 	b	82000 <exception_handler>
   82884:	d503201f 	nop
   82888:	d503201f 	nop
   8288c:	d503201f 	nop
   82890:	d503201f 	nop
   82894:	d503201f 	nop
   82898:	d503201f 	nop
   8289c:	d503201f 	nop
   828a0:	d503201f 	nop
   828a4:	d503201f 	nop
   828a8:	d503201f 	nop
   828ac:	d503201f 	nop
   828b0:	d503201f 	nop
   828b4:	d503201f 	nop
   828b8:	d503201f 	nop
   828bc:	d503201f 	nop
   828c0:	d503201f 	nop
   828c4:	d503201f 	nop
   828c8:	d503201f 	nop
   828cc:	d503201f 	nop
   828d0:	d503201f 	nop
   828d4:	d503201f 	nop
   828d8:	d503201f 	nop
   828dc:	d503201f 	nop
   828e0:	d503201f 	nop
   828e4:	d503201f 	nop
   828e8:	d503201f 	nop
   828ec:	d503201f 	nop
   828f0:	d503201f 	nop
   828f4:	d503201f 	nop
   828f8:	d503201f 	nop
   828fc:	d503201f 	nop
   82900:	17fffdc0 	b	82000 <exception_handler>
   82904:	d503201f 	nop
   82908:	d503201f 	nop
   8290c:	d503201f 	nop
   82910:	d503201f 	nop
   82914:	d503201f 	nop
   82918:	d503201f 	nop
   8291c:	d503201f 	nop
   82920:	d503201f 	nop
   82924:	d503201f 	nop
   82928:	d503201f 	nop
   8292c:	d503201f 	nop
   82930:	d503201f 	nop
   82934:	d503201f 	nop
   82938:	d503201f 	nop
   8293c:	d503201f 	nop
   82940:	d503201f 	nop
   82944:	d503201f 	nop
   82948:	d503201f 	nop
   8294c:	d503201f 	nop
   82950:	d503201f 	nop
   82954:	d503201f 	nop
   82958:	d503201f 	nop
   8295c:	d503201f 	nop
   82960:	d503201f 	nop
   82964:	d503201f 	nop
   82968:	d503201f 	nop
   8296c:	d503201f 	nop
   82970:	d503201f 	nop
   82974:	d503201f 	nop
   82978:	d503201f 	nop
   8297c:	d503201f 	nop
   82980:	17fffda0 	b	82000 <exception_handler>
   82984:	d503201f 	nop
   82988:	d503201f 	nop
   8298c:	d503201f 	nop
   82990:	d503201f 	nop
   82994:	d503201f 	nop
   82998:	d503201f 	nop
   8299c:	d503201f 	nop
   829a0:	d503201f 	nop
   829a4:	d503201f 	nop
   829a8:	d503201f 	nop
   829ac:	d503201f 	nop
   829b0:	d503201f 	nop
   829b4:	d503201f 	nop
   829b8:	d503201f 	nop
   829bc:	d503201f 	nop
   829c0:	d503201f 	nop
   829c4:	d503201f 	nop
   829c8:	d503201f 	nop
   829cc:	d503201f 	nop
   829d0:	d503201f 	nop
   829d4:	d503201f 	nop
   829d8:	d503201f 	nop
   829dc:	d503201f 	nop
   829e0:	d503201f 	nop
   829e4:	d503201f 	nop
   829e8:	d503201f 	nop
   829ec:	d503201f 	nop
   829f0:	d503201f 	nop
   829f4:	d503201f 	nop
   829f8:	d503201f 	nop
   829fc:	d503201f 	nop
   82a00:	17fffd80 	b	82000 <exception_handler>
   82a04:	d503201f 	nop
   82a08:	d503201f 	nop
   82a0c:	d503201f 	nop
   82a10:	d503201f 	nop
   82a14:	d503201f 	nop
   82a18:	d503201f 	nop
   82a1c:	d503201f 	nop
   82a20:	d503201f 	nop
   82a24:	d503201f 	nop
   82a28:	d503201f 	nop
   82a2c:	d503201f 	nop
   82a30:	d503201f 	nop
   82a34:	d503201f 	nop
   82a38:	d503201f 	nop
   82a3c:	d503201f 	nop
   82a40:	d503201f 	nop
   82a44:	d503201f 	nop
   82a48:	d503201f 	nop
   82a4c:	d503201f 	nop
   82a50:	d503201f 	nop
   82a54:	d503201f 	nop
   82a58:	d503201f 	nop
   82a5c:	d503201f 	nop
   82a60:	d503201f 	nop
   82a64:	d503201f 	nop
   82a68:	d503201f 	nop
   82a6c:	d503201f 	nop
   82a70:	d503201f 	nop
   82a74:	d503201f 	nop
   82a78:	d503201f 	nop
   82a7c:	d503201f 	nop
   82a80:	17fffd60 	b	82000 <exception_handler>
   82a84:	d503201f 	nop
   82a88:	d503201f 	nop
   82a8c:	d503201f 	nop
   82a90:	d503201f 	nop
   82a94:	d503201f 	nop
   82a98:	d503201f 	nop
   82a9c:	d503201f 	nop
   82aa0:	d503201f 	nop
   82aa4:	d503201f 	nop
   82aa8:	d503201f 	nop
   82aac:	d503201f 	nop
   82ab0:	d503201f 	nop
   82ab4:	d503201f 	nop
   82ab8:	d503201f 	nop
   82abc:	d503201f 	nop
   82ac0:	d503201f 	nop
   82ac4:	d503201f 	nop
   82ac8:	d503201f 	nop
   82acc:	d503201f 	nop
   82ad0:	d503201f 	nop
   82ad4:	d503201f 	nop
   82ad8:	d503201f 	nop
   82adc:	d503201f 	nop
   82ae0:	d503201f 	nop
   82ae4:	d503201f 	nop
   82ae8:	d503201f 	nop
   82aec:	d503201f 	nop
   82af0:	d503201f 	nop
   82af4:	d503201f 	nop
   82af8:	d503201f 	nop
   82afc:	d503201f 	nop
   82b00:	17fffd40 	b	82000 <exception_handler>
   82b04:	d503201f 	nop
   82b08:	d503201f 	nop
   82b0c:	d503201f 	nop
   82b10:	d503201f 	nop
   82b14:	d503201f 	nop
   82b18:	d503201f 	nop
   82b1c:	d503201f 	nop
   82b20:	d503201f 	nop
   82b24:	d503201f 	nop
   82b28:	d503201f 	nop
   82b2c:	d503201f 	nop
   82b30:	d503201f 	nop
   82b34:	d503201f 	nop
   82b38:	d503201f 	nop
   82b3c:	d503201f 	nop
   82b40:	d503201f 	nop
   82b44:	d503201f 	nop
   82b48:	d503201f 	nop
   82b4c:	d503201f 	nop
   82b50:	d503201f 	nop
   82b54:	d503201f 	nop
   82b58:	d503201f 	nop
   82b5c:	d503201f 	nop
   82b60:	d503201f 	nop
   82b64:	d503201f 	nop
   82b68:	d503201f 	nop
   82b6c:	d503201f 	nop
   82b70:	d503201f 	nop
   82b74:	d503201f 	nop
   82b78:	d503201f 	nop
   82b7c:	d503201f 	nop
   82b80:	17fffd20 	b	82000 <exception_handler>
   82b84:	d503201f 	nop
   82b88:	d503201f 	nop
   82b8c:	d503201f 	nop
   82b90:	d503201f 	nop
   82b94:	d503201f 	nop
   82b98:	d503201f 	nop
   82b9c:	d503201f 	nop
   82ba0:	d503201f 	nop
   82ba4:	d503201f 	nop
   82ba8:	d503201f 	nop
   82bac:	d503201f 	nop
   82bb0:	d503201f 	nop
   82bb4:	d503201f 	nop
   82bb8:	d503201f 	nop
   82bbc:	d503201f 	nop
   82bc0:	d503201f 	nop
   82bc4:	d503201f 	nop
   82bc8:	d503201f 	nop
   82bcc:	d503201f 	nop
   82bd0:	d503201f 	nop
   82bd4:	d503201f 	nop
   82bd8:	d503201f 	nop
   82bdc:	d503201f 	nop
   82be0:	d503201f 	nop
   82be4:	d503201f 	nop
   82be8:	d503201f 	nop
   82bec:	d503201f 	nop
   82bf0:	d503201f 	nop
   82bf4:	d503201f 	nop
   82bf8:	d503201f 	nop
   82bfc:	d503201f 	nop
   82c00:	17fffd58 	b	82160 <el0_sync>
   82c04:	d503201f 	nop
   82c08:	d503201f 	nop
   82c0c:	d503201f 	nop
   82c10:	d503201f 	nop
   82c14:	d503201f 	nop
   82c18:	d503201f 	nop
   82c1c:	d503201f 	nop
   82c20:	d503201f 	nop
   82c24:	d503201f 	nop
   82c28:	d503201f 	nop
   82c2c:	d503201f 	nop
   82c30:	d503201f 	nop
   82c34:	d503201f 	nop
   82c38:	d503201f 	nop
   82c3c:	d503201f 	nop
   82c40:	d503201f 	nop
   82c44:	d503201f 	nop
   82c48:	d503201f 	nop
   82c4c:	d503201f 	nop
   82c50:	d503201f 	nop
   82c54:	d503201f 	nop
   82c58:	d503201f 	nop
   82c5c:	d503201f 	nop
   82c60:	d503201f 	nop
   82c64:	d503201f 	nop
   82c68:	d503201f 	nop
   82c6c:	d503201f 	nop
   82c70:	d503201f 	nop
   82c74:	d503201f 	nop
   82c78:	d503201f 	nop
   82c7c:	d503201f 	nop
   82c80:	17fffd0c 	b	820b0 <core_timer_handler>
   82c84:	d503201f 	nop
   82c88:	d503201f 	nop
   82c8c:	d503201f 	nop
   82c90:	d503201f 	nop
   82c94:	d503201f 	nop
   82c98:	d503201f 	nop
   82c9c:	d503201f 	nop
   82ca0:	d503201f 	nop
   82ca4:	d503201f 	nop
   82ca8:	d503201f 	nop
   82cac:	d503201f 	nop
   82cb0:	d503201f 	nop
   82cb4:	d503201f 	nop
   82cb8:	d503201f 	nop
   82cbc:	d503201f 	nop
   82cc0:	d503201f 	nop
   82cc4:	d503201f 	nop
   82cc8:	d503201f 	nop
   82ccc:	d503201f 	nop
   82cd0:	d503201f 	nop
   82cd4:	d503201f 	nop
   82cd8:	d503201f 	nop
   82cdc:	d503201f 	nop
   82ce0:	d503201f 	nop
   82ce4:	d503201f 	nop
   82ce8:	d503201f 	nop
   82cec:	d503201f 	nop
   82cf0:	d503201f 	nop
   82cf4:	d503201f 	nop
   82cf8:	d503201f 	nop
   82cfc:	d503201f 	nop
   82d00:	17fffcc0 	b	82000 <exception_handler>
   82d04:	d503201f 	nop
   82d08:	d503201f 	nop
   82d0c:	d503201f 	nop
   82d10:	d503201f 	nop
   82d14:	d503201f 	nop
   82d18:	d503201f 	nop
   82d1c:	d503201f 	nop
   82d20:	d503201f 	nop
   82d24:	d503201f 	nop
   82d28:	d503201f 	nop
   82d2c:	d503201f 	nop
   82d30:	d503201f 	nop
   82d34:	d503201f 	nop
   82d38:	d503201f 	nop
   82d3c:	d503201f 	nop
   82d40:	d503201f 	nop
   82d44:	d503201f 	nop
   82d48:	d503201f 	nop
   82d4c:	d503201f 	nop
   82d50:	d503201f 	nop
   82d54:	d503201f 	nop
   82d58:	d503201f 	nop
   82d5c:	d503201f 	nop
   82d60:	d503201f 	nop
   82d64:	d503201f 	nop
   82d68:	d503201f 	nop
   82d6c:	d503201f 	nop
   82d70:	d503201f 	nop
   82d74:	d503201f 	nop
   82d78:	d503201f 	nop
   82d7c:	d503201f 	nop
   82d80:	17fffca0 	b	82000 <exception_handler>
   82d84:	d503201f 	nop
   82d88:	d503201f 	nop
   82d8c:	d503201f 	nop
   82d90:	d503201f 	nop
   82d94:	d503201f 	nop
   82d98:	d503201f 	nop
   82d9c:	d503201f 	nop
   82da0:	d503201f 	nop
   82da4:	d503201f 	nop
   82da8:	d503201f 	nop
   82dac:	d503201f 	nop
   82db0:	d503201f 	nop
   82db4:	d503201f 	nop
   82db8:	d503201f 	nop
   82dbc:	d503201f 	nop
   82dc0:	d503201f 	nop
   82dc4:	d503201f 	nop
   82dc8:	d503201f 	nop
   82dcc:	d503201f 	nop
   82dd0:	d503201f 	nop
   82dd4:	d503201f 	nop
   82dd8:	d503201f 	nop
   82ddc:	d503201f 	nop
   82de0:	d503201f 	nop
   82de4:	d503201f 	nop
   82de8:	d503201f 	nop
   82dec:	d503201f 	nop
   82df0:	d503201f 	nop
   82df4:	d503201f 	nop
   82df8:	d503201f 	nop
   82dfc:	d503201f 	nop
   82e00:	17fffc80 	b	82000 <exception_handler>
   82e04:	d503201f 	nop
   82e08:	d503201f 	nop
   82e0c:	d503201f 	nop
   82e10:	d503201f 	nop
   82e14:	d503201f 	nop
   82e18:	d503201f 	nop
   82e1c:	d503201f 	nop
   82e20:	d503201f 	nop
   82e24:	d503201f 	nop
   82e28:	d503201f 	nop
   82e2c:	d503201f 	nop
   82e30:	d503201f 	nop
   82e34:	d503201f 	nop
   82e38:	d503201f 	nop
   82e3c:	d503201f 	nop
   82e40:	d503201f 	nop
   82e44:	d503201f 	nop
   82e48:	d503201f 	nop
   82e4c:	d503201f 	nop
   82e50:	d503201f 	nop
   82e54:	d503201f 	nop
   82e58:	d503201f 	nop
   82e5c:	d503201f 	nop
   82e60:	d503201f 	nop
   82e64:	d503201f 	nop
   82e68:	d503201f 	nop
   82e6c:	d503201f 	nop
   82e70:	d503201f 	nop
   82e74:	d503201f 	nop
   82e78:	d503201f 	nop
   82e7c:	d503201f 	nop
   82e80:	17fffc60 	b	82000 <exception_handler>
   82e84:	d503201f 	nop
   82e88:	d503201f 	nop
   82e8c:	d503201f 	nop
   82e90:	d503201f 	nop
   82e94:	d503201f 	nop
   82e98:	d503201f 	nop
   82e9c:	d503201f 	nop
   82ea0:	d503201f 	nop
   82ea4:	d503201f 	nop
   82ea8:	d503201f 	nop
   82eac:	d503201f 	nop
   82eb0:	d503201f 	nop
   82eb4:	d503201f 	nop
   82eb8:	d503201f 	nop
   82ebc:	d503201f 	nop
   82ec0:	d503201f 	nop
   82ec4:	d503201f 	nop
   82ec8:	d503201f 	nop
   82ecc:	d503201f 	nop
   82ed0:	d503201f 	nop
   82ed4:	d503201f 	nop
   82ed8:	d503201f 	nop
   82edc:	d503201f 	nop
   82ee0:	d503201f 	nop
   82ee4:	d503201f 	nop
   82ee8:	d503201f 	nop
   82eec:	d503201f 	nop
   82ef0:	d503201f 	nop
   82ef4:	d503201f 	nop
   82ef8:	d503201f 	nop
   82efc:	d503201f 	nop
   82f00:	17fffc40 	b	82000 <exception_handler>
   82f04:	d503201f 	nop
   82f08:	d503201f 	nop
   82f0c:	d503201f 	nop
   82f10:	d503201f 	nop
   82f14:	d503201f 	nop
   82f18:	d503201f 	nop
   82f1c:	d503201f 	nop
   82f20:	d503201f 	nop
   82f24:	d503201f 	nop
   82f28:	d503201f 	nop
   82f2c:	d503201f 	nop
   82f30:	d503201f 	nop
   82f34:	d503201f 	nop
   82f38:	d503201f 	nop
   82f3c:	d503201f 	nop
   82f40:	d503201f 	nop
   82f44:	d503201f 	nop
   82f48:	d503201f 	nop
   82f4c:	d503201f 	nop
   82f50:	d503201f 	nop
   82f54:	d503201f 	nop
   82f58:	d503201f 	nop
   82f5c:	d503201f 	nop
   82f60:	d503201f 	nop
   82f64:	d503201f 	nop
   82f68:	d503201f 	nop
   82f6c:	d503201f 	nop
   82f70:	d503201f 	nop
   82f74:	d503201f 	nop
   82f78:	d503201f 	nop
   82f7c:	d503201f 	nop
   82f80:	17fffc20 	b	82000 <exception_handler>
   82f84:	d503201f 	nop
   82f88:	d503201f 	nop
   82f8c:	d503201f 	nop
   82f90:	d503201f 	nop
   82f94:	d503201f 	nop
   82f98:	d503201f 	nop
   82f9c:	d503201f 	nop
   82fa0:	d503201f 	nop
   82fa4:	d503201f 	nop
   82fa8:	d503201f 	nop
   82fac:	d503201f 	nop
   82fb0:	d503201f 	nop
   82fb4:	d503201f 	nop
   82fb8:	d503201f 	nop
   82fbc:	d503201f 	nop
   82fc0:	d503201f 	nop
   82fc4:	d503201f 	nop
   82fc8:	d503201f 	nop
   82fcc:	d503201f 	nop
   82fd0:	d503201f 	nop
   82fd4:	d503201f 	nop
   82fd8:	d503201f 	nop
   82fdc:	d503201f 	nop
   82fe0:	d503201f 	nop
   82fe4:	d503201f 	nop
   82fe8:	d503201f 	nop
   82fec:	d503201f 	nop
   82ff0:	d503201f 	nop
   82ff4:	d503201f 	nop
   82ff8:	d503201f 	nop
   82ffc:	d503201f 	nop

0000000000083000 <set_exception_vector_table>:
   83000:	10ffc000 	adr	x0, 82800 <exception_vector_table>
   83004:	d518c000 	msr	vbar_el1, x0
   83008:	d65f03c0 	ret

000000000008300c <getFileData>:
   8300c:	a9bb7bfd 	stp	x29, x30, [sp,#-80]!
   83010:	910003fd 	mov	x29, sp
   83014:	f9000fa0 	str	x0, [x29,#24]
   83018:	b0000000 	adrp	x0, 84000 <itoa+0xc8>
   8301c:	9110e000 	add	x0, x0, #0x438
   83020:	97fff485 	bl	80234 <uart_puts>
   83024:	52800021 	mov	w1, #0x1                   	// #1
   83028:	f9400fa0 	ldr	x0, [x29,#24]
   8302c:	97fff498 	bl	8028c <uart_read_line>
   83030:	528001a0 	mov	w0, #0xd                   	// #13
   83034:	97fff45c 	bl	801a4 <uart_send>
   83038:	b0000000 	adrp	x0, 84000 <itoa+0xc8>
   8303c:	9124e000 	add	x0, x0, #0x938
   83040:	f9400000 	ldr	x0, [x0]
   83044:	f90027a0 	str	x0, [x29,#72]
   83048:	b90043bf 	str	wzr, [x29,#64]
   8304c:	b9003fbf 	str	wzr, [x29,#60]
   83050:	f94027a0 	ldr	x0, [x29,#72]
   83054:	9100d800 	add	x0, x0, #0x36
   83058:	f90027a0 	str	x0, [x29,#72]
   8305c:	52800101 	mov	w1, #0x8                   	// #8
   83060:	f94027a0 	ldr	x0, [x29,#72]
   83064:	9400041a 	bl	840cc <subStr>
   83068:	52800201 	mov	w1, #0x10                  	// #16
   8306c:	94000361 	bl	83df0 <atoi>
   83070:	b90043a0 	str	w0, [x29,#64]
   83074:	f94027a0 	ldr	x0, [x29,#72]
   83078:	9100a000 	add	x0, x0, #0x28
   8307c:	f90027a0 	str	x0, [x29,#72]
   83080:	52800101 	mov	w1, #0x8                   	// #8
   83084:	f94027a0 	ldr	x0, [x29,#72]
   83088:	94000411 	bl	840cc <subStr>
   8308c:	52800201 	mov	w1, #0x10                  	// #16
   83090:	94000358 	bl	83df0 <atoi>
   83094:	b9003fa0 	str	w0, [x29,#60]
   83098:	b9403fa0 	ldr	w0, [x29,#60]
   8309c:	1101b800 	add	w0, w0, #0x6e
   830a0:	12000400 	and	w0, w0, #0x3
   830a4:	7100001f 	cmp	w0, #0x0
   830a8:	54000140 	b.eq	830d0 <getFileData+0xc4>
   830ac:	b9403fa0 	ldr	w0, [x29,#60]
   830b0:	1101b800 	add	w0, w0, #0x6e
   830b4:	6b0003e1 	negs	w1, w0
   830b8:	12000400 	and	w0, w0, #0x3
   830bc:	12000421 	and	w1, w1, #0x3
   830c0:	5a814400 	csneg	w0, w0, w1, mi
   830c4:	52800081 	mov	w1, #0x4                   	// #4
   830c8:	4b000020 	sub	w0, w1, w0
   830cc:	14000002 	b	830d4 <getFileData+0xc8>
   830d0:	52800000 	mov	w0, #0x0                   	// #0
   830d4:	b9403fa1 	ldr	w1, [x29,#60]
   830d8:	0b000020 	add	w0, w1, w0
   830dc:	b9003fa0 	str	w0, [x29,#60]
   830e0:	b94043a0 	ldr	w0, [x29,#64]
   830e4:	12000400 	and	w0, w0, #0x3
   830e8:	7100001f 	cmp	w0, #0x0
   830ec:	54000120 	b.eq	83110 <getFileData+0x104>
   830f0:	b94043a0 	ldr	w0, [x29,#64]
   830f4:	6b0003e1 	negs	w1, w0
   830f8:	12000400 	and	w0, w0, #0x3
   830fc:	12000421 	and	w1, w1, #0x3
   83100:	5a814400 	csneg	w0, w0, w1, mi
   83104:	52800081 	mov	w1, #0x4                   	// #4
   83108:	4b000020 	sub	w0, w1, w0
   8310c:	14000002 	b	83114 <getFileData+0x108>
   83110:	52800000 	mov	w0, #0x0                   	// #0
   83114:	b94043a1 	ldr	w1, [x29,#64]
   83118:	0b000020 	add	w0, w1, w0
   8311c:	b90043a0 	str	w0, [x29,#64]
   83120:	f94027a0 	ldr	x0, [x29,#72]
   83124:	91004000 	add	x0, x0, #0x10
   83128:	f90027a0 	str	x0, [x29,#72]
   8312c:	f94027a0 	ldr	x0, [x29,#72]
   83130:	f9001ba0 	str	x0, [x29,#48]
   83134:	b0000000 	adrp	x0, 84000 <itoa+0xc8>
   83138:	91116000 	add	x0, x0, #0x458
   8313c:	aa0003e1 	mov	x1, x0
   83140:	f9401ba0 	ldr	x0, [x29,#48]
   83144:	940002cd 	bl	83c78 <strcmp>
   83148:	7100001f 	cmp	w0, #0x0
   8314c:	540000a1 	b.ne	83160 <getFileData+0x154>
   83150:	b0000000 	adrp	x0, 84000 <itoa+0xc8>
   83154:	9111a000 	add	x0, x0, #0x468
   83158:	97fff437 	bl	80234 <uart_puts>
   8315c:	1400002b 	b	83208 <getFileData+0x1fc>
   83160:	b9803fa0 	ldrsw	x0, [x29,#60]
   83164:	f94027a1 	ldr	x1, [x29,#72]
   83168:	8b000020 	add	x0, x1, x0
   8316c:	f90027a0 	str	x0, [x29,#72]
   83170:	f94027a0 	ldr	x0, [x29,#72]
   83174:	f90017a0 	str	x0, [x29,#40]
   83178:	f9400fa1 	ldr	x1, [x29,#24]
   8317c:	f9401ba0 	ldr	x0, [x29,#48]
   83180:	940002be 	bl	83c78 <strcmp>
   83184:	7100001f 	cmp	w0, #0x0
   83188:	54000361 	b.ne	831f4 <getFileData+0x1e8>
   8318c:	b90047bf 	str	wzr, [x29,#68]
   83190:	14000011 	b	831d4 <getFileData+0x1c8>
   83194:	b98047a0 	ldrsw	x0, [x29,#68]
   83198:	f94017a1 	ldr	x1, [x29,#40]
   8319c:	8b000020 	add	x0, x1, x0
   831a0:	39400000 	ldrb	w0, [x0]
   831a4:	7100281f 	cmp	w0, #0xa
   831a8:	54000061 	b.ne	831b4 <getFileData+0x1a8>
   831ac:	528001a0 	mov	w0, #0xd                   	// #13
   831b0:	97fff3fd 	bl	801a4 <uart_send>
   831b4:	b98047a0 	ldrsw	x0, [x29,#68]
   831b8:	f94017a1 	ldr	x1, [x29,#40]
   831bc:	8b000020 	add	x0, x1, x0
   831c0:	39400000 	ldrb	w0, [x0]
   831c4:	97fff3f8 	bl	801a4 <uart_send>
   831c8:	b94047a0 	ldr	w0, [x29,#68]
   831cc:	11000400 	add	w0, w0, #0x1
   831d0:	b90047a0 	str	w0, [x29,#68]
   831d4:	b94047a1 	ldr	w1, [x29,#68]
   831d8:	b94043a0 	ldr	w0, [x29,#64]
   831dc:	6b00003f 	cmp	w1, w0
   831e0:	54fffdab 	b.lt	83194 <getFileData+0x188>
   831e4:	b0000000 	adrp	x0, 84000 <itoa+0xc8>
   831e8:	9111e000 	add	x0, x0, #0x478
   831ec:	97fff412 	bl	80234 <uart_puts>
   831f0:	14000006 	b	83208 <getFileData+0x1fc>
   831f4:	b98043a0 	ldrsw	x0, [x29,#64]
   831f8:	f94027a1 	ldr	x1, [x29,#72]
   831fc:	8b000020 	add	x0, x1, x0
   83200:	f90027a0 	str	x0, [x29,#72]
   83204:	17ffff91 	b	83048 <getFileData+0x3c>
   83208:	d503201f 	nop
   8320c:	a8c57bfd 	ldp	x29, x30, [sp],#80
   83210:	d65f03c0 	ret

0000000000083214 <list_file>:
   83214:	a9b77bfd 	stp	x29, x30, [sp,#-144]!
   83218:	910003fd 	mov	x29, sp
   8321c:	b0000000 	adrp	x0, 84000 <itoa+0xc8>
   83220:	9124e000 	add	x0, x0, #0x938
   83224:	f9400000 	ldr	x0, [x0]
   83228:	f90047a0 	str	x0, [x29,#136]
   8322c:	b90087bf 	str	wzr, [x29,#132]
   83230:	b90083bf 	str	wzr, [x29,#128]
   83234:	f94047a0 	ldr	x0, [x29,#136]
   83238:	9100d800 	add	x0, x0, #0x36
   8323c:	f90047a0 	str	x0, [x29,#136]
   83240:	52800101 	mov	w1, #0x8                   	// #8
   83244:	f94047a0 	ldr	x0, [x29,#136]
   83248:	940003a1 	bl	840cc <subStr>
   8324c:	52800201 	mov	w1, #0x10                  	// #16
   83250:	940002e8 	bl	83df0 <atoi>
   83254:	b90087a0 	str	w0, [x29,#132]
   83258:	f94047a0 	ldr	x0, [x29,#136]
   8325c:	9100a000 	add	x0, x0, #0x28
   83260:	f90047a0 	str	x0, [x29,#136]
   83264:	52800101 	mov	w1, #0x8                   	// #8
   83268:	f94047a0 	ldr	x0, [x29,#136]
   8326c:	94000398 	bl	840cc <subStr>
   83270:	52800201 	mov	w1, #0x10                  	// #16
   83274:	940002df 	bl	83df0 <atoi>
   83278:	b90083a0 	str	w0, [x29,#128]
   8327c:	b94083a0 	ldr	w0, [x29,#128]
   83280:	1101b800 	add	w0, w0, #0x6e
   83284:	12000400 	and	w0, w0, #0x3
   83288:	7100001f 	cmp	w0, #0x0
   8328c:	54000140 	b.eq	832b4 <list_file+0xa0>
   83290:	b94083a0 	ldr	w0, [x29,#128]
   83294:	1101b800 	add	w0, w0, #0x6e
   83298:	6b0003e1 	negs	w1, w0
   8329c:	12000400 	and	w0, w0, #0x3
   832a0:	12000421 	and	w1, w1, #0x3
   832a4:	5a814400 	csneg	w0, w0, w1, mi
   832a8:	52800081 	mov	w1, #0x4                   	// #4
   832ac:	4b000020 	sub	w0, w1, w0
   832b0:	14000002 	b	832b8 <list_file+0xa4>
   832b4:	52800000 	mov	w0, #0x0                   	// #0
   832b8:	b94083a1 	ldr	w1, [x29,#128]
   832bc:	0b000020 	add	w0, w1, w0
   832c0:	b90083a0 	str	w0, [x29,#128]
   832c4:	b94087a0 	ldr	w0, [x29,#132]
   832c8:	12000400 	and	w0, w0, #0x3
   832cc:	7100001f 	cmp	w0, #0x0
   832d0:	54000120 	b.eq	832f4 <list_file+0xe0>
   832d4:	b94087a0 	ldr	w0, [x29,#132]
   832d8:	6b0003e1 	negs	w1, w0
   832dc:	12000400 	and	w0, w0, #0x3
   832e0:	12000421 	and	w1, w1, #0x3
   832e4:	5a814400 	csneg	w0, w0, w1, mi
   832e8:	52800081 	mov	w1, #0x4                   	// #4
   832ec:	4b000020 	sub	w0, w1, w0
   832f0:	14000002 	b	832f8 <list_file+0xe4>
   832f4:	52800000 	mov	w0, #0x0                   	// #0
   832f8:	b94087a1 	ldr	w1, [x29,#132]
   832fc:	0b000020 	add	w0, w1, w0
   83300:	b90087a0 	str	w0, [x29,#132]
   83304:	f94047a0 	ldr	x0, [x29,#136]
   83308:	91004000 	add	x0, x0, #0x10
   8330c:	f90047a0 	str	x0, [x29,#136]
   83310:	f94047a0 	ldr	x0, [x29,#136]
   83314:	f9003fa0 	str	x0, [x29,#120]
   83318:	b0000000 	adrp	x0, 84000 <itoa+0xc8>
   8331c:	91116000 	add	x0, x0, #0x458
   83320:	aa0003e1 	mov	x1, x0
   83324:	f9403fa0 	ldr	x0, [x29,#120]
   83328:	94000254 	bl	83c78 <strcmp>
   8332c:	7100001f 	cmp	w0, #0x0
   83330:	540001e0 	b.eq	8336c <list_file+0x158>
   83334:	f9403fa0 	ldr	x0, [x29,#120]
   83338:	97fff3bf 	bl	80234 <uart_puts>
   8333c:	b0000000 	adrp	x0, 84000 <itoa+0xc8>
   83340:	9111e000 	add	x0, x0, #0x478
   83344:	97fff3bc 	bl	80234 <uart_puts>
   83348:	b98083a0 	ldrsw	x0, [x29,#128]
   8334c:	f94047a1 	ldr	x1, [x29,#136]
   83350:	8b000020 	add	x0, x1, x0
   83354:	f90047a0 	str	x0, [x29,#136]
   83358:	b98087a0 	ldrsw	x0, [x29,#132]
   8335c:	f94047a1 	ldr	x1, [x29,#136]
   83360:	8b000020 	add	x0, x1, x0
   83364:	f90047a0 	str	x0, [x29,#136]
   83368:	17ffffb1 	b	8322c <list_file+0x18>
   8336c:	d503201f 	nop
   83370:	910043a0 	add	x0, x29, #0x10
   83374:	97ffff26 	bl	8300c <getFileData>
   83378:	d503201f 	nop
   8337c:	a8c97bfd 	ldp	x29, x30, [sp],#144
   83380:	d65f03c0 	ret

0000000000083384 <load_user_program>:
   83384:	a9b57bfd 	stp	x29, x30, [sp,#-176]!
   83388:	910003fd 	mov	x29, sp
   8338c:	b0000000 	adrp	x0, 84000 <itoa+0xc8>
   83390:	9110e000 	add	x0, x0, #0x438
   83394:	97fff3a8 	bl	80234 <uart_puts>
   83398:	910043a0 	add	x0, x29, #0x10
   8339c:	52800021 	mov	w1, #0x1                   	// #1
   833a0:	97fff3bb 	bl	8028c <uart_read_line>
   833a4:	528001a0 	mov	w0, #0xd                   	// #13
   833a8:	97fff37f 	bl	801a4 <uart_send>
   833ac:	d2a00200 	mov	x0, #0x100000              	// #1048576
   833b0:	f9004fa0 	str	x0, [x29,#152]
   833b4:	f9404fa0 	ldr	x0, [x29,#152]
   833b8:	91400400 	add	x0, x0, #0x1, lsl #12
   833bc:	f9004ba0 	str	x0, [x29,#144]
   833c0:	b0000000 	adrp	x0, 84000 <itoa+0xc8>
   833c4:	9124e000 	add	x0, x0, #0x938
   833c8:	f9400000 	ldr	x0, [x0]
   833cc:	f90057a0 	str	x0, [x29,#168]
   833d0:	b9008fbf 	str	wzr, [x29,#140]
   833d4:	b9008bbf 	str	wzr, [x29,#136]
   833d8:	f94057a0 	ldr	x0, [x29,#168]
   833dc:	9100d800 	add	x0, x0, #0x36
   833e0:	f90057a0 	str	x0, [x29,#168]
   833e4:	52800101 	mov	w1, #0x8                   	// #8
   833e8:	f94057a0 	ldr	x0, [x29,#168]
   833ec:	94000338 	bl	840cc <subStr>
   833f0:	52800201 	mov	w1, #0x10                  	// #16
   833f4:	9400027f 	bl	83df0 <atoi>
   833f8:	b9008fa0 	str	w0, [x29,#140]
   833fc:	f94057a0 	ldr	x0, [x29,#168]
   83400:	9100a000 	add	x0, x0, #0x28
   83404:	f90057a0 	str	x0, [x29,#168]
   83408:	52800101 	mov	w1, #0x8                   	// #8
   8340c:	f94057a0 	ldr	x0, [x29,#168]
   83410:	9400032f 	bl	840cc <subStr>
   83414:	52800201 	mov	w1, #0x10                  	// #16
   83418:	94000276 	bl	83df0 <atoi>
   8341c:	b9008ba0 	str	w0, [x29,#136]
   83420:	b9408ba0 	ldr	w0, [x29,#136]
   83424:	1101b800 	add	w0, w0, #0x6e
   83428:	12000400 	and	w0, w0, #0x3
   8342c:	7100001f 	cmp	w0, #0x0
   83430:	54000140 	b.eq	83458 <load_user_program+0xd4>
   83434:	b9408ba0 	ldr	w0, [x29,#136]
   83438:	1101b800 	add	w0, w0, #0x6e
   8343c:	6b0003e1 	negs	w1, w0
   83440:	12000400 	and	w0, w0, #0x3
   83444:	12000421 	and	w1, w1, #0x3
   83448:	5a814400 	csneg	w0, w0, w1, mi
   8344c:	52800081 	mov	w1, #0x4                   	// #4
   83450:	4b000020 	sub	w0, w1, w0
   83454:	14000002 	b	8345c <load_user_program+0xd8>
   83458:	52800000 	mov	w0, #0x0                   	// #0
   8345c:	b9408ba1 	ldr	w1, [x29,#136]
   83460:	0b000020 	add	w0, w1, w0
   83464:	b9008ba0 	str	w0, [x29,#136]
   83468:	b9408fa0 	ldr	w0, [x29,#140]
   8346c:	12000400 	and	w0, w0, #0x3
   83470:	7100001f 	cmp	w0, #0x0
   83474:	54000120 	b.eq	83498 <load_user_program+0x114>
   83478:	b9408fa0 	ldr	w0, [x29,#140]
   8347c:	6b0003e1 	negs	w1, w0
   83480:	12000400 	and	w0, w0, #0x3
   83484:	12000421 	and	w1, w1, #0x3
   83488:	5a814400 	csneg	w0, w0, w1, mi
   8348c:	52800081 	mov	w1, #0x4                   	// #4
   83490:	4b000020 	sub	w0, w1, w0
   83494:	14000002 	b	8349c <load_user_program+0x118>
   83498:	52800000 	mov	w0, #0x0                   	// #0
   8349c:	b9408fa1 	ldr	w1, [x29,#140]
   834a0:	0b000020 	add	w0, w1, w0
   834a4:	b9008fa0 	str	w0, [x29,#140]
   834a8:	f94057a0 	ldr	x0, [x29,#168]
   834ac:	91004000 	add	x0, x0, #0x10
   834b0:	f90057a0 	str	x0, [x29,#168]
   834b4:	f94057a0 	ldr	x0, [x29,#168]
   834b8:	f90043a0 	str	x0, [x29,#128]
   834bc:	b0000000 	adrp	x0, 84000 <itoa+0xc8>
   834c0:	91116000 	add	x0, x0, #0x458
   834c4:	aa0003e1 	mov	x1, x0
   834c8:	f94043a0 	ldr	x0, [x29,#128]
   834cc:	940001eb 	bl	83c78 <strcmp>
   834d0:	7100001f 	cmp	w0, #0x0
   834d4:	540000a1 	b.ne	834e8 <load_user_program+0x164>
   834d8:	b0000000 	adrp	x0, 84000 <itoa+0xc8>
   834dc:	9111a000 	add	x0, x0, #0x468
   834e0:	97fff355 	bl	80234 <uart_puts>
   834e4:	14000029 	b	83588 <load_user_program+0x204>
   834e8:	b9808ba0 	ldrsw	x0, [x29,#136]
   834ec:	f94057a1 	ldr	x1, [x29,#168]
   834f0:	8b000020 	add	x0, x1, x0
   834f4:	f90057a0 	str	x0, [x29,#168]
   834f8:	f94057a0 	ldr	x0, [x29,#168]
   834fc:	f9003fa0 	str	x0, [x29,#120]
   83500:	910043a0 	add	x0, x29, #0x10
   83504:	aa0003e1 	mov	x1, x0
   83508:	f94043a0 	ldr	x0, [x29,#128]
   8350c:	940001db 	bl	83c78 <strcmp>
   83510:	7100001f 	cmp	w0, #0x0
   83514:	54000301 	b.ne	83574 <load_user_program+0x1f0>
   83518:	b900a7bf 	str	wzr, [x29,#164]
   8351c:	1400000c 	b	8354c <load_user_program+0x1c8>
   83520:	b980a7a0 	ldrsw	x0, [x29,#164]
   83524:	f9404fa1 	ldr	x1, [x29,#152]
   83528:	8b000020 	add	x0, x1, x0
   8352c:	b980a7a1 	ldrsw	x1, [x29,#164]
   83530:	f9403fa2 	ldr	x2, [x29,#120]
   83534:	8b010041 	add	x1, x2, x1
   83538:	39400021 	ldrb	w1, [x1]
   8353c:	39000001 	strb	w1, [x0]
   83540:	b940a7a0 	ldr	w0, [x29,#164]
   83544:	11000400 	add	w0, w0, #0x1
   83548:	b900a7a0 	str	w0, [x29,#164]
   8354c:	b940a7a1 	ldr	w1, [x29,#164]
   83550:	b9408fa0 	ldr	w0, [x29,#140]
   83554:	6b00003f 	cmp	w1, w0
   83558:	54fffe4b 	b.lt	83520 <load_user_program+0x19c>
   8355c:	b0000000 	adrp	x0, 84000 <itoa+0xc8>
   83560:	91120000 	add	x0, x0, #0x480
   83564:	97fff334 	bl	80234 <uart_puts>
   83568:	f9404fa0 	ldr	x0, [x29,#152]
   8356c:	f9404ba1 	ldr	x1, [x29,#144]
   83570:	94000304 	bl	84180 <run_user_program>
   83574:	b9808fa0 	ldrsw	x0, [x29,#140]
   83578:	f94057a1 	ldr	x1, [x29,#168]
   8357c:	8b000020 	add	x0, x1, x0
   83580:	f90057a0 	str	x0, [x29,#168]
   83584:	17ffff93 	b	833d0 <load_user_program+0x4c>
   83588:	d503201f 	nop
   8358c:	a8cb7bfd 	ldp	x29, x30, [sp],#176
   83590:	d65f03c0 	ret

0000000000083594 <argv_puts>:
   83594:	d10103ff 	sub	sp, sp, #0x40
   83598:	f90007e0 	str	x0, [sp,#8]
   8359c:	f90003e1 	str	x1, [sp]
   835a0:	b9003fff 	str	wzr, [sp,#60]
   835a4:	b9003bff 	str	wzr, [sp,#56]
   835a8:	b90037ff 	str	wzr, [sp,#52]
   835ac:	b9403fe0 	ldr	w0, [sp,#60]
   835b0:	11000400 	add	w0, w0, #0x1
   835b4:	b9003fe0 	str	w0, [sp,#60]
   835b8:	b98037e0 	ldrsw	x0, [sp,#52]
   835bc:	d37df000 	lsl	x0, x0, #3
   835c0:	f94007e1 	ldr	x1, [sp,#8]
   835c4:	8b000020 	add	x0, x1, x0
   835c8:	f9400000 	ldr	x0, [x0]
   835cc:	f100001f 	cmp	x0, #0x0
   835d0:	54000300 	b.eq	83630 <argv_puts+0x9c>
   835d4:	b90033ff 	str	wzr, [sp,#48]
   835d8:	b9403be0 	ldr	w0, [sp,#56]
   835dc:	11000400 	add	w0, w0, #0x1
   835e0:	b9003be0 	str	w0, [sp,#56]
   835e4:	b98037e0 	ldrsw	x0, [sp,#52]
   835e8:	d37df000 	lsl	x0, x0, #3
   835ec:	f94007e1 	ldr	x1, [sp,#8]
   835f0:	8b000020 	add	x0, x1, x0
   835f4:	f9400001 	ldr	x1, [x0]
   835f8:	b98033e0 	ldrsw	x0, [sp,#48]
   835fc:	8b000020 	add	x0, x1, x0
   83600:	39400000 	ldrb	w0, [x0]
   83604:	7100001f 	cmp	w0, #0x0
   83608:	540000a0 	b.eq	8361c <argv_puts+0x88>
   8360c:	b94033e0 	ldr	w0, [sp,#48]
   83610:	11000400 	add	w0, w0, #0x1
   83614:	b90033e0 	str	w0, [sp,#48]
   83618:	17fffff0 	b	835d8 <argv_puts+0x44>
   8361c:	d503201f 	nop
   83620:	b94037e0 	ldr	w0, [sp,#52]
   83624:	11000400 	add	w0, w0, #0x1
   83628:	b90037e0 	str	w0, [sp,#52]
   8362c:	17ffffe0 	b	835ac <argv_puts+0x18>
   83630:	d503201f 	nop
   83634:	b9403fe0 	ldr	w0, [sp,#60]
   83638:	11000800 	add	w0, w0, #0x2
   8363c:	531d7001 	lsl	w1, w0, #3
   83640:	b9403be0 	ldr	w0, [sp,#56]
   83644:	0b000020 	add	w0, w1, w0
   83648:	b90017e0 	str	w0, [sp,#20]
   8364c:	b98017e0 	ldrsw	x0, [sp,#20]
   83650:	f94003e1 	ldr	x1, [sp]
   83654:	cb000020 	sub	x0, x1, x0
   83658:	f90003e0 	str	x0, [sp]
   8365c:	f94003e0 	ldr	x0, [sp]
   83660:	927cec00 	and	x0, x0, #0xfffffffffffffff0
   83664:	f90003e0 	str	x0, [sp]
   83668:	f94003e0 	ldr	x0, [sp]
   8366c:	f90017e0 	str	x0, [sp,#40]
   83670:	b9403fe0 	ldr	w0, [sp,#60]
   83674:	51000400 	sub	w0, w0, #0x1
   83678:	93407c01 	sxtw	x1, w0
   8367c:	f94017e0 	ldr	x0, [sp,#40]
   83680:	f9000001 	str	x1, [x0]
   83684:	f94017e0 	ldr	x0, [sp,#40]
   83688:	91002000 	add	x0, x0, #0x8
   8368c:	f90017e0 	str	x0, [sp,#40]
   83690:	f94017e0 	ldr	x0, [sp,#40]
   83694:	91002000 	add	x0, x0, #0x8
   83698:	aa0003e1 	mov	x1, x0
   8369c:	f94017e0 	ldr	x0, [sp,#40]
   836a0:	f9000001 	str	x1, [x0]
   836a4:	f94017e0 	ldr	x0, [sp,#40]
   836a8:	91002000 	add	x0, x0, #0x8
   836ac:	f90017e0 	str	x0, [sp,#40]
   836b0:	b9403fe0 	ldr	w0, [sp,#60]
   836b4:	531d7000 	lsl	w0, w0, #3
   836b8:	93407c00 	sxtw	x0, w0
   836bc:	f94017e1 	ldr	x1, [sp,#40]
   836c0:	8b000020 	add	x0, x1, x0
   836c4:	f90013e0 	str	x0, [sp,#32]
   836c8:	b9001fff 	str	wzr, [sp,#28]
   836cc:	1400002f 	b	83788 <argv_puts+0x1f4>
   836d0:	b9401fe0 	ldr	w0, [sp,#28]
   836d4:	11000401 	add	w1, w0, #0x1
   836d8:	b9403fe0 	ldr	w0, [sp,#60]
   836dc:	6b00003f 	cmp	w1, w0
   836e0:	54000081 	b.ne	836f0 <argv_puts+0x15c>
   836e4:	f94017e0 	ldr	x0, [sp,#40]
   836e8:	f900001f 	str	xzr, [x0]
   836ec:	14000024 	b	8377c <argv_puts+0x1e8>
   836f0:	f94013e1 	ldr	x1, [sp,#32]
   836f4:	f94017e0 	ldr	x0, [sp,#40]
   836f8:	f9000001 	str	x1, [x0]
   836fc:	f94017e0 	ldr	x0, [sp,#40]
   83700:	91002000 	add	x0, x0, #0x8
   83704:	f90017e0 	str	x0, [sp,#40]
   83708:	b9001bff 	str	wzr, [sp,#24]
   8370c:	b9801fe0 	ldrsw	x0, [sp,#28]
   83710:	d37df000 	lsl	x0, x0, #3
   83714:	f94007e1 	ldr	x1, [sp,#8]
   83718:	8b000020 	add	x0, x1, x0
   8371c:	f9400001 	ldr	x1, [x0]
   83720:	b9801be0 	ldrsw	x0, [sp,#24]
   83724:	8b000020 	add	x0, x1, x0
   83728:	39400001 	ldrb	w1, [x0]
   8372c:	f94013e0 	ldr	x0, [sp,#32]
   83730:	39000001 	strb	w1, [x0]
   83734:	f94013e0 	ldr	x0, [sp,#32]
   83738:	91000400 	add	x0, x0, #0x1
   8373c:	f90013e0 	str	x0, [sp,#32]
   83740:	b9801fe0 	ldrsw	x0, [sp,#28]
   83744:	d37df000 	lsl	x0, x0, #3
   83748:	f94007e1 	ldr	x1, [sp,#8]
   8374c:	8b000020 	add	x0, x1, x0
   83750:	f9400001 	ldr	x1, [x0]
   83754:	b9801be0 	ldrsw	x0, [sp,#24]
   83758:	8b000020 	add	x0, x1, x0
   8375c:	39400000 	ldrb	w0, [x0]
   83760:	7100001f 	cmp	w0, #0x0
   83764:	540000a0 	b.eq	83778 <argv_puts+0x1e4>
   83768:	b9401be0 	ldr	w0, [sp,#24]
   8376c:	11000400 	add	w0, w0, #0x1
   83770:	b9001be0 	str	w0, [sp,#24]
   83774:	17ffffe6 	b	8370c <argv_puts+0x178>
   83778:	d503201f 	nop
   8377c:	b9401fe0 	ldr	w0, [sp,#28]
   83780:	11000400 	add	w0, w0, #0x1
   83784:	b9001fe0 	str	w0, [sp,#28]
   83788:	b9401fe1 	ldr	w1, [sp,#28]
   8378c:	b9403fe0 	ldr	w0, [sp,#60]
   83790:	6b00003f 	cmp	w1, w0
   83794:	54fff9eb 	b.lt	836d0 <argv_puts+0x13c>
   83798:	f94003e0 	ldr	x0, [sp]
   8379c:	910103ff 	add	sp, sp, #0x40
   837a0:	d65f03c0 	ret

00000000000837a4 <load_user_program_withArgv>:
   837a4:	a9ba7bfd 	stp	x29, x30, [sp,#-96]!
   837a8:	910003fd 	mov	x29, sp
   837ac:	f9000fa0 	str	x0, [x29,#24]
   837b0:	f9000ba1 	str	x1, [x29,#16]
   837b4:	b0000000 	adrp	x0, 84000 <itoa+0xc8>
   837b8:	91124000 	add	x0, x0, #0x490
   837bc:	97fff29e 	bl	80234 <uart_puts>
   837c0:	52800020 	mov	w0, #0x1                   	// #1
   837c4:	97fff33a 	bl	804ac <uart_getX>
   837c8:	f90027a0 	str	x0, [x29,#72]
   837cc:	f94027a0 	ldr	x0, [x29,#72]
   837d0:	91400400 	add	x0, x0, #0x1, lsl #12
   837d4:	f90023a0 	str	x0, [x29,#64]
   837d8:	b0000000 	adrp	x0, 84000 <itoa+0xc8>
   837dc:	9124e000 	add	x0, x0, #0x938
   837e0:	f9400000 	ldr	x0, [x0]
   837e4:	f9002fa0 	str	x0, [x29,#88]
   837e8:	f9001fbf 	str	xzr, [x29,#56]
   837ec:	b90037bf 	str	wzr, [x29,#52]
   837f0:	b90037bf 	str	wzr, [x29,#52]
   837f4:	b90033bf 	str	wzr, [x29,#48]
   837f8:	f9402fa0 	ldr	x0, [x29,#88]
   837fc:	9100d800 	add	x0, x0, #0x36
   83800:	f9002fa0 	str	x0, [x29,#88]
   83804:	52800101 	mov	w1, #0x8                   	// #8
   83808:	f9402fa0 	ldr	x0, [x29,#88]
   8380c:	94000230 	bl	840cc <subStr>
   83810:	52800201 	mov	w1, #0x10                  	// #16
   83814:	94000177 	bl	83df0 <atoi>
   83818:	b90037a0 	str	w0, [x29,#52]
   8381c:	f9402fa0 	ldr	x0, [x29,#88]
   83820:	9100a000 	add	x0, x0, #0x28
   83824:	f9002fa0 	str	x0, [x29,#88]
   83828:	52800101 	mov	w1, #0x8                   	// #8
   8382c:	f9402fa0 	ldr	x0, [x29,#88]
   83830:	94000227 	bl	840cc <subStr>
   83834:	52800201 	mov	w1, #0x10                  	// #16
   83838:	9400016e 	bl	83df0 <atoi>
   8383c:	b90033a0 	str	w0, [x29,#48]
   83840:	b94033a0 	ldr	w0, [x29,#48]
   83844:	1101b800 	add	w0, w0, #0x6e
   83848:	12000400 	and	w0, w0, #0x3
   8384c:	7100001f 	cmp	w0, #0x0
   83850:	54000140 	b.eq	83878 <load_user_program_withArgv+0xd4>
   83854:	b94033a0 	ldr	w0, [x29,#48]
   83858:	1101b800 	add	w0, w0, #0x6e
   8385c:	6b0003e1 	negs	w1, w0
   83860:	12000400 	and	w0, w0, #0x3
   83864:	12000421 	and	w1, w1, #0x3
   83868:	5a814400 	csneg	w0, w0, w1, mi
   8386c:	52800081 	mov	w1, #0x4                   	// #4
   83870:	4b000020 	sub	w0, w1, w0
   83874:	14000002 	b	8387c <load_user_program_withArgv+0xd8>
   83878:	52800000 	mov	w0, #0x0                   	// #0
   8387c:	b94033a1 	ldr	w1, [x29,#48]
   83880:	0b000020 	add	w0, w1, w0
   83884:	b90033a0 	str	w0, [x29,#48]
   83888:	b94037a0 	ldr	w0, [x29,#52]
   8388c:	12000400 	and	w0, w0, #0x3
   83890:	7100001f 	cmp	w0, #0x0
   83894:	54000120 	b.eq	838b8 <load_user_program_withArgv+0x114>
   83898:	b94037a0 	ldr	w0, [x29,#52]
   8389c:	6b0003e1 	negs	w1, w0
   838a0:	12000400 	and	w0, w0, #0x3
   838a4:	12000421 	and	w1, w1, #0x3
   838a8:	5a814400 	csneg	w0, w0, w1, mi
   838ac:	52800081 	mov	w1, #0x4                   	// #4
   838b0:	4b000020 	sub	w0, w1, w0
   838b4:	14000002 	b	838bc <load_user_program_withArgv+0x118>
   838b8:	52800000 	mov	w0, #0x0                   	// #0
   838bc:	b94037a1 	ldr	w1, [x29,#52]
   838c0:	0b000020 	add	w0, w1, w0
   838c4:	b90037a0 	str	w0, [x29,#52]
   838c8:	f9402fa0 	ldr	x0, [x29,#88]
   838cc:	91004000 	add	x0, x0, #0x10
   838d0:	f9002fa0 	str	x0, [x29,#88]
   838d4:	f9402fa0 	ldr	x0, [x29,#88]
   838d8:	f90017a0 	str	x0, [x29,#40]
   838dc:	b0000000 	adrp	x0, 84000 <itoa+0xc8>
   838e0:	91116000 	add	x0, x0, #0x458
   838e4:	aa0003e1 	mov	x1, x0
   838e8:	f94017a0 	ldr	x0, [x29,#40]
   838ec:	940000e3 	bl	83c78 <strcmp>
   838f0:	7100001f 	cmp	w0, #0x0
   838f4:	540000c1 	b.ne	8390c <load_user_program_withArgv+0x168>
   838f8:	b0000000 	adrp	x0, 84000 <itoa+0xc8>
   838fc:	9111a000 	add	x0, x0, #0x468
   83900:	97fff24d 	bl	80234 <uart_puts>
   83904:	d2800000 	mov	x0, #0x0                   	// #0
   83908:	14000038 	b	839e8 <load_user_program_withArgv+0x244>
   8390c:	b98033a0 	ldrsw	x0, [x29,#48]
   83910:	f9402fa1 	ldr	x1, [x29,#88]
   83914:	8b000020 	add	x0, x1, x0
   83918:	f9002fa0 	str	x0, [x29,#88]
   8391c:	f9402fa0 	ldr	x0, [x29,#88]
   83920:	f9001fa0 	str	x0, [x29,#56]
   83924:	f9400fa1 	ldr	x1, [x29,#24]
   83928:	f94017a0 	ldr	x0, [x29,#40]
   8392c:	940000d3 	bl	83c78 <strcmp>
   83930:	7100001f 	cmp	w0, #0x0
   83934:	54000181 	b.ne	83964 <load_user_program_withArgv+0x1c0>
   83938:	b0000000 	adrp	x0, 84000 <itoa+0xc8>
   8393c:	9112e000 	add	x0, x0, #0x4b8
   83940:	97fff23d 	bl	80234 <uart_puts>
   83944:	f94017a0 	ldr	x0, [x29,#40]
   83948:	97fff23b 	bl	80234 <uart_puts>
   8394c:	b0000000 	adrp	x0, 84000 <itoa+0xc8>
   83950:	9111e000 	add	x0, x0, #0x478
   83954:	97fff238 	bl	80234 <uart_puts>
   83958:	d503201f 	nop
   8395c:	b90057bf 	str	wzr, [x29,#84]
   83960:	14000013 	b	839ac <load_user_program_withArgv+0x208>
   83964:	b98037a0 	ldrsw	x0, [x29,#52]
   83968:	f9402fa1 	ldr	x1, [x29,#88]
   8396c:	8b000020 	add	x0, x1, x0
   83970:	f9002fa0 	str	x0, [x29,#88]
   83974:	17ffff9f 	b	837f0 <load_user_program_withArgv+0x4c>
   83978:	b98057a0 	ldrsw	x0, [x29,#84]
   8397c:	d37df000 	lsl	x0, x0, #3
   83980:	f94027a1 	ldr	x1, [x29,#72]
   83984:	8b000020 	add	x0, x1, x0
   83988:	b98057a1 	ldrsw	x1, [x29,#84]
   8398c:	d37df021 	lsl	x1, x1, #3
   83990:	f9401fa2 	ldr	x2, [x29,#56]
   83994:	8b010041 	add	x1, x2, x1
   83998:	f9400021 	ldr	x1, [x1]
   8399c:	f9000001 	str	x1, [x0]
   839a0:	b94057a0 	ldr	w0, [x29,#84]
   839a4:	11000400 	add	w0, w0, #0x1
   839a8:	b90057a0 	str	w0, [x29,#84]
   839ac:	b94057a1 	ldr	w1, [x29,#84]
   839b0:	b94037a0 	ldr	w0, [x29,#52]
   839b4:	6b00003f 	cmp	w1, w0
   839b8:	54fffe0b 	b.lt	83978 <load_user_program_withArgv+0x1d4>
   839bc:	b0000000 	adrp	x0, 84000 <itoa+0xc8>
   839c0:	91130000 	add	x0, x0, #0x4c0
   839c4:	97fff21c 	bl	80234 <uart_puts>
   839c8:	f94023a1 	ldr	x1, [x29,#64]
   839cc:	f9400ba0 	ldr	x0, [x29,#16]
   839d0:	97fffef1 	bl	83594 <argv_puts>
   839d4:	f90023a0 	str	x0, [x29,#64]
   839d8:	f94027a0 	ldr	x0, [x29,#72]
   839dc:	f94023a1 	ldr	x1, [x29,#64]
   839e0:	940001e8 	bl	84180 <run_user_program>
   839e4:	d2800020 	mov	x0, #0x1                   	// #1
   839e8:	a8c67bfd 	ldp	x29, x30, [sp],#96
   839ec:	d65f03c0 	ret

00000000000839f0 <hello>:
   839f0:	a9bf7bfd 	stp	x29, x30, [sp,#-16]!
   839f4:	910003fd 	mov	x29, sp
   839f8:	b0000000 	adrp	x0, 84000 <itoa+0xc8>
   839fc:	91138000 	add	x0, x0, #0x4e0
   83a00:	97fff20d 	bl	80234 <uart_puts>
   83a04:	d503201f 	nop
   83a08:	a8c17bfd 	ldp	x29, x30, [sp],#16
   83a0c:	d65f03c0 	ret

0000000000083a10 <help>:
   83a10:	a9bf7bfd 	stp	x29, x30, [sp,#-16]!
   83a14:	910003fd 	mov	x29, sp
   83a18:	b0000000 	adrp	x0, 84000 <itoa+0xc8>
   83a1c:	9113c000 	add	x0, x0, #0x4f0
   83a20:	97fff205 	bl	80234 <uart_puts>
   83a24:	b0000000 	adrp	x0, 84000 <itoa+0xc8>
   83a28:	91146000 	add	x0, x0, #0x518
   83a2c:	97fff202 	bl	80234 <uart_puts>
   83a30:	b0000000 	adrp	x0, 84000 <itoa+0xc8>
   83a34:	9114e000 	add	x0, x0, #0x538
   83a38:	97fff1ff 	bl	80234 <uart_puts>
   83a3c:	b0000000 	adrp	x0, 84000 <itoa+0xc8>
   83a40:	91152000 	add	x0, x0, #0x548
   83a44:	97fff1fc 	bl	80234 <uart_puts>
   83a48:	d503201f 	nop
   83a4c:	a8c17bfd 	ldp	x29, x30, [sp],#16
   83a50:	d65f03c0 	ret

0000000000083a54 <reset>:
   83a54:	d10043ff 	sub	sp, sp, #0x10
   83a58:	b9000fe0 	str	w0, [sp,#12]
   83a5c:	d2800380 	mov	x0, #0x1c                  	// #28
   83a60:	f2a7e200 	movk	x0, #0x3f10, lsl #16
   83a64:	52800401 	mov	w1, #0x20                  	// #32
   83a68:	72ab4001 	movk	w1, #0x5a00, lsl #16
   83a6c:	b9000001 	str	w1, [x0]
   83a70:	d2800480 	mov	x0, #0x24                  	// #36
   83a74:	f2a7e200 	movk	x0, #0x3f10, lsl #16
   83a78:	b9400fe2 	ldr	w2, [sp,#12]
   83a7c:	52ab4001 	mov	w1, #0x5a000000            	// #1509949440
   83a80:	2a010041 	orr	w1, w2, w1
   83a84:	b9000001 	str	w1, [x0]
   83a88:	d503201f 	nop
   83a8c:	910043ff 	add	sp, sp, #0x10
   83a90:	d65f03c0 	ret

0000000000083a94 <cancel_reset>:
   83a94:	d2800380 	mov	x0, #0x1c                  	// #28
   83a98:	f2a7e200 	movk	x0, #0x3f10, lsl #16
   83a9c:	52ab4001 	mov	w1, #0x5a000000            	// #1509949440
   83aa0:	b9000001 	str	w1, [x0]
   83aa4:	d2800480 	mov	x0, #0x24                  	// #36
   83aa8:	f2a7e200 	movk	x0, #0x3f10, lsl #16
   83aac:	52ab4001 	mov	w1, #0x5a000000            	// #1509949440
   83ab0:	b9000001 	str	w1, [x0]
   83ab4:	d503201f 	nop
   83ab8:	d65f03c0 	ret

0000000000083abc <reboot>:
   83abc:	a9bf7bfd 	stp	x29, x30, [sp,#-16]!
   83ac0:	910003fd 	mov	x29, sp
   83ac4:	b0000000 	adrp	x0, 84000 <itoa+0xc8>
   83ac8:	91158000 	add	x0, x0, #0x560
   83acc:	97fff1da 	bl	80234 <uart_puts>
   83ad0:	52800c80 	mov	w0, #0x64                  	// #100
   83ad4:	97ffffe0 	bl	83a54 <reset>
   83ad8:	d503201f 	nop
   83adc:	a8c17bfd 	ldp	x29, x30, [sp],#16
   83ae0:	d65f03c0 	ret

0000000000083ae4 <main>:
   83ae4:	a9bd7bfd 	stp	x29, x30, [sp,#-48]!
   83ae8:	910003fd 	mov	x29, sp
   83aec:	97fff15d 	bl	80060 <uart_init>
   83af0:	97fff363 	bl	8087c <init_buckets>
   83af4:	b0000000 	adrp	x0, 84000 <itoa+0xc8>
   83af8:	9115c000 	add	x0, x0, #0x570
   83afc:	f90017a0 	str	x0, [x29,#40]
   83b00:	f94017a0 	ldr	x0, [x29,#40]
   83b04:	97fff1cc 	bl	80234 <uart_puts>
   83b08:	b0000000 	adrp	x0, 84000 <itoa+0xc8>
   83b0c:	91218000 	add	x0, x0, #0x860
   83b10:	97fff1c9 	bl	80234 <uart_puts>
   83b14:	910043a0 	add	x0, x29, #0x10
   83b18:	52800021 	mov	w1, #0x1                   	// #1
   83b1c:	97fff1dc 	bl	8028c <uart_read_line>
   83b20:	528001a0 	mov	w0, #0xd                   	// #13
   83b24:	97fff1a0 	bl	801a4 <uart_send>
   83b28:	b0000000 	adrp	x0, 84000 <itoa+0xc8>
   83b2c:	9121a001 	add	x1, x0, #0x868
   83b30:	910043a0 	add	x0, x29, #0x10
   83b34:	94000051 	bl	83c78 <strcmp>
   83b38:	7100001f 	cmp	w0, #0x0
   83b3c:	54000061 	b.ne	83b48 <main+0x64>
   83b40:	97ffffac 	bl	839f0 <hello>
   83b44:	17fffff1 	b	83b08 <main+0x24>
   83b48:	b0000000 	adrp	x0, 84000 <itoa+0xc8>
   83b4c:	9121c001 	add	x1, x0, #0x870
   83b50:	910043a0 	add	x0, x29, #0x10
   83b54:	94000049 	bl	83c78 <strcmp>
   83b58:	7100001f 	cmp	w0, #0x0
   83b5c:	54000061 	b.ne	83b68 <main+0x84>
   83b60:	97ffffac 	bl	83a10 <help>
   83b64:	17ffffe9 	b	83b08 <main+0x24>
   83b68:	b0000000 	adrp	x0, 84000 <itoa+0xc8>
   83b6c:	9121e001 	add	x1, x0, #0x878
   83b70:	910043a0 	add	x0, x29, #0x10
   83b74:	94000041 	bl	83c78 <strcmp>
   83b78:	7100001f 	cmp	w0, #0x0
   83b7c:	54000061 	b.ne	83b88 <main+0xa4>
   83b80:	97ffffcf 	bl	83abc <reboot>
   83b84:	17ffffe1 	b	83b08 <main+0x24>
   83b88:	b0000000 	adrp	x0, 84000 <itoa+0xc8>
   83b8c:	91220001 	add	x1, x0, #0x880
   83b90:	910043a0 	add	x0, x29, #0x10
   83b94:	94000039 	bl	83c78 <strcmp>
   83b98:	7100001f 	cmp	w0, #0x0
   83b9c:	54000061 	b.ne	83ba8 <main+0xc4>
   83ba0:	97fffd9d 	bl	83214 <list_file>
   83ba4:	17ffffd9 	b	83b08 <main+0x24>
   83ba8:	b0000000 	adrp	x0, 84000 <itoa+0xc8>
   83bac:	91222001 	add	x1, x0, #0x888
   83bb0:	910043a0 	add	x0, x29, #0x10
   83bb4:	94000031 	bl	83c78 <strcmp>
   83bb8:	7100001f 	cmp	w0, #0x0
   83bbc:	54000061 	b.ne	83bc8 <main+0xe4>
   83bc0:	97fff6ed 	bl	81774 <lab3>
   83bc4:	17ffffd1 	b	83b08 <main+0x24>
   83bc8:	b0000000 	adrp	x0, 84000 <itoa+0xc8>
   83bcc:	91224001 	add	x1, x0, #0x890
   83bd0:	910043a0 	add	x0, x29, #0x10
   83bd4:	94000029 	bl	83c78 <strcmp>
   83bd8:	7100001f 	cmp	w0, #0x0
   83bdc:	54000061 	b.ne	83be8 <main+0x104>
   83be0:	97fffde9 	bl	83384 <load_user_program>
   83be4:	17ffffc9 	b	83b08 <main+0x24>
   83be8:	b0000000 	adrp	x0, 84000 <itoa+0xc8>
   83bec:	91226001 	add	x1, x0, #0x898
   83bf0:	910043a0 	add	x0, x29, #0x10
   83bf4:	94000021 	bl	83c78 <strcmp>
   83bf8:	7100001f 	cmp	w0, #0x0
   83bfc:	54000081 	b.ne	83c0c <main+0x128>
   83c00:	9400016a 	bl	841a8 <core_timer_enable>
   83c04:	94000159 	bl	84168 <from_el1_to_el0>
   83c08:	17ffffc0 	b	83b08 <main+0x24>
   83c0c:	b0000000 	adrp	x0, 84000 <itoa+0xc8>
   83c10:	91228001 	add	x1, x0, #0x8a0
   83c14:	910043a0 	add	x0, x29, #0x10
   83c18:	94000018 	bl	83c78 <strcmp>
   83c1c:	7100001f 	cmp	w0, #0x0
   83c20:	54000081 	b.ne	83c30 <main+0x14c>
   83c24:	52800040 	mov	w0, #0x2                   	// #2
   83c28:	97fff712 	bl	81870 <lab5_required_1>
   83c2c:	17ffffb7 	b	83b08 <main+0x24>
   83c30:	b0000000 	adrp	x0, 84000 <itoa+0xc8>
   83c34:	9122a001 	add	x1, x0, #0x8a8
   83c38:	910043a0 	add	x0, x29, #0x10
   83c3c:	9400000f 	bl	83c78 <strcmp>
   83c40:	7100001f 	cmp	w0, #0x0
   83c44:	54000081 	b.ne	83c54 <main+0x170>
   83c48:	94000158 	bl	841a8 <core_timer_enable>
   83c4c:	97fff73a 	bl	81934 <lab5_required_2>
   83c50:	17ffffae 	b	83b08 <main+0x24>
   83c54:	b0000000 	adrp	x0, 84000 <itoa+0xc8>
   83c58:	9122c000 	add	x0, x0, #0x8b0
   83c5c:	97fff176 	bl	80234 <uart_puts>
   83c60:	910043a0 	add	x0, x29, #0x10
   83c64:	97fff174 	bl	80234 <uart_puts>
   83c68:	b0000000 	adrp	x0, 84000 <itoa+0xc8>
   83c6c:	9122e000 	add	x0, x0, #0x8b8
   83c70:	97fff171 	bl	80234 <uart_puts>
   83c74:	17ffffa5 	b	83b08 <main+0x24>

0000000000083c78 <strcmp>:
   83c78:	d10043ff 	sub	sp, sp, #0x10
   83c7c:	f90007e0 	str	x0, [sp,#8]
   83c80:	f90003e1 	str	x1, [sp]
   83c84:	1400000f 	b	83cc0 <strcmp+0x48>
   83c88:	f94007e0 	ldr	x0, [sp,#8]
   83c8c:	39400001 	ldrb	w1, [x0]
   83c90:	f94003e0 	ldr	x0, [sp]
   83c94:	39400000 	ldrb	w0, [x0]
   83c98:	6b00003f 	cmp	w1, w0
   83c9c:	54000060 	b.eq	83ca8 <strcmp+0x30>
   83ca0:	52800020 	mov	w0, #0x1                   	// #1
   83ca4:	14000014 	b	83cf4 <strcmp+0x7c>
   83ca8:	f94007e0 	ldr	x0, [sp,#8]
   83cac:	91000400 	add	x0, x0, #0x1
   83cb0:	f90007e0 	str	x0, [sp,#8]
   83cb4:	f94003e0 	ldr	x0, [sp]
   83cb8:	91000400 	add	x0, x0, #0x1
   83cbc:	f90003e0 	str	x0, [sp]
   83cc0:	f94007e0 	ldr	x0, [sp,#8]
   83cc4:	39400000 	ldrb	w0, [x0]
   83cc8:	7100001f 	cmp	w0, #0x0
   83ccc:	54fffde1 	b.ne	83c88 <strcmp+0x10>
   83cd0:	f94007e0 	ldr	x0, [sp,#8]
   83cd4:	39400001 	ldrb	w1, [x0]
   83cd8:	f94003e0 	ldr	x0, [sp]
   83cdc:	39400000 	ldrb	w0, [x0]
   83ce0:	6b00003f 	cmp	w1, w0
   83ce4:	54000060 	b.eq	83cf0 <strcmp+0x78>
   83ce8:	52800020 	mov	w0, #0x1                   	// #1
   83cec:	14000002 	b	83cf4 <strcmp+0x7c>
   83cf0:	52800000 	mov	w0, #0x0                   	// #0
   83cf4:	910043ff 	add	sp, sp, #0x10
   83cf8:	d65f03c0 	ret

0000000000083cfc <sys_getpid>:
   83cfc:	b0000000 	adrp	x0, 84000 <itoa+0xc8>
   83d00:	91314000 	add	x0, x0, #0xc50
   83d04:	f9400000 	ldr	x0, [x0]
   83d08:	b9406800 	ldr	w0, [x0,#104]
   83d0c:	d65f03c0 	ret

0000000000083d10 <sys_uart_read>:
   83d10:	a9be7bfd 	stp	x29, x30, [sp,#-32]!
   83d14:	910003fd 	mov	x29, sp
   83d18:	f9000fa0 	str	x0, [x29,#24]
   83d1c:	b90017a1 	str	w1, [x29,#20]
   83d20:	52800022 	mov	w2, #0x1                   	// #1
   83d24:	b94017a1 	ldr	w1, [x29,#20]
   83d28:	f9400fa0 	ldr	x0, [x29,#24]
   83d2c:	97fff1af 	bl	803e8 <uart_read_buff>
   83d30:	d503201f 	nop
   83d34:	a8c27bfd 	ldp	x29, x30, [sp],#32
   83d38:	d65f03c0 	ret

0000000000083d3c <sys_uart_write>:
   83d3c:	a9be7bfd 	stp	x29, x30, [sp,#-32]!
   83d40:	910003fd 	mov	x29, sp
   83d44:	f9000fa0 	str	x0, [x29,#24]
   83d48:	b90017a1 	str	w1, [x29,#20]
   83d4c:	f9400fa0 	ldr	x0, [x29,#24]
   83d50:	97fff139 	bl	80234 <uart_puts>
   83d54:	d503201f 	nop
   83d58:	a8c27bfd 	ldp	x29, x30, [sp],#32
   83d5c:	d65f03c0 	ret

0000000000083d60 <sys_exec>:
   83d60:	a9be7bfd 	stp	x29, x30, [sp,#-32]!
   83d64:	910003fd 	mov	x29, sp
   83d68:	f9000fa0 	str	x0, [x29,#24]
   83d6c:	f9000ba1 	str	x1, [x29,#16]
   83d70:	f9400ba1 	ldr	x1, [x29,#16]
   83d74:	f9400fa0 	ldr	x0, [x29,#24]
   83d78:	97fffe8b 	bl	837a4 <load_user_program_withArgv>
   83d7c:	d503201f 	nop
   83d80:	a8c27bfd 	ldp	x29, x30, [sp],#32
   83d84:	d65f03c0 	ret

0000000000083d88 <sys_exit>:
   83d88:	a9bf7bfd 	stp	x29, x30, [sp,#-16]!
   83d8c:	910003fd 	mov	x29, sp
   83d90:	97fff5c6 	bl	814a8 <_exit>
   83d94:	d503201f 	nop
   83d98:	a8c17bfd 	ldp	x29, x30, [sp],#16
   83d9c:	d65f03c0 	ret

0000000000083da0 <sys_fork>:
   83da0:	a9be7bfd 	stp	x29, x30, [sp,#-32]!
   83da4:	910003fd 	mov	x29, sp
   83da8:	52820000 	mov	w0, #0x1000                	// #4096
   83dac:	97fff341 	bl	80ab0 <kmalloc>
   83db0:	93407c00 	sxtw	x0, w0
   83db4:	f9000fa0 	str	x0, [x29,#24]
   83db8:	f9400fa0 	ldr	x0, [x29,#24]
   83dbc:	f100001f 	cmp	x0, #0x0
   83dc0:	54000041 	b.ne	83dc8 <sys_fork+0x28>
   83dc4:	14000000 	b	83dc4 <sys_fork+0x24>
   83dc8:	f9400fa3 	ldr	x3, [x29,#24]
   83dcc:	d2800002 	mov	x2, #0x0                   	// #0
   83dd0:	d2800001 	mov	x1, #0x0                   	// #0
   83dd4:	d2800000 	mov	x0, #0x0                   	// #0
   83dd8:	97fff4c2 	bl	810e0 <create_thread>
   83ddc:	a8c27bfd 	ldp	x29, x30, [sp],#32
   83de0:	d65f03c0 	ret

0000000000083de4 <ret_from_fork>:
   83de4:	97fff591 	bl	81428 <schedule_tail>
   83de8:	aa1403e0 	mov	x0, x20
   83dec:	d63f0260 	blr	x19

0000000000083df0 <atoi>:
   83df0:	d100c3ff 	sub	sp, sp, #0x30
   83df4:	f90007e0 	str	x0, [sp,#8]
   83df8:	b90007e1 	str	w1, [sp,#4]
   83dfc:	b9002fff 	str	wzr, [sp,#44]
   83e00:	b9002bff 	str	wzr, [sp,#40]
   83e04:	b90027ff 	str	wzr, [sp,#36]
   83e08:	1400003b 	b	83ef4 <atoi+0x104>
   83e0c:	b9402fe0 	ldr	w0, [sp,#44]
   83e10:	7100001f 	cmp	w0, #0x0
   83e14:	54000121 	b.ne	83e38 <atoi+0x48>
   83e18:	b9802fe0 	ldrsw	x0, [sp,#44]
   83e1c:	f94007e1 	ldr	x1, [sp,#8]
   83e20:	8b000020 	add	x0, x1, x0
   83e24:	39400000 	ldrb	w0, [x0]
   83e28:	7100b41f 	cmp	w0, #0x2d
   83e2c:	54000061 	b.ne	83e38 <atoi+0x48>
   83e30:	52800020 	mov	w0, #0x1                   	// #1
   83e34:	b90027e0 	str	w0, [sp,#36]
   83e38:	b94007e0 	ldr	w0, [sp,#4]
   83e3c:	7100281f 	cmp	w0, #0xa
   83e40:	54000201 	b.ne	83e80 <atoi+0x90>
   83e44:	b9802fe0 	ldrsw	x0, [sp,#44]
   83e48:	f94007e1 	ldr	x1, [sp,#8]
   83e4c:	8b000020 	add	x0, x1, x0
   83e50:	39400000 	ldrb	w0, [x0]
   83e54:	5100c000 	sub	w0, w0, #0x30
   83e58:	b90023e0 	str	w0, [sp,#32]
   83e5c:	b9402be1 	ldr	w1, [sp,#40]
   83e60:	2a0103e0 	mov	w0, w1
   83e64:	531e7400 	lsl	w0, w0, #2
   83e68:	0b010000 	add	w0, w0, w1
   83e6c:	531f7800 	lsl	w0, w0, #1
   83e70:	2a0003e1 	mov	w1, w0
   83e74:	b94023e0 	ldr	w0, [sp,#32]
   83e78:	0b000020 	add	w0, w1, w0
   83e7c:	b9002be0 	str	w0, [sp,#40]
   83e80:	b94007e0 	ldr	w0, [sp,#4]
   83e84:	7100401f 	cmp	w0, #0x10
   83e88:	54000301 	b.ne	83ee8 <atoi+0xf8>
   83e8c:	b9802fe0 	ldrsw	x0, [sp,#44]
   83e90:	f94007e1 	ldr	x1, [sp,#8]
   83e94:	8b000020 	add	x0, x1, x0
   83e98:	39400000 	ldrb	w0, [x0]
   83e9c:	7101001f 	cmp	w0, #0x40
   83ea0:	540000e9 	b.ls	83ebc <atoi+0xcc>
   83ea4:	b9802fe0 	ldrsw	x0, [sp,#44]
   83ea8:	f94007e1 	ldr	x1, [sp,#8]
   83eac:	8b000020 	add	x0, x1, x0
   83eb0:	39400000 	ldrb	w0, [x0]
   83eb4:	5100dc00 	sub	w0, w0, #0x37
   83eb8:	14000006 	b	83ed0 <atoi+0xe0>
   83ebc:	b9802fe0 	ldrsw	x0, [sp,#44]
   83ec0:	f94007e1 	ldr	x1, [sp,#8]
   83ec4:	8b000020 	add	x0, x1, x0
   83ec8:	39400000 	ldrb	w0, [x0]
   83ecc:	5100c000 	sub	w0, w0, #0x30
   83ed0:	b9001fe0 	str	w0, [sp,#28]
   83ed4:	b9402be0 	ldr	w0, [sp,#40]
   83ed8:	531c6c01 	lsl	w1, w0, #4
   83edc:	b9401fe0 	ldr	w0, [sp,#28]
   83ee0:	0b000020 	add	w0, w1, w0
   83ee4:	b9002be0 	str	w0, [sp,#40]
   83ee8:	b9402fe0 	ldr	w0, [sp,#44]
   83eec:	11000400 	add	w0, w0, #0x1
   83ef0:	b9002fe0 	str	w0, [sp,#44]
   83ef4:	b9802fe0 	ldrsw	x0, [sp,#44]
   83ef8:	f94007e1 	ldr	x1, [sp,#8]
   83efc:	8b000020 	add	x0, x1, x0
   83f00:	39400000 	ldrb	w0, [x0]
   83f04:	7100001f 	cmp	w0, #0x0
   83f08:	54fff821 	b.ne	83e0c <atoi+0x1c>
   83f0c:	b94027e0 	ldr	w0, [sp,#36]
   83f10:	7100001f 	cmp	w0, #0x0
   83f14:	540000c0 	b.eq	83f2c <atoi+0x13c>
   83f18:	b9402be0 	ldr	w0, [sp,#40]
   83f1c:	4b0003e0 	neg	w0, w0
   83f20:	b9002be0 	str	w0, [sp,#40]
   83f24:	b9402be0 	ldr	w0, [sp,#40]
   83f28:	14000002 	b	83f30 <atoi+0x140>
   83f2c:	b9402be0 	ldr	w0, [sp,#40]
   83f30:	9100c3ff 	add	sp, sp, #0x30
   83f34:	d65f03c0 	ret

0000000000083f38 <itoa>:
   83f38:	d10083ff 	sub	sp, sp, #0x20
   83f3c:	b9000fe0 	str	w0, [sp,#12]
   83f40:	f90003e1 	str	x1, [sp]
   83f44:	b9001fff 	str	wzr, [sp,#28]
   83f48:	b9400fe0 	ldr	w0, [sp,#12]
   83f4c:	7100001f 	cmp	w0, #0x0
   83f50:	54000581 	b.ne	84000 <itoa+0xc8>
   83f54:	b9401fe0 	ldr	w0, [sp,#28]
   83f58:	11000401 	add	w1, w0, #0x1
   83f5c:	b9001fe1 	str	w1, [sp,#28]
   83f60:	93407c00 	sxtw	x0, w0
   83f64:	f94003e1 	ldr	x1, [sp]
   83f68:	8b000020 	add	x0, x1, x0
   83f6c:	52800601 	mov	w1, #0x30                  	// #48
   83f70:	39000001 	strb	w1, [x0]
   83f74:	14000023 	b	84000 <itoa+0xc8>
   83f78:	b9400fe1 	ldr	w1, [sp,#12]
   83f7c:	528ccce0 	mov	w0, #0x6667                	// #26215
   83f80:	72acccc0 	movk	w0, #0x6666, lsl #16
   83f84:	9b207c20 	smull	x0, w1, w0
   83f88:	d360fc00 	lsr	x0, x0, #32
   83f8c:	13027c02 	asr	w2, w0, #2
   83f90:	131f7c20 	asr	w0, w1, #31
   83f94:	4b000042 	sub	w2, w2, w0
   83f98:	2a0203e0 	mov	w0, w2
   83f9c:	531e7400 	lsl	w0, w0, #2
   83fa0:	0b020000 	add	w0, w0, w2
   83fa4:	531f7800 	lsl	w0, w0, #1
   83fa8:	4b000020 	sub	w0, w1, w0
   83fac:	b90017e0 	str	w0, [sp,#20]
   83fb0:	b9401fe0 	ldr	w0, [sp,#28]
   83fb4:	11000401 	add	w1, w0, #0x1
   83fb8:	b9001fe1 	str	w1, [sp,#28]
   83fbc:	93407c00 	sxtw	x0, w0
   83fc0:	f94003e1 	ldr	x1, [sp]
   83fc4:	8b000020 	add	x0, x1, x0
   83fc8:	b94017e1 	ldr	w1, [sp,#20]
   83fcc:	53001c21 	uxtb	w1, w1
   83fd0:	1100c021 	add	w1, w1, #0x30
   83fd4:	53001c21 	uxtb	w1, w1
   83fd8:	39000001 	strb	w1, [x0]
   83fdc:	b9400fe0 	ldr	w0, [sp,#12]
   83fe0:	528ccce1 	mov	w1, #0x6667                	// #26215
   83fe4:	72acccc1 	movk	w1, #0x6666, lsl #16
   83fe8:	9b217c01 	smull	x1, w0, w1
   83fec:	d360fc21 	lsr	x1, x1, #32
   83ff0:	13027c21 	asr	w1, w1, #2
   83ff4:	131f7c00 	asr	w0, w0, #31
   83ff8:	4b000020 	sub	w0, w1, w0
   83ffc:	b9000fe0 	str	w0, [sp,#12]
   84000:	b9400fe0 	ldr	w0, [sp,#12]
   84004:	7100001f 	cmp	w0, #0x0
   84008:	54fffb81 	b.ne	83f78 <itoa+0x40>
   8400c:	b9801fe0 	ldrsw	x0, [sp,#28]
   84010:	f94003e1 	ldr	x1, [sp]
   84014:	8b000020 	add	x0, x1, x0
   84018:	3900001f 	strb	wzr, [x0]
   8401c:	b9401fe0 	ldr	w0, [sp,#28]
   84020:	51000400 	sub	w0, w0, #0x1
   84024:	b9001be0 	str	w0, [sp,#24]
   84028:	1400001e 	b	840a0 <itoa+0x168>
   8402c:	b9801be0 	ldrsw	x0, [sp,#24]
   84030:	f94003e1 	ldr	x1, [sp]
   84034:	8b000020 	add	x0, x1, x0
   84038:	39400000 	ldrb	w0, [x0]
   8403c:	39004fe0 	strb	w0, [sp,#19]
   84040:	b9801be0 	ldrsw	x0, [sp,#24]
   84044:	f94003e1 	ldr	x1, [sp]
   84048:	8b000020 	add	x0, x1, x0
   8404c:	b9401fe1 	ldr	w1, [sp,#28]
   84050:	51000422 	sub	w2, w1, #0x1
   84054:	b9401be1 	ldr	w1, [sp,#24]
   84058:	4b010041 	sub	w1, w2, w1
   8405c:	93407c21 	sxtw	x1, w1
   84060:	f94003e2 	ldr	x2, [sp]
   84064:	8b010041 	add	x1, x2, x1
   84068:	39400021 	ldrb	w1, [x1]
   8406c:	39000001 	strb	w1, [x0]
   84070:	b9401fe0 	ldr	w0, [sp,#28]
   84074:	51000401 	sub	w1, w0, #0x1
   84078:	b9401be0 	ldr	w0, [sp,#24]
   8407c:	4b000020 	sub	w0, w1, w0
   84080:	93407c00 	sxtw	x0, w0
   84084:	f94003e1 	ldr	x1, [sp]
   84088:	8b000020 	add	x0, x1, x0
   8408c:	39404fe1 	ldrb	w1, [sp,#19]
   84090:	39000001 	strb	w1, [x0]
   84094:	b9401be0 	ldr	w0, [sp,#24]
   84098:	51000400 	sub	w0, w0, #0x1
   8409c:	b9001be0 	str	w0, [sp,#24]
   840a0:	b9401fe0 	ldr	w0, [sp,#28]
   840a4:	531f7c01 	lsr	w1, w0, #31
   840a8:	0b000020 	add	w0, w1, w0
   840ac:	13017c00 	asr	w0, w0, #1
   840b0:	2a0003e1 	mov	w1, w0
   840b4:	b9401be0 	ldr	w0, [sp,#24]
   840b8:	6b00003f 	cmp	w1, w0
   840bc:	54fffb8d 	b.le	8402c <itoa+0xf4>
   840c0:	d503201f 	nop
   840c4:	910083ff 	add	sp, sp, #0x20
   840c8:	d65f03c0 	ret

00000000000840cc <subStr>:
   840cc:	d10083ff 	sub	sp, sp, #0x20
   840d0:	f90007e0 	str	x0, [sp,#8]
   840d4:	b90007e1 	str	w1, [sp,#4]
   840d8:	90000000 	adrp	x0, 84000 <itoa+0xc8>
   840dc:	91318000 	add	x0, x0, #0xc60
   840e0:	f9000fe0 	str	x0, [sp,#24]
   840e4:	b90017ff 	str	wzr, [sp,#20]
   840e8:	1400000d 	b	8411c <subStr+0x50>
   840ec:	b98017e0 	ldrsw	x0, [sp,#20]
   840f0:	f94007e1 	ldr	x1, [sp,#8]
   840f4:	8b000020 	add	x0, x1, x0
   840f8:	39400001 	ldrb	w1, [x0]
   840fc:	f9400fe0 	ldr	x0, [sp,#24]
   84100:	39000001 	strb	w1, [x0]
   84104:	f9400fe0 	ldr	x0, [sp,#24]
   84108:	91000400 	add	x0, x0, #0x1
   8410c:	f9000fe0 	str	x0, [sp,#24]
   84110:	b94017e0 	ldr	w0, [sp,#20]
   84114:	11000400 	add	w0, w0, #0x1
   84118:	b90017e0 	str	w0, [sp,#20]
   8411c:	b94017e1 	ldr	w1, [sp,#20]
   84120:	b94007e0 	ldr	w0, [sp,#4]
   84124:	6b00003f 	cmp	w1, w0
   84128:	54fffe2b 	b.lt	840ec <subStr+0x20>
   8412c:	f9400fe0 	ldr	x0, [sp,#24]
   84130:	3900001f 	strb	wzr, [x0]
   84134:	90000000 	adrp	x0, 84000 <itoa+0xc8>
   84138:	91318000 	add	x0, x0, #0xc60
   8413c:	910083ff 	add	sp, sp, #0x20
   84140:	d65f03c0 	ret
   84144:	00000000 	.inst	0x00000000 ; undefined

0000000000084148 <from_el2_to_el1>:
   84148:	d2b00000 	mov	x0, #0x80000000            	// #2147483648
   8414c:	d51c1100 	msr	hcr_el2, x0
   84150:	d28078a0 	mov	x0, #0x3c5                 	// #965
   84154:	d51c4000 	msr	spsr_el2, x0
   84158:	d51c403e 	msr	elr_el2, x30
   8415c:	d2a00600 	mov	x0, #0x300000              	// #3145728
   84160:	d5181040 	msr	cpacr_el1, x0
   84164:	d69f03e0 	eret

0000000000084168 <from_el1_to_el0>:
   84168:	d2800000 	mov	x0, #0x0                   	// #0
   8416c:	d5184000 	msr	spsr_el1, x0
   84170:	910003e0 	mov	x0, sp
   84174:	d5184100 	msr	sp_el0, x0
   84178:	d518403e 	msr	elr_el1, x30
   8417c:	d69f03e0 	eret

0000000000084180 <run_user_program>:
   84180:	aa0003e2 	mov	x2, x0
   84184:	d5184022 	msr	elr_el1, x2
   84188:	aa0103e2 	mov	x2, x1
   8418c:	d5184102 	msr	sp_el0, x2
   84190:	d2806802 	mov	x2, #0x340                 	// #832
   84194:	d5184002 	msr	spsr_el1, x2
   84198:	d5384103 	mrs	x3, sp_el0
   8419c:	f9400060 	ldr	x0, [x3]
   841a0:	f9400461 	ldr	x1, [x3,#8]
   841a4:	d69f03e0 	eret

00000000000841a8 <core_timer_enable>:
   841a8:	d2800020 	mov	x0, #0x1                   	// #1
   841ac:	d51be220 	msr	cntp_ctl_el0, x0
   841b0:	d53be000 	mrs	x0, cntfrq_el0
   841b4:	d51be200 	msr	cntp_tval_el0, x0
   841b8:	d2800040 	mov	x0, #0x2                   	// #2
   841bc:	58000061 	ldr	x1, 841c8 <core_timer_enable+0x20>
   841c0:	b9000020 	str	w0, [x1]
   841c4:	d65f03c0 	ret
   841c8:	40000040 	.word	0x40000040
   841cc:	00000000 	.word	0x00000000

Disassembly of section .rodata:

00000000000841d0 <sys_call_table-0x728>:
   841d0:	66667562 	.word	0x66667562
   841d4:	6f207265 	.word	0x6f207265
   841d8:	66726576 	.word	0x66726576
   841dc:	21776f6c 	.word	0x21776f6c
   841e0:	0000000a 	.word	0x0000000a
   841e4:	00000000 	.word	0x00000000
   841e8:	312d2d2d 	.word	0x312d2d2d
   841ec:	79622036 	.word	0x79622036
   841f0:	2d736574 	.word	0x2d736574
   841f4:	000a2d2d 	.word	0x000a2d2d
   841f8:	6c6f6f70 	.word	0x6c6f6f70
   841fc:	00000020 	.word	0x00000020
   84200:	0000203a 	.word	0x0000203a
   84204:	00000000 	.word	0x00000000
   84208:	203e2d20 	.word	0x203e2d20
   8420c:	00000000 	.word	0x00000000
   84210:	0000000a 	.word	0x0000000a
   84214:	00000000 	.word	0x00000000
   84218:	342d2d2d 	.word	0x342d2d2d
   8421c:	2d2d424b 	.word	0x2d2d424b
   84220:	00000a2d 	.word	0x00000a2d
   84224:	00000000 	.word	0x00000000
   84228:	7473696c 	.word	0x7473696c
   8422c:	00000020 	.word	0x00000020
   84230:	3d3d3d3d 	.word	0x3d3d3d3d
   84234:	696e493d 	.word	0x696e493d
   84238:	72662074 	.word	0x72662074
   8423c:	20656d61 	.word	0x20656d61
   84240:	65657266 	.word	0x65657266
   84244:	7473696c 	.word	0x7473696c
   84248:	3d3d3d3d 	.word	0x3d3d3d3d
   8424c:	00000a3d 	.word	0x00000a3d
   84250:	72726528 	.word	0x72726528
   84254:	2029726f 	.word	0x2029726f
   84258:	6c616d6b 	.word	0x6c616d6b
   8425c:	20636f6c 	.word	0x20636f6c
   84260:	6c696166 	.word	0x6c696166
   84264:	00000a21 	.word	0x00000a21
   84268:	2d2d2d2d 	.word	0x2d2d2d2d
   8426c:	6d75642d 	.word	0x6d75642d
   84270:	74732070 	.word	0x74732070
   84274:	2d657461 	.word	0x2d657461
   84278:	2d2d2d2d 	.word	0x2d2d2d2d
   8427c:	0000000a 	.word	0x0000000a
   84280:	52535053 	.word	0x52535053
   84284:	314c455f 	.word	0x314c455f
   84288:	7830203a 	.word	0x7830203a
   8428c:	00000000 	.word	0x00000000
   84290:	0000000a 	.word	0x0000000a
   84294:	00000000 	.word	0x00000000
   84298:	5f524c45 	.word	0x5f524c45
   8429c:	3a314c45 	.word	0x3a314c45
   842a0:	00783020 	.word	0x00783020
   842a4:	00000000 	.word	0x00000000
   842a8:	5f525345 	.word	0x5f525345
   842ac:	3a314c45 	.word	0x3a314c45
   842b0:	00783020 	.word	0x00783020
   842b4:	00000000 	.word	0x00000000
   842b8:	2d2d2d2d 	.word	0x2d2d2d2d
   842bc:	2d2d2d2d 	.word	0x2d2d2d2d
   842c0:	2d2d2d2d 	.word	0x2d2d2d2d
   842c4:	2d2d2d2d 	.word	0x2d2d2d2d
   842c8:	2d2d2d2d 	.word	0x2d2d2d2d
   842cc:	00000a2d 	.word	0x00000a2d
   842d0:	2d2d2d2d 	.word	0x2d2d2d2d
   842d4:	6d69542d 	.word	0x6d69542d
   842d8:	2d2d7265 	.word	0x2d2d7265
   842dc:	0a2d2d2d 	.word	0x0a2d2d2d
	...
   842e8:	656d6954 	.word	0x656d6954
   842ec:	616c4520 	.word	0x616c4520
   842f0:	64657370 	.word	0x64657370
   842f4:	0000203a 	.word	0x0000203a
   842f8:	2d2d2d2d 	.word	0x2d2d2d2d
   842fc:	2d2d2d2d 	.word	0x2d2d2d2d
   84300:	2d2d2d2d 	.word	0x2d2d2d2d
   84304:	0a2d2d2d 	.word	0x0a2d2d2d
	...
   84310:	656d6974 	.word	0x656d6974
   84314:	69742072 	.word	0x69742072
   84318:	000a6b63 	.word	0x000a6b63
   8431c:	00000000 	.word	0x00000000
   84320:	65726874 	.word	0x65726874
   84324:	00206461 	.word	0x00206461
   84328:	20736920 	.word	0x20736920
   8432c:	64616564 	.word	0x64616564
   84330:	0000000a 	.word	0x0000000a
   84334:	00000000 	.word	0x00000000
   84338:	6f6c6572 	.word	0x6f6c6572
   8433c:	65746163 	.word	0x65746163
   84340:	0a2e2e2e 	.word	0x0a2e2e2e
   84344:	00000000 	.word	0x00000000
   84348:	6d612049 	.word	0x6d612049
   8434c:	6d6f7a20 	.word	0x6d6f7a20
   84350:	20656962 	.word	0x20656962
   84354:	6c6c696b 	.word	0x6c6c696b
   84358:	202c7265 	.word	0x202c7265
   8435c:	616d6572 	.word	0x616d6572
   84360:	00206e69 	.word	0x00206e69
   84364:	00000000 	.word	0x00000000
   84368:	72687420 	.word	0x72687420
   8436c:	73646165 	.word	0x73646165
   84370:	0000000a 	.word	0x0000000a
   84374:	00000000 	.word	0x00000000
   84378:	64616f6c 	.word	0x64616f6c
   8437c:	65737520 	.word	0x65737520
   84380:	72702072 	.word	0x72702072
   84384:	6172676f 	.word	0x6172676f
   84388:	6166206d 	.word	0x6166206d
   8438c:	2e2e6c69 	.word	0x2e2e6c69
   84390:	00000a2e 	.word	0x00000a2e
   84394:	00000000 	.word	0x00000000
   84398:	64616f6c 	.word	0x64616f6c
   8439c:	65737520 	.word	0x65737520
   843a0:	72702072 	.word	0x72702072
   843a4:	6172676f 	.word	0x6172676f
   843a8:	7573206d 	.word	0x7573206d
   843ac:	73656363 	.word	0x73656363
   843b0:	2e2e2e73 	.word	0x2e2e2e73
   843b4:	0000000a 	.word	0x0000000a
   843b8:	65726854 	.word	0x65726854
   843bc:	69206461 	.word	0x69206461
   843c0:	00203a64 	.word	0x00203a64
   843c4:	00000000 	.word	0x00000000
   843c8:	20692c20 	.word	0x20692c20
   843cc:	0000203d 	.word	0x0000203d
   843d0:	0000000a 	.word	0x0000000a
   843d4:	00000000 	.word	0x00000000
   843d8:	76677261 	.word	0x76677261
   843dc:	7365745f 	.word	0x7365745f
   843e0:	6d692e74 	.word	0x6d692e74
   843e4:	00000067 	.word	0x00000067
   843e8:	76677261 	.word	0x76677261
   843ec:	7365745f 	.word	0x7365745f
   843f0:	00000074 	.word	0x00000074
   843f4:	00000000 	.word	0x00000000
   843f8:	00006f2d 	.word	0x00006f2d
   843fc:	00000000 	.word	0x00000000
   84400:	32677261 	.word	0x32677261
   84404:	00000000 	.word	0x00000000
   84408:	00000068 	.word	0x00000068
   8440c:	00000000 	.word	0x00000000
   84410:	000843e8 	.word	0x000843e8
   84414:	00000000 	.word	0x00000000
   84418:	000843f8 	.word	0x000843f8
   8441c:	00000000 	.word	0x00000000
   84420:	00084400 	.word	0x00084400
   84424:	00000000 	.word	0x00000000
   84428:	00084408 	.word	0x00084408
	...
   84438:	61656c50 	.word	0x61656c50
   8443c:	65206573 	.word	0x65206573
   84440:	7265746e 	.word	0x7265746e
   84444:	6c696620 	.word	0x6c696620
   84448:	616e2065 	.word	0x616e2065
   8444c:	203a656d 	.word	0x203a656d
	...
   84458:	49415254 	.word	0x49415254
   8445c:	2152454c 	.word	0x2152454c
   84460:	00002121 	.word	0x00002121
   84464:	00000000 	.word	0x00000000
   84468:	73206f4e 	.word	0x73206f4e
   8446c:	20686375 	.word	0x20686375
   84470:	656c6966 	.word	0x656c6966
   84474:	0000000a 	.word	0x0000000a
   84478:	0000000a 	.word	0x0000000a
   8447c:	00000000 	.word	0x00000000
   84480:	64616f6c 	.word	0x64616f6c
   84484:	2e676e69 	.word	0x2e676e69
   84488:	000a2e2e 	.word	0x000a2e2e
   8448c:	00000000 	.word	0x00000000
   84490:	61656c50 	.word	0x61656c50
   84494:	65206573 	.word	0x65206573
   84498:	7265746e 	.word	0x7265746e
   8449c:	70706120 	.word	0x70706120
   844a0:	616f6c20 	.word	0x616f6c20
   844a4:	64612064 	.word	0x64612064
   844a8:	73657264 	.word	0x73657264
   844ac:	48282073 	.word	0x48282073
   844b0:	3a297865 	.word	0x3a297865
   844b4:	00000020 	.word	0x00000020
   844b8:	646e6966 	.word	0x646e6966
   844bc:	00000020 	.word	0x00000020
   844c0:	64616f6c 	.word	0x64616f6c
   844c4:	20676e69 	.word	0x20676e69
   844c8:	72657375 	.word	0x72657375
   844cc:	6c696620 	.word	0x6c696620
   844d0:	69772065 	.word	0x69772065
   844d4:	61206874 	.word	0x61206874
   844d8:	2e766772 	.word	0x2e766772
   844dc:	000a2e2e 	.word	0x000a2e2e
   844e0:	6c6c6548 	.word	0x6c6c6548
   844e4:	6f57206f 	.word	0x6f57206f
   844e8:	21646c72 	.word	0x21646c72
   844ec:	0000000a 	.word	0x0000000a
   844f0:	706c6568 	.word	0x706c6568
   844f4:	7270203a 	.word	0x7270203a
   844f8:	20746e69 	.word	0x20746e69
   844fc:	206c6c61 	.word	0x206c6c61
   84500:	69617661 	.word	0x69617661
   84504:	6c62616c 	.word	0x6c62616c
   84508:	6f632065 	.word	0x6f632065
   8450c:	6e616d6d 	.word	0x6e616d6d
   84510:	000a7364 	.word	0x000a7364
   84514:	00000000 	.word	0x00000000
   84518:	6c6c6568 	.word	0x6c6c6568
   8451c:	70203a6f 	.word	0x70203a6f
   84520:	746e6972 	.word	0x746e6972
   84524:	6c654820 	.word	0x6c654820
   84528:	57206f6c 	.word	0x57206f6c
   8452c:	646c726f 	.word	0x646c726f
   84530:	00000a21 	.word	0x00000a21
   84534:	00000000 	.word	0x00000000
   84538:	6f626572 	.word	0x6f626572
   8453c:	203a746f 	.word	0x203a746f
   84540:	6f626572 	.word	0x6f626572
   84544:	000a746f 	.word	0x000a746f
   84548:	203a736c 	.word	0x203a736c
   8454c:	7473696c 	.word	0x7473696c
   84550:	6c6c6120 	.word	0x6c6c6120
   84554:	6c696620 	.word	0x6c696620
   84558:	00000a65 	.word	0x00000a65
   8455c:	00000000 	.word	0x00000000
   84560:	6f626552 	.word	0x6f626552
   84564:	6e69746f 	.word	0x6e69746f
   84568:	2e2e2e67 	.word	0x2e2e2e67
   8456c:	0000000a 	.word	0x0000000a
   84570:	2020205c 	.word	0x2020205c
   84574:	20202020 	.word	0x20202020
   84578:	20202020 	.word	0x20202020
   8457c:	20202020 	.word	0x20202020
   84580:	20202020 	.word	0x20202020
   84584:	20202020 	.word	0x20202020
   84588:	20202020 	.word	0x20202020
   8458c:	202e2020 	.word	0x202e2020
   84590:	20202020 	.word	0x20202020
   84594:	0a2e2020 	.word	0x0a2e2020
   84598:	20205c20 	.word	0x20205c20
   8459c:	20202020 	.word	0x20202020
   845a0:	20202020 	.word	0x20202020
   845a4:	20202020 	.word	0x20202020
   845a8:	20202020 	.word	0x20202020
   845ac:	20202020 	.word	0x20202020
   845b0:	20202020 	.word	0x20202020
   845b4:	60202f20 	.word	0x60202f20
   845b8:	2020202e 	.word	0x2020202e
   845bc:	2220272e 	.word	0x2220272e
   845c0:	5c200a20 	.word	0x5c200a20
   845c4:	20202020 	.word	0x20202020
   845c8:	20202020 	.word	0x20202020
   845cc:	20202020 	.word	0x20202020
   845d0:	20202020 	.word	0x20202020
   845d4:	2d2e2020 	.word	0x2d2e2020
   845d8:	202e2d2d 	.word	0x202e2d2d
   845dc:	20203c20 	.word	0x20203c20
   845e0:	203e2020 	.word	0x203e2020
   845e4:	2020203c 	.word	0x2020203c
   845e8:	20203e20 	.word	0x20203e20
   845ec:	2d2d2d2e 	.word	0x2d2d2d2e
   845f0:	20200a2e 	.word	0x20200a2e
   845f4:	20205c20 	.word	0x20205c20
   845f8:	20202020 	.word	0x20202020
   845fc:	20202020 	.word	0x20202020
   84600:	20202020 	.word	0x20202020
   84604:	7c202020 	.word	0x7c202020
   84608:	5c202020 	.word	0x5c202020
   8460c:	205c2020 	.word	0x205c2020
   84610:	207e202d 	.word	0x207e202d
   84614:	202d207e 	.word	0x202d207e
   84618:	2f20202f 	.word	0x2f20202f
   8461c:	20202020 	.word	0x20202020
   84620:	20200a7c 	.word	0x20200a7c
   84624:	20202020 	.word	0x20202020
   84628:	5f202020 	.word	0x5f202020
   8462c:	5f5f5f5f 	.word	0x5f5f5f5f
   84630:	20202020 	.word	0x20202020
   84634:	20202020 	.word	0x20202020
   84638:	2e2e2020 	.word	0x2e2e2020
   8463c:	20207e2d 	.word	0x20207e2d
   84640:	20202020 	.word	0x20202020
   84644:	20202020 	.word	0x20202020
   84648:	7e202020 	.word	0x7e202020
   8464c:	2d2e2e2d 	.word	0x2d2e2e2d
   84650:	20200a7e 	.word	0x20200a7e
   84654:	20202020 	.word	0x20202020
   84658:	207c2020 	.word	0x207c2020
   8465c:	20202020 	.word	0x20202020
   84660:	5c20207c 	.word	0x5c20207c
   84664:	5c7e7e7e 	.word	0x5c7e7e7e
   84668:	2020272e 	.word	0x2020272e
   8466c:	20202020 	.word	0x20202020
   84670:	20202020 	.word	0x20202020
   84674:	20202020 	.word	0x20202020
   84678:	20202020 	.word	0x20202020
   8467c:	2e602020 	.word	0x2e602020
   84680:	7e7e7e2f 	.word	0x7e7e7e2f
   84684:	20200a2f 	.word	0x20200a2f
   84688:	20202020 	.word	0x20202020
   8468c:	2d2d2d20 	.word	0x2d2d2d20
   84690:	2d2d2d2d 	.word	0x2d2d2d2d
   84694:	20202d2d 	.word	0x20202d2d
   84698:	2f5f5f5c 	.word	0x2f5f5f5c
   8469c:	20202020 	.word	0x20202020
   846a0:	20202020 	.word	0x20202020
   846a4:	20202020 	.word	0x20202020
   846a8:	20202020 	.word	0x20202020
   846ac:	20202020 	.word	0x20202020
   846b0:	20202020 	.word	0x20202020
   846b4:	2f5f5f5c 	.word	0x2f5f5f5c
   846b8:	2020200a 	.word	0x2020200a
   846bc:	2e202020 	.word	0x2e202020
   846c0:	4f202027 	.word	0x4f202027
   846c4:	20202020 	.word	0x20202020
   846c8:	2020205c 	.word	0x2020205c
   846cc:	202f2020 	.word	0x202f2020
   846d0:	20202020 	.word	0x20202020
   846d4:	20202020 	.word	0x20202020
   846d8:	20202020 	.word	0x20202020
   846dc:	202f2020 	.word	0x202f2020
   846e0:	20202020 	.word	0x20202020
   846e4:	205c2020 	.word	0x205c2020
   846e8:	0a202220 	.word	0x0a202220
   846ec:	20202020 	.word	0x20202020
   846f0:	5f5f2820 	.word	0x5f5f2820
   846f4:	2c5f5f5f 	.word	0x2c5f5f5f
   846f8:	20202020 	.word	0x20202020
   846fc:	2e5f2e60 	.word	0x2e5f2e60
   84700:	20202027 	.word	0x20202027
   84704:	20202020 	.word	0x20202020
   84708:	20202020 	.word	0x20202020
   8470c:	20202020 	.word	0x20202020
   84710:	2020207c 	.word	0x2020207c
   84714:	20202020 	.word	0x20202020
   84718:	207d2020 	.word	0x207d2020
   8471c:	7e2f5c20 	.word	0x7e2f5c20
   84720:	0a2f7e7e 	.word	0x0a2f7e7e
   84724:	20202020 	.word	0x20202020
   84728:	2d602020 	.word	0x2d602020
   8472c:	2e2d2d2d 	.word	0x2e2d2d2d
   84730:	20202020 	.word	0x20202020
   84734:	20202020 	.word	0x20202020
   84738:	202f2020 	.word	0x202f2020
   8473c:	20202020 	.word	0x20202020
   84740:	207d2020 	.word	0x207d2020
   84744:	20202020 	.word	0x20202020
   84748:	2020207c 	.word	0x2020207c
   8474c:	20202020 	.word	0x20202020
   84750:	20202f20 	.word	0x20202f20
   84754:	5f5c2020 	.word	0x5f5c2020
   84758:	200a2f5f 	.word	0x200a2f5f
   8475c:	20202020 	.word	0x20202020
   84760:	20202020 	.word	0x20202020
   84764:	60202020 	.word	0x60202020
   84768:	20202e2d 	.word	0x20202e2d
   8476c:	20202020 	.word	0x20202020
   84770:	2020207c 	.word	0x2020207c
   84774:	20202020 	.word	0x20202020
   84778:	2020202f 	.word	0x2020202f
   8477c:	7c202020 	.word	0x7c202020
   84780:	20202020 	.word	0x20202020
   84784:	2f202020 	.word	0x2f202020
   84788:	20202020 	.word	0x20202020
   8478c:	2e602020 	.word	0x2e602020
   84790:	7e7e2c20 	.word	0x7e7e2c20
   84794:	20200a7c 	.word	0x20200a7c
   84798:	20202020 	.word	0x20202020
   8479c:	20202020 	.word	0x20202020
   847a0:	20202020 	.word	0x20202020
   847a4:	2d7e2020 	.word	0x2d7e2020
   847a8:	7c5f5f2e 	.word	0x7c5f5f2e
   847ac:	20202020 	.word	0x20202020
   847b0:	5f2f2020 	.word	0x5f2f2020
   847b4:	7e202d20 	.word	0x7e202d20
   847b8:	207c5e20 	.word	0x207c5e20
   847bc:	20202020 	.word	0x20202020
   847c0:	202d2f20 	.word	0x202d2f20
   847c4:	2020205f 	.word	0x2020205f
   847c8:	60202020 	.word	0x60202020
   847cc:	272d2e2e 	.word	0x272d2e2e
   847d0:	0a202020 	.word	0x0a202020
   847d4:	20202020 	.word	0x20202020
   847d8:	20202020 	.word	0x20202020
   847dc:	20202020 	.word	0x20202020
   847e0:	20202020 	.word	0x20202020
   847e4:	20202020 	.word	0x20202020
   847e8:	20207c20 	.word	0x20207c20
   847ec:	2f202020 	.word	0x2f202020
   847f0:	20202020 	.word	0x20202020
   847f4:	20202020 	.word	0x20202020
   847f8:	2020207c 	.word	0x2020207c
   847fc:	202f2020 	.word	0x202f2020
   84800:	20202020 	.word	0x20202020
   84804:	202e2d7e 	.word	0x202e2d7e
   84808:	20202020 	.word	0x20202020
   8480c:	202e2d60 	.word	0x202e2d60
   84810:	5f20205f 	.word	0x5f20205f
   84814:	0a5f2020 	.word	0x0a5f2020
   84818:	20202020 	.word	0x20202020
   8481c:	20202020 	.word	0x20202020
   84820:	20202020 	.word	0x20202020
   84824:	20202020 	.word	0x20202020
   84828:	20202020 	.word	0x20202020
   8482c:	5f5f7c20 	.word	0x5f5f7c20
   84830:	7c5f5f5f 	.word	0x7c5f5f5f
   84834:	20202020 	.word	0x20202020
   84838:	20202020 	.word	0x20202020
   8483c:	5f5f5f7c 	.word	0x5f5f5f7c
   84840:	207c5f5f 	.word	0x207c5f5f
   84844:	20202020 	.word	0x20202020
   84848:	20202020 	.word	0x20202020
   8484c:	202d207e 	.word	0x202d207e
   84850:	205f202e 	.word	0x205f202e
   84854:	205f205f 	.word	0x205f205f
   84858:	3e5f205f 	.word	0x3e5f205f
   8485c:	0000000a 	.word	0x0000000a
   84860:	00000023 	.word	0x00000023
   84864:	00000000 	.word	0x00000000
   84868:	6c6c6568 	.word	0x6c6c6568
   8486c:	0000006f 	.word	0x0000006f
   84870:	706c6568 	.word	0x706c6568
   84874:	00000000 	.word	0x00000000
   84878:	6f626572 	.word	0x6f626572
   8487c:	0000746f 	.word	0x0000746f
   84880:	0000736c 	.word	0x0000736c
   84884:	00000000 	.word	0x00000000
   84888:	3362616c 	.word	0x3362616c
   8488c:	00000000 	.word	0x00000000
   84890:	64616f6c 	.word	0x64616f6c
   84894:	00000000 	.word	0x00000000
   84898:	656d6974 	.word	0x656d6974
   8489c:	00000072 	.word	0x00000072
   848a0:	3562616c 	.word	0x3562616c
   848a4:	0000312d 	.word	0x0000312d
   848a8:	3562616c 	.word	0x3562616c
   848ac:	0000322d 	.word	0x0000322d
   848b0:	6f727245 	.word	0x6f727245
   848b4:	00203a72 	.word	0x00203a72
   848b8:	6d6f6320 	.word	0x6d6f6320
   848bc:	646e616d 	.word	0x646e616d
   848c0:	746f6e20 	.word	0x746f6e20
   848c4:	756f6620 	.word	0x756f6620
   848c8:	2021646e 	.word	0x2021646e
   848cc:	20797254 	.word	0x20797254
   848d0:	6c65683c 	.word	0x6c65683c
   848d4:	74203e70 	.word	0x74203e70
   848d8:	6863206f 	.word	0x6863206f
   848dc:	206b6365 	.word	0x206b6365
   848e0:	206c6c61 	.word	0x206c6c61
   848e4:	69617661 	.word	0x69617661
   848e8:	6c62616c 	.word	0x6c62616c
   848ec:	6f632065 	.word	0x6f632065
   848f0:	6e616d6d 	.word	0x6e616d6d
   848f4:	000a7364 	.word	0x000a7364

00000000000848f8 <sys_call_table>:
   848f8:	00083cfc 	.word	0x00083cfc
   848fc:	00000000 	.word	0x00000000
   84900:	00083cfc 	.word	0x00083cfc
   84904:	00000000 	.word	0x00000000
   84908:	00083d10 	.word	0x00083d10
   8490c:	00000000 	.word	0x00000000
   84910:	00083d3c 	.word	0x00083d3c
   84914:	00000000 	.word	0x00000000
   84918:	00083d60 	.word	0x00083d60
   8491c:	00000000 	.word	0x00000000
   84920:	00083d88 	.word	0x00083d88
   84924:	00000000 	.word	0x00000000
   84928:	00083da0 	.word	0x00083da0
   8492c:	00000000 	.word	0x00000000

Disassembly of section .data:

0000000000084930 <curr_index>:
   84930:	ffffffff 	.word	0xffffffff
   84934:	00000000 	.word	0x00000000

0000000000084938 <cpio_address_base>:
   84938:	08000000 	.word	0x08000000
   8493c:	00000000 	.word	0x00000000

Disassembly of section .bss:

0000000000084940 <bss_begin>:
	...

0000000000084a50 <run_queue>:
	...

0000000000084c50 <current>:
	...

0000000000084c58 <thread_count>:
	...

0000000000084c60 <cRes.2364>:
	...

Disassembly of section .debug_line:

0000000000000000 <.debug_line>:
   0:	0000004d 	.inst	0x0000004d ; undefined
   4:	00250002 	.inst	0x00250002 ; NYI
   8:	01040000 	.inst	0x01040000 ; undefined
   c:	000d0efb 	.inst	0x000d0efb ; undefined
  10:	01010101 	.inst	0x01010101 ; undefined
  14:	01000000 	.inst	0x01000000 ; undefined
  18:	6b010000 	subs	w0, w0, w1
  1c:	656e7265 	.inst	0x656e7265 ; undefined
  20:	7300006c 	.inst	0x7300006c ; undefined
  24:	74726174 	.inst	0x74726174 ; undefined
  28:	0100532e 	.inst	0x0100532e ; undefined
  2c:	00000000 	.inst	0x00000000 ; undefined
  30:	00000209 	.inst	0x00000209 ; undefined
  34:	00000008 	.inst	0x00000008 ; undefined
  38:	21170000 	.inst	0x21170000 ; undefined
  3c:	23212421 	.inst	0x23212421 ; undefined
  40:	21212121 	.inst	0x21212121 ; undefined
  44:	21212321 	.inst	0x21212321 ; undefined
  48:	21212123 	.inst	0x21212123 ; undefined
  4c:	01000702 	.inst	0x01000702 ; undefined
  50:	00012b01 	.inst	0x00012b01 ; undefined
  54:	24000200 	.inst	0x24000200 ; undefined
  58:	04000000 	.inst	0x04000000 ; undefined
  5c:	0d0efb01 	.inst	0x0d0efb01 ; undefined
  60:	01010100 	.inst	0x01010100 ; undefined
  64:	00000001 	.inst	0x00000001 ; undefined
  68:	01000001 	.inst	0x01000001 ; undefined
  6c:	6e72656b 	umax	v11.8h, v11.8h, v18.8h
  70:	00006c65 	.inst	0x00006c65 ; undefined
  74:	74726175 	.inst	0x74726175 ; undefined
  78:	0100632e 	.inst	0x0100632e ; undefined
  7c:	00000000 	.inst	0x00000000 ; undefined
  80:	00600209 	.inst	0x00600209 ; undefined
  84:	00000008 	.inst	0x00000008 ; undefined
  88:	2e030000 	ext	v0.8b, v0.8b, v3.8b, #0
  8c:	3d752401 	ldr	b1, [x0,#3401]
  90:	4b3d3d4b 	.inst	0x4b3d3d4b ; undefined
  94:	3d213d4c 	str	b12, [x10,#2127]
  98:	02003d3d 	.inst	0x02003d3d ; undefined
  9c:	2e060304 	ext	v4.8b, v24.8b, v6.8b, #0
  a0:	01040200 	.inst	0x01040200 ; undefined
  a4:	4b4b0620 	sub	w0, w17, w11, lsr #1
  a8:	03040200 	.inst	0x03040200 ; undefined
  ac:	02002e06 	.inst	0x02002e06 ; undefined
  b0:	06200104 	.inst	0x06200104 ; undefined
  b4:	214d3d4b 	.inst	0x214d3d4b ; undefined
  b8:	00416949 	.inst	0x00416949 ; undefined
  bc:	30010402 	adr	x2, 213d <_start-0x7dec3>
  c0:	00414b76 	.inst	0x00414b76 ; undefined
  c4:	23010402 	.inst	0x23010402 ; undefined
  c8:	02004c76 	.inst	0x02004c76 ; undefined
  cc:	3c060104 	stur	b4, [x8,#96]
  d0:	02040200 	.inst	0x02040200 ; undefined
  d4:	0402002e 	.inst	0x0402002e ; undefined
  d8:	33210604 	.inst	0x33210604 ; undefined
  dc:	2f4b223d 	umlal	v29.4s, v17.4h, v11.h[0]
  e0:	4b3e5054 	sub	w20, w2, w30, uxtw #4
  e4:	002f2122 	.inst	0x002f2122 ; NYI
  e8:	06010402 	.inst	0x06010402 ; undefined
  ec:	3d2f063c 	str	b28, [x17,#3009]
  f0:	78034d59 	strh	w25, [x10,#52]!
  f4:	3c0b034a 	stur	b10, [x26,#176]
  f8:	3d213d3e 	str	b30, [x9,#2127]
  fc:	213f3e2f 	.inst	0x213f3e2f ; undefined
 100:	0200593d 	.inst	0x0200593d ; undefined
 104:	3c060104 	stur	b4, [x8,#96]
 108:	02002f06 	.inst	0x02002f06 ; undefined
 10c:	3c060104 	stur	b4, [x8,#96]
 110:	02040200 	.inst	0x02040200 ; undefined
 114:	0402002e 	.inst	0x0402002e ; undefined
 118:	02002004 	.inst	0x02002004 ; undefined
 11c:	3d060404 	str	b4, [x0,#385]
 120:	01040200 	.inst	0x01040200 ; undefined
 124:	02003c06 	.inst	0x02003c06 ; undefined
 128:	2a060204 	orr	w4, w16, w6
 12c:	01040200 	.inst	0x01040200 ; undefined
 130:	42063c06 	.inst	0x42063c06 ; undefined
 134:	4b21673f 	sub	wsp, w25, w1, uxtx #1
 138:	0067313d 	.inst	0x0067313d ; undefined
 13c:	06010402 	.inst	0x06010402 ; undefined
 140:	675a063c 	.inst	0x675a063c ; undefined
 144:	2e75034b 	uaddl	v11.4s, v26.4h, v21.4h
 148:	213c0d03 	.inst	0x213c0d03 ; undefined
 14c:	2f233d3e 	.inst	0x2f233d3e ; undefined
 150:	01040200 	.inst	0x01040200 ; undefined
 154:	2f063c06 	.inst	0x2f063c06 ; undefined
 158:	0402003d 	.inst	0x0402003d ; undefined
 15c:	063c0601 	.inst	0x063c0601 ; undefined
 160:	0200753d 	.inst	0x0200753d ; undefined
 164:	3c060104 	stur	b4, [x8,#96]
 168:	00753d06 	.inst	0x00753d06 ; undefined
 16c:	06010402 	.inst	0x06010402 ; undefined
 170:	683d063c 	.inst	0x683d063c ; undefined
 174:	03207803 	.inst	0x03207803 ; undefined
 178:	02212009 	.inst	0x02212009 ; undefined
 17c:	01010002 	.inst	0x01010002 ; undefined
 180:	000001d0 	.inst	0x000001d0 ; undefined
 184:	00400002 	.inst	0x00400002 ; undefined
 188:	01040000 	.inst	0x01040000 ; undefined
 18c:	000d0efb 	.inst	0x000d0efb ; undefined
 190:	01010101 	.inst	0x01010101 ; undefined
 194:	01000000 	.inst	0x01000000 ; undefined
 198:	6b010000 	subs	w0, w0, w1
 19c:	656e7265 	.inst	0x656e7265 ; undefined
 1a0:	6e69006c 	uaddl2	v12.4s, v3.8h, v9.8h
 1a4:	64756c63 	.inst	0x64756c63 ; undefined
 1a8:	61000065 	.inst	0x61000065 ; undefined
 1ac:	636f6c6c 	.inst	0x636f6c6c ; undefined
 1b0:	726f7461 	.inst	0x726f7461 ; undefined
 1b4:	0100632e 	.inst	0x0100632e ; undefined
 1b8:	6c610000 	ldnp	d0, d0, [x0,#-496]
 1bc:	61636f6c 	.inst	0x61636f6c ; undefined
 1c0:	2e726f74 	umin	v20.4h, v27.4h, v18.4h
 1c4:	00020068 	.inst	0x00020068 ; undefined
 1c8:	09000000 	.inst	0x09000000 ; undefined
 1cc:	08059002 	stlxrb	w5, w2, [x0]
 1d0:	00000000 	.inst	0x00000000 ; undefined
 1d4:	3d3d1a00 	str	b0, [x16,#3910]
 1d8:	2f3d3f2f 	.inst	0x2f3d3f2f ; undefined
 1dc:	3d4d3b21 	ldr	b1, [x25,#846]
 1e0:	212f3d42 	.inst	0x212f3d42 ; undefined
 1e4:	2f4b5c3b 	.inst	0x2f4b5c3b ; undefined
 1e8:	212f3d42 	.inst	0x212f3d42 ; undefined
 1ec:	0402003b 	.inst	0x0402003b ; undefined
 1f0:	06660601 	.inst	0x06660601 ; undefined
 1f4:	3e3d5940 	.inst	0x3e3d5940 ; undefined
 1f8:	02002f2f 	.inst	0x02002f2f ; undefined
 1fc:	3c060104 	stur	b4, [x8,#96]
 200:	2f3d3d06 	.inst	0x2f3d3d06 ; undefined
 204:	213d673d 	.inst	0x213d673d ; undefined
 208:	00393d3d 	.inst	0x00393d3d ; NYI
 20c:	41020402 	.inst	0x41020402 ; undefined
 210:	02040200 	.inst	0x02040200 ; undefined
 214:	003c7403 	.inst	0x003c7403 ; NYI
 218:	06010402 	.inst	0x06010402 ; undefined
 21c:	0f03063c 	movi	v28.2s, #0x71
 220:	02003d3c 	.inst	0x02003d3c ; undefined
 224:	3c060104 	stur	b4, [x8,#96]
 228:	3d3d3d06 	str	b6, [x8,#3919]
 22c:	213d673d 	.inst	0x213d673d ; undefined
 230:	00393d4b 	.inst	0x00393d4b ; NYI
 234:	41020402 	.inst	0x41020402 ; undefined
 238:	02040200 	.inst	0x02040200 ; undefined
 23c:	003c7403 	.inst	0x003c7403 ; NYI
 240:	06010402 	.inst	0x06010402 ; undefined
 244:	0e03063c 	dup	v28.8b, v17.b[1]
 248:	2f3e3d3c 	.inst	0x2f3e3d3c ; undefined
 24c:	03040200 	.inst	0x03040200 ; undefined
 250:	0402002f 	.inst	0x0402002f ; undefined
 254:	02006703 	.inst	0x02006703 ; undefined
 258:	002f0304 	.inst	0x002f0304 ; NYI
 25c:	39030402 	strb	w2, [x0,#193]
 260:	01040200 	.inst	0x01040200 ; undefined
 264:	41063c06 	.inst	0x41063c06 ; undefined
 268:	3e4b3d2f 	.inst	0x3e4b3d2f ; undefined
 26c:	3d755a3e 	ldr	b30, [x17,#3414]
 270:	673f9f21 	.inst	0x673f9f21 ; undefined
 274:	0330773d 	.inst	0x0330773d ; undefined
 278:	26036674 	.inst	0x26036674 ; undefined
 27c:	3d5a3f4a 	ldr	b10, [x26,#1679]
 280:	033d3e67 	.inst	0x033d3e67 ; undefined
 284:	003d3c18 	.inst	0x003d3c18 ; NYI
 288:	06010402 	.inst	0x06010402 ; undefined
 28c:	004b064a 	.inst	0x004b064a ; undefined
 290:	03020402 	.inst	0x03020402 ; undefined
 294:	02002e61 	.inst	0x02002e61 ; undefined
 298:	3c060104 	stur	b4, [x8,#96]
 29c:	3c220306 	.inst	0x3c220306 ; undefined
 2a0:	3d3d3121 	str	b1, [x9,#3916]
 2a4:	0e033d91 	umov	w17, v12.b[1]
 2a8:	212f2190 	.inst	0x212f2190 ; undefined
 2ac:	004e3a3d 	.inst	0x004e3a3d ; undefined
 2b0:	06010402 	.inst	0x06010402 ; undefined
 2b4:	04020066 	.inst	0x04020066 ; undefined
 2b8:	02002e02 	.inst	0x02002e02 ; undefined
 2bc:	00200404 	.inst	0x00200404 ; NYI
 2c0:	06040402 	.inst	0x06040402 ; undefined
 2c4:	4b683d3e 	.inst	0x4b683d3e ; undefined
 2c8:	00660a03 	.inst	0x00660a03 ; undefined
 2cc:	03020402 	.inst	0x03020402 ; undefined
 2d0:	02002e72 	.inst	0x02002e72 ; undefined
 2d4:	3c060104 	stur	b4, [x8,#96]
 2d8:	3c120306 	stur	b6, [x24,#-224]
 2dc:	4b30213d 	sub	w29, w9, w16, uxth
 2e0:	67213d21 	.inst	0x67213d21 ; undefined
 2e4:	59213f67 	.inst	0x59213f67 ; undefined
 2e8:	003e2f2f 	.inst	0x003e2f2f ; NYI
 2ec:	06010402 	.inst	0x06010402 ; undefined
 2f0:	673f064a 	.inst	0x673f064a ; undefined
 2f4:	033d6783 	.inst	0x033d6783 ; undefined
 2f8:	55033c1e 	.inst	0x55033c1e ; undefined
 2fc:	3c2e033c 	.inst	0x3c2e033c ; undefined
 300:	02040200 	.inst	0x02040200 ; undefined
 304:	003c4b03 	.inst	0x003c4b03 ; NYI
 308:	06010402 	.inst	0x06010402 ; undefined
 30c:	3503063c 	cbnz	w28, 63d0 <_start-0x79c30>
 310:	0200224a 	.inst	0x0200224a ; undefined
 314:	3c060104 	stur	b4, [x8,#96]
 318:	30212f06 	adr	x6, 428f9 <_start-0x3d707>
 31c:	913d594c 	add	x12, x10, #0xf56
 320:	3d212f21 	str	b1, [x25,#2123]
 324:	02004e3a 	.inst	0x02004e3a ; undefined
 328:	66060104 	.inst	0x66060104 ; undefined
 32c:	02040200 	.inst	0x02040200 ; undefined
 330:	0402002e 	.inst	0x0402002e ; undefined
 334:	02002004 	.inst	0x02002004 ; undefined
 338:	03060404 	.inst	0x03060404 ; undefined
 33c:	02003c12 	.inst	0x02003c12 ; undefined
 340:	002f0404 	.inst	0x002f0404 ; NYI
 344:	5a040402 	.inst	0x5a040402 ; undefined
 348:	3d2f673d 	str	b29, [x25,#3033]
 34c:	023c1903 	.inst	0x023c1903 ; undefined
 350:	01010003 	.inst	0x01010003 ; undefined
 354:	00000061 	.inst	0x00000061 ; undefined
 358:	00290002 	.inst	0x00290002 ; NYI
 35c:	01040000 	.inst	0x01040000 ; undefined
 360:	000d0efb 	.inst	0x000d0efb ; undefined
 364:	01010101 	.inst	0x01010101 ; undefined
 368:	01000000 	.inst	0x01000000 ; undefined
 36c:	6b010000 	subs	w0, w0, w1
 370:	656e7265 	.inst	0x656e7265 ; undefined
 374:	6500006c 	.inst	0x6500006c ; undefined
 378:	70656378 	adr	x24, cafe7 <__stack_top+0x2afe7>
 37c:	6e6f6974 	.inst	0x6e6f6974 ; undefined
 380:	0100632e 	.inst	0x0100632e ; undefined
 384:	00000000 	.inst	0x00000000 ; undefined
 388:	0eac0209 	saddl	v9.2d, v16.2s, v12.2s
 38c:	00000008 	.inst	0x00000008 ; undefined
 390:	30150000 	adr	x0, 2a391 <_start-0x55c6f>
 394:	3d302f2f 	str	b15, [x25,#3083]
 398:	3d3d2f3d 	str	b29, [x25,#3915]
 39c:	2f3d3d2f 	.inst	0x2f3d3d2f ; undefined
 3a0:	0402003d 	.inst	0x0402003d ; undefined
 3a4:	2f233d01 	.inst	0x2f233d01 ; undefined
 3a8:	23212121 	.inst	0x23212121 ; undefined
 3ac:	3d4b2f2f 	ldr	b15, [x25,#715]
 3b0:	3e3d2f3d 	.inst	0x3e3d2f3d ; undefined
 3b4:	01000302 	.inst	0x01000302 ; undefined
 3b8:	00004101 	.inst	0x00004101 ; undefined
 3bc:	22000200 	.inst	0x22000200 ; undefined
 3c0:	04000000 	.inst	0x04000000 ; undefined
 3c4:	0d0efb01 	.inst	0x0d0efb01 ; undefined
 3c8:	01010100 	.inst	0x01010100 ; undefined
 3cc:	00000001 	.inst	0x00000001 ; undefined
 3d0:	01000001 	.inst	0x01000001 ; undefined
 3d4:	6e72656b 	umax	v11.8h, v11.8h, v18.8h
 3d8:	00006c65 	.inst	0x00006c65 ; undefined
 3dc:	532e6d6d 	.inst	0x532e6d6d ; undefined
 3e0:	00000100 	.inst	0x00000100 ; undefined
 3e4:	02090000 	.inst	0x02090000 ; undefined
 3e8:	00080fc4 	.inst	0x00080fc4 ; undefined
 3ec:	00000000 	.inst	0x00000000 ; undefined
 3f0:	21212114 	.inst	0x21212114 ; undefined
 3f4:	21212421 	.inst	0x21212421 ; undefined
 3f8:	00010221 	.inst	0x00010221 ; undefined
 3fc:	016d0101 	.inst	0x016d0101 ; undefined
 400:	00020000 	.inst	0x00020000 ; undefined
 404:	00000040 	.inst	0x00000040 ; undefined
 408:	0efb0104 	.inst	0x0efb0104 ; undefined
 40c:	0101000d 	.inst	0x0101000d ; undefined
 410:	00000101 	.inst	0x00000101 ; undefined
 414:	00000100 	.inst	0x00000100 ; undefined
 418:	72656b01 	.inst	0x72656b01 ; undefined
 41c:	006c656e 	.inst	0x006c656e ; undefined
 420:	6c636e69 	ldnp	d9, d27, [x19,#-464]
 424:	00656475 	.inst	0x00656475 ; undefined
 428:	68637300 	.inst	0x68637300 ; undefined
 42c:	6c756465 	ldnp	d5, d25, [x3,#-176]
 430:	632e7265 	.inst	0x632e7265 ; undefined
 434:	00000100 	.inst	0x00000100 ; undefined
 438:	65686373 	.inst	0x65686373 ; undefined
 43c:	656c7564 	.inst	0x656c7564 ; undefined
 440:	00682e72 	.inst	0x00682e72 ; undefined
 444:	00000002 	.inst	0x00000002 ; undefined
 448:	e8020900 	.inst	0xe8020900 ; undefined
 44c:	0000080f 	.inst	0x0000080f ; undefined
 450:	03000000 	.inst	0x03000000 ; undefined
 454:	00130112 	.inst	0x00130112 ; undefined
 458:	06010402 	.inst	0x06010402 ; undefined
 45c:	30670658 	adr	x24, ce525 <__stack_top+0x2e525>
 460:	04020013 	.inst	0x04020013 ; undefined
 464:	06580601 	.inst	0x06580601 ; undefined
 468:	02003067 	.inst	0x02003067 ; undefined
 46c:	672f0104 	.inst	0x672f0104 ; undefined
 470:	4b4b3e3e 	sub	w30, w17, w11, lsr #15
 474:	3d2f3e3d 	str	b29, [x17,#3023]
 478:	24673121 	.inst	0x24673121 ; undefined
 47c:	0402003d 	.inst	0x0402003d ; undefined
 480:	063c0601 	.inst	0x063c0601 ; undefined
 484:	3e3d3d30 	.inst	0x3e3d3d30 ; undefined
 488:	594c3d4b 	.inst	0x594c3d4b ; undefined
 48c:	3f4b2f83 	.inst	0x3f4b2f83 ; undefined
 490:	4c3d3e9f 	.inst	0x4c3d3e9f ; undefined
 494:	24754c59 	.inst	0x24754c59 ; undefined
 498:	222f3530 	.inst	0x222f3530 ; undefined
 49c:	02002121 	.inst	0x02002121 ; undefined
 4a0:	58060104 	ldr	x4, c4c0 <_start-0x73b40>
 4a4:	4e596706 	.inst	0x4e596706 ; undefined
 4a8:	0059ad2f 	.inst	0x0059ad2f ; undefined
 4ac:	06010402 	.inst	0x06010402 ; undefined
 4b0:	0402003c 	.inst	0x0402003c ; undefined
 4b4:	4b064a02 	sub	w2, w16, w6, lsl #18
 4b8:	0402002f 	.inst	0x0402002f ; undefined
 4bc:	02001b02 	.inst	0x02001b02 ; undefined
 4c0:	3c060104 	stur	b4, [x8,#96]
 4c4:	66090306 	.inst	0x66090306 ; undefined
 4c8:	0402003d 	.inst	0x0402003d ; undefined
 4cc:	02002f03 	.inst	0x02002f03 ; undefined
 4d0:	00590304 	.inst	0x00590304 ; undefined
 4d4:	80030402 	.inst	0x80030402 ; undefined
 4d8:	01040200 	.inst	0x01040200 ; undefined
 4dc:	6a063c06 	ands	w6, w0, w6, lsl #15
 4e0:	594b5923 	.inst	0x594b5923 ; undefined
 4e4:	212f3e21 	.inst	0x212f3e21 ; undefined
 4e8:	67672f3e 	.inst	0x67672f3e ; undefined
 4ec:	242b3d4b 	.inst	0x242b3d4b ; undefined
 4f0:	59212f30 	.inst	0x59212f30 ; undefined
 4f4:	213d593d 	.inst	0x213d593d ; undefined
 4f8:	2f2f3f21 	.inst	0x2f2f3f21 ; undefined
 4fc:	4b3d4b59 	sub	w25, w26, w29, uxtw #2
 500:	04020059 	.inst	0x04020059 ; undefined
 504:	063c0601 	.inst	0x063c0601 ; undefined
 508:	0200594b 	.inst	0x0200594b ; undefined
 50c:	00460204 	.inst	0x00460204 ; undefined
 510:	06010402 	.inst	0x06010402 ; undefined
 514:	0402003c 	.inst	0x0402003c ; undefined
 518:	00380602 	.inst	0x00380602 ; NYI
 51c:	06010402 	.inst	0x06010402 ; undefined
 520:	0d03063c 	.inst	0x0d03063c ; undefined
 524:	00592f66 	.inst	0x00592f66 ; undefined
 528:	06010402 	.inst	0x06010402 ; undefined
 52c:	0402003c 	.inst	0x0402003c ; undefined
 530:	02004a02 	.inst	0x02004a02 ; undefined
 534:	48060204 	stxrh	w6, w4, [x16]
 538:	01040200 	.inst	0x01040200 ; undefined
 53c:	40063c06 	.inst	0x40063c06 ; undefined
 540:	2f21313e 	.inst	0x2f21313e ; undefined
 544:	04020059 	.inst	0x04020059 ; undefined
 548:	063c0601 	.inst	0x063c0601 ; undefined
 54c:	02003d4b 	.inst	0x02003d4b ; undefined
 550:	00700204 	.inst	0x00700204 ; undefined
 554:	06010402 	.inst	0x06010402 ; undefined
 558:	2143063c 	.inst	0x2143063c ; undefined
 55c:	3d4b3d21 	ldr	b1, [x9,#719]
 560:	4b23213d 	sub	w29, w9, w3, uxth
 564:	213d3d59 	.inst	0x213d3d59 ; undefined
 568:	02024123 	.inst	0x02024123 ; undefined
 56c:	bc010100 	stur	s0, [x8,#16]
 570:	02000000 	.inst	0x02000000 ; undefined
 574:	00004000 	.inst	0x00004000 ; undefined
 578:	fb010400 	.inst	0xfb010400 ; undefined
 57c:	01000d0e 	.inst	0x01000d0e ; undefined
 580:	00010101 	.inst	0x00010101 ; undefined
 584:	00010000 	.inst	0x00010000 ; undefined
 588:	656b0100 	.inst	0x656b0100 ; undefined
 58c:	6c656e72 	ldnp	d18, d27, [x19,#-432]
 590:	636e6900 	.inst	0x636e6900 ; undefined
 594:	6564756c 	.inst	0x6564756c ; undefined
 598:	65640000 	.inst	0x65640000 ; undefined
 59c:	665f6f6d 	.inst	0x665f6f6d ; undefined
 5a0:	2e636e75 	umin	v21.4h, v19.4h, v3.4h
 5a4:	00010063 	.inst	0x00010063 ; undefined
 5a8:	68637300 	.inst	0x68637300 ; undefined
 5ac:	6c756465 	ldnp	d5, d25, [x3,#-176]
 5b0:	682e7265 	.inst	0x682e7265 ; undefined
 5b4:	00000200 	.inst	0x00000200 ; undefined
 5b8:	02090000 	.inst	0x02090000 ; undefined
 5bc:	00081774 	.inst	0x00081774 ; undefined
 5c0:	00000000 	.inst	0x00000000 ; undefined
 5c4:	3d3d2f17 	str	b23, [x24,#3915]
 5c8:	3d3d3e3d 	str	b29, [x17,#3919]
 5cc:	2f3f3d3d 	.inst	0x2f3f3d3d ; undefined
 5d0:	03040200 	.inst	0x03040200 ; undefined
 5d4:	0402002f 	.inst	0x0402002f ; undefined
 5d8:	02003d03 	.inst	0x02003d03 ; undefined
 5dc:	00590304 	.inst	0x00590304 ; undefined
 5e0:	3d030402 	str	b2, [x0,#193]
 5e4:	03040200 	.inst	0x03040200 ; undefined
 5e8:	0402002f 	.inst	0x0402002f ; undefined
 5ec:	02003d03 	.inst	0x02003d03 ; undefined
 5f0:	003d0304 	.inst	0x003d0304 ; NYI
 5f4:	03030402 	.inst	0x03030402 ; undefined
 5f8:	02002079 	.inst	0x02002079 ; undefined
 5fc:	3c060104 	stur	b4, [x8,#96]
 600:	3c090306 	stur	b6, [x24,#144]
 604:	003d3e21 	.inst	0x003d3e21 ; NYI
 608:	2f030402 	mvni	v2.2s, #0x60
 60c:	03040200 	.inst	0x03040200 ; undefined
 610:	04020081 	.inst	0x04020081 ; undefined
 614:	063c0601 	.inst	0x063c0601 ; undefined
 618:	0402004d 	.inst	0x0402004d ; undefined
 61c:	2f318301 	.inst	0x2f318301 ; undefined
 620:	3e214b91 	.inst	0x3e214b91 ; undefined
 624:	0402002f 	.inst	0x0402002f ; undefined
 628:	02028301 	.inst	0x02028301 ; undefined
 62c:	4f010100 	.inst	0x4f010100 ; undefined
 630:	02000000 	.inst	0x02000000 ; undefined
 634:	00002500 	.inst	0x00002500 ; undefined
 638:	fb010400 	.inst	0xfb010400 ; undefined
 63c:	01000d0e 	.inst	0x01000d0e ; undefined
 640:	00010101 	.inst	0x00010101 ; undefined
 644:	00010000 	.inst	0x00010000 ; undefined
 648:	656b0100 	.inst	0x656b0100 ; undefined
 64c:	6c656e72 	ldnp	d18, d27, [x19,#-432]
 650:	63730000 	.inst	0x63730000 ; undefined
 654:	2e646568 	umax	v8.4h, v11.4h, v4.4h
 658:	00010053 	.inst	0x00010053 ; undefined
 65c:	09000000 	.inst	0x09000000 ; undefined
 660:	08196402 	stxrb	w25, w2, [x0]
 664:	00000000 	.inst	0x00000000 ; undefined
 668:	21211600 	.inst	0x21211600 ; undefined
 66c:	21212121 	.inst	0x21212121 ; undefined
 670:	21212221 	.inst	0x21212221 ; undefined
 674:	21212121 	.inst	0x21212121 ; undefined
 678:	24212121 	.inst	0x24212121 ; undefined
 67c:	00010221 	.inst	0x00010221 ; undefined
 680:	00880101 	.inst	0x00880101 ; undefined
 684:	00020000 	.inst	0x00020000 ; undefined
 688:	0000002c 	.inst	0x0000002c ; undefined
 68c:	0efb0104 	.inst	0x0efb0104 ; undefined
 690:	0101000d 	.inst	0x0101000d ; undefined
 694:	00000101 	.inst	0x00000101 ; undefined
 698:	00000100 	.inst	0x00000100 ; undefined
 69c:	72656b01 	.inst	0x72656b01 ; undefined
 6a0:	006c656e 	.inst	0x006c656e ; undefined
 6a4:	70637800 	adr	x0, c75a7 <__stack_top+0x275a7>
 6a8:	61685f74 	.inst	0x61685f74 ; undefined
 6ac:	656c646e 	.inst	0x656c646e ; undefined
 6b0:	00532e72 	.inst	0x00532e72 ; undefined
 6b4:	00000001 	.inst	0x00000001 ; undefined
 6b8:	00020900 	.inst	0x00020900 ; undefined
 6bc:	00000820 	.inst	0x00000820 ; undefined
 6c0:	03000000 	.inst	0x03000000 ; undefined
 6c4:	080100c4 	stxrb	w1, w4, [x6]
 6c8:	4b08214b 	sub	w11, w10, w8, lsl #8
 6cc:	214b0823 	.inst	0x214b0823 ; undefined
 6d0:	08234b08 	.inst	0x08234b08 ; undefined
 6d4:	2121214b 	.inst	0x2121214b ; undefined
 6d8:	22212128 	.inst	0x22212128 ; undefined
 6dc:	24212123 	.inst	0x24212123 ; undefined
 6e0:	024b0821 	.inst	0x024b0821 ; undefined
 6e4:	081702f2 	stxrb	w23, w18, [x23]
 6e8:	08e608e6 	.inst	0x08e608e6 ; undefined
 6ec:	08e708e6 	.inst	0x08e708e6 ; undefined
 6f0:	08e608e6 	.inst	0x08e608e6 ; undefined
 6f4:	08e708e6 	.inst	0x08e708e6 ; undefined
 6f8:	08e608e6 	.inst	0x08e608e6 ; undefined
 6fc:	08e708e6 	.inst	0x08e708e6 ; undefined
 700:	08e608e6 	.inst	0x08e608e6 ; undefined
 704:	21e908e6 	.inst	0x21e908e6 ; undefined
 708:	00010221 	.inst	0x00010221 ; undefined
 70c:	01e60101 	.inst	0x01e60101 ; undefined
 710:	00020000 	.inst	0x00020000 ; undefined
 714:	00000024 	.inst	0x00000024 ; undefined
 718:	0efb0104 	.inst	0x0efb0104 ; undefined
 71c:	0101000d 	.inst	0x0101000d ; undefined
 720:	00000101 	.inst	0x00000101 ; undefined
 724:	00000100 	.inst	0x00000100 ; undefined
 728:	72656b01 	.inst	0x72656b01 ; undefined
 72c:	006c656e 	.inst	0x006c656e ; undefined
 730:	69706300 	ldpsw	x0, x24, [x24,#-128]
 734:	00632e6f 	.inst	0x00632e6f ; undefined
 738:	00000001 	.inst	0x00000001 ; undefined
 73c:	0c020900 	.inst	0x0c020900 ; undefined
 740:	00000830 	.inst	0x00000830 ; undefined
 744:	03000000 	.inst	0x03000000 ; undefined
 748:	3d3d012c 	str	b12, [x9,#3904]
 74c:	214c2f3d 	.inst	0x214c2f3d ; undefined
 750:	3d673d21 	ldr	b1, [x9,#2511]
 754:	04020068 	.inst	0x04020068 ; undefined
 758:	00580601 	.inst	0x00580601 ; undefined
 75c:	90020402 	adrp	x2, 4080000 <__stack_top+0x3fe0000>
 760:	04040200 	.inst	0x04040200 ; undefined
 764:	04020020 	.inst	0x04020020 ; undefined
 768:	003d0604 	.inst	0x003d0604 ; NYI
 76c:	06010402 	.inst	0x06010402 ; undefined
 770:	0402004a 	.inst	0x0402004a ; undefined
 774:	02008202 	.inst	0x02008202 ; undefined
 778:	00200404 	.inst	0x00200404 ; NYI
 77c:	06040402 	.inst	0x06040402 ; undefined
 780:	0402003e 	.inst	0x0402003e ; undefined
 784:	02003e04 	.inst	0x02003e04 ; undefined
 788:	752f0404 	.inst	0x752f0404 ; undefined
 78c:	2f4b233d 	umlal	v29.4s, v25.4h, v11.h[0]
 790:	00672f59 	.inst	0x00672f59 ; undefined
 794:	30020402 	adr	x2, 4815 <_start-0x7b7eb>
 798:	02040200 	.inst	0x02040200 ; undefined
 79c:	04020054 	.inst	0x04020054 ; undefined
 7a0:	063c0601 	.inst	0x063c0601 ; undefined
 7a4:	4b223d51 	.inst	0x4b223d51 ; undefined
 7a8:	4c2f3e21 	.inst	0x4c2f3e21 ; undefined
 7ac:	673d2121 	.inst	0x673d2121 ; undefined
 7b0:	0200683d 	.inst	0x0200683d ; undefined
 7b4:	58060104 	ldr	x4, c7d4 <_start-0x7382c>
 7b8:	02040200 	.inst	0x02040200 ; undefined
 7bc:	04020090 	.inst	0x04020090 ; undefined
 7c0:	02002004 	.inst	0x02002004 ; undefined
 7c4:	3d060404 	str	b4, [x0,#385]
 7c8:	01040200 	.inst	0x01040200 ; undefined
 7cc:	02004a06 	.inst	0x02004a06 ; undefined
 7d0:	00820204 	.inst	0x00820204 ; undefined
 7d4:	20040402 	.inst	0x20040402 ; undefined
 7d8:	04040200 	.inst	0x04040200 ; undefined
 7dc:	02003e06 	.inst	0x02003e06 ; undefined
 7e0:	003e0404 	.inst	0x003e0404 ; NYI
 7e4:	2f040402 	mvni	v2.2s, #0x80
 7e8:	4c3e2f77 	.inst	0x4c3e2f77 ; undefined
 7ec:	2078034b 	.inst	0x2078034b ; undefined
 7f0:	2f200a03 	.inst	0x2f200a03 ; undefined
 7f4:	3d3d303e 	str	b30, [x1,#3916]
 7f8:	4d3d2f30 	.inst	0x4d3d2f30 ; undefined
 7fc:	673d2121 	.inst	0x673d2121 ; undefined
 800:	0200683d 	.inst	0x0200683d ; undefined
 804:	58060104 	ldr	x4, c824 <_start-0x737dc>
 808:	02040200 	.inst	0x02040200 ; undefined
 80c:	04020090 	.inst	0x04020090 ; undefined
 810:	02002004 	.inst	0x02002004 ; undefined
 814:	3d060404 	str	b4, [x0,#385]
 818:	01040200 	.inst	0x01040200 ; undefined
 81c:	02004a06 	.inst	0x02004a06 ; undefined
 820:	00820204 	.inst	0x00820204 ; undefined
 824:	20040402 	.inst	0x20040402 ; undefined
 828:	04040200 	.inst	0x04040200 ; undefined
 82c:	02003e06 	.inst	0x02003e06 ; undefined
 830:	003e0404 	.inst	0x003e0404 ; NYI
 834:	2f040402 	mvni	v2.2s, #0x80
 838:	4b233d75 	.inst	0x4b233d75 ; undefined
 83c:	0200672f 	.inst	0x0200672f ; undefined
 840:	002f0304 	.inst	0x002f0304 ; NYI
 844:	81030402 	.inst	0x81030402 ; undefined
 848:	01040200 	.inst	0x01040200 ; undefined
 84c:	4d063c06 	.inst	0x4d063c06 ; undefined
 850:	214b3e3d 	.inst	0x214b3e3d ; undefined
 854:	212f3d3e 	.inst	0x212f3d3e ; undefined
 858:	3d21763d 	str	b29, [x17,#2141]
 85c:	031f3f9c 	.inst	0x031f3f9c ; undefined
 860:	0344207a 	.inst	0x0344207a ; undefined
 864:	6728207a 	.inst	0x6728207a ; undefined
 868:	592f3e4c 	.inst	0x592f3e4c ; undefined
 86c:	673d593d 	.inst	0x673d593d ; undefined
 870:	3d3e592f 	str	b15, [x9,#3990]
 874:	3d9f213d 	str	q29, [x9,#31872]
 878:	001f409b 	.inst	0x001f409b ; undefined
 87c:	03020402 	.inst	0x03020402 ; undefined
 880:	02002077 	.inst	0x02002077 ; undefined
 884:	3c060104 	stur	b4, [x8,#96]
 888:	4a0d0306 	eor	w6, w24, w13
 88c:	3d4b3021 	ldr	b1, [x1,#716]
 890:	214b3d3d 	.inst	0x214b3d3d ; undefined
 894:	3d212123 	str	b3, [x9,#2120]
 898:	00683d67 	.inst	0x00683d67 ; undefined
 89c:	06010402 	.inst	0x06010402 ; undefined
 8a0:	04020058 	.inst	0x04020058 ; undefined
 8a4:	02009002 	.inst	0x02009002 ; undefined
 8a8:	00200404 	.inst	0x00200404 ; NYI
 8ac:	06040402 	.inst	0x06040402 ; undefined
 8b0:	0402003d 	.inst	0x0402003d ; undefined
 8b4:	004a0601 	.inst	0x004a0601 ; undefined
 8b8:	82020402 	.inst	0x82020402 ; undefined
 8bc:	04040200 	.inst	0x04040200 ; undefined
 8c0:	04020020 	.inst	0x04020020 ; undefined
 8c4:	003e0604 	.inst	0x003e0604 ; NYI
 8c8:	3e040402 	.inst	0x3e040402 ; undefined
 8cc:	04040200 	.inst	0x04040200 ; undefined
 8d0:	313d752f 	adds	w15, w9, #0xf5d
 8d4:	3d592f4b 	ldr	b11, [x26,#1611]
 8d8:	2b253d2f 	.inst	0x2b253d2f ; undefined
 8dc:	0402004b 	.inst	0x0402004b ; undefined
 8e0:	02002303 	.inst	0x02002303 ; undefined
 8e4:	009d0304 	.inst	0x009d0304 ; undefined
 8e8:	06010402 	.inst	0x06010402 ; undefined
 8ec:	3d4d063c 	ldr	b28, [x17,#833]
 8f0:	02213d4b 	.inst	0x02213d4b ; undefined
 8f4:	01010002 	.inst	0x01010002 ; undefined
 8f8:	00000073 	.inst	0x00000073 ; undefined
 8fc:	00240002 	.inst	0x00240002 ; NYI
 900:	01040000 	.inst	0x01040000 ; undefined
 904:	000d0efb 	.inst	0x000d0efb ; undefined
 908:	01010101 	.inst	0x01010101 ; undefined
 90c:	01000000 	.inst	0x01000000 ; undefined
 910:	6b010000 	subs	w0, w0, w1
 914:	656e7265 	.inst	0x656e7265 ; undefined
 918:	6d00006c 	stp	d12, d0, [x3]
 91c:	2e6e6961 	.inst	0x2e6e6961 ; undefined
 920:	00010063 	.inst	0x00010063 ; undefined
 924:	09000000 	.inst	0x09000000 ; undefined
 928:	0839f002 	.inst	0x0839f002 ; undefined
 92c:	00000000 	.inst	0x00000000 ; undefined
 930:	010d0300 	.inst	0x010d0300 ; undefined
 934:	2f3e3d2f 	.inst	0x2f3e3d2f ; undefined
 938:	3d3d3d3d 	str	b29, [x9,#3919]
 93c:	67592f3e 	.inst	0x67592f3e ; undefined
 940:	4b4b133e 	sub	w30, w25, w11, lsr #4
 944:	2f3d2f30 	.inst	0x2f3d2f30 ; undefined
 948:	2f3c0c03 	.inst	0x2f3c0c03 ; undefined
 94c:	303d2221 	adr	x1, 7ad91 <_start-0x526f>
 950:	67303d3e 	.inst	0x67303d3e ; undefined
 954:	67306730 	.inst	0x67306730 ; undefined
 958:	67306730 	.inst	0x67306730 ; undefined
 95c:	67306730 	.inst	0x67306730 ; undefined
 960:	3e673021 	.inst	0x3e673021 ; undefined
 964:	3d332167 	str	b7, [x11,#3272]
 968:	01023e2f 	.inst	0x01023e2f ; undefined
 96c:	53010100 	lsl	w0, w8, #31
 970:	02000000 	.inst	0x02000000 ; undefined
 974:	00002600 	.inst	0x00002600 ; undefined
 978:	fb010400 	.inst	0xfb010400 ; undefined
 97c:	01000d0e 	.inst	0x01000d0e ; undefined
 980:	00010101 	.inst	0x00010101 ; undefined
 984:	00010000 	.inst	0x00010000 ; undefined
 988:	656b0100 	.inst	0x656b0100 ; undefined
 98c:	6c656e72 	ldnp	d18, d27, [x19,#-432]
 990:	74730000 	.inst	0x74730000 ; undefined
 994:	676e6972 	.inst	0x676e6972 ; undefined
 998:	0100632e 	.inst	0x0100632e ; undefined
 99c:	00000000 	.inst	0x00000000 ; undefined
 9a0:	3c780209 	.inst	0x3c780209 ; undefined
 9a4:	00000008 	.inst	0x00000008 ; undefined
 9a8:	3d010000 	str	b0, [x0,#64]
 9ac:	04020021 	.inst	0x04020021 ; undefined
 9b0:	06660601 	.inst	0x06660601 ; undefined
 9b4:	4f393d2f 	.inst	0x4f393d2f ; undefined
 9b8:	01040200 	.inst	0x01040200 ; undefined
 9bc:	2f066606 	mvni	v6.2s, #0xd0, lsl #24
 9c0:	00020221 	.inst	0x00020221 ; undefined
 9c4:	00690101 	.inst	0x00690101 ; undefined
 9c8:	00020000 	.inst	0x00020000 ; undefined
 9cc:	0000003a 	.inst	0x0000003a ; undefined
 9d0:	0efb0104 	.inst	0x0efb0104 ; undefined
 9d4:	0101000d 	.inst	0x0101000d ; undefined
 9d8:	00000101 	.inst	0x00000101 ; undefined
 9dc:	00000100 	.inst	0x00000100 ; undefined
 9e0:	72656b01 	.inst	0x72656b01 ; undefined
 9e4:	006c656e 	.inst	0x006c656e ; undefined
 9e8:	6c636e69 	ldnp	d9, d27, [x19,#-464]
 9ec:	00656475 	.inst	0x00656475 ; undefined
 9f0:	73797300 	.inst	0x73797300 ; undefined
 9f4:	0100632e 	.inst	0x0100632e ; undefined
 9f8:	63730000 	.inst	0x63730000 ; undefined
 9fc:	75646568 	.inst	0x75646568 ; undefined
 a00:	2e72656c 	umax	v12.4h, v11.4h, v18.4h
 a04:	00020068 	.inst	0x00020068 ; undefined
 a08:	09000000 	.inst	0x09000000 ; undefined
 a0c:	083cfc02 	caspl	w28, w29, w2, w3, [x0]
 a10:	00000000 	.inst	0x00000000 ; undefined
 a14:	4b131500 	sub	w0, w8, w19, lsl #5
 a18:	3e4b4b22 	.inst	0x3e4b4b22 ; undefined
 a1c:	4b3e2f4b 	sub	w11, w26, w30, uxth #3
 a20:	212f3e3d 	.inst	0x212f3e3d ; undefined
 a24:	004b2f3e 	.inst	0x004b2f3e ; undefined
 a28:	3d010402 	str	b2, [x0,#65]
 a2c:	02025922 	.inst	0x02025922 ; undefined
 a30:	3e010100 	.inst	0x3e010100 ; undefined
 a34:	02000000 	.inst	0x02000000 ; undefined
 a38:	00002500 	.inst	0x00002500 ; undefined
 a3c:	fb010400 	.inst	0xfb010400 ; undefined
 a40:	01000d0e 	.inst	0x01000d0e ; undefined
 a44:	00010101 	.inst	0x00010101 ; undefined
 a48:	00010000 	.inst	0x00010000 ; undefined
 a4c:	656b0100 	.inst	0x656b0100 ; undefined
 a50:	6c656e72 	ldnp	d18, d27, [x19,#-432]
 a54:	6e650000 	uaddl2	v0.4s, v0.8h, v5.8h
 a58:	2e797274 	uabdl	v20.4s, v19.4h, v25.4h
 a5c:	00010053 	.inst	0x00010053 ; undefined
 a60:	09000000 	.inst	0x09000000 ; undefined
 a64:	083de402 	.inst	0x083de402 ; undefined
 a68:	00000000 	.inst	0x00000000 ; undefined
 a6c:	21211600 	.inst	0x21211600 ; undefined
 a70:	01000102 	.inst	0x01000102 ; undefined
 a74:	0000b701 	.inst	0x0000b701 ; undefined
 a78:	25000200 	.inst	0x25000200 ; undefined
 a7c:	04000000 	.inst	0x04000000 ; undefined
 a80:	0d0efb01 	.inst	0x0d0efb01 ; undefined
 a84:	01010100 	.inst	0x01010100 ; undefined
 a88:	00000001 	.inst	0x00000001 ; undefined
 a8c:	01000001 	.inst	0x01000001 ; undefined
 a90:	6e72656b 	umax	v11.8h, v11.8h, v18.8h
 a94:	00006c65 	.inst	0x00006c65 ; undefined
 a98:	6c697475 	ldnp	d21, d29, [x3,#-368]
 a9c:	00632e73 	.inst	0x00632e73 ; undefined
 aa0:	00000001 	.inst	0x00000001 ; undefined
 aa4:	f0020900 	adrp	x0, 4123000 <__stack_top+0x4083000>
 aa8:	0000083d 	.inst	0x0000083d ; undefined
 aac:	14000000 	b	aac <_start-0x7f554>
 ab0:	2221213d 	.inst	0x2221213d ; undefined
 ab4:	04020021 	.inst	0x04020021 ; undefined
 ab8:	063c0601 	.inst	0x063c0601 ; undefined
 abc:	673d3067 	.inst	0x673d3067 ; undefined
 ac0:	02003d92 	.inst	0x02003d92 ; undefined
 ac4:	66060104 	.inst	0x66060104 ; undefined
 ac8:	02040200 	.inst	0x02040200 ; undefined
 acc:	04020066 	.inst	0x04020066 ; undefined
 ad0:	02005804 	.inst	0x02005804 ; undefined
 ad4:	21060404 	.inst	0x21060404 ; undefined
 ad8:	3c74035a 	.inst	0x3c74035a ; undefined
 adc:	00660f03 	.inst	0x00660f03 ; undefined
 ae0:	06010402 	.inst	0x06010402 ; undefined
 ae4:	2159063c 	.inst	0x2159063c ; undefined
 ae8:	3d223d31 	str	b17, [x9,#2191]
 aec:	add72185 	ldp	q5, q8, [x12,#736]!
 af0:	004d418d 	.inst	0x004d418d ; undefined
 af4:	4b030402 	sub	w2, w0, w3, lsl #1
 af8:	03040200 	.inst	0x03040200 ; undefined
 afc:	04020059 	.inst	0x04020059 ; undefined
 b00:	0200bb03 	.inst	0x0200bb03 ; undefined
 b04:	008d0304 	.inst	0x008d0304 ; undefined
 b08:	06010402 	.inst	0x06010402 ; undefined
 b0c:	3e87063c 	.inst	0x3e87063c ; undefined
 b10:	02003e3e 	.inst	0x02003e3e ; undefined
 b14:	002f0304 	.inst	0x002f0304 ; NYI
 b18:	67030402 	.inst	0x67030402 ; undefined
 b1c:	03040200 	.inst	0x03040200 ; undefined
 b20:	0402003a 	.inst	0x0402003a ; undefined
 b24:	063c0601 	.inst	0x063c0601 ; undefined
 b28:	022f2f4e 	.inst	0x022f2f4e ; undefined
 b2c:	01010002 	.inst	0x01010002 ; undefined
 b30:	0000005f 	.inst	0x0000005f ; undefined
 b34:	00290002 	.inst	0x00290002 ; NYI
 b38:	01040000 	.inst	0x01040000 ; undefined
 b3c:	000d0efb 	.inst	0x000d0efb ; undefined
 b40:	01010101 	.inst	0x01010101 ; undefined
 b44:	01000000 	.inst	0x01000000 ; undefined
 b48:	6b010000 	subs	w0, w0, w1
 b4c:	656e7265 	.inst	0x656e7265 ; undefined
 b50:	7800006c 	sturh	w12, [x3]
 b54:	5f747063 	sqdmlsl	s3, h3, v4.h[3]
 b58:	636e7566 	.inst	0x636e7566 ; undefined
 b5c:	0100532e 	.inst	0x0100532e ; undefined
 b60:	00000000 	.inst	0x00000000 ; undefined
 b64:	41480209 	.inst	0x41480209 ; undefined
 b68:	00000008 	.inst	0x00000008 ; undefined
 b6c:	21160000 	.inst	0x21160000 ; undefined
 b70:	21212121 	.inst	0x21212121 ; undefined
 b74:	21242121 	.inst	0x21242121 ; undefined
 b78:	21212121 	.inst	0x21212121 ; undefined
 b7c:	21212124 	.inst	0x21212124 ; undefined
 b80:	21212121 	.inst	0x21212121 ; undefined
 b84:	21242121 	.inst	0x21242121 ; undefined
 b88:	21212121 	.inst	0x21212121 ; undefined
 b8c:	03022121 	.inst	0x03022121 ; undefined
 b90:	Address 0x0000000000000b90 is out of bounds.


Disassembly of section .debug_info:

0000000000000000 <.debug_info>:
       0:	00000057 	.inst	0x00000057 ; undefined
       4:	00000002 	.inst	0x00000002 ; undefined
       8:	01080000 	.inst	0x01080000 ; undefined
       c:	00000000 	.inst	0x00000000 ; undefined
      10:	00080000 	.inst	0x00080000 ; undefined
      14:	00000000 	.inst	0x00000000 ; undefined
      18:	00080060 	.inst	0x00080060 ; undefined
      1c:	00000000 	.inst	0x00000000 ; undefined
      20:	6e72656b 	umax	v11.8h, v11.8h, v18.8h
      24:	732f6c65 	.inst	0x732f6c65 ; undefined
      28:	74726174 	.inst	0x74726174 ; undefined
      2c:	2f00532e 	.inst	0x2f00532e ; undefined
      30:	656d6f68 	.inst	0x656d6f68 ; undefined
      34:	7261732f 	.inst	0x7261732f ; undefined
      38:	69686361 	ldpsw	x1, x24, [x27,#-192]
      3c:	636e2f75 	.inst	0x636e2f75 ; undefined
      40:	6f2f7574 	uqshl	v20.4s, v11.4s, #15
      44:	30326373 	adr	x19, 64cb1 <_start-0x1b34f>
      48:	47003132 	.inst	0x47003132 ; undefined
      4c:	4120554e 	.inst	0x4120554e ; undefined
      50:	2e322053 	usubl	v19.8h, v2.8b, v18.8b
      54:	312e3632 	adds	w18, w17, #0xb8d
      58:	a0800100 	.inst	0xa0800100 ; undefined
      5c:	04000002 	.inst	0x04000002 ; undefined
      60:	00001400 	.inst	0x00001400 ; undefined
      64:	b1010800 	adds	x0, x0, #0x42
      68:	0c000000 	st4	{v0.8b-v3.8b}, [x0]
      6c:	00000014 	.inst	0x00000014 ; undefined
      70:	00000031 	.inst	0x00000031 ; undefined
      74:	00080060 	.inst	0x00080060 ; undefined
      78:	00000000 	.inst	0x00000000 ; undefined
      7c:	00000530 	.inst	0x00000530 ; undefined
      80:	00000000 	.inst	0x00000000 ; undefined
      84:	00000051 	.inst	0x00000051 ; undefined
      88:	00008e02 	.inst	0x00008e02 ; undefined
      8c:	602e0100 	.inst	0x602e0100 ; undefined
      90:	00000800 	.inst	0x00000800 ; undefined
      94:	44000000 	.inst	0x44000000 ; undefined
      98:	00000001 	.inst	0x00000001 ; undefined
      9c:	01000000 	.inst	0x01000000 ; undefined
      a0:	0000769c 	.inst	0x0000769c ; undefined
      a4:	00720300 	.inst	0x00720300 ; undefined
      a8:	00763001 	.inst	0x00763001 ; undefined
      ac:	63010000 	.inst	0x63010000 ; undefined
      b0:	08017004 	stxrb	w1, w4, [x0]
      b4:	00000000 	.inst	0x00000000 ; undefined
      b8:	00001000 	.inst	0x00001000 ; undefined
      bc:	00000000 	.inst	0x00000000 ; undefined
      c0:	6d740300 	ldp	d0, d0, [x24,#-192]
      c4:	48010070 	stxrh	w1, w16, [x3]
      c8:	0000007d 	.inst	0x0000007d ; undefined
      cc:	007f9102 	.inst	0x007f9102 ; undefined
      d0:	07040500 	.inst	0x07040500 ; undefined
      d4:	00000052 	.inst	0x00000052 ; undefined
      d8:	f1080105 	subs	x5, x8, #0x200
      dc:	06000004 	.inst	0x06000004 ; undefined
      e0:	000000a7 	.inst	0x000000a7 ; undefined
      e4:	01a44f01 	.inst	0x01a44f01 ; undefined
      e8:	00000008 	.inst	0x00000008 ; undefined
      ec:	00400000 	.inst	0x00400000 ; undefined
      f0:	00000000 	.inst	0x00000000 ; undefined
      f4:	9c010000 	ldr	q0, 20f4 <_start-0x7df0c>
      f8:	000000ae 	.inst	0x000000ae ; undefined
      fc:	01006307 	.inst	0x01006307 ; undefined
     100:	0000764f 	.inst	0x0000764f ; undefined
     104:	7c910200 	.inst	0x7c910200 ; undefined
     108:	00f50800 	.inst	0x00f50800 ; undefined
     10c:	59010000 	.inst	0x59010000 ; undefined
     110:	0000007d 	.inst	0x0000007d ; undefined
     114:	000801e4 	.inst	0x000801e4 ; undefined
     118:	00000000 	.inst	0x00000000 ; undefined
     11c:	00000050 	.inst	0x00000050 ; undefined
     120:	00000000 	.inst	0x00000000 ; undefined
     124:	00dc9c01 	.inst	0x00dc9c01 ; undefined
     128:	72030000 	ands	w0, w0, #0x20000000
     12c:	7d5a0100 	ldr	h0, [x8,#3328]
     130:	02000000 	.inst	0x02000000 ; undefined
     134:	09007f91 	.inst	0x09007f91 ; undefined
     138:	00000084 	.inst	0x00000084 ; undefined
     13c:	02346601 	.inst	0x02346601 ; undefined
     140:	00000008 	.inst	0x00000008 ; undefined
     144:	00580000 	.inst	0x00580000 ; undefined
     148:	00000000 	.inst	0x00000000 ; undefined
     14c:	9c010000 	ldr	q0, 214c <_start-0x7deb4>
     150:	00000106 	.inst	0x00000106 ; undefined
     154:	01007307 	.inst	0x01007307 ; undefined
     158:	00010666 	.inst	0x00010666 ; undefined
     15c:	78910200 	ldursh	x0, [x16,#-240]
     160:	7d080a00 	str	h0, [x16,#1028]
     164:	09000000 	.inst	0x09000000 ; undefined
     168:	00000022 	.inst	0x00000022 ; undefined
     16c:	028c6f01 	.inst	0x028c6f01 ; undefined
     170:	00000008 	.inst	0x00000008 ; undefined
     174:	008c0000 	.inst	0x008c0000 ; undefined
     178:	00000000 	.inst	0x00000000 ; undefined
     17c:	9c010000 	ldr	q0, 217c <_start-0x7de84>
     180:	00000160 	.inst	0x00000160 ; undefined
     184:	0000000b 	.inst	0x0000000b ; undefined
     188:	066f0100 	.inst	0x066f0100 ; undefined
     18c:	02000001 	.inst	0x02000001 ; undefined
     190:	980b6891 	ldrsw	x17, 16ea0 <_start-0x69160>
     194:	01000000 	.inst	0x01000000 ; undefined
     198:	0001606f 	.inst	0x0001606f ; undefined
     19c:	64910200 	.inst	0x64910200 ; undefined
     1a0:	0001330c 	.inst	0x0001330c ; undefined
     1a4:	60700100 	.inst	0x60700100 ; undefined
     1a8:	02000001 	.inst	0x02000001 ; undefined
     1ac:	63037c91 	.inst	0x63037c91 ; undefined
     1b0:	7d710100 	ldr	h0, [x8,#6272]
     1b4:	02000000 	.inst	0x02000000 ; undefined
     1b8:	0d007b91 	st3	{v17.h-v19.h}[3], [x28]
     1bc:	6e690504 	uhadd	v4.8h, v8.8h, v9.8h
     1c0:	06090074 	.inst	0x06090074 ; undefined
     1c4:	01000000 	.inst	0x01000000 ; undefined
     1c8:	0803187f 	stxrb	w3, wzr, [x3]
     1cc:	00000000 	.inst	0x00000000 ; undefined
     1d0:	00003000 	.inst	0x00003000 ; undefined
     1d4:	00000000 	.inst	0x00000000 ; undefined
     1d8:	9e9c0100 	.inst	0x9e9c0100 ; undefined
     1dc:	07000001 	.inst	0x07000001 ; undefined
     1e0:	7f010069 	.inst	0x7f010069 ; undefined
     1e4:	00000160 	.inst	0x00000160 ; undefined
     1e8:	036c9102 	.inst	0x036c9102 ; undefined
     1ec:	01006863 	.inst	0x01006863 ; undefined
     1f0:	00010680 	.inst	0x00010680 ; undefined
     1f4:	78910200 	ldursh	x0, [x16,#-240]
     1f8:	005f0900 	.inst	0x005f0900 ; undefined
     1fc:	85010000 	.inst	0x85010000 ; undefined
     200:	00080348 	.inst	0x00080348 ; undefined
     204:	00000000 	.inst	0x00000000 ; undefined
     208:	000000a0 	.inst	0x000000a0 ; undefined
     20c:	00000000 	.inst	0x00000000 ; undefined
     210:	01ee9c01 	.inst	0x01ee9c01 ; undefined
     214:	69070000 	.inst	0x69070000 ; undefined
     218:	ee850100 	.inst	0xee850100 ; undefined
     21c:	02000001 	.inst	0x02000001 ; undefined
     220:	6e036891 	ext	v17.16b, v4.16b, v3.16b, #13
     224:	76860100 	.inst	0x76860100 ; undefined
     228:	02000000 	.inst	0x02000000 ; undefined
     22c:	63037491 	.inst	0x63037491 ; undefined
     230:	60870100 	.inst	0x60870100 ; undefined
     234:	02000001 	.inst	0x02000001 ; undefined
     238:	c10c7c91 	.inst	0xc10c7c91 ; undefined
     23c:	01000002 	.inst	0x01000002 ; undefined
     240:	00016088 	.inst	0x00016088 ; undefined
     244:	78910200 	ldursh	x0, [x16,#-240]
     248:	07080500 	.inst	0x07080500 ; undefined
     24c:	0000004d 	.inst	0x0000004d ; undefined
     250:	00006d0e 	.inst	0x00006d0e ; undefined
     254:	60920100 	.inst	0x60920100 ; undefined
     258:	e8000001 	.inst	0xe8000001 ; undefined
     25c:	00000803 	.inst	0x00000803 ; undefined
     260:	c4000000 	.inst	0xc4000000 ; undefined
     264:	00000000 	.inst	0x00000000 ; undefined
     268:	01000000 	.inst	0x01000000 ; undefined
     26c:	00025d9c 	.inst	0x00025d9c ; undefined
     270:	00730700 	.inst	0x00730700 ; undefined
     274:	01069201 	.inst	0x01069201 ; undefined
     278:	91020000 	add	x0, x0, #0x80
     27c:	04ba0b68 	.inst	0x04ba0b68 ; undefined
     280:	92010000 	and	x0, x0, #0x8000000080000000
     284:	00000160 	.inst	0x00000160 ; undefined
     288:	0b649102 	.inst	0x0b649102 ; undefined
     28c:	0000007c 	.inst	0x0000007c ; undefined
     290:	01609201 	.inst	0x01609201 ; undefined
     294:	91020000 	add	x0, x0, #0x80
     298:	04000460 	.inst	0x04000460 ; undefined
     29c:	00000008 	.inst	0x00000008 ; undefined
     2a0:	00a00000 	.inst	0x00a00000 ; undefined
     2a4:	00000000 	.inst	0x00000000 ; undefined
     2a8:	69030000 	.inst	0x69030000 ; undefined
     2ac:	60930100 	.inst	0x60930100 ; undefined
     2b0:	02000001 	.inst	0x02000001 ; undefined
     2b4:	00007c91 	.inst	0x00007c91 ; undefined
     2b8:	00009d0f 	.inst	0x00009d0f ; undefined
     2bc:	eea30100 	.inst	0xeea30100 ; undefined
     2c0:	ac000001 	stnp	q1, q0, [x0]
     2c4:	00000804 	.inst	0x00000804 ; undefined
     2c8:	e4000000 	.inst	0xe4000000 ; undefined
     2cc:	00000000 	.inst	0x00000000 ; undefined
     2d0:	01000000 	.inst	0x01000000 ; undefined
     2d4:	007c0b9c 	.inst	0x007c0b9c ; undefined
     2d8:	a3010000 	.inst	0xa3010000 ; undefined
     2dc:	00000160 	.inst	0x00000160 ; undefined
     2e0:	036c9102 	.inst	0x036c9102 ; undefined
     2e4:	00746572 	.inst	0x00746572 ; undefined
     2e8:	01eea401 	.inst	0x01eea401 ; undefined
     2ec:	91020000 	add	x0, x0, #0x80
     2f0:	00630378 	.inst	0x00630378 ; undefined
     2f4:	007da501 	.inst	0x007da501 ; undefined
     2f8:	91020000 	add	x0, x0, #0x80
     2fc:	75000077 	.inst	0x75000077 ; undefined
     300:	04000006 	.inst	0x04000006 ; undefined
     304:	00012800 	.inst	0x00012800 ; undefined
     308:	b1010800 	adds	x0, x0, #0x42
     30c:	0c000000 	st4	{v0.8b-v3.8b}, [x0]
     310:	00000114 	.inst	0x00000114 ; undefined
     314:	00000031 	.inst	0x00000031 ; undefined
     318:	00080590 	.inst	0x00080590 ; undefined
     31c:	00000000 	.inst	0x00000000 ; undefined
     320:	0000091c 	.inst	0x0000091c ; undefined
     324:	00000000 	.inst	0x00000000 ; undefined
     328:	00000180 	.inst	0x00000180 ; undefined
     32c:	00021a02 	.inst	0x00021a02 ; undefined
     330:	13021000 	sbfx	w0, w0, #2, #3
     334:	00000052 	.inst	0x00000052 ; undefined
     338:	00013303 	.inst	0x00013303 ; undefined
     33c:	52140200 	eor	w0, w16, #0x1000
     340:	00000000 	.inst	0x00000000 ; undefined
     344:	00023503 	.inst	0x00023503 ; undefined
     348:	59150200 	.inst	0x59150200 ; undefined
     34c:	08000000 	stxrb	w0, w0, [x0]
     350:	05040400 	.inst	0x05040400 ; undefined
     354:	00746e69 	.inst	0x00746e69 ; undefined
     358:	002d0805 	.inst	0x002d0805 ; NYI
     35c:	0f060000 	.inst	0x0f060000 ; undefined
     360:	02000001 	.inst	0x02000001 ; undefined
     364:	00002d16 	.inst	0x00002d16 ; undefined
     368:	00ff0700 	.inst	0x00ff0700 ; undefined
     36c:	09010000 	.inst	0x09010000 ; undefined
     370:	00080590 	.inst	0x00080590 ; undefined
     374:	00000000 	.inst	0x00000000 ; undefined
     378:	0000002c 	.inst	0x0000002c ; undefined
     37c:	00000000 	.inst	0x00000000 ; undefined
     380:	00a49c01 	.inst	0x00a49c01 ; undefined
     384:	1a080000 	adc	w0, w0, w8
     388:	01000002 	.inst	0x01000002 ; undefined
     38c:	0000a409 	.inst	0x0000a409 ; undefined
     390:	78910200 	ldursh	x0, [x16,#-240]
     394:	00013308 	.inst	0x00013308 ; undefined
     398:	52090100 	eor	w0, w8, #0x800000
     39c:	02000000 	.inst	0x02000000 ; undefined
     3a0:	05007491 	.inst	0x05007491 ; undefined
     3a4:	00005f08 	.inst	0x00005f08 ; undefined
     3a8:	019f0700 	.inst	0x019f0700 ; undefined
     3ac:	0f010000 	.inst	0x0f010000 ; undefined
     3b0:	000805bc 	.inst	0x000805bc ; undefined
     3b4:	00000000 	.inst	0x00000000 ; undefined
     3b8:	0000004c 	.inst	0x0000004c ; undefined
     3bc:	00000000 	.inst	0x00000000 ; undefined
     3c0:	00f09c01 	.inst	0x00f09c01 ; undefined
     3c4:	5b080000 	.inst	0x5b080000 ; undefined
     3c8:	01000002 	.inst	0x01000002 ; undefined
     3cc:	0000a40f 	.inst	0x0000a40f ; undefined
     3d0:	68910200 	.inst	0x68910200 ; undefined
     3d4:	00021a08 	.inst	0x00021a08 ; undefined
     3d8:	a40f0100 	.inst	0xa40f0100 ; undefined
     3dc:	02000000 	.inst	0x02000000 ; undefined
     3e0:	70096091 	adr	x17, 12ff3 <_start-0x6d00d>
     3e4:	a4100100 	.inst	0xa4100100 ; undefined
     3e8:	02000000 	.inst	0x02000000 ; undefined
     3ec:	07007891 	.inst	0x07007891 ; undefined
     3f0:	000001fd 	.inst	0x000001fd ; undefined
     3f4:	06081b01 	.inst	0x06081b01 ; undefined
     3f8:	00000008 	.inst	0x00000008 ; undefined
     3fc:	005c0000 	.inst	0x005c0000 ; undefined
     400:	00000000 	.inst	0x00000000 ; undefined
     404:	9c010000 	ldr	q0, 2404 <_start-0x7dbfc>
     408:	00000136 	.inst	0x00000136 ; undefined
     40c:	00025b08 	.inst	0x00025b08 ; undefined
     410:	a41b0100 	.inst	0xa41b0100 ; undefined
     414:	02000000 	.inst	0x02000000 ; undefined
     418:	1a086891 	.inst	0x1a086891 ; undefined
     41c:	01000002 	.inst	0x01000002 ; undefined
     420:	0000a41b 	.inst	0x0000a41b ; undefined
     424:	60910200 	.inst	0x60910200 ; undefined
     428:	01007009 	.inst	0x01007009 ; undefined
     42c:	0000a41c 	.inst	0x0000a41c ; undefined
     430:	78910200 	ldursh	x0, [x16,#-240]
     434:	01270700 	.inst	0x01270700 ; undefined
     438:	29010000 	stp	w0, w0, [x0,#8]
     43c:	00080664 	.inst	0x00080664 ; undefined
     440:	00000000 	.inst	0x00000000 ; undefined
     444:	00000074 	.inst	0x00000074 ; undefined
     448:	00000000 	.inst	0x00000000 ; undefined
     44c:	017c9c01 	.inst	0x017c9c01 ; undefined
     450:	5b080000 	.inst	0x5b080000 ; undefined
     454:	01000002 	.inst	0x01000002 ; undefined
     458:	0000a429 	.inst	0x0000a429 ; undefined
     45c:	68910200 	.inst	0x68910200 ; undefined
     460:	00013308 	.inst	0x00013308 ; undefined
     464:	52290100 	eor	w0, w8, #0x800000
     468:	02000000 	.inst	0x02000000 ; undefined
     46c:	70096491 	adr	x17, 130ff <_start-0x6cf01>
     470:	a42a0100 	.inst	0xa42a0100 ; undefined
     474:	02000000 	.inst	0x02000000 ; undefined
     478:	0a007891 	and	w17, w4, w0, lsl #30
     47c:	00000250 	.inst	0x00000250 ; undefined
     480:	06d83301 	.inst	0x06d83301 ; undefined
     484:	00000008 	.inst	0x00000008 ; undefined
     488:	01a40000 	.inst	0x01a40000 ; undefined
     48c:	00000000 	.inst	0x00000000 ; undefined
     490:	9c010000 	ldr	q0, 2490 <_start-0x7db70>
     494:	00000232 	.inst	0x00000232 ; undefined
     498:	0806e00b 	stlxrb	w6, w11, [x0]
     49c:	00000000 	.inst	0x00000000 ; undefined
     4a0:	0000bc00 	.inst	0x0000bc00 ; undefined
     4a4:	00000000 	.inst	0x00000000 ; undefined
     4a8:	0001e700 	.inst	0x0001e700 ; undefined
     4ac:	00690900 	.inst	0x00690900 ; undefined
     4b0:	00523401 	.inst	0x00523401 ; undefined
     4b4:	91020000 	add	x0, x0, #0x80
     4b8:	06e80c7c 	.inst	0x06e80c7c ; undefined
     4bc:	00000008 	.inst	0x00000008 ; undefined
     4c0:	009c0000 	.inst	0x009c0000 ; undefined
     4c4:	00000000 	.inst	0x00000000 ; undefined
     4c8:	e00d0000 	.inst	0xe00d0000 ; undefined
     4cc:	01000001 	.inst	0x01000001 ; undefined
     4d0:	0000a439 	.inst	0x0000a439 ; undefined
     4d4:	58910200 	ldr	x0, fffffffffff22514 <__stack_top+0xffffffffffe82514>
     4d8:	01007009 	.inst	0x01007009 ; undefined
     4dc:	0000a43a 	.inst	0x0000a43a ; undefined
     4e0:	70910200 	adr	x0, fffffffffff22523 <__stack_top+0xffffffffffe82523>
     4e4:	9c0c0000 	ldr	q0, 184e4 <_start-0x67b1c>
     4e8:	00000807 	.inst	0x00000807 ; undefined
     4ec:	c8000000 	stxr	w0, x0, [x0]
     4f0:	00000000 	.inst	0x00000000 ; undefined
     4f4:	09000000 	.inst	0x09000000 ; undefined
     4f8:	43010069 	.inst	0x43010069 ; undefined
     4fc:	00000052 	.inst	0x00000052 ; undefined
     500:	0c6c9102 	.inst	0x0c6c9102 ; undefined
     504:	000807a8 	.inst	0x000807a8 ; undefined
     508:	00000000 	.inst	0x00000000 ; undefined
     50c:	000000a4 	.inst	0x000000a4 ; undefined
     510:	00000000 	.inst	0x00000000 ; undefined
     514:	0001e00d 	.inst	0x0001e00d ; undefined
     518:	a4480100 	.inst	0xa4480100 ; undefined
     51c:	02000000 	.inst	0x02000000 ; undefined
     520:	70095091 	adr	x17, 12f33 <_start-0x6d0cd>
     524:	a4490100 	.inst	0xa4490100 ; undefined
     528:	02000000 	.inst	0x02000000 ; undefined
     52c:	00006091 	.inst	0x00006091 ; undefined
     530:	02090a00 	.inst	0x02090a00 ; undefined
     534:	54010000 	b.eq	2534 <_start-0x7dacc>
     538:	0008087c 	.inst	0x0008087c ; undefined
     53c:	00000000 	.inst	0x00000000 ; undefined
     540:	00000090 	.inst	0x00000090 ; undefined
     544:	00000000 	.inst	0x00000000 ; undefined
     548:	029a9c01 	.inst	0x029a9c01 ; undefined
     54c:	70090000 	adr	x0, 1254f <_start-0x6dab1>
     550:	a45a0100 	.inst	0xa45a0100 ; undefined
     554:	02000000 	.inst	0x02000000 ; undefined
     558:	840c6891 	.inst	0x840c6891 ; undefined
     55c:	00000808 	.inst	0x00000808 ; undefined
     560:	4c000000 	st4	{v0.16b-v3.16b}, [x0]
     564:	00000000 	.inst	0x00000000 ; undefined
     568:	09000000 	.inst	0x09000000 ; undefined
     56c:	55010069 	.inst	0x55010069 ; undefined
     570:	00000052 	.inst	0x00000052 ; undefined
     574:	0c7c9102 	.inst	0x0c7c9102 ; undefined
     578:	0008088c 	.inst	0x0008088c ; undefined
     57c:	00000000 	.inst	0x00000000 ; undefined
     580:	0000002c 	.inst	0x0000002c ; undefined
     584:	00000000 	.inst	0x00000000 ; undefined
     588:	0001db0d 	.inst	0x0001db0d ; undefined
     58c:	a4560100 	.inst	0xa4560100 ; undefined
     590:	02000000 	.inst	0x02000000 ; undefined
     594:	00007091 	.inst	0x00007091 ; undefined
     598:	021f0e00 	.inst	0x021f0e00 ; undefined
     59c:	61010000 	.inst	0x61010000 ; undefined
     5a0:	0008090c 	.inst	0x0008090c ; undefined
     5a4:	00000000 	.inst	0x00000000 ; undefined
     5a8:	000000f0 	.inst	0x000000f0 ; undefined
     5ac:	00000000 	.inst	0x00000000 ; undefined
     5b0:	03369c01 	.inst	0x03369c01 ; undefined
     5b4:	700f0000 	adr	x0, 1e5b7 <_start-0x61a49>
     5b8:	a4610100 	.inst	0xa4610100 ; undefined
     5bc:	02000000 	.inst	0x02000000 ; undefined
     5c0:	09085891 	.inst	0x09085891 ; undefined
     5c4:	01000001 	.inst	0x01000001 ; undefined
     5c8:	00005261 	.inst	0x00005261 ; undefined
     5cc:	54910200 	b.eq	fffffffffff2260c <__stack_top+0xffffffffffe8260c>
     5d0:	00016908 	.inst	0x00016908 ; undefined
     5d4:	52610100 	.inst	0x52610100 ; undefined
     5d8:	02000000 	.inst	0x02000000 ; undefined
     5dc:	68095091 	.inst	0x68095091 ; undefined
     5e0:	63010069 	.inst	0x63010069 ; undefined
     5e4:	00000052 	.inst	0x00000052 ; undefined
     5e8:	097c9102 	.inst	0x097c9102 ; undefined
     5ec:	01006f6c 	.inst	0x01006f6c ; undefined
     5f0:	00005264 	.inst	0x00005264 ; undefined
     5f4:	78910200 	ldursh	x0, [x16,#-240]
     5f8:	08094c0c 	stxrb	w9, w12, [x0]
     5fc:	00000000 	.inst	0x00000000 ; undefined
     600:	00009400 	.inst	0x00009400 ; undefined
     604:	00000000 	.inst	0x00000000 ; undefined
     608:	696d0900 	ldpsw	x0, x2, [x8,#-152]
     60c:	66010064 	.inst	0x66010064 ; undefined
     610:	00000052 	.inst	0x00000052 ; undefined
     614:	0d749102 	.inst	0x0d749102 ; undefined
     618:	00000216 	.inst	0x00000216 ; undefined
     61c:	00a46a01 	.inst	0x00a46a01 ; undefined
     620:	91020000 	add	x0, x0, #0x80
     624:	01db0d68 	.inst	0x01db0d68 ; undefined
     628:	71010000 	subs	w0, w0, #0x40
     62c:	000000a4 	.inst	0x000000a4 ; undefined
     630:	00609102 	.inst	0x00609102 ; undefined
     634:	01891000 	.inst	0x01891000 ; undefined
     638:	8e010000 	.inst	0x8e010000 ; undefined
     63c:	000000a4 	.inst	0x000000a4 ; undefined
     640:	000809fc 	.inst	0x000809fc ; undefined
     644:	00000000 	.inst	0x00000000 ; undefined
     648:	000000b4 	.inst	0x000000b4 ; undefined
     64c:	00000000 	.inst	0x00000000 ; undefined
     650:	03ea9c01 	.inst	0x03ea9c01 ; undefined
     654:	700f0000 	adr	x0, 1e657 <_start-0x619a9>
     658:	a48e0100 	.inst	0xa48e0100 ; undefined
     65c:	02000000 	.inst	0x02000000 ; undefined
     660:	39085891 	strb	w17, [x4,#534]
     664:	01000001 	.inst	0x01000001 ; undefined
     668:	0000528e 	.inst	0x0000528e ; undefined
     66c:	54910200 	b.eq	fffffffffff226ac <__stack_top+0xffffffffffe826ac>
     670:	0001ee08 	.inst	0x0001ee08 ; undefined
     674:	528e0100 	mov	w0, #0x7008                	// #28680
     678:	02000000 	.inst	0x02000000 ; undefined
     67c:	100c5091 	adr	x17, 1908c <_start-0x66f74>
     680:	0000080a 	.inst	0x0000080a ; undefined
     684:	94000000 	bl	684 <_start-0x7f97c>
     688:	00000000 	.inst	0x00000000 ; undefined
     68c:	09000000 	.inst	0x09000000 ; undefined
     690:	90010069 	adrp	x9, 200c000 <__stack_top+0x1f6c000>
     694:	00000052 	.inst	0x00000052 ; undefined
     698:	0c7c9102 	.inst	0x0c7c9102 ; undefined
     69c:	00080a1c 	.inst	0x00080a1c ; undefined
     6a0:	00000000 	.inst	0x00000000 ; undefined
     6a4:	00000070 	.inst	0x00000070 ; undefined
     6a8:	00000000 	.inst	0x00000000 ; undefined
     6ac:	0001db0d 	.inst	0x0001db0d ; undefined
     6b0:	a4910100 	.inst	0xa4910100 ; undefined
     6b4:	02000000 	.inst	0x02000000 ; undefined
     6b8:	70097091 	adr	x17, 134cb <_start-0x6cb35>
     6bc:	a4920100 	.inst	0xa4920100 ; undefined
     6c0:	02000000 	.inst	0x02000000 ; undefined
     6c4:	4c0c6891 	.inst	0x4c0c6891 ; undefined
     6c8:	0000080a 	.inst	0x0000080a ; undefined
     6cc:	40000000 	.inst	0x40000000 ; undefined
     6d0:	00000000 	.inst	0x00000000 ; undefined
     6d4:	0d000000 	st1	{v0.b}[0], [x0]
     6d8:	000001b6 	.inst	0x000001b6 ; undefined
     6dc:	00529501 	.inst	0x00529501 ; undefined
     6e0:	91020000 	add	x0, x0, #0x80
     6e4:	00000064 	.inst	0x00000064 ; undefined
     6e8:	01811000 	.inst	0x01811000 ; undefined
     6ec:	b6010000 	tbz	x0, #32, 26ec <_start-0x7d914>
     6f0:	000004ae 	.inst	0x000004ae ; undefined
     6f4:	00080ab0 	.inst	0x00080ab0 ; undefined
     6f8:	00000000 	.inst	0x00000000 ; undefined
     6fc:	00000158 	.inst	0x00000158 ; undefined
     700:	00000000 	.inst	0x00000000 ; undefined
     704:	04ae9c01 	.inst	0x04ae9c01 ; undefined
     708:	ba080000 	adcs	x0, x0, x8
     70c:	01000004 	.inst	0x01000004 ; undefined
     710:	0004b0b6 	.inst	0x0004b0b6 ; undefined
     714:	4c910200 	st4	{v0.16b-v3.16b}, [x16], x17
     718:	00023c0d 	.inst	0x00023c0d ; undefined
     71c:	52b70100 	mov	w0, #0xb8080000            	// #-1207435264
     720:	02000000 	.inst	0x02000000 ; undefined
     724:	3a0d7091 	.inst	0x3a0d7091 ; undefined
     728:	01000002 	.inst	0x01000002 ; undefined
     72c:	000052b9 	.inst	0x000052b9 ; undefined
     730:	6c910200 	stp	d0, d0, [x16],#272
     734:	0001740d 	.inst	0x0001740d ; undefined
     738:	b0c80100 	adrp	x0, ffffffff90021000 <__stack_top+0xffffffff8ff81000>
     73c:	02000004 	.inst	0x02000004 ; undefined
     740:	640d7c91 	.inst	0x640d7c91 ; undefined
     744:	01000001 	.inst	0x01000001 ; undefined
     748:	000052c9 	.inst	0x000052c9 ; undefined
     74c:	78910200 	ldursh	x0, [x16,#-240]
     750:	080b840c 	stlxrb	w11, w12, [x0]
     754:	00000000 	.inst	0x00000000 ; undefined
     758:	00006c00 	.inst	0x00006c00 ; undefined
     75c:	00000000 	.inst	0x00000000 ; undefined
     760:	00690900 	.inst	0x00690900 ; undefined
     764:	0052d001 	.inst	0x0052d001 ; undefined
     768:	91020000 	add	x0, x0, #0x80
     76c:	0b900c74 	add	w20, w3, w16, asr #3
     770:	00000008 	.inst	0x00000008 ; undefined
     774:	00480000 	.inst	0x00480000 ; undefined
     778:	00000000 	.inst	0x00000000 ; undefined
     77c:	db0d0000 	.inst	0xdb0d0000 ; undefined
     780:	01000001 	.inst	0x01000001 ; undefined
     784:	0000a4d1 	.inst	0x0000a4d1 ; undefined
     788:	60910200 	.inst	0x60910200 ; undefined
     78c:	080bb80c 	stlxrb	w11, w12, [x0]
     790:	00000000 	.inst	0x00000000 ; undefined
     794:	00002000 	.inst	0x00002000 ; undefined
     798:	00000000 	.inst	0x00000000 ; undefined
     79c:	00700900 	.inst	0x00700900 ; undefined
     7a0:	00a4d401 	.inst	0x00a4d401 ; undefined
     7a4:	91020000 	add	x0, x0, #0x80
     7a8:	00000058 	.inst	0x00000058 ; undefined
     7ac:	12081100 	and	w0, w8, #0x1f000000
     7b0:	00520704 	.inst	0x00520704 ; undefined
     7b4:	c2100000 	.inst	0xc2100000 ; undefined
     7b8:	01000001 	.inst	0x01000001 ; undefined
     7bc:	000052e6 	.inst	0x000052e6 ; undefined
     7c0:	080c0800 	stxrb	w12, w0, [x0]
     7c4:	00000000 	.inst	0x00000000 ; undefined
     7c8:	00017c00 	.inst	0x00017c00 ; undefined
     7cc:	00000000 	.inst	0x00000000 ; undefined
     7d0:	8d9c0100 	.inst	0x8d9c0100 ; undefined
     7d4:	08000005 	stxrb	w0, w5, [x0]
     7d8:	00000133 	.inst	0x00000133 ; undefined
     7dc:	0052e601 	.inst	0x0052e601 ; undefined
     7e0:	91030000 	add	x0, x0, #0xc0
     7e4:	43087fbc 	.inst	0x43087fbc ; undefined
     7e8:	01000002 	.inst	0x01000002 ; undefined
     7ec:	000052e6 	.inst	0x000052e6 ; undefined
     7f0:	b8910300 	ldursw	x0, [x24,#-240]
     7f4:	01a90d7f 	.inst	0x01a90d7f ; undefined
     7f8:	e7010000 	.inst	0xe7010000 ; undefined
     7fc:	00000052 	.inst	0x00000052 ; undefined
     800:	0c7c9102 	.inst	0x0c7c9102 ; undefined
     804:	00080c1c 	.inst	0x00080c1c ; undefined
     808:	00000000 	.inst	0x00000000 ; undefined
     80c:	00000148 	.inst	0x00000148 ; undefined
     810:	00000000 	.inst	0x00000000 ; undefined
     814:	01006909 	.inst	0x01006909 ; undefined
     818:	000052e8 	.inst	0x000052e8 ; undefined
     81c:	78910200 	ldursh	x0, [x16,#-240]
     820:	00000013 	.inst	0x00000013 ; undefined
     824:	01460d00 	.inst	0x01460d00 ; undefined
     828:	e9010000 	.inst	0xe9010000 ; undefined
     82c:	00000052 	.inst	0x00000052 ; undefined
     830:	0d749102 	.inst	0x0d749102 ; undefined
     834:	000001af 	.inst	0x000001af ; undefined
     838:	0052ea01 	.inst	0x0052ea01 ; undefined
     83c:	91020000 	add	x0, x0, #0x80
     840:	01580d64 	.inst	0x01580d64 ; undefined
     844:	eb010000 	subs	x0, x0, x1
     848:	000000a4 	.inst	0x000000a4 ; undefined
     84c:	09589102 	.inst	0x09589102 ; undefined
     850:	ec010070 	.inst	0xec010070 ; undefined
     854:	000000a4 	.inst	0x000000a4 ; undefined
     858:	0c689102 	.inst	0x0c689102 ; undefined
     85c:	00080c80 	.inst	0x00080c80 ; undefined
     860:	00000000 	.inst	0x00000000 ; undefined
     864:	000000a0 	.inst	0x000000a0 ; undefined
     868:	00000000 	.inst	0x00000000 ; undefined
     86c:	0001ce0d 	.inst	0x0001ce0d ; undefined
     870:	a4f90100 	.inst	0xa4f90100 ; undefined
     874:	02000000 	.inst	0x02000000 ; undefined
     878:	160d5091 	b	fffffffff8354abc <__stack_top+0xfffffffff82b4abc>
     87c:	01000002 	.inst	0x01000002 ; undefined
     880:	0000a4fa 	.inst	0x0000a4fa ; undefined
     884:	48910200 	stllrh	w0, [x16]
     888:	00000000 	.inst	0x00000000 ; undefined
     88c:	00022b14 	.inst	0x00022b14 ; undefined
     890:	01230100 	.inst	0x01230100 ; undefined
     894:	00080d84 	.inst	0x00080d84 ; undefined
     898:	00000000 	.inst	0x00000000 ; undefined
     89c:	00000128 	.inst	0x00000128 ; undefined
     8a0:	00000000 	.inst	0x00000000 ; undefined
     8a4:	06459c01 	.inst	0x06459c01 ; undefined
     8a8:	05150000 	.inst	0x05150000 ; undefined
     8ac:	01000005 	.inst	0x01000005 ; undefined
     8b0:	06450123 	.inst	0x06450123 ; undefined
     8b4:	91020000 	add	x0, x0, #0x80
     8b8:	04ba1548 	.inst	0x04ba1548 ; undefined
     8bc:	23010000 	.inst	0x23010000 ; undefined
     8c0:	0004b001 	.inst	0x0004b001 ; undefined
     8c4:	44910200 	.inst	0x44910200 ; undefined
     8c8:	00013316 	.inst	0x00013316 ; undefined
     8cc:	01250100 	.inst	0x01250100 ; undefined
     8d0:	00000052 	.inst	0x00000052 ; undefined
     8d4:	16749102 	b	fffffffff9d24cdc <__stack_top+0xfffffffff9c84cdc>
     8d8:	0000023c 	.inst	0x0000023c ; undefined
     8dc:	52012601 	eor	w1, w16, #0x800001ff
     8e0:	02000000 	.inst	0x02000000 ; undefined
     8e4:	43167091 	.inst	0x43167091 ; undefined
     8e8:	01000002 	.inst	0x01000002 ; undefined
     8ec:	04b00128 	.inst	0x04b00128 ; undefined
     8f0:	91020000 	add	x0, x0, #0x80
     8f4:	0164167c 	.inst	0x0164167c ; undefined
     8f8:	29010000 	stp	w0, w0, [x0,#8]
     8fc:	00005201 	.inst	0x00005201 ; undefined
     900:	78910200 	ldursh	x0, [x16,#-240]
     904:	0001a916 	.inst	0x0001a916 ; undefined
     908:	01400100 	.inst	0x01400100 ; undefined
     90c:	00000052 	.inst	0x00000052 ; undefined
     910:	0c6c9102 	.inst	0x0c6c9102 ; undefined
     914:	00080e68 	.inst	0x00080e68 ; undefined
     918:	00000000 	.inst	0x00000000 ; undefined
     91c:	00000038 	.inst	0x00000038 ; undefined
     920:	00000000 	.inst	0x00000000 ; undefined
     924:	0001db16 	.inst	0x0001db16 ; undefined
     928:	01440100 	.inst	0x01440100 ; undefined
     92c:	000000a4 	.inst	0x000000a4 ; undefined
     930:	16609102 	b	fffffffff9824d38 <__stack_top+0xfffffffff9784d38>
     934:	00000216 	.inst	0x00000216 ; undefined
     938:	a4014501 	.inst	0xa4014501 ; undefined
     93c:	02000000 	.inst	0x02000000 ; undefined
     940:	00005891 	.inst	0x00005891 ; undefined
     944:	4d070812 	.inst	0x4d070812 ; undefined
     948:	17000000 	b	fffffffffc000948 <__stack_top+0xfffffffffbf60948>
     94c:	0000005f 	.inst	0x0000005f ; undefined
     950:	0000065c 	.inst	0x0000065c ; undefined
     954:	00065c18 	.inst	0x00065c18 ; undefined
     958:	12001000 	and	w0, w0, #0x1f
     95c:	01e50708 	.inst	0x01e50708 ; undefined
     960:	970d0000 	bl	fffffffffc340960 <__stack_top+0xfffffffffc2a0960>
     964:	01000001 	.inst	0x01000001 ; undefined
     968:	00064c06 	.inst	0x00064c06 ; undefined
     96c:	40030900 	.inst	0x40030900 ; undefined
     970:	00000849 	.inst	0x00000849 ; undefined
     974:	00000000 	.inst	0x00000000 ; undefined
     978:	000000e7 	.inst	0x000000e7 ; undefined
     97c:	02940004 	.inst	0x02940004 ; undefined
     980:	01080000 	.inst	0x01080000 ; undefined
     984:	000000b1 	.inst	0x000000b1 ; undefined
     988:	0002600c 	.inst	0x0002600c ; undefined
     98c:	00003100 	.inst	0x00003100 ; undefined
     990:	080eac00 	stlxrb	w14, w0, [x0]
     994:	00000000 	.inst	0x00000000 ; undefined
     998:	00011800 	.inst	0x00011800 ; undefined
     99c:	00000000 	.inst	0x00000000 ; undefined
     9a0:	00035400 	.inst	0x00035400 ; undefined
     9a4:	07080200 	.inst	0x07080200 ; undefined
     9a8:	0000004d 	.inst	0x0000004d ; undefined
     9ac:	52070402 	eor	w2, w0, #0x6000000
     9b0:	02000000 	.inst	0x02000000 ; undefined
     9b4:	01e50708 	.inst	0x01e50708 ; undefined
     9b8:	7b030000 	.inst	0x7b030000 ; undefined
     9bc:	01000002 	.inst	0x01000002 ; undefined
     9c0:	080eac04 	stlxrb	w14, w4, [x0]
     9c4:	00000000 	.inst	0x00000000 ; undefined
     9c8:	00009c00 	.inst	0x00009c00 ; undefined
     9cc:	00000000 	.inst	0x00000000 ; undefined
     9d0:	8a9c0100 	and	x0, x8, x28, asr #0
     9d4:	04000000 	.inst	0x04000000 ; undefined
     9d8:	000002a9 	.inst	0x000002a9 ; undefined
     9dc:	002d0501 	.inst	0x002d0501 ; NYI
     9e0:	91020000 	add	x0, x0, #0x80
     9e4:	02960478 	.inst	0x02960478 ; undefined
     9e8:	05010000 	.inst	0x05010000 ; undefined
     9ec:	0000002d 	.inst	0x0000002d ; undefined
     9f0:	04709102 	.inst	0x04709102 ; undefined
     9f4:	00000273 	.inst	0x00000273 ; undefined
     9f8:	002d0501 	.inst	0x002d0501 ; NYI
     9fc:	91020000 	add	x0, x0, #0x80
     a00:	85030068 	.inst	0x85030068 ; undefined
     a04:	01000002 	.inst	0x01000002 ; undefined
     a08:	080f4818 	stxrb	w15, w24, [x0]
     a0c:	00000000 	.inst	0x00000000 ; undefined
     a10:	00007c00 	.inst	0x00007c00 ; undefined
     a14:	00000000 	.inst	0x00000000 ; undefined
     a18:	e39c0100 	.inst	0xe39c0100 ; undefined
     a1c:	05000000 	.inst	0x05000000 ; undefined
     a20:	0000029e 	.inst	0x0000029e ; undefined
     a24:	00e31c01 	.inst	0x00e31c01 ; undefined
     a28:	00b80000 	.inst	0x00b80000 ; undefined
     a2c:	00060000 	.inst	0x00060000 ; undefined
     a30:	0002b204 	.inst	0x0002b204 ; undefined
     a34:	2d1e0100 	stp	s0, s0, [x8,#240]
     a38:	02000000 	.inst	0x02000000 ; undefined
     a3c:	8f047891 	.inst	0x8f047891 ; undefined
     a40:	01000002 	.inst	0x01000002 ; undefined
     a44:	00002d1e 	.inst	0x00002d1e ; undefined
     a48:	70910200 	adr	x0, fffffffffff22a8b <__stack_top+0xffffffffffe82a8b>
     a4c:	706d7407 	adr	x7, db8cf <__stack_top+0x3b8cf>
     a50:	2d1e0100 	stp	s0, s0, [x8,#240]
     a54:	02000000 	.inst	0x02000000 ; undefined
     a58:	08006891 	stxrb	w0, w17, [x4]
     a5c:	6e690504 	uhadd	v4.8h, v8.8h, v9.8h
     a60:	54000074 	.inst	0x54000074 ; undefined
     a64:	02000000 	.inst	0x02000000 ; undefined
     a68:	00030c00 	.inst	0x00030c00 ; undefined
     a6c:	b9010800 	str	w0, [x0,#264]
     a70:	c4000003 	.inst	0xc4000003 ; undefined
     a74:	0000080f 	.inst	0x0000080f ; undefined
     a78:	e8000000 	.inst	0xe8000000 ; undefined
     a7c:	0000080f 	.inst	0x0000080f ; undefined
     a80:	6b000000 	subs	w0, w0, w0
     a84:	656e7265 	.inst	0x656e7265 ; undefined
     a88:	6d6d2f6c 	ldp	d12, d11, [x27,#-304]
     a8c:	2f00532e 	.inst	0x2f00532e ; undefined
     a90:	656d6f68 	.inst	0x656d6f68 ; undefined
     a94:	7261732f 	.inst	0x7261732f ; undefined
     a98:	69686361 	ldpsw	x1, x24, [x27,#-192]
     a9c:	636e2f75 	.inst	0x636e2f75 ; undefined
     aa0:	6f2f7574 	uqshl	v20.4s, v11.4s, #15
     aa4:	30326373 	adr	x19, 65711 <_start-0x1a8ef>
     aa8:	47003132 	.inst	0x47003132 ; undefined
     aac:	4120554e 	.inst	0x4120554e ; undefined
     ab0:	2e322053 	usubl	v19.8h, v2.8b, v18.8b
     ab4:	312e3632 	adds	w18, w17, #0xb8d
     ab8:	1d800100 	.inst	0x1d800100 ; undefined
     abc:	04000006 	.inst	0x04000006 ; undefined
     ac0:	00032000 	.inst	0x00032000 ; undefined
     ac4:	b1010800 	adds	x0, x0, #0x42
     ac8:	0c000000 	st4	{v0.8b-v3.8b}, [x0]
     acc:	0000036a 	.inst	0x0000036a ; undefined
     ad0:	00000031 	.inst	0x00000031 ; undefined
     ad4:	00080fe8 	.inst	0x00080fe8 ; undefined
     ad8:	00000000 	.inst	0x00000000 ; undefined
     adc:	0000078c 	.inst	0x0000078c ; undefined
     ae0:	00000000 	.inst	0x00000000 ; undefined
     ae4:	000003fe 	.inst	0x000003fe ; undefined
     ae8:	0002e502 	.inst	0x0002e502 ; undefined
     aec:	17026800 	b	fffffffffc09aaec <__stack_top+0xfffffffffbffaaec>
     af0:	000000d3 	.inst	0x000000d3 ; undefined
     af4:	39317803 	strb	w3, [x0,#3166]
     af8:	d3180200 	.inst	0xd3180200 ; undefined
     afc:	00000000 	.inst	0x00000000 ; undefined
     b00:	30327803 	adr	x3, 65a01 <_start-0x1a5ff>
     b04:	d3190200 	.inst	0xd3190200 ; undefined
     b08:	08000000 	stxrb	w0, w0, [x0]
     b0c:	31327803 	adds	w3, w0, #0xc9e
     b10:	d31a0200 	.inst	0xd31a0200 ; undefined
     b14:	10000000 	adr	x0, b14 <_start-0x7f4ec>
     b18:	32327803 	orr	w3, w0, #0xffffdfff
     b1c:	d31b0200 	.inst	0xd31b0200 ; undefined
     b20:	18000000 	ldr	w0, b20 <_start-0x7f4e0>
     b24:	33327803 	.inst	0x33327803 ; undefined
     b28:	d31c0200 	.inst	0xd31c0200 ; undefined
     b2c:	20000000 	.inst	0x20000000 ; undefined
     b30:	34327803 	cbz	w3, 65a30 <_start-0x1a5d0>
     b34:	d31d0200 	.inst	0xd31d0200 ; undefined
     b38:	28000000 	stnp	w0, w0, [x0]
     b3c:	35327803 	cbnz	w3, 65a3c <_start-0x1a5c4>
     b40:	d31e0200 	.inst	0xd31e0200 ; undefined
     b44:	30000000 	adr	x0, b45 <_start-0x7f4bb>
     b48:	36327803 	tbz	w3, #6, 5a48 <_start-0x7a5b8>
     b4c:	d31f0200 	.inst	0xd31f0200 ; undefined
     b50:	38000000 	sturb	w0, [x0]
     b54:	37327803 	tbnz	w3, #6, 5a54 <_start-0x7a5ac>
     b58:	d3200200 	.inst	0xd3200200 ; undefined
     b5c:	40000000 	.inst	0x40000000 ; undefined
     b60:	38327803 	strb	w3, [x0,x18,lsl #0]
     b64:	d3210200 	.inst	0xd3210200 ; undefined
     b68:	48000000 	stxrh	w0, w0, [x0]
     b6c:	00706603 	.inst	0x00706603 ; undefined
     b70:	00d32202 	.inst	0x00d32202 ; undefined
     b74:	03500000 	.inst	0x03500000 ; undefined
     b78:	02006370 	.inst	0x02006370 ; undefined
     b7c:	0000d323 	.inst	0x0000d323 ; undefined
     b80:	73035800 	.inst	0x73035800 ; undefined
     b84:	24020070 	.inst	0x24020070 ; undefined
     b88:	000000d3 	.inst	0x000000d3 ; undefined
     b8c:	08040060 	stxrb	w4, w0, [x3]
     b90:	00004d07 	.inst	0x00004d07 ; undefined
     b94:	02e60500 	.inst	0x02e60500 ; undefined
     b98:	26020000 	.inst	0x26020000 ; undefined
     b9c:	0000002d 	.inst	0x0000002d ; undefined
     ba0:	0002dd02 	.inst	0x0002dd02 ; undefined
     ba4:	28029000 	stnp	w0, w4, [x0,#20]
     ba8:	00000151 	.inst	0x00000151 ; undefined
     bac:	0002e606 	.inst	0x0002e606 ; undefined
     bb0:	da290200 	.inst	0xda290200 ; undefined
     bb4:	00000000 	.inst	0x00000000 ; undefined
     bb8:	00646903 	.inst	0x00646903 ; undefined
     bbc:	01512a02 	.inst	0x01512a02 ; undefined
     bc0:	06680000 	.inst	0x06680000 ; undefined
     bc4:	000003bf 	.inst	0x000003bf ; undefined
     bc8:	01512b02 	.inst	0x01512b02 ; undefined
     bcc:	066c0000 	.inst	0x066c0000 ; undefined
     bd0:	00000344 	.inst	0x00000344 ; undefined
     bd4:	01512c02 	.inst	0x01512c02 ; undefined
     bd8:	06700000 	.inst	0x06700000 ; undefined
     bdc:	0000032e 	.inst	0x0000032e ; undefined
     be0:	01512d02 	.inst	0x01512d02 ; undefined
     be4:	06740000 	.inst	0x06740000 ; undefined
     be8:	000002b9 	.inst	0x000002b9 ; undefined
     bec:	01512f02 	.inst	0x01512f02 ; undefined
     bf0:	06780000 	.inst	0x06780000 ; undefined
     bf4:	000002ff 	.inst	0x000002ff ; undefined
     bf8:	00d33002 	.inst	0x00d33002 ; undefined
     bfc:	06800000 	.inst	0x06800000 ; undefined
     c00:	000003f0 	.inst	0x000003f0 ; undefined
     c04:	00d33102 	.inst	0x00d33102 ; undefined
     c08:	00880000 	.inst	0x00880000 ; undefined
     c0c:	52070404 	eor	w4, w0, #0x6000000
     c10:	05000000 	.inst	0x05000000 ; undefined
     c14:	000002de 	.inst	0x000002de ; undefined
     c18:	00e53202 	.inst	0x00e53202 ; undefined
     c1c:	51070000 	sub	w0, w0, #0x1c0
     c20:	10000003 	adr	x3, c20 <_start-0x7f3e0>
     c24:	a1340201 	.inst	0xa1340201 ; undefined
     c28:	06000001 	.inst	0x06000001 ; undefined
     c2c:	000003b9 	.inst	0x000003b9 ; undefined
     c30:	01a13502 	.inst	0x01a13502 ; undefined
     c34:	03000000 	.inst	0x03000000 ; undefined
     c38:	02007073 	.inst	0x02007073 ; undefined
     c3c:	0000d336 	.inst	0x0000d336 ; undefined
     c40:	7008f800 	adr	x0, 12b43 <_start-0x6d4bd>
     c44:	37020063 	tbnz	w3, #0, 4c50 <_start-0x7b3b0>
     c48:	000000d3 	.inst	0x000000d3 ; undefined
     c4c:	be090100 	.inst	0xbe090100 ; undefined
     c50:	02000003 	.inst	0x02000003 ; undefined
     c54:	0000d338 	.inst	0x0000d338 ; undefined
     c58:	00010800 	.inst	0x00010800 ; undefined
     c5c:	0000d30a 	.inst	0x0000d30a ; undefined
     c60:	0001b100 	.inst	0x0001b100 ; undefined
     c64:	01b10b00 	.inst	0x01b10b00 ; undefined
     c68:	001e0000 	.inst	0x001e0000 ; undefined
     c6c:	e5070804 	.inst	0xe5070804 ; undefined
     c70:	05000001 	.inst	0x05000001 ; undefined
     c74:	00000352 	.inst	0x00000352 ; undefined
     c78:	01633902 	.inst	0x01633902 ; undefined
     c7c:	040c0000 	.inst	0x040c0000 ; undefined
     c80:	746e6905 	.inst	0x746e6905 ; undefined
     c84:	03a00d00 	.inst	0x03a00d00 ; undefined
     c88:	13010000 	sbfiz	w0, w0, #31, #1
     c8c:	00080fe8 	.inst	0x00080fe8 ; undefined
     c90:	00000000 	.inst	0x00000000 ; undefined
     c94:	00000034 	.inst	0x00000034 ; undefined
     c98:	00000000 	.inst	0x00000000 ; undefined
     c9c:	910d9c01 	add	x1, x0, #0x367
     ca0:	01000003 	.inst	0x01000003 ; undefined
     ca4:	08101c17 	stxrb	w16, w23, [x0]
     ca8:	00000000 	.inst	0x00000000 ; undefined
     cac:	00003400 	.inst	0x00003400 ; undefined
     cb0:	00000000 	.inst	0x00000000 ; undefined
     cb4:	0e9c0100 	.inst	0x0e9c0100 ; undefined
     cb8:	00000336 	.inst	0x00000336 ; undefined
     cbc:	10501b01 	adr	x1, a101c <__stack_top+0x101c>
     cc0:	00000008 	.inst	0x00000008 ; undefined
     cc4:	002c0000 	.inst	0x002c0000 ; NYI
     cc8:	00000000 	.inst	0x00000000 ; undefined
     ccc:	9c010000 	ldr	q0, 2ccc <_start-0x7d334>
     cd0:	00000228 	.inst	0x00000228 ; undefined
     cd4:	0003fd0f 	.inst	0x0003fd0f ; undefined
     cd8:	d31b0100 	.inst	0xd31b0100 ; undefined
     cdc:	02000000 	.inst	0x02000000 ; undefined
     ce0:	10007891 	adr	x17, 1bf0 <_start-0x7e410>
     ce4:	000003e0 	.inst	0x000003e0 ; undefined
     ce8:	107c1f01 	adr	x1, f90c8 <__stack_top+0x590c8>
     cec:	00000008 	.inst	0x00000008 ; undefined
     cf0:	00440000 	.inst	0x00440000 ; undefined
     cf4:	00000000 	.inst	0x00000000 ; undefined
     cf8:	9c010000 	ldr	q0, 2cf8 <_start-0x7d308>
     cfc:	00000262 	.inst	0x00000262 ; undefined
     d00:	0002350f 	.inst	0x0002350f ; undefined
     d04:	621f0100 	.inst	0x621f0100 ; undefined
     d08:	02000002 	.inst	0x02000002 ; undefined
     d0c:	03116891 	.inst	0x03116891 ; undefined
     d10:	01000004 	.inst	0x01000004 ; undefined
     d14:	00026221 	.inst	0x00026221 ; undefined
     d18:	78910200 	ldursh	x0, [x16,#-240]
     d1c:	58081200 	ldr	x0, 10f5c <_start-0x6f0a4>
     d20:	13000001 	sbfx	w1, w0, #0, #1
     d24:	0000034d 	.inst	0x0000034d ; undefined
     d28:	02a42601 	.inst	0x02a42601 ; undefined
     d2c:	10c00000 	adr	x0, fffffffffff80d2c <__stack_top+0xffffffffffee0d2c>
     d30:	00000008 	.inst	0x00000008 ; undefined
     d34:	00200000 	.inst	0x00200000 ; NYI
     d38:	00000000 	.inst	0x00000000 ; undefined
     d3c:	9c010000 	ldr	q0, 2d3c <_start-0x7d2c4>
     d40:	000002a4 	.inst	0x000002a4 ; undefined
     d44:	6b737414 	.inst	0x6b737414 ; undefined
     d48:	62260100 	.inst	0x62260100 ; undefined
     d4c:	02000002 	.inst	0x02000002 ; undefined
     d50:	70156891 	adr	x17, 2ba63 <_start-0x5459d>
     d54:	d3270100 	.inst	0xd3270100 ; undefined
     d58:	02000000 	.inst	0x02000000 ; undefined
     d5c:	12007891 	and	w17, w4, #0x7fffffff
     d60:	0001b808 	.inst	0x0001b808 ; undefined
     d64:	02d71600 	.inst	0x02d71600 ; undefined
     d68:	2c010000 	stnp	s0, s0, [x0,#8]
     d6c:	000001c3 	.inst	0x000001c3 ; undefined
     d70:	000810e0 	.inst	0x000810e0 ; undefined
     d74:	00000000 	.inst	0x00000000 ; undefined
     d78:	00000188 	.inst	0x00000188 ; undefined
     d7c:	00000000 	.inst	0x00000000 ; undefined
     d80:	034f9c01 	.inst	0x034f9c01 ; undefined
     d84:	ea0f0000 	ands	x0, x0, x15
     d88:	01000003 	.inst	0x01000003 ; undefined
     d8c:	0000d32c 	.inst	0x0000d32c ; undefined
     d90:	58910200 	ldr	x0, fffffffffff22dd0 <__stack_top+0xffffffffffe82dd0>
     d94:	0003b00f 	.inst	0x0003b00f ; undefined
     d98:	d32c0100 	.inst	0xd32c0100 ; undefined
     d9c:	02000000 	.inst	0x02000000 ; undefined
     da0:	61145091 	.inst	0x61145091 ; undefined
     da4:	01006772 	.inst	0x01006772 ; undefined
     da8:	0000d32c 	.inst	0x0000d32c ; undefined
     dac:	48910200 	stllrh	w0, [x16]
     db0:	0002ff0f 	.inst	0x0002ff0f ; undefined
     db4:	d32c0100 	.inst	0xd32c0100 ; undefined
     db8:	02000000 	.inst	0x02000000 ; undefined
     dbc:	70154091 	adr	x17, 2b5cf <_start-0x54a31>
     dc0:	622e0100 	.inst	0x622e0100 ; undefined
     dc4:	02000002 	.inst	0x02000002 ; undefined
     dc8:	15117891 	b	445f00c <__stack_top+0x43bf00c>
     dcc:	01000003 	.inst	0x01000003 ; undefined
     dd0:	0002a434 	.inst	0x0002a434 ; undefined
     dd4:	70910200 	adr	x0, fffffffffff22e17 <__stack_top+0xffffffffffe82e17>
     dd8:	0002f217 	.inst	0x0002f217 ; undefined
     ddc:	c3350100 	.inst	0xc3350100 ; undefined
     de0:	2e000001 	ext	v1.8b, v0.8b, v0.8b, #0
     de4:	18000003 	ldr	w3, de4 <_start-0x7f21c>
     de8:	116c1900 	add	w0, w8, #0xb06, lsl #12
     dec:	00000008 	.inst	0x00000008 ; undefined
     df0:	00580000 	.inst	0x00580000 ; undefined
     df4:	00000000 	.inst	0x00000000 ; undefined
     df8:	b5110000 	cbnz	x0, 22df8 <_start-0x5d208>
     dfc:	01000003 	.inst	0x01000003 ; undefined
     e00:	0002a43c 	.inst	0x0002a43c ; undefined
     e04:	68910200 	.inst	0x68910200 ; undefined
     e08:	87100000 	.inst	0x87100000 ; undefined
     e0c:	01000003 	.inst	0x01000003 ; undefined
     e10:	0812685a 	stxrb	w18, w26, [x2]
     e14:	00000000 	.inst	0x00000000 ; undefined
     e18:	0001c000 	.inst	0x0001c000 ; undefined
     e1c:	00000000 	.inst	0x00000000 ; undefined
     e20:	d59c0100 	.inst	0xd59c0100 ; undefined
     e24:	11000003 	add	w3, w0, #0x0
     e28:	00000305 	.inst	0x00000305 ; undefined
     e2c:	01c35c01 	.inst	0x01c35c01 ; undefined
     e30:	91020000 	add	x0, x0, #0x80
     e34:	0070157c 	.inst	0x0070157c ; undefined
     e38:	02625d01 	.inst	0x02625d01 ; undefined
     e3c:	91020000 	add	x0, x0, #0x80
     e40:	02c61168 	.inst	0x02c61168 ; undefined
     e44:	5e010000 	sha1c	q0, s0, v1.4s
     e48:	000001c3 	.inst	0x000001c3 ; undefined
     e4c:	1a789102 	.inst	0x1a789102 ; undefined
     e50:	000812cc 	.inst	0x000812cc ; undefined
     e54:	00000000 	.inst	0x00000000 ; undefined
     e58:	000000a4 	.inst	0x000000a4 ; undefined
     e5c:	00000000 	.inst	0x00000000 ; undefined
     e60:	000003b6 	.inst	0x000003b6 ; undefined
     e64:	01006915 	.inst	0x01006915 ; undefined
     e68:	0001c365 	.inst	0x0001c365 ; undefined
     e6c:	74910200 	.inst	0x74910200 ; undefined
     e70:	137c1900 	.inst	0x137c1900 ; undefined
     e74:	00000008 	.inst	0x00000008 ; undefined
     e78:	00600000 	.inst	0x00600000 ; undefined
     e7c:	00000000 	.inst	0x00000000 ; undefined
     e80:	69150000 	.inst	0x69150000 ; undefined
     e84:	c36f0100 	.inst	0xc36f0100 ; undefined
     e88:	02000001 	.inst	0x02000001 ; undefined
     e8c:	00007091 	.inst	0x00007091 ; undefined
     e90:	0004081b 	.inst	0x0004081b ; undefined
     e94:	287c0100 	ldnp	w0, w0, [x8,#-32]
     e98:	00000814 	.inst	0x00000814 ; undefined
     e9c:	18000000 	ldr	w0, e9c <_start-0x7f164>
     ea0:	00000000 	.inst	0x00000000 ; undefined
     ea4:	01000000 	.inst	0x01000000 ; undefined
     ea8:	029e1c9c 	.inst	0x029e1c9c ; undefined
     eac:	80010000 	.inst	0x80010000 ; undefined
     eb0:	00081440 	.inst	0x00081440 ; undefined
     eb4:	00000000 	.inst	0x00000000 ; undefined
     eb8:	00000068 	.inst	0x00000068 ; undefined
     ebc:	00000000 	.inst	0x00000000 ; undefined
     ec0:	911c9c01 	add	x1, x0, #0x727
     ec4:	01000005 	.inst	0x01000005 ; undefined
     ec8:	0814a888 	stlxrb	w20, w8, [x4]
     ecc:	00000000 	.inst	0x00000000 ; undefined
     ed0:	00006000 	.inst	0x00006000 ; undefined
     ed4:	00000000 	.inst	0x00000000 ; undefined
     ed8:	1d9c0100 	.inst	0x1d9c0100 ; undefined
     edc:	0000031f 	.inst	0x0000031f ; undefined
     ee0:	15089301 	b	4225ae4 <__stack_top+0x4185ae4>
     ee4:	00000008 	.inst	0x00000008 ; undefined
     ee8:	014c0000 	.inst	0x014c0000 ; undefined
     eec:	00000000 	.inst	0x00000000 ; undefined
     ef0:	9c010000 	ldr	q0, 2ef0 <_start-0x7d110>
     ef4:	000004fa 	.inst	0x000004fa ; undefined
     ef8:	0815101a 	stxrb	w21, w26, [x0]
     efc:	00000000 	.inst	0x00000000 ; undefined
     f00:	0000d800 	.inst	0x0000d800 ; undefined
     f04:	00000000 	.inst	0x00000000 ; undefined
     f08:	0004bd00 	.inst	0x0004bd00 ; undefined
     f0c:	00691500 	.inst	0x00691500 ; undefined
     f10:	01c39401 	.inst	0x01c39401 ; undefined
     f14:	91020000 	add	x0, x0, #0x80
     f18:	1518197c 	b	4607508 <__stack_top+0x4567508>
     f1c:	00000008 	.inst	0x00000008 ; undefined
     f20:	00ac0000 	.inst	0x00ac0000 ; undefined
     f24:	00000000 	.inst	0x00000000 ; undefined
     f28:	65110000 	.inst	0x65110000 ; undefined
     f2c:	01000003 	.inst	0x01000003 ; undefined
     f30:	00026295 	.inst	0x00026295 ; undefined
     f34:	68910200 	.inst	0x68910200 ; undefined
     f38:	08154819 	stxrb	w21, w25, [x0]
     f3c:	00000000 	.inst	0x00000000 ; undefined
     f40:	00007c00 	.inst	0x00007c00 ; undefined
     f44:	00000000 	.inst	0x00000000 ; undefined
     f48:	006a1500 	.inst	0x006a1500 ; undefined
     f4c:	01c39801 	.inst	0x01c39801 ; undefined
     f50:	91020000 	add	x0, x0, #0x80
     f54:	15581978 	b	5607534 <__stack_top+0x5567534>
     f58:	00000008 	.inst	0x00000008 ; undefined
     f5c:	00540000 	.inst	0x00540000 ; undefined
     f60:	00000000 	.inst	0x00000000 ; undefined
     f64:	73150000 	.inst	0x73150000 ; undefined
     f68:	01006372 	.inst	0x01006372 ; undefined
     f6c:	00026299 	.inst	0x00026299 ; undefined
     f70:	60910200 	.inst	0x60910200 ; undefined
     f74:	00000000 	.inst	0x00000000 ; undefined
     f78:	0815e819 	stlxrb	w21, w25, [x0]
     f7c:	00000000 	.inst	0x00000000 ; undefined
     f80:	00006000 	.inst	0x00006000 ; undefined
     f84:	00000000 	.inst	0x00000000 ; undefined
     f88:	00691500 	.inst	0x00691500 ; undefined
     f8c:	01c3a101 	.inst	0x01c3a101 ; undefined
     f90:	91020000 	add	x0, x0, #0x80
     f94:	15f01974 	b	7c07564 <__stack_top+0x7b67564>
     f98:	00000008 	.inst	0x00000008 ; undefined
     f9c:	00400000 	.inst	0x00400000 ; undefined
     fa0:	00000000 	.inst	0x00000000 ; undefined
     fa4:	70150000 	adr	x0, 2afa7 <_start-0x55059>
     fa8:	62a20100 	.inst	0x62a20100 ; undefined
     fac:	02000002 	.inst	0x02000002 ; undefined
     fb0:	00005891 	.inst	0x00005891 ; undefined
     fb4:	03101000 	.inst	0x03101000 ; undefined
     fb8:	a7010000 	.inst	0xa7010000 ; undefined
     fbc:	00081654 	.inst	0x00081654 ; undefined
     fc0:	00000000 	.inst	0x00000000 ; undefined
     fc4:	000000c8 	.inst	0x000000c8 ; undefined
     fc8:	00000000 	.inst	0x00000000 ; undefined
     fcc:	05549c01 	.inst	0x05549c01 ; undefined
     fd0:	60190000 	.inst	0x60190000 ; undefined
     fd4:	00000816 	.inst	0x00000816 ; undefined
     fd8:	78000000 	sturh	w0, [x0]
     fdc:	00000000 	.inst	0x00000000 ; undefined
     fe0:	15000000 	b	4000fe0 <__stack_top+0x3f60fe0>
     fe4:	ab010069 	adds	x9, x3, x1
     fe8:	000001c3 	.inst	0x000001c3 ; undefined
     fec:	197c9102 	.inst	0x197c9102 ; undefined
     ff0:	00081668 	.inst	0x00081668 ; undefined
     ff4:	00000000 	.inst	0x00000000 ; undefined
     ff8:	00000058 	.inst	0x00000058 ; undefined
     ffc:	00000000 	.inst	0x00000000 ; undefined
    1000:	01007015 	.inst	0x01007015 ; undefined
    1004:	000262ac 	.inst	0x000262ac ; undefined
    1008:	70910200 	adr	x0, fffffffffff2304b <__stack_top+0xffffffffffe8304b>
    100c:	10000000 	adr	x0, 100c <_start-0x7eff4>
    1010:	0000059a 	.inst	0x0000059a ; undefined
    1014:	171cbc01 	b	fffffffffc730018 <__stack_top+0xfffffffffc690018>
    1018:	00000008 	.inst	0x00000008 ; undefined
    101c:	00580000 	.inst	0x00580000 ; undefined
    1020:	00000000 	.inst	0x00000000 ; undefined
    1024:	9c010000 	ldr	q0, 3024 <_start-0x7cfdc>
    1028:	000005a9 	.inst	0x000005a9 ; undefined
    102c:	0004e30f 	.inst	0x0004e30f ; undefined
    1030:	a9bc0100 	stp	x0, x0, [x8,#-64]!
    1034:	02000005 	.inst	0x02000005 ; undefined
    1038:	fa0f6891 	.inst	0xfa0f6891 ; undefined
    103c:	01000002 	.inst	0x01000002 ; undefined
    1040:	0005b6bc 	.inst	0x0005b6bc ; undefined
    1044:	60910200 	.inst	0x60910200 ; undefined
    1048:	74657215 	.inst	0x74657215 ; undefined
    104c:	d3bd0100 	.inst	0xd3bd0100 ; undefined
    1050:	02000000 	.inst	0x02000000 ; undefined
    1054:	c51e7891 	.inst	0xc51e7891 ; undefined
    1058:	01000003 	.inst	0x01000003 ; undefined
    105c:	0001c3bd 	.inst	0x0001c3bd ; undefined
    1060:	00001800 	.inst	0x00001800 ; undefined
    1064:	05af0812 	.inst	0x05af0812 ; undefined
    1068:	01040000 	.inst	0x01040000 ; undefined
    106c:	0004f108 	.inst	0x0004f108 ; undefined
    1070:	a9081200 	stp	x0, x4, [x16,#128]
    1074:	1f000005 	fmadd	s5, s0, s0, s0
    1078:	000003f6 	.inst	0x000003f6 ; undefined
    107c:	01c31101 	.inst	0x01c31101 ; undefined
    1080:	03090000 	.inst	0x03090000 ; undefined
    1084:	00084c58 	.inst	0x00084c58 ; undefined
    1088:	00000000 	.inst	0x00000000 ; undefined
    108c:	0002620a 	.inst	0x0002620a ; undefined
    1090:	0005e100 	.inst	0x0005e100 ; undefined
    1094:	01b10b00 	.inst	0x01b10b00 ; undefined
    1098:	003f0000 	.inst	0x003f0000 ; NYI
    109c:	00037d1f 	.inst	0x00037d1f ; undefined
    10a0:	d10e0100 	sub	x0, x8, #0x380
    10a4:	09000005 	.inst	0x09000005 ; undefined
    10a8:	084a5003 	ldxrb	w3, [x0]
    10ac:	00000000 	.inst	0x00000000 ; undefined
    10b0:	033c1f00 	.inst	0x033c1f00 ; undefined
    10b4:	0f010000 	.inst	0x0f010000 ; undefined
    10b8:	00000262 	.inst	0x00000262 ; undefined
    10bc:	4c500309 	.inst	0x4c500309 ; undefined
    10c0:	00000008 	.inst	0x00000008 ; undefined
    10c4:	5a1f0000 	sbc	w0, w0, wzr
    10c8:	01000003 	.inst	0x01000003 ; undefined
    10cc:	0001c310 	.inst	0x0001c310 ; undefined
    10d0:	30030900 	adr	x0, 71f1 <_start-0x78e0f>
    10d4:	00000849 	.inst	0x00000849 ; undefined
    10d8:	00000000 	.inst	0x00000000 ; undefined
    10dc:	0000030d 	.inst	0x0000030d ; undefined
    10e0:	051c0004 	.inst	0x051c0004 ; undefined
    10e4:	01080000 	.inst	0x01080000 ; undefined
    10e8:	000000b1 	.inst	0x000000b1 ; undefined
    10ec:	0004400c 	.inst	0x0004400c ; undefined
    10f0:	00003100 	.inst	0x00003100 ; undefined
    10f4:	08177400 	stxrb	w23, w0, [x0]
    10f8:	00000000 	.inst	0x00000000 ; undefined
    10fc:	0001f000 	.inst	0x0001f000 ; undefined
    1100:	00000000 	.inst	0x00000000 ; undefined
    1104:	00056f00 	.inst	0x00056f00 ; undefined
    1108:	05040200 	.inst	0x05040200 ; undefined
    110c:	00746e69 	.inst	0x00746e69 ; undefined
    1110:	0002e503 	.inst	0x0002e503 ; undefined
    1114:	17026800 	b	fffffffffc09b114 <__stack_top+0xfffffffffbffb114>
    1118:	000000da 	.inst	0x000000da ; undefined
    111c:	39317804 	strb	w4, [x0,#3166]
    1120:	da180200 	sbc	x0, x16, x24
    1124:	00000000 	.inst	0x00000000 ; undefined
    1128:	30327804 	adr	x4, 66029 <_start-0x19fd7>
    112c:	da190200 	sbc	x0, x16, x25
    1130:	08000000 	stxrb	w0, w0, [x0]
    1134:	31327804 	adds	w4, w0, #0xc9e
    1138:	da1a0200 	sbc	x0, x16, x26
    113c:	10000000 	adr	x0, 113c <_start-0x7eec4>
    1140:	32327804 	orr	w4, w0, #0xffffdfff
    1144:	da1b0200 	sbc	x0, x16, x27
    1148:	18000000 	ldr	w0, 1148 <_start-0x7eeb8>
    114c:	33327804 	.inst	0x33327804 ; undefined
    1150:	da1c0200 	sbc	x0, x16, x28
    1154:	20000000 	.inst	0x20000000 ; undefined
    1158:	34327804 	cbz	w4, 66058 <_start-0x19fa8>
    115c:	da1d0200 	sbc	x0, x16, x29
    1160:	28000000 	stnp	w0, w0, [x0]
    1164:	35327804 	cbnz	w4, 66064 <_start-0x19f9c>
    1168:	da1e0200 	sbc	x0, x16, x30
    116c:	30000000 	adr	x0, 116d <_start-0x7ee93>
    1170:	36327804 	tbz	w4, #6, 6070 <_start-0x79f90>
    1174:	da1f0200 	sbc	x0, x16, xzr
    1178:	38000000 	sturb	w0, [x0]
    117c:	37327804 	tbnz	w4, #6, 607c <_start-0x79f84>
    1180:	da200200 	.inst	0xda200200 ; undefined
    1184:	40000000 	.inst	0x40000000 ; undefined
    1188:	38327804 	strb	w4, [x0,x18,lsl #0]
    118c:	da210200 	.inst	0xda210200 ; undefined
    1190:	48000000 	stxrh	w0, w0, [x0]
    1194:	00706604 	.inst	0x00706604 ; undefined
    1198:	00da2202 	.inst	0x00da2202 ; undefined
    119c:	04500000 	.inst	0x04500000 ; undefined
    11a0:	02006370 	.inst	0x02006370 ; undefined
    11a4:	0000da23 	.inst	0x0000da23 ; undefined
    11a8:	73045800 	.inst	0x73045800 ; undefined
    11ac:	24020070 	.inst	0x24020070 ; undefined
    11b0:	000000da 	.inst	0x000000da ; undefined
    11b4:	08050060 	stxrb	w5, w0, [x3]
    11b8:	00004d07 	.inst	0x00004d07 ; undefined
    11bc:	02e60600 	.inst	0x02e60600 ; undefined
    11c0:	26020000 	.inst	0x26020000 ; undefined
    11c4:	00000034 	.inst	0x00000034 ; undefined
    11c8:	0002dd03 	.inst	0x0002dd03 ; undefined
    11cc:	28029000 	stnp	w0, w4, [x0,#20]
    11d0:	00000158 	.inst	0x00000158 ; undefined
    11d4:	0002e607 	.inst	0x0002e607 ; undefined
    11d8:	e1290200 	.inst	0xe1290200 ; undefined
    11dc:	00000000 	.inst	0x00000000 ; undefined
    11e0:	00646904 	.inst	0x00646904 ; undefined
    11e4:	01582a02 	.inst	0x01582a02 ; undefined
    11e8:	07680000 	.inst	0x07680000 ; undefined
    11ec:	000003bf 	.inst	0x000003bf ; undefined
    11f0:	01582b02 	.inst	0x01582b02 ; undefined
    11f4:	076c0000 	.inst	0x076c0000 ; undefined
    11f8:	00000344 	.inst	0x00000344 ; undefined
    11fc:	01582c02 	.inst	0x01582c02 ; undefined
    1200:	07700000 	.inst	0x07700000 ; undefined
    1204:	0000032e 	.inst	0x0000032e ; undefined
    1208:	01582d02 	.inst	0x01582d02 ; undefined
    120c:	07740000 	.inst	0x07740000 ; undefined
    1210:	000002b9 	.inst	0x000002b9 ; undefined
    1214:	01582f02 	.inst	0x01582f02 ; undefined
    1218:	07780000 	.inst	0x07780000 ; undefined
    121c:	000002ff 	.inst	0x000002ff ; undefined
    1220:	00da3002 	.inst	0x00da3002 ; undefined
    1224:	07800000 	.inst	0x07800000 ; undefined
    1228:	000003f0 	.inst	0x000003f0 ; undefined
    122c:	00da3102 	.inst	0x00da3102 ; undefined
    1230:	00880000 	.inst	0x00880000 ; undefined
    1234:	52070405 	eor	w5, w0, #0x6000000
    1238:	06000000 	.inst	0x06000000 ; undefined
    123c:	000002de 	.inst	0x000002de ; undefined
    1240:	00ec3202 	.inst	0x00ec3202 ; undefined
    1244:	08050000 	stxrb	w5, w0, [x0]
    1248:	0001e507 	.inst	0x0001e507 ; undefined
    124c:	04160800 	.inst	0x04160800 ; undefined
    1250:	06010000 	.inst	0x06010000 ; undefined
    1254:	00081774 	.inst	0x00081774 ; undefined
    1258:	00000000 	.inst	0x00000000 ; undefined
    125c:	00000074 	.inst	0x00000074 ; undefined
    1260:	00000000 	.inst	0x00000000 ; undefined
    1264:	01c79c01 	.inst	0x01c79c01 ; undefined
    1268:	53090000 	ubfiz	w0, w0, #23, #1
    126c:	01000004 	.inst	0x01000004 ; undefined
    1270:	0000da07 	.inst	0x0000da07 ; undefined
    1274:	78910200 	ldursh	x0, [x16,#-240]
    1278:	00045909 	.inst	0x00045909 ; undefined
    127c:	da080100 	sbc	x0, x8, x8
    1280:	02000000 	.inst	0x02000000 ; undefined
    1284:	5f097091 	.inst	0x5f097091 ; undefined
    1288:	01000004 	.inst	0x01000004 ; undefined
    128c:	0000da09 	.inst	0x0000da09 ; undefined
    1290:	68910200 	.inst	0x68910200 ; undefined
    1294:	00046509 	.inst	0x00046509 ; undefined
    1298:	da0a0100 	sbc	x0, x8, x10
    129c:	02000000 	.inst	0x02000000 ; undefined
    12a0:	0a006091 	and	w17, w4, w0, lsl #24
    12a4:	006f6f66 	.inst	0x006f6f66 ; undefined
    12a8:	17e81301 	b	ffffffffffa05eac <__stack_top+0xffffffffff965eac>
    12ac:	00000008 	.inst	0x00000008 ; undefined
    12b0:	00880000 	.inst	0x00880000 ; undefined
    12b4:	00000000 	.inst	0x00000000 ; undefined
    12b8:	9c010000 	ldr	q0, 32b8 <_start-0x7cd48>
    12bc:	00000214 	.inst	0x00000214 ; undefined
    12c0:	0005910b 	.inst	0x0005910b ; undefined
    12c4:	2d1d0100 	stp	s0, s0, [x8,#232]
    12c8:	f5000000 	.inst	0xf5000000 ; undefined
    12cc:	0c000001 	st4	{v1.8b-v4.8b}, [x0]
    12d0:	17f00d00 	b	ffffffffffc046d0 <__stack_top+0xffffffffffb646d0>
    12d4:	00000008 	.inst	0x00000008 ; undefined
    12d8:	00700000 	.inst	0x00700000 ; undefined
    12dc:	00000000 	.inst	0x00000000 ; undefined
    12e0:	690e0000 	.inst	0x690e0000 ; undefined
    12e4:	2d140100 	stp	s0, s0, [x8,#160]
    12e8:	02000000 	.inst	0x02000000 ; undefined
    12ec:	00007c91 	.inst	0x00007c91 ; undefined
    12f0:	00042b0f 	.inst	0x00042b0f ; undefined
    12f4:	70200100 	adr	x0, 41317 <_start-0x3ece9>
    12f8:	00000818 	.inst	0x00000818 ; undefined
    12fc:	78000000 	sturh	w0, [x0]
    1300:	00000000 	.inst	0x00000000 ; undefined
    1304:	01000000 	.inst	0x01000000 ; undefined
    1308:	00028a9c 	.inst	0x00028a9c ; undefined
    130c:	004e1000 	.inst	0x004e1000 ; undefined
    1310:	002d2001 	.inst	0x002d2001 ; NYI
    1314:	91020000 	add	x0, x0, #0x80
    1318:	02c1096c 	.inst	0x02c1096c ; undefined
    131c:	24010000 	.inst	0x24010000 ; undefined
    1320:	0000002d 	.inst	0x0000002d ; undefined
    1324:	0d749102 	.inst	0x0d749102 ; undefined
    1328:	0008187c 	.inst	0x0008187c ; undefined
    132c:	00000000 	.inst	0x00000000 ; undefined
    1330:	00000044 	.inst	0x00000044 ; undefined
    1334:	00000000 	.inst	0x00000000 ; undefined
    1338:	0100690e 	.inst	0x0100690e ; undefined
    133c:	00002d21 	.inst	0x00002d21 ; undefined
    1340:	7c910200 	.inst	0x7c910200 ; undefined
    1344:	0818840d 	stlxrb	w24, w13, [x0]
    1348:	00000000 	.inst	0x00000000 ; undefined
    134c:	00002000 	.inst	0x00002000 ; undefined
    1350:	00000000 	.inst	0x00000000 ; undefined
    1354:	02c10900 	.inst	0x02c10900 ; undefined
    1358:	22010000 	.inst	0x22010000 ; undefined
    135c:	0000002d 	.inst	0x0000002d ; undefined
    1360:	00789102 	.inst	0x00789102 ; undefined
    1364:	3b080000 	.inst	0x3b080000 ; undefined
    1368:	01000004 	.inst	0x01000004 ; undefined
    136c:	0818e828 	stlxrb	w24, w8, [x1]
    1370:	00000000 	.inst	0x00000000 ; undefined
    1374:	00004c00 	.inst	0x00004c00 ; undefined
    1378:	00000000 	.inst	0x00000000 ; undefined
    137c:	b69c0100 	tbz	x0, #51, ffffffffffff939c <__stack_top+0xfffffffffff5939c>
    1380:	09000002 	.inst	0x09000002 ; undefined
    1384:	000002fa 	.inst	0x000002fa ; undefined
    1388:	02b62901 	.inst	0x02b62901 ; undefined
    138c:	91020000 	add	x0, x0, #0x80
    1390:	c6110058 	.inst	0xc6110058 ; undefined
    1394:	c6000002 	.inst	0xc6000002 ; undefined
    1398:	12000002 	and	w2, w0, #0x1
    139c:	0000016a 	.inst	0x0000016a ; undefined
    13a0:	08130004 	stxrb	w19, w4, [x0]
    13a4:	000002cc 	.inst	0x000002cc ; undefined
    13a8:	f1080105 	subs	x5, x8, #0x200
    13ac:	08000004 	stxrb	w0, w4, [x0]
    13b0:	0000041b 	.inst	0x0000041b ; undefined
    13b4:	19342e01 	.inst	0x19342e01 ; undefined
    13b8:	00000008 	.inst	0x00000008 ; undefined
    13bc:	00300000 	.inst	0x00300000 ; NYI
    13c0:	00000000 	.inst	0x00000000 ; undefined
    13c4:	9c010000 	ldr	q0, 33c4 <_start-0x7cc3c>
    13c8:	000002ff 	.inst	0x000002ff ; undefined
    13cc:	0002c109 	.inst	0x0002c109 ; undefined
    13d0:	2d2f0100 	stp	s0, s0, [x8,#-136]
    13d4:	02000000 	.inst	0x02000000 ; undefined
    13d8:	14007c91 	b	2061c <_start-0x5f9e4>
    13dc:	0000033c 	.inst	0x0000033c ; undefined
    13e0:	030a3d02 	.inst	0x030a3d02 ; undefined
    13e4:	08130000 	stxrb	w19, w0, [x0]
    13e8:	0000015f 	.inst	0x0000015f ; undefined
    13ec:	00005700 	.inst	0x00005700 ; undefined
    13f0:	42000200 	.inst	0x42000200 ; undefined
    13f4:	08000006 	stxrb	w0, w6, [x0]
    13f8:	00062f01 	.inst	0x00062f01 ; undefined
    13fc:	08196400 	stxrb	w25, w0, [x0]
    1400:	00000000 	.inst	0x00000000 ; undefined
    1404:	0819b400 	stlxrb	w25, w0, [x0]
    1408:	00000000 	.inst	0x00000000 ; undefined
    140c:	72656b00 	.inst	0x72656b00 ; undefined
    1410:	2f6c656e 	.inst	0x2f6c656e ; undefined
    1414:	65686373 	.inst	0x65686373 ; undefined
    1418:	00532e64 	.inst	0x00532e64 ; undefined
    141c:	6d6f682f 	ldp	d15, d26, [x1,#-272]
    1420:	61732f65 	.inst	0x61732f65 ; undefined
    1424:	68636172 	.inst	0x68636172 ; undefined
    1428:	6e2f7569 	uabd	v9.16b, v11.16b, v15.16b
    142c:	2f757463 	.inst	0x2f757463 ; undefined
    1430:	3263736f 	.inst	0x3263736f ; undefined
    1434:	00313230 	.inst	0x00313230 ; NYI
    1438:	20554e47 	.inst	0x20554e47 ; undefined
    143c:	32205341 	orr	w1, w26, #0x1fffff
    1440:	2e36322e 	usubw	v14.8h, v17.8h, v22.8b
    1444:	80010031 	.inst	0x80010031 ; undefined
    1448:	0000005e 	.inst	0x0000005e ; undefined
    144c:	06560002 	.inst	0x06560002 ; undefined
    1450:	01080000 	.inst	0x01080000 ; undefined
    1454:	00000682 	.inst	0x00000682 ; undefined
    1458:	00082000 	.inst	0x00082000 ; undefined
    145c:	00000000 	.inst	0x00000000 ; undefined
    1460:	0008300c 	.inst	0x0008300c ; undefined
    1464:	00000000 	.inst	0x00000000 ; undefined
    1468:	6e72656b 	umax	v11.8h, v11.8h, v18.8h
    146c:	782f6c65 	.inst	0x782f6c65 ; undefined
    1470:	5f747063 	sqdmlsl	s3, h3, v4.h[3]
    1474:	646e6168 	.inst	0x646e6168 ; undefined
    1478:	2e72656c 	umax	v12.4h, v11.4h, v18.4h
    147c:	682f0053 	.inst	0x682f0053 ; undefined
    1480:	2f656d6f 	.inst	0x2f656d6f ; undefined
    1484:	61726173 	.inst	0x61726173 ; undefined
    1488:	75696863 	.inst	0x75696863 ; undefined
    148c:	74636e2f 	.inst	0x74636e2f ; undefined
    1490:	736f2f75 	.inst	0x736f2f75 ; undefined
    1494:	32303263 	orr	w3, w19, #0x1fff0000
    1498:	4e470031 	.inst	0x4e470031 ; undefined
    149c:	53412055 	.inst	0x53412055 ; undefined
    14a0:	322e3220 	orr	w0, w17, #0x7ffc0000
    14a4:	00312e36 	.inst	0x00312e36 ; NYI
    14a8:	041f8001 	.inst	0x041f8001 ; undefined
    14ac:	00040000 	.inst	0x00040000 ; undefined
    14b0:	0000066a 	.inst	0x0000066a ; undefined
    14b4:	00b10108 	.inst	0x00b10108 ; undefined
    14b8:	6b0c0000 	subs	w0, w0, w12
    14bc:	31000004 	adds	w4, w0, #0x0
    14c0:	0c000000 	st4	{v0.8b-v3.8b}, [x0]
    14c4:	00000830 	.inst	0x00000830 ; undefined
    14c8:	e4000000 	.inst	0xe4000000 ; undefined
    14cc:	00000009 	.inst	0x00000009 ; undefined
    14d0:	0e000000 	tbl	v0.8b, {v0.16b}, v0.8b
    14d4:	02000007 	.inst	0x02000007 ; undefined
    14d8:	6e690504 	uhadd	v4.8h, v8.8h, v9.8h
    14dc:	8b030074 	add	x20, x3, x3
    14e0:	01000004 	.inst	0x01000004 ; undefined
    14e4:	08300c2d 	.inst	0x08300c2d ; undefined
    14e8:	00000000 	.inst	0x00000000 ; undefined
    14ec:	00020800 	.inst	0x00020800 ; undefined
    14f0:	00000000 	.inst	0x00000000 ; undefined
    14f4:	d69c0100 	.inst	0xd69c0100 ; undefined
    14f8:	04000000 	.inst	0x04000000 ; undefined
    14fc:	000001af 	.inst	0x000001af ; undefined
    1500:	00d62d01 	.inst	0x00d62d01 ; undefined
    1504:	91020000 	add	x0, x0, #0x80
    1508:	04bf0548 	.inst	0x04bf0548 ; undefined
    150c:	31010000 	adds	w0, w0, #0x40
    1510:	000000e3 	.inst	0x000000e3 ; undefined
    1514:	06789102 	.inst	0x06789102 ; undefined
    1518:	00083048 	.inst	0x00083048 ; undefined
    151c:	00000000 	.inst	0x00000000 ; undefined
    1520:	000001bc 	.inst	0x000001bc ; undefined
    1524:	00000000 	.inst	0x00000000 ; undefined
    1528:	0004b505 	.inst	0x0004b505 ; undefined
    152c:	2d330100 	stp	s0, s0, [x8,#-104]
    1530:	02000000 	.inst	0x02000000 ; undefined
    1534:	a1057091 	.inst	0xa1057091 ; undefined
    1538:	01000004 	.inst	0x01000004 ; undefined
    153c:	00002d34 	.inst	0x00002d34 ; undefined
    1540:	6c910200 	stp	d0, d0, [x16],#272
    1544:	0004de05 	.inst	0x0004de05 ; undefined
    1548:	d63f0100 	blr	x8
    154c:	02000000 	.inst	0x02000000 ; undefined
    1550:	0a056091 	and	w17, w4, w5, lsl #24
    1554:	01000005 	.inst	0x01000005 ; undefined
    1558:	0000e346 	.inst	0x0000e346 ; undefined
    155c:	58910200 	ldr	x0, fffffffffff2359c <__stack_top+0xffffffffffe8359c>
    1560:	08318c06 	.inst	0x08318c06 ; undefined
    1564:	00000000 	.inst	0x00000000 ; undefined
    1568:	00005800 	.inst	0x00005800 ; undefined
    156c:	00000000 	.inst	0x00000000 ; undefined
    1570:	00690700 	.inst	0x00690700 ; undefined
    1574:	002d4801 	.inst	0x002d4801 ; NYI
    1578:	91020000 	add	x0, x0, #0x80
    157c:	00000074 	.inst	0x00000074 ; undefined
    1580:	00dc0808 	.inst	0x00dc0808 ; undefined
    1584:	01090000 	.inst	0x01090000 ; undefined
    1588:	0004f108 	.inst	0x0004f108 ; undefined
    158c:	e9080800 	.inst	0xe9080800 ; undefined
    1590:	09000000 	.inst	0x09000000 ; undefined
    1594:	04e80801 	.inst	0x04e80801 ; undefined
    1598:	970a0000 	bl	fffffffffc281598 <__stack_top+0xfffffffffc1e1598>
    159c:	01000004 	.inst	0x01000004 ; undefined
    15a0:	08321456 	.inst	0x08321456 ; undefined
    15a4:	00000000 	.inst	0x00000000 ; undefined
    15a8:	00017000 	.inst	0x00017000 ; undefined
    15ac:	00000000 	.inst	0x00000000 ; undefined
    15b0:	5b9c0100 	.inst	0x5b9c0100 ; undefined
    15b4:	05000001 	.inst	0x05000001 ; undefined
    15b8:	000004bf 	.inst	0x000004bf ; undefined
    15bc:	00e35701 	.inst	0x00e35701 ; undefined
    15c0:	91020000 	add	x0, x0, #0x80
    15c4:	01af0578 	.inst	0x01af0578 ; undefined
    15c8:	70010000 	adr	x0, 35cb <_start-0x7ca35>
    15cc:	0000015b 	.inst	0x0000015b ; undefined
    15d0:	7f809103 	fmulx	s3, s8, v0.s[0]
    15d4:	0000300b 	.inst	0x0000300b ; undefined
    15d8:	04b50500 	.inst	0x04b50500 ; undefined
    15dc:	59010000 	.inst	0x59010000 ; undefined
    15e0:	0000002d 	.inst	0x0000002d ; undefined
    15e4:	05749102 	.inst	0x05749102 ; undefined
    15e8:	000004a1 	.inst	0x000004a1 ; undefined
    15ec:	002d5a01 	.inst	0x002d5a01 ; NYI
    15f0:	91020000 	add	x0, x0, #0x80
    15f4:	04de0570 	.inst	0x04de0570 ; undefined
    15f8:	65010000 	.inst	0x65010000 ; undefined
    15fc:	000000d6 	.inst	0x000000d6 ; undefined
    1600:	00689102 	.inst	0x00689102 ; undefined
    1604:	00dc0c00 	.inst	0x00dc0c00 ; undefined
    1608:	016b0000 	.inst	0x016b0000 ; undefined
    160c:	6b0d0000 	subs	w0, w0, w13
    1610:	63000001 	.inst	0x63000001 ; undefined
    1614:	07080900 	.inst	0x07080900 ; undefined
    1618:	000001e5 	.inst	0x000001e5 ; undefined
    161c:	0004790a 	.inst	0x0004790a ; undefined
    1620:	84740100 	.inst	0x84740100 ; undefined
    1624:	00000833 	.inst	0x00000833 ; undefined
    1628:	10000000 	adr	x0, 1628 <_start-0x7e9d8>
    162c:	00000002 	.inst	0x00000002 ; undefined
    1630:	01000000 	.inst	0x01000000 ; undefined
    1634:	0002319c 	.inst	0x0002319c ; undefined
    1638:	01af0500 	.inst	0x01af0500 ; undefined
    163c:	75010000 	.inst	0x75010000 ; undefined
    1640:	0000015b 	.inst	0x0000015b ; undefined
    1644:	7ee09103 	.inst	0x7ee09103 ; undefined
    1648:	00050005 	.inst	0x00050005 ; undefined
    164c:	317a0100 	adds	w0, w8, #0xe80, lsl #12
    1650:	02000002 	.inst	0x02000002 ; undefined
    1654:	ab056891 	adds	x17, x4, x5, lsl #26
    1658:	01000004 	.inst	0x01000004 ; undefined
    165c:	00023c7b 	.inst	0x00023c7b ; undefined
    1660:	60910200 	.inst	0x60910200 ; undefined
    1664:	0004bf05 	.inst	0x0004bf05 ; undefined
    1668:	e37c0100 	.inst	0xe37c0100 ; undefined
    166c:	02000000 	.inst	0x02000000 ; undefined
    1670:	d0067891 	adrp	x17, cf13000 <__stack_top+0xce73000>
    1674:	00000833 	.inst	0x00000833 ; undefined
    1678:	b4000000 	cbz	x0, 1678 <_start-0x7e988>
    167c:	00000001 	.inst	0x00000001 ; undefined
    1680:	05000000 	.inst	0x05000000 ; undefined
    1684:	000004b5 	.inst	0x000004b5 ; undefined
    1688:	002d7f01 	.inst	0x002d7f01 ; NYI
    168c:	91020000 	add	x0, x0, #0x80
    1690:	04a1055c 	.inst	0x04a1055c ; undefined
    1694:	80010000 	.inst	0x80010000 ; undefined
    1698:	0000002d 	.inst	0x0000002d ; undefined
    169c:	05589102 	.inst	0x05589102 ; undefined
    16a0:	000004de 	.inst	0x000004de ; undefined
    16a4:	00d68b01 	.inst	0x00d68b01 ; undefined
    16a8:	91020000 	add	x0, x0, #0x80
    16ac:	050a0550 	.inst	0x050a0550 ; undefined
    16b0:	92010000 	and	x0, x0, #0x8000000080000000
    16b4:	000000e3 	.inst	0x000000e3 ; undefined
    16b8:	06489102 	.inst	0x06489102 ; undefined
    16bc:	00083518 	.inst	0x00083518 ; undefined
    16c0:	00000000 	.inst	0x00000000 ; undefined
    16c4:	00000044 	.inst	0x00000044 ; undefined
    16c8:	00000000 	.inst	0x00000000 ; undefined
    16cc:	01006907 	.inst	0x01006907 ; undefined
    16d0:	00002d94 	.inst	0x00002d94 ; undefined
    16d4:	74910200 	.inst	0x74910200 ; undefined
    16d8:	08000000 	stxrb	w0, w0, [x0]
    16dc:	00023708 	.inst	0x00023708 ; undefined
    16e0:	00e90e00 	.inst	0x00e90e00 ; undefined
    16e4:	08090000 	stxrb	w9, w0, [x0]
    16e8:	00004d07 	.inst	0x00004d07 ; undefined
    16ec:	04f60f00 	.inst	0x04f60f00 ; undefined
    16f0:	9e010000 	.inst	0x9e010000 ; undefined
    16f4:	0000023c 	.inst	0x0000023c ; undefined
    16f8:	00083594 	.inst	0x00083594 ; undefined
    16fc:	00000000 	.inst	0x00000000 ; undefined
    1700:	00000210 	.inst	0x00000210 ; undefined
    1704:	00000000 	.inst	0x00000000 ; undefined
    1708:	03439c01 	.inst	0x03439c01 ; undefined
    170c:	fa040000 	sbcs	x0, x0, x4
    1710:	01000002 	.inst	0x01000002 ; undefined
    1714:	0003439e 	.inst	0x0003439e ; undefined
    1718:	48910200 	stllrh	w0, [x16]
    171c:	0004ab04 	.inst	0x0004ab04 ; undefined
    1720:	3c9e0100 	stur	q0, [x8,#-32]
    1724:	02000002 	.inst	0x02000002 ; undefined
    1728:	14054091 	b	15196c <__stack_top+0xb196c>
    172c:	01000005 	.inst	0x01000005 ; undefined
    1730:	00002d9f 	.inst	0x00002d9f ; undefined
    1734:	7c910200 	.inst	0x7c910200 ; undefined
    1738:	00051905 	.inst	0x00051905 ; undefined
    173c:	2d9f0100 	stp	s0, s0, [x8,#248]!
    1740:	02000000 	.inst	0x02000000 ; undefined
    1744:	73077891 	.inst	0x73077891 ; undefined
    1748:	01006d75 	.inst	0x01006d75 ; undefined
    174c:	00002daa 	.inst	0x00002daa ; undefined
    1750:	54910200 	b.eq	fffffffffff23790 <__stack_top+0xffffffffffe83790>
    1754:	706d7407 	adr	x7, dc5d7 <__stack_top+0x3c5d7>
    1758:	d6af0100 	.inst	0xd6af0100 ; undefined
    175c:	02000000 	.inst	0x02000000 ; undefined
    1760:	1e056891 	.inst	0x1e056891 ; undefined
    1764:	01000005 	.inst	0x01000005 ; undefined
    1768:	0000d6b4 	.inst	0x0000d6b4 ; undefined
    176c:	60910200 	.inst	0x60910200 ; undefined
    1770:	0835a810 	.inst	0x0835a810 ; undefined
    1774:	00000000 	.inst	0x00000000 ; undefined
    1778:	00008c00 	.inst	0x00008c00 ; undefined
    177c:	00000000 	.inst	0x00000000 ; undefined
    1780:	00030600 	.inst	0x00030600 ; undefined
    1784:	00690700 	.inst	0x00690700 ; undefined
    1788:	002da001 	.inst	0x002da001 ; NYI
    178c:	91020000 	add	x0, x0, #0x80
    1790:	35d40674 	cbnz	w20, fffffffffffa985c <__stack_top+0xfffffffffff0985c>
    1794:	00000008 	.inst	0x00000008 ; undefined
    1798:	004c0000 	.inst	0x004c0000 ; undefined
    179c:	00000000 	.inst	0x00000000 ; undefined
    17a0:	6a070000 	ands	w0, w0, w7
    17a4:	2da40100 	stp	s0, s0, [x8,#-224]!
    17a8:	02000000 	.inst	0x02000000 ; undefined
    17ac:	00007091 	.inst	0x00007091 ; undefined
    17b0:	0836c806 	.inst	0x0836c806 ; undefined
    17b4:	00000000 	.inst	0x00000000 ; undefined
    17b8:	0000d000 	.inst	0x0000d000 ; undefined
    17bc:	00000000 	.inst	0x00000000 ; undefined
    17c0:	00690700 	.inst	0x00690700 ; undefined
    17c4:	002db501 	.inst	0x002db501 ; NYI
    17c8:	91020000 	add	x0, x0, #0x80
    17cc:	3708065c 	tbnz	w28, #1, 1894 <_start-0x7e76c>
    17d0:	00000008 	.inst	0x00000008 ; undefined
    17d4:	00740000 	.inst	0x00740000 ; undefined
    17d8:	00000000 	.inst	0x00000000 ; undefined
    17dc:	6a070000 	ands	w0, w0, w7
    17e0:	2dbb0100 	stp	s0, s0, [x8,#-40]!
    17e4:	02000000 	.inst	0x02000000 ; undefined
    17e8:	00005891 	.inst	0x00005891 ; undefined
    17ec:	d6080800 	.inst	0xd6080800 ; undefined
    17f0:	11000000 	add	w0, w0, #0x0
    17f4:	000003c5 	.inst	0x000003c5 ; undefined
    17f8:	023cc501 	.inst	0x023cc501 ; undefined
    17fc:	37a40000 	tbnz	w0, #20, ffffffffffff97fc <__stack_top+0xfffffffffff597fc>
    1800:	00000008 	.inst	0x00000008 ; undefined
    1804:	024c0000 	.inst	0x024c0000 ; undefined
    1808:	00000000 	.inst	0x00000000 ; undefined
    180c:	9c010000 	ldr	q0, 380c <_start-0x7c7f4>
    1810:	00000407 	.inst	0x00000407 ; undefined
    1814:	0004e304 	.inst	0x0004e304 ; undefined
    1818:	d6c50100 	.inst	0xd6c50100 ; undefined
    181c:	03000000 	.inst	0x03000000 ; undefined
    1820:	047fb891 	.inst	0x047fb891 ; undefined
    1824:	000002fa 	.inst	0x000002fa ; undefined
    1828:	0343c501 	.inst	0x0343c501 ; undefined
    182c:	91030000 	add	x0, x0, #0xc0
    1830:	00057fb0 	.inst	0x00057fb0 ; undefined
    1834:	01000005 	.inst	0x01000005 ; undefined
    1838:	000407c7 	.inst	0x000407c7 ; undefined
    183c:	68910200 	.inst	0x68910200 ; undefined
    1840:	0004ab05 	.inst	0x0004ab05 ; undefined
    1844:	3cc80100 	ldur	q0, [x8,#128]
    1848:	02000002 	.inst	0x02000002 ; undefined
    184c:	bf056091 	.inst	0xbf056091 ; undefined
    1850:	01000004 	.inst	0x01000004 ; undefined
    1854:	000231c9 	.inst	0x000231c9 ; undefined
    1858:	78910200 	ldursh	x0, [x16,#-240]
    185c:	00050a05 	.inst	0x00050a05 ; undefined
    1860:	07ca0100 	.inst	0x07ca0100 ; undefined
    1864:	02000004 	.inst	0x02000004 ; undefined
    1868:	b5055891 	cbnz	x17, c378 <_start-0x73c88>
    186c:	01000004 	.inst	0x01000004 ; undefined
    1870:	00002dcb 	.inst	0x00002dcb ; undefined
    1874:	54910200 	b.eq	fffffffffff238b4 <__stack_top+0xffffffffffe838b4>
    1878:	00006012 	.inst	0x00006012 ; undefined
    187c:	0003f400 	.inst	0x0003f400 ; undefined
    1880:	04a10500 	.inst	0x04a10500 ; undefined
    1884:	cf010000 	.inst	0xcf010000 ; undefined
    1888:	0000002d 	.inst	0x0000002d ; undefined
    188c:	05509102 	.inst	0x05509102 ; undefined
    1890:	000004de 	.inst	0x000004de ; undefined
    1894:	00d6da01 	.inst	0x00d6da01 ; undefined
    1898:	91020000 	add	x0, x0, #0x80
    189c:	900b0048 	adrp	x8, 16009000 <__stack_top+0x15f69000>
    18a0:	07000000 	.inst	0x07000000 ; undefined
    18a4:	eb010069 	subs	x9, x3, x1
    18a8:	0000002d 	.inst	0x0000002d ; undefined
    18ac:	00749102 	.inst	0x00749102 ; undefined
    18b0:	3c080800 	.inst	0x3c080800 ; undefined
    18b4:	13000002 	sbfx	w2, w0, #0, #1
    18b8:	000004cc 	.inst	0x000004cc ; undefined
    18bc:	02310a01 	.inst	0x02310a01 ; undefined
    18c0:	03090000 	.inst	0x03090000 ; undefined
    18c4:	00084938 	.inst	0x00084938 ; undefined
    18c8:	00000000 	.inst	0x00000000 ; undefined
    18cc:	00013100 	.inst	0x00013100 ; undefined
    18d0:	82000400 	.inst	0x82000400 ; undefined
    18d4:	08000007 	stxrb	w0, w7, [x0]
    18d8:	0000b101 	.inst	0x0000b101 ; undefined
    18dc:	05350c00 	.inst	0x05350c00 ; undefined
    18e0:	00310000 	.inst	0x00310000 ; NYI
    18e4:	39f00000 	ldrsb	w0, [x0,#3072]
    18e8:	00000008 	.inst	0x00000008 ; undefined
    18ec:	02880000 	.inst	0x02880000 ; undefined
    18f0:	00000000 	.inst	0x00000000 ; undefined
    18f4:	08f80000 	.inst	0x08f80000 ; undefined
    18f8:	04020000 	.inst	0x04020000 ; undefined
    18fc:	746e6905 	.inst	0x746e6905 ; undefined
    1900:	052a0300 	.inst	0x052a0300 ; undefined
    1904:	0e010000 	tbl	v0.8b, {v0.16b}, v1.8b
    1908:	000839f0 	.inst	0x000839f0 ; undefined
    190c:	00000000 	.inst	0x00000000 ; undefined
    1910:	00000020 	.inst	0x00000020 ; undefined
    1914:	00000000 	.inst	0x00000000 ; undefined
    1918:	25039c01 	.inst	0x25039c01 ; undefined
    191c:	01000005 	.inst	0x01000005 ; undefined
    1920:	083a1012 	.inst	0x083a1012 ; undefined
    1924:	00000000 	.inst	0x00000000 ; undefined
    1928:	00004400 	.inst	0x00004400 ; undefined
    192c:	00000000 	.inst	0x00000000 ; undefined
    1930:	049c0100 	.inst	0x049c0100 ; undefined
    1934:	00000551 	.inst	0x00000551 ; undefined
    1938:	3a541901 	ccmn	w8, #0x14, #0x1, ne
    193c:	00000008 	.inst	0x00000008 ; undefined
    1940:	00400000 	.inst	0x00400000 ; undefined
    1944:	00000000 	.inst	0x00000000 ; undefined
    1948:	9c010000 	ldr	q0, 3948 <_start-0x7c6b8>
    194c:	00000092 	.inst	0x00000092 ; undefined
    1950:	0002a405 	.inst	0x0002a405 ; undefined
    1954:	2d190100 	stp	s0, s0, [x8,#200]
    1958:	02000000 	.inst	0x02000000 ; undefined
    195c:	06007c91 	.inst	0x06007c91 ; undefined
    1960:	0000054a 	.inst	0x0000054a ; undefined
    1964:	3a941e01 	.inst	0x3a941e01 ; undefined
    1968:	00000008 	.inst	0x00000008 ; undefined
    196c:	00280000 	.inst	0x00280000 ; NYI
    1970:	00000000 	.inst	0x00000000 ; undefined
    1974:	9c010000 	ldr	q0, 3974 <_start-0x7c68c>
    1978:	00054303 	.inst	0x00054303 ; undefined
    197c:	bc230100 	.inst	0xbc230100 ; undefined
    1980:	0000083a 	.inst	0x0000083a ; undefined
    1984:	28000000 	stnp	w0, w0, [x0]
    1988:	00000000 	.inst	0x00000000 ; undefined
    198c:	01000000 	.inst	0x01000000 ; undefined
    1990:	0530079c 	.inst	0x0530079c ; undefined
    1994:	32010000 	orr	w0, w0, #0x80000000
    1998:	00083ae4 	.inst	0x00083ae4 ; undefined
    199c:	00000000 	.inst	0x00000000 ; undefined
    19a0:	00000194 	.inst	0x00000194 ; undefined
    19a4:	00000000 	.inst	0x00000000 ; undefined
    19a8:	01109c01 	.inst	0x01109c01 ; undefined
    19ac:	57080000 	.inst	0x57080000 ; undefined
    19b0:	01000005 	.inst	0x01000005 ; undefined
    19b4:	00011036 	.inst	0x00011036 ; undefined
    19b8:	78910200 	ldursh	x0, [x16,#-240]
    19bc:	083b0809 	.inst	0x083b0809 ; undefined
    19c0:	00000000 	.inst	0x00000000 ; undefined
    19c4:	00016c00 	.inst	0x00016c00 ; undefined
    19c8:	00000000 	.inst	0x00000000 ; undefined
    19cc:	00000800 	.inst	0x00000800 ; undefined
    19d0:	3a010000 	adcs	w0, w0, w1
    19d4:	0000011d 	.inst	0x0000011d ; undefined
    19d8:	00609102 	.inst	0x00609102 ; undefined
    19dc:	16080a00 	b	fffffffff82041dc <__stack_top+0xfffffffff81641dc>
    19e0:	0b000001 	add	w1, w0, w0
    19e4:	04f10801 	.inst	0x04f10801 ; undefined
    19e8:	160c0000 	b	fffffffff83019e8 <__stack_top+0xfffffffff82619e8>
    19ec:	2d000001 	stp	s1, s0, [x0]
    19f0:	0d000001 	st1	{v1.b}[0], [x0]
    19f4:	0000012d 	.inst	0x0000012d ; undefined
    19f8:	080b0013 	stxrb	w11, w19, [x0]
    19fc:	0001e507 	.inst	0x0001e507 ; undefined
    1a00:	00780000 	.inst	0x00780000 ; undefined
    1a04:	00040000 	.inst	0x00040000 ; undefined
    1a08:	0000084c 	.inst	0x0000084c ; undefined
    1a0c:	00b10108 	.inst	0x00b10108 ; undefined
    1a10:	5f0c0000 	.inst	0x5f0c0000 ; undefined
    1a14:	31000005 	adds	w5, w0, #0x0
    1a18:	78000000 	sturh	w0, [x0]
    1a1c:	0000083c 	.inst	0x0000083c ; undefined
    1a20:	84000000 	.inst	0x84000000 ; undefined
    1a24:	00000000 	.inst	0x00000000 ; undefined
    1a28:	6f000000 	.inst	0x6f000000 ; undefined
    1a2c:	02000009 	.inst	0x02000009 ; undefined
    1a30:	0000056f 	.inst	0x0000056f ; undefined
    1a34:	00670101 	.inst	0x00670101 ; undefined
    1a38:	3c780000 	.inst	0x3c780000 ; undefined
    1a3c:	00000008 	.inst	0x00000008 ; undefined
    1a40:	00840000 	.inst	0x00840000 ; undefined
    1a44:	00000000 	.inst	0x00000000 ; undefined
    1a48:	9c010000 	ldr	q0, 3a48 <_start-0x7c5b8>
    1a4c:	00000067 	.inst	0x00000067 ; undefined
    1a50:	01006103 	.inst	0x01006103 ; undefined
    1a54:	00006e01 	.inst	0x00006e01 ; undefined
    1a58:	78910200 	ldursh	x0, [x16,#-240]
    1a5c:	01006203 	.inst	0x01006203 ; undefined
    1a60:	00006e01 	.inst	0x00006e01 ; undefined
    1a64:	70910200 	adr	x0, fffffffffff23aa7 <__stack_top+0xffffffffffe83aa7>
    1a68:	05040400 	.inst	0x05040400 ; undefined
    1a6c:	00746e69 	.inst	0x00746e69 ; undefined
    1a70:	00740805 	.inst	0x00740805 ; undefined
    1a74:	01060000 	.inst	0x01060000 ; undefined
    1a78:	0004f108 	.inst	0x0004f108 ; undefined
    1a7c:	03030000 	.inst	0x03030000 ; undefined
    1a80:	00040000 	.inst	0x00040000 ; undefined
    1a84:	000008aa 	.inst	0x000008aa ; undefined
    1a88:	00b10108 	.inst	0x00b10108 ; undefined
    1a8c:	a00c0000 	.inst	0xa00c0000 ; undefined
    1a90:	31000005 	adds	w5, w0, #0x0
    1a94:	fc000000 	stur	d0, [x0]
    1a98:	0000083c 	.inst	0x0000083c ; undefined
    1a9c:	e8000000 	.inst	0xe8000000 ; undefined
    1aa0:	00000000 	.inst	0x00000000 ; undefined
    1aa4:	c6000000 	.inst	0xc6000000 ; undefined
    1aa8:	02000009 	.inst	0x02000009 ; undefined
    1aac:	000002e5 	.inst	0x000002e5 ; undefined
    1ab0:	d3170268 	.inst	0xd3170268 ; undefined
    1ab4:	03000000 	.inst	0x03000000 ; undefined
    1ab8:	00393178 	.inst	0x00393178 ; NYI
    1abc:	00d31802 	.inst	0x00d31802 ; undefined
    1ac0:	03000000 	.inst	0x03000000 ; undefined
    1ac4:	00303278 	.inst	0x00303278 ; NYI
    1ac8:	00d31902 	.inst	0x00d31902 ; undefined
    1acc:	03080000 	.inst	0x03080000 ; undefined
    1ad0:	00313278 	.inst	0x00313278 ; NYI
    1ad4:	00d31a02 	.inst	0x00d31a02 ; undefined
    1ad8:	03100000 	.inst	0x03100000 ; undefined
    1adc:	00323278 	.inst	0x00323278 ; NYI
    1ae0:	00d31b02 	.inst	0x00d31b02 ; undefined
    1ae4:	03180000 	.inst	0x03180000 ; undefined
    1ae8:	00333278 	.inst	0x00333278 ; NYI
    1aec:	00d31c02 	.inst	0x00d31c02 ; undefined
    1af0:	03200000 	.inst	0x03200000 ; undefined
    1af4:	00343278 	.inst	0x00343278 ; NYI
    1af8:	00d31d02 	.inst	0x00d31d02 ; undefined
    1afc:	03280000 	.inst	0x03280000 ; undefined
    1b00:	00353278 	.inst	0x00353278 ; NYI
    1b04:	00d31e02 	.inst	0x00d31e02 ; undefined
    1b08:	03300000 	.inst	0x03300000 ; undefined
    1b0c:	00363278 	.inst	0x00363278 ; NYI
    1b10:	00d31f02 	.inst	0x00d31f02 ; undefined
    1b14:	03380000 	.inst	0x03380000 ; undefined
    1b18:	00373278 	.inst	0x00373278 ; NYI
    1b1c:	00d32002 	.inst	0x00d32002 ; undefined
    1b20:	03400000 	.inst	0x03400000 ; undefined
    1b24:	00383278 	.inst	0x00383278 ; NYI
    1b28:	00d32102 	.inst	0x00d32102 ; undefined
    1b2c:	03480000 	.inst	0x03480000 ; undefined
    1b30:	02007066 	.inst	0x02007066 ; undefined
    1b34:	0000d322 	.inst	0x0000d322 ; undefined
    1b38:	70035000 	adr	x0, 853b <_start-0x77ac5>
    1b3c:	23020063 	.inst	0x23020063 ; undefined
    1b40:	000000d3 	.inst	0x000000d3 ; undefined
    1b44:	70730358 	adr	x24, e7baf <__stack_top+0x47baf>
    1b48:	d3240200 	.inst	0xd3240200 ; undefined
    1b4c:	60000000 	.inst	0x60000000 ; undefined
    1b50:	07080400 	.inst	0x07080400 ; undefined
    1b54:	0000004d 	.inst	0x0000004d ; undefined
    1b58:	0002e605 	.inst	0x0002e605 ; undefined
    1b5c:	2d260200 	stp	s0, s0, [x16,#-208]
    1b60:	02000000 	.inst	0x02000000 ; undefined
    1b64:	000002dd 	.inst	0x000002dd ; undefined
    1b68:	51280290 	sub	w16, w20, #0xa00
    1b6c:	06000001 	.inst	0x06000001 ; undefined
    1b70:	000002e6 	.inst	0x000002e6 ; undefined
    1b74:	00da2902 	.inst	0x00da2902 ; undefined
    1b78:	03000000 	.inst	0x03000000 ; undefined
    1b7c:	02006469 	.inst	0x02006469 ; undefined
    1b80:	0001512a 	.inst	0x0001512a ; undefined
    1b84:	bf066800 	.inst	0xbf066800 ; undefined
    1b88:	02000003 	.inst	0x02000003 ; undefined
    1b8c:	0001512b 	.inst	0x0001512b ; undefined
    1b90:	44066c00 	.inst	0x44066c00 ; undefined
    1b94:	02000003 	.inst	0x02000003 ; undefined
    1b98:	0001512c 	.inst	0x0001512c ; undefined
    1b9c:	2e067000 	.inst	0x2e067000 ; undefined
    1ba0:	02000003 	.inst	0x02000003 ; undefined
    1ba4:	0001512d 	.inst	0x0001512d ; undefined
    1ba8:	b9067400 	str	w0, [x0,#1652]
    1bac:	02000002 	.inst	0x02000002 ; undefined
    1bb0:	0001512f 	.inst	0x0001512f ; undefined
    1bb4:	ff067800 	.inst	0xff067800 ; undefined
    1bb8:	02000002 	.inst	0x02000002 ; undefined
    1bbc:	0000d330 	.inst	0x0000d330 ; undefined
    1bc0:	f0068000 	adrp	x0, d004000 <__stack_top+0xcf64000>
    1bc4:	02000003 	.inst	0x02000003 ; undefined
    1bc8:	0000d331 	.inst	0x0000d331 ; undefined
    1bcc:	04008800 	.inst	0x04008800 ; undefined
    1bd0:	00520704 	.inst	0x00520704 ; undefined
    1bd4:	de050000 	.inst	0xde050000 ; undefined
    1bd8:	02000002 	.inst	0x02000002 ; undefined
    1bdc:	0000e532 	.inst	0x0000e532 ; undefined
    1be0:	07080400 	.inst	0x07080400 ; undefined
    1be4:	000001e5 	.inst	0x000001e5 ; undefined
    1be8:	0005bb07 	.inst	0x0005bb07 ; undefined
    1bec:	87040100 	.inst	0x87040100 ; undefined
    1bf0:	fc000001 	stur	d1, [x0]
    1bf4:	0000083c 	.inst	0x0000083c ; undefined
    1bf8:	14000000 	b	1bf8 <_start-0x7e408>
    1bfc:	00000000 	.inst	0x00000000 ; undefined
    1c00:	01000000 	.inst	0x01000000 ; undefined
    1c04:	0504089c 	.inst	0x0504089c ; undefined
    1c08:	00746e69 	.inst	0x00746e69 ; undefined
    1c0c:	0005ad09 	.inst	0x0005ad09 ; undefined
    1c10:	10080100 	adr	x0, 11c30 <_start-0x6e3d0>
    1c14:	0000083d 	.inst	0x0000083d ; undefined
    1c18:	2c000000 	stnp	s0, s0, [x0]
    1c1c:	00000000 	.inst	0x00000000 ; undefined
    1c20:	01000000 	.inst	0x01000000 ; undefined
    1c24:	0001c89c 	.inst	0x0001c89c ; undefined
    1c28:	75620a00 	.inst	0x75620a00 ; undefined
    1c2c:	08010066 	stxrb	w1, w6, [x3]
    1c30:	000001c8 	.inst	0x000001c8 ; undefined
    1c34:	0b789102 	.inst	0x0b789102 ; undefined
    1c38:	000004ba 	.inst	0x000004ba ; undefined
    1c3c:	01870801 	.inst	0x01870801 ; undefined
    1c40:	91020000 	add	x0, x0, #0x80
    1c44:	080c0074 	stxrb	w12, w20, [x3]
    1c48:	000001ce 	.inst	0x000001ce ; undefined
    1c4c:	f1080104 	subs	x4, x8, #0x200
    1c50:	09000004 	.inst	0x09000004 ; undefined
    1c54:	00000576 	.inst	0x00000576 ; undefined
    1c58:	3d3c0c01 	str	b1, [x0,#3843]
    1c5c:	00000008 	.inst	0x00000008 ; undefined
    1c60:	00240000 	.inst	0x00240000 ; NYI
    1c64:	00000000 	.inst	0x00000000 ; undefined
    1c68:	9c010000 	ldr	q0, 3c68 <_start-0x7c398>
    1c6c:	0000020f 	.inst	0x0000020f ; undefined
    1c70:	6675620a 	.inst	0x6675620a ; undefined
    1c74:	c80c0100 	stxr	w12, x0, [x8]
    1c78:	02000001 	.inst	0x02000001 ; undefined
    1c7c:	ba0b7891 	.inst	0xba0b7891 ; undefined
    1c80:	01000004 	.inst	0x01000004 ; undefined
    1c84:	0001870c 	.inst	0x0001870c ; undefined
    1c88:	74910200 	.inst	0x74910200 ; undefined
    1c8c:	05970900 	.inst	0x05970900 ; undefined
    1c90:	10010000 	adr	x0, 3c90 <_start-0x7c370>
    1c94:	00083d60 	.inst	0x00083d60 ; undefined
    1c98:	00000000 	.inst	0x00000000 ; undefined
    1c9c:	00000028 	.inst	0x00000028 ; undefined
    1ca0:	00000000 	.inst	0x00000000 ; undefined
    1ca4:	02569c01 	.inst	0x02569c01 ; undefined
    1ca8:	e30b0000 	.inst	0xe30b0000 ; undefined
    1cac:	01000004 	.inst	0x01000004 ; undefined
    1cb0:	0001c810 	.inst	0x0001c810 ; undefined
    1cb4:	78910200 	ldursh	x0, [x16,#-240]
    1cb8:	0002fa0b 	.inst	0x0002fa0b ; undefined
    1cbc:	56100100 	.inst	0x56100100 ; undefined
    1cc0:	02000002 	.inst	0x02000002 ; undefined
    1cc4:	c50d7091 	.inst	0xc50d7091 ; undefined
    1cc8:	01000003 	.inst	0x01000003 ; undefined
    1ccc:	00018711 	.inst	0x00018711 ; undefined
    1cd0:	00000e00 	.inst	0x00000e00 ; undefined
    1cd4:	01c8080c 	.inst	0x01c8080c ; undefined
    1cd8:	8e0f0000 	.inst	0x8e0f0000 ; undefined
    1cdc:	01000005 	.inst	0x01000005 ; undefined
    1ce0:	083d8814 	.inst	0x083d8814 ; undefined
    1ce4:	00000000 	.inst	0x00000000 ; undefined
    1ce8:	00001800 	.inst	0x00001800 ; undefined
    1cec:	00000000 	.inst	0x00000000 ; undefined
    1cf0:	879c0100 	.inst	0x879c0100 ; undefined
    1cf4:	0d000002 	st1	{v2.b}[0], [x0]
    1cf8:	00000591 	.inst	0x00000591 ; undefined
    1cfc:	01871501 	.inst	0x01871501 ; undefined
    1d00:	000e0000 	.inst	0x000e0000 ; undefined
    1d04:	05851000 	.inst	0x05851000 ; undefined
    1d08:	18010000 	ldr	w0, 3d08 <_start-0x7c2f8>
    1d0c:	00000187 	.inst	0x00000187 ; undefined
    1d10:	00083da0 	.inst	0x00083da0 ; undefined
    1d14:	00000000 	.inst	0x00000000 ; undefined
    1d18:	00000044 	.inst	0x00000044 ; undefined
    1d1c:	00000000 	.inst	0x00000000 ; undefined
    1d20:	02c49c01 	.inst	0x02c49c01 ; undefined
    1d24:	ff110000 	.inst	0xff110000 ; undefined
    1d28:	01000002 	.inst	0x01000002 ; undefined
    1d2c:	0000d319 	.inst	0x0000d319 ; undefined
    1d30:	78910200 	ldursh	x0, [x16,#-240]
    1d34:	0001810d 	.inst	0x0001810d ; undefined
    1d38:	87190100 	.inst	0x87190100 ; undefined
    1d3c:	0e000001 	tbl	v1.8b, {v0.16b}, v0.8b
    1d40:	3c120000 	stur	b0, [x0,#-224]
    1d44:	02000003 	.inst	0x02000003 ; undefined
    1d48:	0002cf3d 	.inst	0x0002cf3d ; undefined
    1d4c:	58080c00 	ldr	x0, 11ecc <_start-0x6e134>
    1d50:	13000001 	sbfx	w1, w0, #0, #1
    1d54:	000002e7 	.inst	0x000002e7 ; undefined
    1d58:	000002e5 	.inst	0x000002e5 ; undefined
    1d5c:	00016314 	.inst	0x00016314 ; undefined
    1d60:	15000600 	b	4003560 <__stack_top+0x3f63560>
    1d64:	02e51608 	.inst	0x02e51608 ; undefined
    1d68:	c6170000 	.inst	0xc6170000 ; undefined
    1d6c:	01000005 	.inst	0x01000005 ; undefined
    1d70:	00030120 	.inst	0x00030120 ; undefined
    1d74:	f8030900 	sttr	x0, [x8,#48]
    1d78:	00000848 	.inst	0x00000848 ; undefined
    1d7c:	16000000 	b	fffffffff8001d7c <__stack_top+0xfffffffff7f61d7c>
    1d80:	000002d5 	.inst	0x000002d5 ; undefined
    1d84:	00005700 	.inst	0x00005700 ; undefined
    1d88:	00000200 	.inst	0x00000200 ; undefined
    1d8c:	0800000a 	stxrb	w0, w10, [x0]
    1d90:	000a3301 	.inst	0x000a3301 ; undefined
    1d94:	083de400 	.inst	0x083de400 ; undefined
    1d98:	00000000 	.inst	0x00000000 ; undefined
    1d9c:	083df000 	.inst	0x083df000 ; undefined
    1da0:	00000000 	.inst	0x00000000 ; undefined
    1da4:	72656b00 	.inst	0x72656b00 ; undefined
    1da8:	2f6c656e 	.inst	0x2f6c656e ; undefined
    1dac:	72746e65 	.inst	0x72746e65 ; undefined
    1db0:	00532e79 	.inst	0x00532e79 ; undefined
    1db4:	6d6f682f 	ldp	d15, d26, [x1,#-272]
    1db8:	61732f65 	.inst	0x61732f65 ; undefined
    1dbc:	68636172 	.inst	0x68636172 ; undefined
    1dc0:	6e2f7569 	uabd	v9.16b, v11.16b, v15.16b
    1dc4:	2f757463 	.inst	0x2f757463 ; undefined
    1dc8:	3263736f 	.inst	0x3263736f ; undefined
    1dcc:	00313230 	.inst	0x00313230 ; NYI
    1dd0:	20554e47 	.inst	0x20554e47 ; undefined
    1dd4:	32205341 	orr	w1, w26, #0x1fffff
    1dd8:	2e36322e 	usubw	v14.8h, v17.8h, v22.8b
    1ddc:	80010031 	.inst	0x80010031 ; undefined
    1de0:	0000021c 	.inst	0x0000021c ; undefined
    1de4:	0a140004 	and	w4, w0, w20
    1de8:	01080000 	.inst	0x01080000 ; undefined
    1dec:	000000b1 	.inst	0x000000b1 ; undefined
    1df0:	0005f10c 	.inst	0x0005f10c ; undefined
    1df4:	00003100 	.inst	0x00003100 ; undefined
    1df8:	083df000 	.inst	0x083df000 ; undefined
    1dfc:	00000000 	.inst	0x00000000 ; undefined
    1e00:	00035400 	.inst	0x00035400 ; undefined
    1e04:	00000000 	.inst	0x00000000 ; undefined
    1e08:	000a7500 	.inst	0x000a7500 ; undefined
    1e0c:	05e60200 	.inst	0x05e60200 ; undefined
    1e10:	03010000 	.inst	0x03010000 ; undefined
    1e14:	000000d5 	.inst	0x000000d5 ; undefined
    1e18:	00083df0 	.inst	0x00083df0 ; undefined
    1e1c:	00000000 	.inst	0x00000000 ; undefined
    1e20:	00000148 	.inst	0x00000148 ; undefined
    1e24:	00000000 	.inst	0x00000000 ; undefined
    1e28:	00d59c01 	.inst	0x00d59c01 ; undefined
    1e2c:	73030000 	.inst	0x73030000 ; undefined
    1e30:	dc030100 	.inst	0xdc030100 ; undefined
    1e34:	02000000 	.inst	0x02000000 ; undefined
    1e38:	d9045891 	.inst	0xd9045891 ; undefined
    1e3c:	01000004 	.inst	0x01000004 ; undefined
    1e40:	0000d503 	.inst	0x0000d503 ; undefined
    1e44:	54910200 	b.eq	fffffffffff23e84 <__stack_top+0xffffffffffe83e84>
    1e48:	01006905 	.inst	0x01006905 ; undefined
    1e4c:	0000d504 	.inst	0x0000d504 ; undefined
    1e50:	7c910200 	.inst	0x7c910200 ; undefined
    1e54:	6d756e05 	ldp	d5, d27, [x16,#-176]
    1e58:	d5050100 	msr	s0_5_c0_c1_0, x0
    1e5c:	02000000 	.inst	0x02000000 ; undefined
    1e60:	05067891 	.inst	0x05067891 ; undefined
    1e64:	01000006 	.inst	0x01000006 ; undefined
    1e68:	0000d506 	.inst	0x0000d506 ; undefined
    1e6c:	74910200 	.inst	0x74910200 ; undefined
    1e70:	083e4407 	.inst	0x083e4407 ; undefined
    1e74:	00000000 	.inst	0x00000000 ; undefined
    1e78:	00003c00 	.inst	0x00003c00 ; undefined
    1e7c:	00000000 	.inst	0x00000000 ; undefined
    1e80:	0000b400 	.inst	0x0000b400 ; undefined
    1e84:	05eb0600 	.inst	0x05eb0600 ; undefined
    1e88:	0d010000 	.inst	0x0d010000 ; undefined
    1e8c:	000000d5 	.inst	0x000000d5 ; undefined
    1e90:	00709102 	.inst	0x00709102 ; undefined
    1e94:	083e8c08 	.inst	0x083e8c08 ; undefined
    1e98:	00000000 	.inst	0x00000000 ; undefined
    1e9c:	00005c00 	.inst	0x00005c00 ; undefined
    1ea0:	00000000 	.inst	0x00000000 ; undefined
    1ea4:	05eb0600 	.inst	0x05eb0600 ; undefined
    1ea8:	11010000 	add	w0, w0, #0x40
    1eac:	000000d5 	.inst	0x000000d5 ; undefined
    1eb0:	006c9102 	.inst	0x006c9102 ; undefined
    1eb4:	05040900 	.inst	0x05040900 ; undefined
    1eb8:	00746e69 	.inst	0x00746e69 ; undefined
    1ebc:	00e2080a 	.inst	0x00e2080a ; undefined
    1ec0:	010b0000 	.inst	0x010b0000 ; undefined
    1ec4:	0004e808 	.inst	0x0004e808 ; undefined
    1ec8:	05da0c00 	.inst	0x05da0c00 ; undefined
    1ecc:	1c010000 	ldr	s0, 3ecc <_start-0x7c134>
    1ed0:	00083f38 	.inst	0x00083f38 ; undefined
    1ed4:	00000000 	.inst	0x00000000 ; undefined
    1ed8:	00000194 	.inst	0x00000194 ; undefined
    1edc:	00000000 	.inst	0x00000000 ; undefined
    1ee0:	018f9c01 	.inst	0x018f9c01 ; undefined
    1ee4:	6e030000 	ext	v0.16b, v0.16b, v3.16b, #0
    1ee8:	01006d75 	.inst	0x01006d75 ; undefined
    1eec:	0000d51c 	.inst	0x0000d51c ; undefined
    1ef0:	6c910200 	stp	d0, d0, [x16],#272
    1ef4:	01007303 	.inst	0x01007303 ; undefined
    1ef8:	00018f1c 	.inst	0x00018f1c ; undefined
    1efc:	60910200 	.inst	0x60910200 ; undefined
    1f00:	01006905 	.inst	0x01006905 ; undefined
    1f04:	0000d51d 	.inst	0x0000d51d ; undefined
    1f08:	7c910200 	.inst	0x7c910200 ; undefined
    1f0c:	083f7807 	.inst	0x083f7807 ; undefined
    1f10:	00000000 	.inst	0x00000000 ; undefined
    1f14:	00008800 	.inst	0x00008800 ; undefined
    1f18:	00000000 	.inst	0x00000000 ; undefined
    1f1c:	00015000 	.inst	0x00015000 ; undefined
    1f20:	05eb0600 	.inst	0x05eb0600 ; undefined
    1f24:	24010000 	.inst	0x24010000 ; undefined
    1f28:	000000d5 	.inst	0x000000d5 ; undefined
    1f2c:	00749102 	.inst	0x00749102 ; undefined
    1f30:	08401c08 	ldxrb	w8, [x0]
    1f34:	00000000 	.inst	0x00000000 ; undefined
    1f38:	0000a400 	.inst	0x0000a400 ; undefined
    1f3c:	00000000 	.inst	0x00000000 ; undefined
    1f40:	006a0500 	.inst	0x006a0500 ; undefined
    1f44:	00d52b01 	.inst	0x00d52b01 ; undefined
    1f48:	91020000 	add	x0, x0, #0x80
    1f4c:	402c0878 	.inst	0x402c0878 ; undefined
    1f50:	00000008 	.inst	0x00000008 ; undefined
    1f54:	00680000 	.inst	0x00680000 ; undefined
    1f58:	00000000 	.inst	0x00000000 ; undefined
    1f5c:	64060000 	.inst	0x64060000 ; undefined
    1f60:	01000001 	.inst	0x01000001 ; undefined
    1f64:	0001952c 	.inst	0x0001952c ; undefined
    1f68:	73910200 	.inst	0x73910200 ; undefined
    1f6c:	0a000000 	and	w0, w0, w0
    1f70:	00019508 	.inst	0x00019508 ; undefined
    1f74:	08010b00 	stxrb	w1, w0, [x24]
    1f78:	000004f1 	.inst	0x000004f1 ; undefined
    1f7c:	00060e02 	.inst	0x00060e02 ; undefined
    1f80:	dc320100 	.inst	0xdc320100 ; undefined
    1f84:	cc000000 	.inst	0xcc000000 ; undefined
    1f88:	00000840 	.inst	0x00000840 ; undefined
    1f8c:	78000000 	sturh	w0, [x0]
    1f90:	00000000 	.inst	0x00000000 ; undefined
    1f94:	01000000 	.inst	0x01000000 ; undefined
    1f98:	0002079c 	.inst	0x0002079c ; undefined
    1f9c:	00730300 	.inst	0x00730300 ; undefined
    1fa0:	00dc3201 	.inst	0x00dc3201 ; undefined
    1fa4:	91020000 	add	x0, x0, #0x80
    1fa8:	05df0468 	.inst	0x05df0468 ; undefined
    1fac:	32010000 	orr	w0, w0, #0x80000000
    1fb0:	000000d5 	.inst	0x000000d5 ; undefined
    1fb4:	06649102 	.inst	0x06649102 ; undefined
    1fb8:	00000600 	.inst	0x00000600 ; undefined
    1fbc:	02073301 	.inst	0x02073301 ; undefined
    1fc0:	03090000 	.inst	0x03090000 ; undefined
    1fc4:	00084c60 	.inst	0x00084c60 ; undefined
    1fc8:	00000000 	.inst	0x00000000 ; undefined
    1fcc:	0005d506 	.inst	0x0005d506 ; undefined
    1fd0:	dc340100 	.inst	0xdc340100 ; undefined
    1fd4:	02000000 	.inst	0x02000000 ; undefined
    1fd8:	69057891 	.inst	0x69057891 ; undefined
    1fdc:	d5350100 	mrs	x0, s2_5_c0_c1_0
    1fe0:	02000000 	.inst	0x02000000 ; undefined
    1fe4:	0d007491 	.inst	0x0d007491 ; undefined
    1fe8:	000000e2 	.inst	0x000000e2 ; undefined
    1fec:	00000218 	.inst	0x00000218 ; undefined
    1ff0:	0002180e 	.inst	0x0002180e ; undefined
    1ff4:	0003ff00 	.inst	0x0003ff00 ; undefined
    1ff8:	e507080b 	.inst	0xe507080b ; undefined
    1ffc:	00000001 	.inst	0x00000001 ; undefined
    2000:	0000005b 	.inst	0x0000005b ; undefined
    2004:	0adf0002 	and	w2, w0, wzr, ror #0
    2008:	01080000 	.inst	0x01080000 ; undefined
    200c:	00000b30 	.inst	0x00000b30 ; undefined
    2010:	00084148 	.inst	0x00084148 ; undefined
    2014:	00000000 	.inst	0x00000000 ; undefined
    2018:	000841d0 	.inst	0x000841d0 ; undefined
    201c:	00000000 	.inst	0x00000000 ; undefined
    2020:	6e72656b 	umax	v11.8h, v11.8h, v18.8h
    2024:	782f6c65 	.inst	0x782f6c65 ; undefined
    2028:	5f747063 	sqdmlsl	s3, h3, v4.h[3]
    202c:	636e7566 	.inst	0x636e7566 ; undefined
    2030:	2f00532e 	.inst	0x2f00532e ; undefined
    2034:	656d6f68 	.inst	0x656d6f68 ; undefined
    2038:	7261732f 	.inst	0x7261732f ; undefined
    203c:	69686361 	ldpsw	x1, x24, [x27,#-192]
    2040:	636e2f75 	.inst	0x636e2f75 ; undefined
    2044:	6f2f7574 	uqshl	v20.4s, v11.4s, #15
    2048:	30326373 	adr	x19, 66cb5 <_start-0x1934b>
    204c:	47003132 	.inst	0x47003132 ; undefined
    2050:	4120554e 	.inst	0x4120554e ; undefined
    2054:	2e322053 	usubl	v19.8h, v2.8b, v18.8b
    2058:	312e3632 	adds	w18, w17, #0xb8d
    205c:	Address 0x000000000000205c is out of bounds.


Disassembly of section .debug_abbrev:

0000000000000000 <.debug_abbrev>:
   0:	10001101 	adr	x1, 220 <_start-0x7fde0>
   4:	12011106 	and	w6, w8, #0x8000000f
   8:	1b080301 	madd	w1, w24, w8, w0
   c:	13082508 	sbfx	w8, w8, #8, #2
  10:	00000005 	.inst	0x00000005 ; undefined
  14:	25011101 	.inst	0x25011101 ; undefined
  18:	030b130e 	.inst	0x030b130e ; undefined
  1c:	110e1b0e 	add	w14, w24, #0x386
  20:	10071201 	adr	x1, e260 <_start-0x71da0>
  24:	02000017 	.inst	0x02000017 ; undefined
  28:	193f012e 	.inst	0x193f012e ; undefined
  2c:	0b3a0e03 	add	w3, w16, w26, uxtb #3
  30:	01110b3b 	.inst	0x01110b3b ; undefined
  34:	18400712 	ldr	w18, 80114 <uart_init+0xb4>
  38:	01194297 	.inst	0x01194297 ; undefined
  3c:	03000013 	.inst	0x03000013 ; undefined
  40:	08030034 	stxrb	w3, w20, [x1]
  44:	0b3b0b3a 	add	w26, w25, w27, uxtb #2
  48:	18021349 	ldr	w9, 42b0 <_start-0x7bd50>
  4c:	0b040000 	add	w0, w0, w4
  50:	12011101 	and	w1, w8, #0x8000000f
  54:	05000007 	.inst	0x05000007 ; undefined
  58:	0b0b0024 	add	w4, w1, w11
  5c:	0e030b3e 	.inst	0x0e030b3e ; undefined
  60:	2e060000 	ext	v0.8b, v0.8b, v6.8b, #0
  64:	03193f01 	.inst	0x03193f01 ; undefined
  68:	3b0b3a0e 	.inst	0x3b0b3a0e ; undefined
  6c:	1119270b 	add	w11, w24, #0x649
  70:	40071201 	.inst	0x40071201 ; undefined
  74:	19429718 	.inst	0x19429718 ; undefined
  78:	00001301 	.inst	0x00001301 ; undefined
  7c:	03000507 	.inst	0x03000507 ; undefined
  80:	3b0b3a08 	.inst	0x3b0b3a08 ; undefined
  84:	0213490b 	.inst	0x0213490b ; undefined
  88:	08000018 	stxrb	w0, w24, [x0]
  8c:	193f012e 	.inst	0x193f012e ; undefined
  90:	0b3a0e03 	add	w3, w16, w26, uxtb #3
  94:	13490b3b 	.inst	0x13490b3b ; undefined
  98:	07120111 	.inst	0x07120111 ; undefined
  9c:	42971840 	.inst	0x42971840 ; undefined
  a0:	00130119 	.inst	0x00130119 ; undefined
  a4:	012e0900 	.inst	0x012e0900 ; undefined
  a8:	0e03193f 	uzp1	v31.8b, v9.8b, v3.8b
  ac:	0b3b0b3a 	add	w26, w25, w27, uxtb #2
  b0:	01111927 	.inst	0x01111927 ; undefined
  b4:	18400712 	ldr	w18, 80194 <uart_init+0x134>
  b8:	01194296 	.inst	0x01194296 ; undefined
  bc:	0a000013 	and	w19, w0, w0
  c0:	0b0b000f 	add	w15, w0, w11
  c4:	00001349 	.inst	0x00001349 ; undefined
  c8:	0300050b 	.inst	0x0300050b ; undefined
  cc:	3b0b3a0e 	.inst	0x3b0b3a0e ; undefined
  d0:	0213490b 	.inst	0x0213490b ; undefined
  d4:	0c000018 	st4	{v24.8b-v27.8b}, [x0]
  d8:	0e030034 	tbl	v20.8b, {v1.16b}, v3.8b
  dc:	0b3b0b3a 	add	w26, w25, w27, uxtb #2
  e0:	18021349 	ldr	w9, 4348 <_start-0x7bcb8>
  e4:	240d0000 	.inst	0x240d0000 ; undefined
  e8:	3e0b0b00 	.inst	0x3e0b0b00 ; undefined
  ec:	0008030b 	.inst	0x0008030b ; undefined
  f0:	012e0e00 	.inst	0x012e0e00 ; undefined
  f4:	0e03193f 	uzp1	v31.8b, v9.8b, v3.8b
  f8:	0b3b0b3a 	add	w26, w25, w27, uxtb #2
  fc:	13491927 	.inst	0x13491927 ; undefined
 100:	07120111 	.inst	0x07120111 ; undefined
 104:	42961840 	.inst	0x42961840 ; undefined
 108:	00130119 	.inst	0x00130119 ; undefined
 10c:	012e0f00 	.inst	0x012e0f00 ; undefined
 110:	0e03193f 	uzp1	v31.8b, v9.8b, v3.8b
 114:	0b3b0b3a 	add	w26, w25, w27, uxtb #2
 118:	13491927 	.inst	0x13491927 ; undefined
 11c:	07120111 	.inst	0x07120111 ; undefined
 120:	42961840 	.inst	0x42961840 ; undefined
 124:	00000019 	.inst	0x00000019 ; undefined
 128:	25011101 	.inst	0x25011101 ; undefined
 12c:	030b130e 	.inst	0x030b130e ; undefined
 130:	110e1b0e 	add	w14, w24, #0x386
 134:	10071201 	adr	x1, e374 <_start-0x71c8c>
 138:	02000017 	.inst	0x02000017 ; undefined
 13c:	0e030113 	tbl	v19.8b, {v8.16b}, v3.8b
 140:	0b3a0b0b 	add	w11, w24, w26, uxtb #2
 144:	13010b3b 	sbfx	w27, w25, #1, #2
 148:	0d030000 	.inst	0x0d030000 ; undefined
 14c:	3a0e0300 	adcs	w0, w24, w14
 150:	490b3b0b 	.inst	0x490b3b0b ; undefined
 154:	000b3813 	.inst	0x000b3813 ; undefined
 158:	00240400 	.inst	0x00240400 ; NYI
 15c:	0b3e0b0b 	add	w11, w24, w30, uxtb #2
 160:	00000803 	.inst	0x00000803 ; undefined
 164:	0b000f05 	add	w5, w24, w0, lsl #3
 168:	0013490b 	.inst	0x0013490b ; undefined
 16c:	00160600 	.inst	0x00160600 ; undefined
 170:	0b3a0e03 	add	w3, w16, w26, uxtb #3
 174:	13490b3b 	.inst	0x13490b3b ; undefined
 178:	2e070000 	ext	v0.8b, v0.8b, v7.8b, #0
 17c:	3a0e0301 	adcs	w1, w24, w14
 180:	270b3b0b 	.inst	0x270b3b0b ; undefined
 184:	12011119 	and	w25, w8, #0x8000000f
 188:	97184007 	bl	fffffffffc6101a4 <__stack_top+0xfffffffffc5701a4>
 18c:	13011942 	sbfx	w2, w10, #1, #6
 190:	05080000 	.inst	0x05080000 ; undefined
 194:	3a0e0300 	adcs	w0, w24, w14
 198:	490b3b0b 	.inst	0x490b3b0b ; undefined
 19c:	00180213 	.inst	0x00180213 ; undefined
 1a0:	00340900 	.inst	0x00340900 ; NYI
 1a4:	0b3a0803 	add	w3, w0, w26, uxtb #2
 1a8:	13490b3b 	.inst	0x13490b3b ; undefined
 1ac:	00001802 	.inst	0x00001802 ; undefined
 1b0:	3f012e0a 	.inst	0x3f012e0a ; undefined
 1b4:	3a0e0319 	adcs	w25, w24, w14
 1b8:	110b3b0b 	add	w11, w24, #0x2ce
 1bc:	40071201 	.inst	0x40071201 ; undefined
 1c0:	19429618 	.inst	0x19429618 ; undefined
 1c4:	00001301 	.inst	0x00001301 ; undefined
 1c8:	11010b0b 	add	w11, w24, #0x42
 1cc:	01071201 	.inst	0x01071201 ; undefined
 1d0:	0c000013 	st4	{v19.8b-v22.8b}, [x0]
 1d4:	0111010b 	.inst	0x0111010b ; undefined
 1d8:	00000712 	.inst	0x00000712 ; undefined
 1dc:	0300340d 	.inst	0x0300340d ; undefined
 1e0:	3b0b3a0e 	.inst	0x3b0b3a0e ; undefined
 1e4:	0213490b 	.inst	0x0213490b ; undefined
 1e8:	0e000018 	tbl	v24.8b, {v0.16b}, v0.8b
 1ec:	193f012e 	.inst	0x193f012e ; undefined
 1f0:	0b3a0e03 	add	w3, w16, w26, uxtb #3
 1f4:	19270b3b 	.inst	0x19270b3b ; undefined
 1f8:	07120111 	.inst	0x07120111 ; undefined
 1fc:	42961840 	.inst	0x42961840 ; undefined
 200:	00130119 	.inst	0x00130119 ; undefined
 204:	00050f00 	.inst	0x00050f00 ; undefined
 208:	0b3a0803 	add	w3, w0, w26, uxtb #2
 20c:	13490b3b 	.inst	0x13490b3b ; undefined
 210:	00001802 	.inst	0x00001802 ; undefined
 214:	3f012e10 	.inst	0x3f012e10 ; undefined
 218:	3a0e0319 	adcs	w25, w24, w14
 21c:	270b3b0b 	.inst	0x270b3b0b ; undefined
 220:	11134919 	add	w25, w8, #0x4d2
 224:	40071201 	.inst	0x40071201 ; undefined
 228:	19429618 	.inst	0x19429618 ; undefined
 22c:	00001301 	.inst	0x00001301 ; undefined
 230:	0b000f11 	add	w17, w24, w0, lsl #3
 234:	1200000b 	and	w11, w0, #0x1
 238:	0b0b0024 	add	w4, w1, w11
 23c:	0e030b3e 	.inst	0x0e030b3e ; undefined
 240:	0b130000 	add	w0, w0, w19
 244:	00175501 	.inst	0x00175501 ; undefined
 248:	012e1400 	.inst	0x012e1400 ; undefined
 24c:	0e03193f 	uzp1	v31.8b, v9.8b, v3.8b
 250:	053b0b3a 	.inst	0x053b0b3a ; undefined
 254:	01111927 	.inst	0x01111927 ; undefined
 258:	18400712 	ldr	w18, 80338 <uart_puts_int+0x20>
 25c:	01194296 	.inst	0x01194296 ; undefined
 260:	15000013 	b	40002ac <__stack_top+0x3f602ac>
 264:	0e030005 	tbl	v5.8b, {v0.16b}, v3.8b
 268:	053b0b3a 	.inst	0x053b0b3a ; undefined
 26c:	18021349 	ldr	w9, 44d4 <_start-0x7bb2c>
 270:	34160000 	cbz	w0, 2c270 <_start-0x53d90>
 274:	3a0e0300 	adcs	w0, w24, w14
 278:	49053b0b 	.inst	0x49053b0b ; undefined
 27c:	00180213 	.inst	0x00180213 ; undefined
 280:	01011700 	.inst	0x01011700 ; undefined
 284:	13011349 	sbfx	w9, w26, #1, #4
 288:	21180000 	.inst	0x21180000 ; undefined
 28c:	2f134900 	.inst	0x2f134900 ; undefined
 290:	0000000b 	.inst	0x0000000b ; undefined
 294:	25011101 	.inst	0x25011101 ; undefined
 298:	030b130e 	.inst	0x030b130e ; undefined
 29c:	110e1b0e 	add	w14, w24, #0x386
 2a0:	10071201 	adr	x1, e4e0 <_start-0x71b20>
 2a4:	02000017 	.inst	0x02000017 ; undefined
 2a8:	0b0b0024 	add	w4, w1, w11
 2ac:	0e030b3e 	.inst	0x0e030b3e ; undefined
 2b0:	2e030000 	ext	v0.8b, v0.8b, v3.8b, #0
 2b4:	03193f01 	.inst	0x03193f01 ; undefined
 2b8:	3b0b3a0e 	.inst	0x3b0b3a0e ; undefined
 2bc:	1201110b 	and	w11, w8, #0x8000000f
 2c0:	96184007 	bl	fffffffff86102dc <__stack_top+0xfffffffff85702dc>
 2c4:	13011942 	sbfx	w2, w10, #1, #6
 2c8:	34040000 	cbz	w0, 82c8 <_start-0x77d38>
 2cc:	3a0e0300 	adcs	w0, w24, w14
 2d0:	490b3b0b 	.inst	0x490b3b0b ; undefined
 2d4:	00180213 	.inst	0x00180213 ; undefined
 2d8:	012e0500 	.inst	0x012e0500 ; undefined
 2dc:	0e03193f 	uzp1	v31.8b, v9.8b, v3.8b
 2e0:	0b3b0b3a 	add	w26, w25, w27, uxtb #2
 2e4:	193c1349 	.inst	0x193c1349 ; undefined
 2e8:	00001301 	.inst	0x00001301 ; undefined
 2ec:	00001806 	.inst	0x00001806 ; undefined
 2f0:	00340700 	.inst	0x00340700 ; NYI
 2f4:	0b3a0803 	add	w3, w0, w26, uxtb #2
 2f8:	13490b3b 	.inst	0x13490b3b ; undefined
 2fc:	00001802 	.inst	0x00001802 ; undefined
 300:	0b002408 	add	w8, w0, w0, lsl #9
 304:	030b3e0b 	.inst	0x030b3e0b ; undefined
 308:	00000008 	.inst	0x00000008 ; undefined
 30c:	10001101 	adr	x1, 52c <_start-0x7fad4>
 310:	12011106 	and	w6, w8, #0x8000000f
 314:	1b080301 	madd	w1, w24, w8, w0
 318:	13082508 	sbfx	w8, w8, #8, #2
 31c:	00000005 	.inst	0x00000005 ; undefined
 320:	25011101 	.inst	0x25011101 ; undefined
 324:	030b130e 	.inst	0x030b130e ; undefined
 328:	110e1b0e 	add	w14, w24, #0x386
 32c:	10071201 	adr	x1, e56c <_start-0x71a94>
 330:	02000017 	.inst	0x02000017 ; undefined
 334:	0e030113 	tbl	v19.8b, {v8.16b}, v3.8b
 338:	0b3a0b0b 	add	w11, w24, w26, uxtb #2
 33c:	13010b3b 	sbfx	w27, w25, #1, #2
 340:	0d030000 	.inst	0x0d030000 ; undefined
 344:	3a080300 	adcs	w0, w24, w8
 348:	490b3b0b 	.inst	0x490b3b0b ; undefined
 34c:	000b3813 	.inst	0x000b3813 ; undefined
 350:	00240400 	.inst	0x00240400 ; NYI
 354:	0b3e0b0b 	add	w11, w24, w30, uxtb #2
 358:	00000e03 	.inst	0x00000e03 ; undefined
 35c:	03001605 	.inst	0x03001605 ; undefined
 360:	3b0b3a0e 	.inst	0x3b0b3a0e ; undefined
 364:	0013490b 	.inst	0x0013490b ; undefined
 368:	000d0600 	.inst	0x000d0600 ; undefined
 36c:	0b3a0e03 	add	w3, w16, w26, uxtb #3
 370:	13490b3b 	.inst	0x13490b3b ; undefined
 374:	00000b38 	.inst	0x00000b38 ; undefined
 378:	03011307 	.inst	0x03011307 ; undefined
 37c:	3a050b0e 	.inst	0x3a050b0e ; undefined
 380:	010b3b0b 	.inst	0x010b3b0b ; undefined
 384:	08000013 	stxrb	w0, w19, [x0]
 388:	0803000d 	stxrb	w3, w13, [x0]
 38c:	0b3b0b3a 	add	w26, w25, w27, uxtb #2
 390:	05381349 	.inst	0x05381349 ; undefined
 394:	0d090000 	.inst	0x0d090000 ; undefined
 398:	3a0e0300 	adcs	w0, w24, w14
 39c:	490b3b0b 	.inst	0x490b3b0b ; undefined
 3a0:	00053813 	.inst	0x00053813 ; undefined
 3a4:	01010a00 	.inst	0x01010a00 ; undefined
 3a8:	13011349 	sbfx	w9, w26, #1, #4
 3ac:	210b0000 	.inst	0x210b0000 ; undefined
 3b0:	2f134900 	.inst	0x2f134900 ; undefined
 3b4:	0c00000b 	st4	{v11.8b-v14.8b}, [x0]
 3b8:	0b0b0024 	add	w4, w1, w11
 3bc:	08030b3e 	stxrb	w3, w30, [x25]
 3c0:	2e0d0000 	ext	v0.8b, v0.8b, v13.8b, #0
 3c4:	3a0e0300 	adcs	w0, w24, w14
 3c8:	270b3b0b 	.inst	0x270b3b0b ; undefined
 3cc:	12011119 	and	w25, w8, #0x8000000f
 3d0:	97184007 	bl	fffffffffc6103ec <__stack_top+0xfffffffffc5703ec>
 3d4:	00001942 	.inst	0x00001942 ; undefined
 3d8:	3f012e0e 	.inst	0x3f012e0e ; undefined
 3dc:	3a0e0319 	adcs	w25, w24, w14
 3e0:	270b3b0b 	.inst	0x270b3b0b ; undefined
 3e4:	12011119 	and	w25, w8, #0x8000000f
 3e8:	97184007 	bl	fffffffffc610404 <__stack_top+0xfffffffffc570404>
 3ec:	13011942 	sbfx	w2, w10, #1, #6
 3f0:	050f0000 	.inst	0x050f0000 ; undefined
 3f4:	3a0e0300 	adcs	w0, w24, w14
 3f8:	490b3b0b 	.inst	0x490b3b0b ; undefined
 3fc:	00180213 	.inst	0x00180213 ; undefined
 400:	012e1000 	.inst	0x012e1000 ; undefined
 404:	0e03193f 	uzp1	v31.8b, v9.8b, v3.8b
 408:	0b3b0b3a 	add	w26, w25, w27, uxtb #2
 40c:	01111927 	.inst	0x01111927 ; undefined
 410:	18400712 	ldr	w18, 804f0 <uart_getX+0x44>
 414:	01194296 	.inst	0x01194296 ; undefined
 418:	11000013 	add	w19, w0, #0x0
 41c:	0e030034 	tbl	v20.8b, {v1.16b}, v3.8b
 420:	0b3b0b3a 	add	w26, w25, w27, uxtb #2
 424:	18021349 	ldr	w9, 468c <_start-0x7b974>
 428:	0f120000 	.inst	0x0f120000 ; undefined
 42c:	490b0b00 	.inst	0x490b0b00 ; undefined
 430:	13000013 	sbfx	w19, w0, #0, #1
 434:	193f012e 	.inst	0x193f012e ; undefined
 438:	0b3a0e03 	add	w3, w16, w26, uxtb #3
 43c:	19270b3b 	.inst	0x19270b3b ; undefined
 440:	01111349 	.inst	0x01111349 ; undefined
 444:	18400712 	ldr	w18, 80524 <uart_getX+0x78>
 448:	01194297 	.inst	0x01194297 ; undefined
 44c:	14000013 	b	498 <_start-0x7fb68>
 450:	08030005 	stxrb	w3, w5, [x0]
 454:	0b3b0b3a 	add	w26, w25, w27, uxtb #2
 458:	18021349 	ldr	w9, 46c0 <_start-0x7b940>
 45c:	34150000 	cbz	w0, 2a45c <_start-0x55ba4>
 460:	3a080300 	adcs	w0, w24, w8
 464:	490b3b0b 	.inst	0x490b3b0b ; undefined
 468:	00180213 	.inst	0x00180213 ; undefined
 46c:	012e1600 	.inst	0x012e1600 ; undefined
 470:	0e03193f 	uzp1	v31.8b, v9.8b, v3.8b
 474:	0b3b0b3a 	add	w26, w25, w27, uxtb #2
 478:	13491927 	.inst	0x13491927 ; undefined
 47c:	07120111 	.inst	0x07120111 ; undefined
 480:	42961840 	.inst	0x42961840 ; undefined
 484:	00130119 	.inst	0x00130119 ; undefined
 488:	012e1700 	.inst	0x012e1700 ; undefined
 48c:	0e03193f 	uzp1	v31.8b, v9.8b, v3.8b
 490:	0b3b0b3a 	add	w26, w25, w27, uxtb #2
 494:	193c1349 	.inst	0x193c1349 ; undefined
 498:	00001301 	.inst	0x00001301 ; undefined
 49c:	00001818 	.inst	0x00001818 ; undefined
 4a0:	010b1900 	.inst	0x010b1900 ; undefined
 4a4:	07120111 	.inst	0x07120111 ; undefined
 4a8:	0b1a0000 	add	w0, w0, w26
 4ac:	12011101 	and	w1, w8, #0x8000000f
 4b0:	00130107 	.inst	0x00130107 ; undefined
 4b4:	002e1b00 	.inst	0x002e1b00 ; NYI
 4b8:	0e03193f 	uzp1	v31.8b, v9.8b, v3.8b
 4bc:	0b3b0b3a 	add	w26, w25, w27, uxtb #2
 4c0:	01111927 	.inst	0x01111927 ; undefined
 4c4:	18400712 	ldr	w18, 805a4 <node_init+0x14>
 4c8:	00194296 	.inst	0x00194296 ; undefined
 4cc:	002e1c00 	.inst	0x002e1c00 ; NYI
 4d0:	0e03193f 	uzp1	v31.8b, v9.8b, v3.8b
 4d4:	0b3b0b3a 	add	w26, w25, w27, uxtb #2
 4d8:	07120111 	.inst	0x07120111 ; undefined
 4dc:	42961840 	.inst	0x42961840 ; undefined
 4e0:	1d000019 	.inst	0x1d000019 ; undefined
 4e4:	0e03012e 	tbl	v14.8b, {v9.16b}, v3.8b
 4e8:	0b3b0b3a 	add	w26, w25, w27, uxtb #2
 4ec:	07120111 	.inst	0x07120111 ; undefined
 4f0:	42961840 	.inst	0x42961840 ; undefined
 4f4:	00130119 	.inst	0x00130119 ; undefined
 4f8:	012e1e00 	.inst	0x012e1e00 ; undefined
 4fc:	0e03193f 	uzp1	v31.8b, v9.8b, v3.8b
 500:	0b3b0b3a 	add	w26, w25, w27, uxtb #2
 504:	193c1349 	.inst	0x193c1349 ; undefined
 508:	341f0000 	cbz	w0, 3e508 <_start-0x41af8>
 50c:	3a0e0300 	adcs	w0, w24, w14
 510:	490b3b0b 	.inst	0x490b3b0b ; undefined
 514:	02193f13 	.inst	0x02193f13 ; undefined
 518:	00000018 	.inst	0x00000018 ; undefined
 51c:	25011101 	.inst	0x25011101 ; undefined
 520:	030b130e 	.inst	0x030b130e ; undefined
 524:	110e1b0e 	add	w14, w24, #0x386
 528:	10071201 	adr	x1, e768 <_start-0x71898>
 52c:	02000017 	.inst	0x02000017 ; undefined
 530:	0b0b0024 	add	w4, w1, w11
 534:	08030b3e 	stxrb	w3, w30, [x25]
 538:	13030000 	sbfiz	w0, w0, #29, #1
 53c:	0b0e0301 	add	w1, w24, w14
 540:	3b0b3a0b 	.inst	0x3b0b3a0b ; undefined
 544:	0013010b 	.inst	0x0013010b ; undefined
 548:	000d0400 	.inst	0x000d0400 ; undefined
 54c:	0b3a0803 	add	w3, w0, w26, uxtb #2
 550:	13490b3b 	.inst	0x13490b3b ; undefined
 554:	00000b38 	.inst	0x00000b38 ; undefined
 558:	0b002405 	add	w5, w0, w0, lsl #9
 55c:	030b3e0b 	.inst	0x030b3e0b ; undefined
 560:	0600000e 	.inst	0x0600000e ; undefined
 564:	0e030016 	tbl	v22.8b, {v0.16b}, v3.8b
 568:	0b3b0b3a 	add	w26, w25, w27, uxtb #2
 56c:	00001349 	.inst	0x00001349 ; undefined
 570:	03000d07 	.inst	0x03000d07 ; undefined
 574:	3b0b3a0e 	.inst	0x3b0b3a0e ; undefined
 578:	3813490b 	sttrb	w11, [x8,#-204]
 57c:	0800000b 	stxrb	w0, w11, [x0]
 580:	193f012e 	.inst	0x193f012e ; undefined
 584:	0b3a0e03 	add	w3, w16, w26, uxtb #3
 588:	01110b3b 	.inst	0x01110b3b ; undefined
 58c:	18400712 	ldr	w18, 8066c <list_remove_index+0x8>
 590:	01194296 	.inst	0x01194296 ; undefined
 594:	09000013 	.inst	0x09000013 ; undefined
 598:	0e030034 	tbl	v20.8b, {v1.16b}, v3.8b
 59c:	0b3b0b3a 	add	w26, w25, w27, uxtb #2
 5a0:	18021349 	ldr	w9, 4808 <_start-0x7b7f8>
 5a4:	2e0a0000 	ext	v0.8b, v0.8b, v10.8b, #0
 5a8:	3a080301 	adcs	w1, w24, w8
 5ac:	110b3b0b 	add	w11, w24, #0x2ce
 5b0:	40071201 	.inst	0x40071201 ; undefined
 5b4:	19429618 	.inst	0x19429618 ; undefined
 5b8:	00001301 	.inst	0x00001301 ; undefined
 5bc:	3f012e0b 	.inst	0x3f012e0b ; undefined
 5c0:	3a0e0319 	adcs	w25, w24, w14
 5c4:	490b3b0b 	.inst	0x490b3b0b ; undefined
 5c8:	01193c13 	.inst	0x01193c13 ; undefined
 5cc:	0c000013 	st4	{v19.8b-v22.8b}, [x0]
 5d0:	00000018 	.inst	0x00000018 ; undefined
 5d4:	11010b0d 	add	w13, w24, #0x42
 5d8:	00071201 	.inst	0x00071201 ; undefined
 5dc:	00340e00 	.inst	0x00340e00 ; NYI
 5e0:	0b3a0803 	add	w3, w0, w26, uxtb #2
 5e4:	13490b3b 	.inst	0x13490b3b ; undefined
 5e8:	00001802 	.inst	0x00001802 ; undefined
 5ec:	3f012e0f 	.inst	0x3f012e0f ; undefined
 5f0:	3a0e0319 	adcs	w25, w24, w14
 5f4:	270b3b0b 	.inst	0x270b3b0b ; undefined
 5f8:	12011119 	and	w25, w8, #0x8000000f
 5fc:	96184007 	bl	fffffffff8610618 <__stack_top+0xfffffffff8570618>
 600:	13011942 	sbfx	w2, w10, #1, #6
 604:	05100000 	.inst	0x05100000 ; undefined
 608:	3a080300 	adcs	w0, w24, w8
 60c:	490b3b0b 	.inst	0x490b3b0b ; undefined
 610:	00180213 	.inst	0x00180213 ; undefined
 614:	01011100 	.inst	0x01011100 ; undefined
 618:	13011349 	sbfx	w9, w26, #1, #4
 61c:	21120000 	.inst	0x21120000 ; undefined
 620:	2f134900 	.inst	0x2f134900 ; undefined
 624:	1300000b 	sbfx	w11, w0, #0, #1
 628:	0b0b000f 	add	w15, w0, w11
 62c:	00001349 	.inst	0x00001349 ; undefined
 630:	03003414 	.inst	0x03003414 ; undefined
 634:	3b0b3a0e 	.inst	0x3b0b3a0e ; undefined
 638:	3f13490b 	.inst	0x3f13490b ; undefined
 63c:	00193c19 	.inst	0x00193c19 ; undefined
 640:	11010000 	add	w0, w0, #0x40
 644:	11061000 	add	w0, w0, #0x184
 648:	03011201 	.inst	0x03011201 ; undefined
 64c:	25081b08 	.inst	0x25081b08 ; undefined
 650:	00051308 	.inst	0x00051308 ; undefined
 654:	11010000 	add	w0, w0, #0x40
 658:	11061000 	add	w0, w0, #0x184
 65c:	03011201 	.inst	0x03011201 ; undefined
 660:	25081b08 	.inst	0x25081b08 ; undefined
 664:	00051308 	.inst	0x00051308 ; undefined
 668:	11010000 	add	w0, w0, #0x40
 66c:	130e2501 	sbfiz	w1, w8, #18, #10
 670:	1b0e030b 	madd	w11, w24, w14, w0
 674:	1201110e 	and	w14, w8, #0x8000000f
 678:	00171007 	.inst	0x00171007 ; undefined
 67c:	00240200 	.inst	0x00240200 ; NYI
 680:	0b3e0b0b 	add	w11, w24, w30, uxtb #2
 684:	00000803 	.inst	0x00000803 ; undefined
 688:	3f012e03 	.inst	0x3f012e03 ; undefined
 68c:	3a0e0319 	adcs	w25, w24, w14
 690:	270b3b0b 	.inst	0x270b3b0b ; undefined
 694:	12011119 	and	w25, w8, #0x8000000f
 698:	96184007 	bl	fffffffff86106b4 <__stack_top+0xfffffffff85706b4>
 69c:	13011942 	sbfx	w2, w10, #1, #6
 6a0:	05040000 	.inst	0x05040000 ; undefined
 6a4:	3a0e0300 	adcs	w0, w24, w14
 6a8:	490b3b0b 	.inst	0x490b3b0b ; undefined
 6ac:	00180213 	.inst	0x00180213 ; undefined
 6b0:	00340500 	.inst	0x00340500 ; NYI
 6b4:	0b3a0e03 	add	w3, w16, w26, uxtb #3
 6b8:	13490b3b 	.inst	0x13490b3b ; undefined
 6bc:	00001802 	.inst	0x00001802 ; undefined
 6c0:	11010b06 	add	w6, w24, #0x42
 6c4:	00071201 	.inst	0x00071201 ; undefined
 6c8:	00340700 	.inst	0x00340700 ; NYI
 6cc:	0b3a0803 	add	w3, w0, w26, uxtb #2
 6d0:	13490b3b 	.inst	0x13490b3b ; undefined
 6d4:	00001802 	.inst	0x00001802 ; undefined
 6d8:	0b000f08 	add	w8, w24, w0, lsl #3
 6dc:	0013490b 	.inst	0x0013490b ; undefined
 6e0:	00240900 	.inst	0x00240900 ; NYI
 6e4:	0b3e0b0b 	add	w11, w24, w30, uxtb #2
 6e8:	00000e03 	.inst	0x00000e03 ; undefined
 6ec:	3f012e0a 	.inst	0x3f012e0a ; undefined
 6f0:	3a0e0319 	adcs	w25, w24, w14
 6f4:	110b3b0b 	add	w11, w24, #0x2ce
 6f8:	40071201 	.inst	0x40071201 ; undefined
 6fc:	19429618 	.inst	0x19429618 ; undefined
 700:	00001301 	.inst	0x00001301 ; undefined
 704:	55010b0b 	.inst	0x55010b0b ; undefined
 708:	0c000017 	st4	{v23.8b-v26.8b}, [x0]
 70c:	13490101 	.inst	0x13490101 ; undefined
 710:	00001301 	.inst	0x00001301 ; undefined
 714:	4900210d 	.inst	0x4900210d ; undefined
 718:	000b2f13 	.inst	0x000b2f13 ; undefined
 71c:	00350e00 	.inst	0x00350e00 ; NYI
 720:	00001349 	.inst	0x00001349 ; undefined
 724:	3f012e0f 	.inst	0x3f012e0f ; undefined
 728:	3a0e0319 	adcs	w25, w24, w14
 72c:	270b3b0b 	.inst	0x270b3b0b ; undefined
 730:	11134919 	add	w25, w8, #0x4d2
 734:	40071201 	.inst	0x40071201 ; undefined
 738:	19429718 	.inst	0x19429718 ; undefined
 73c:	00001301 	.inst	0x00001301 ; undefined
 740:	11010b10 	add	w16, w24, #0x42
 744:	01071201 	.inst	0x01071201 ; undefined
 748:	11000013 	add	w19, w0, #0x0
 74c:	193f012e 	.inst	0x193f012e ; undefined
 750:	0b3a0e03 	add	w3, w16, w26, uxtb #3
 754:	19270b3b 	.inst	0x19270b3b ; undefined
 758:	01111349 	.inst	0x01111349 ; undefined
 75c:	18400712 	ldr	w18, 8083c <print_free_list+0x164>
 760:	01194296 	.inst	0x01194296 ; undefined
 764:	12000013 	and	w19, w0, #0x1
 768:	1755010b 	b	fffffffffd540b94 <__stack_top+0xfffffffffd4a0b94>
 76c:	00001301 	.inst	0x00001301 ; undefined
 770:	03003413 	.inst	0x03003413 ; undefined
 774:	3b0b3a0e 	.inst	0x3b0b3a0e ; undefined
 778:	3f13490b 	.inst	0x3f13490b ; undefined
 77c:	00180219 	.inst	0x00180219 ; undefined
 780:	11010000 	add	w0, w0, #0x40
 784:	130e2501 	sbfiz	w1, w8, #18, #10
 788:	1b0e030b 	madd	w11, w24, w14, w0
 78c:	1201110e 	and	w14, w8, #0x8000000f
 790:	00171007 	.inst	0x00171007 ; undefined
 794:	00240200 	.inst	0x00240200 ; NYI
 798:	0b3e0b0b 	add	w11, w24, w30, uxtb #2
 79c:	00000803 	.inst	0x00000803 ; undefined
 7a0:	3f002e03 	.inst	0x3f002e03 ; undefined
 7a4:	3a0e0319 	adcs	w25, w24, w14
 7a8:	110b3b0b 	add	w11, w24, #0x2ce
 7ac:	40071201 	.inst	0x40071201 ; undefined
 7b0:	19429618 	.inst	0x19429618 ; undefined
 7b4:	2e040000 	ext	v0.8b, v0.8b, v4.8b, #0
 7b8:	03193f01 	.inst	0x03193f01 ; undefined
 7bc:	3b0b3a0e 	.inst	0x3b0b3a0e ; undefined
 7c0:	1119270b 	add	w11, w24, #0x649
 7c4:	40071201 	.inst	0x40071201 ; undefined
 7c8:	19429718 	.inst	0x19429718 ; undefined
 7cc:	00001301 	.inst	0x00001301 ; undefined
 7d0:	03000505 	.inst	0x03000505 ; undefined
 7d4:	3b0b3a0e 	.inst	0x3b0b3a0e ; undefined
 7d8:	0213490b 	.inst	0x0213490b ; undefined
 7dc:	06000018 	.inst	0x06000018 ; undefined
 7e0:	193f002e 	.inst	0x193f002e ; undefined
 7e4:	0b3a0e03 	add	w3, w16, w26, uxtb #3
 7e8:	01110b3b 	.inst	0x01110b3b ; undefined
 7ec:	18400712 	ldr	w18, 808cc <init_buckets+0x50>
 7f0:	00194297 	.inst	0x00194297 ; undefined
 7f4:	012e0700 	.inst	0x012e0700 ; undefined
 7f8:	0e03193f 	uzp1	v31.8b, v9.8b, v3.8b
 7fc:	0b3b0b3a 	add	w26, w25, w27, uxtb #2
 800:	07120111 	.inst	0x07120111 ; undefined
 804:	42961840 	.inst	0x42961840 ; undefined
 808:	00130119 	.inst	0x00130119 ; undefined
 80c:	00340800 	.inst	0x00340800 ; NYI
 810:	0b3a0e03 	add	w3, w16, w26, uxtb #3
 814:	13490b3b 	.inst	0x13490b3b ; undefined
 818:	00001802 	.inst	0x00001802 ; undefined
 81c:	11010b09 	add	w9, w24, #0x42
 820:	00071201 	.inst	0x00071201 ; undefined
 824:	000f0a00 	.inst	0x000f0a00 ; undefined
 828:	13490b0b 	.inst	0x13490b0b ; undefined
 82c:	240b0000 	.inst	0x240b0000 ; undefined
 830:	3e0b0b00 	.inst	0x3e0b0b00 ; undefined
 834:	000e030b 	.inst	0x000e030b ; undefined
 838:	01010c00 	.inst	0x01010c00 ; undefined
 83c:	13011349 	sbfx	w9, w26, #1, #4
 840:	210d0000 	.inst	0x210d0000 ; undefined
 844:	2f134900 	.inst	0x2f134900 ; undefined
 848:	0000000b 	.inst	0x0000000b ; undefined
 84c:	25011101 	.inst	0x25011101 ; undefined
 850:	030b130e 	.inst	0x030b130e ; undefined
 854:	110e1b0e 	add	w14, w24, #0x386
 858:	10071201 	adr	x1, ea98 <_start-0x71568>
 85c:	02000017 	.inst	0x02000017 ; undefined
 860:	193f012e 	.inst	0x193f012e ; undefined
 864:	0b3a0e03 	add	w3, w16, w26, uxtb #3
 868:	19270b3b 	.inst	0x19270b3b ; undefined
 86c:	01111349 	.inst	0x01111349 ; undefined
 870:	18400712 	ldr	w18, 80950 <split_block+0x44>
 874:	01194297 	.inst	0x01194297 ; undefined
 878:	03000013 	.inst	0x03000013 ; undefined
 87c:	08030005 	stxrb	w3, w5, [x0]
 880:	0b3b0b3a 	add	w26, w25, w27, uxtb #2
 884:	18021349 	ldr	w9, 4aec <_start-0x7b514>
 888:	24040000 	.inst	0x24040000 ; undefined
 88c:	3e0b0b00 	.inst	0x3e0b0b00 ; undefined
 890:	0008030b 	.inst	0x0008030b ; undefined
 894:	000f0500 	.inst	0x000f0500 ; undefined
 898:	13490b0b 	.inst	0x13490b0b ; undefined
 89c:	24060000 	.inst	0x24060000 ; undefined
 8a0:	3e0b0b00 	.inst	0x3e0b0b00 ; undefined
 8a4:	000e030b 	.inst	0x000e030b ; undefined
 8a8:	11010000 	add	w0, w0, #0x40
 8ac:	130e2501 	sbfiz	w1, w8, #18, #10
 8b0:	1b0e030b 	madd	w11, w24, w14, w0
 8b4:	1201110e 	and	w14, w8, #0x8000000f
 8b8:	00171007 	.inst	0x00171007 ; undefined
 8bc:	01130200 	.inst	0x01130200 ; undefined
 8c0:	0b0b0e03 	add	w3, w16, w11, lsl #3
 8c4:	0b3b0b3a 	add	w26, w25, w27, uxtb #2
 8c8:	00001301 	.inst	0x00001301 ; undefined
 8cc:	03000d03 	.inst	0x03000d03 ; undefined
 8d0:	3b0b3a08 	.inst	0x3b0b3a08 ; undefined
 8d4:	3813490b 	sttrb	w11, [x8,#-204]
 8d8:	0400000b 	.inst	0x0400000b ; undefined
 8dc:	0b0b0024 	add	w4, w1, w11
 8e0:	0e030b3e 	.inst	0x0e030b3e ; undefined
 8e4:	16050000 	b	fffffffff81408e4 <__stack_top+0xfffffffff80a08e4>
 8e8:	3a0e0300 	adcs	w0, w24, w14
 8ec:	490b3b0b 	.inst	0x490b3b0b ; undefined
 8f0:	06000013 	.inst	0x06000013 ; undefined
 8f4:	0e03000d 	tbl	v13.8b, {v0.16b}, v3.8b
 8f8:	0b3b0b3a 	add	w26, w25, w27, uxtb #2
 8fc:	0b381349 	add	w9, w26, w24, uxtb #4
 900:	2e070000 	ext	v0.8b, v0.8b, v7.8b, #0
 904:	03193f00 	.inst	0x03193f00 ; undefined
 908:	3b0b3a0e 	.inst	0x3b0b3a0e ; undefined
 90c:	1113490b 	add	w11, w8, #0x4d2
 910:	40071201 	.inst	0x40071201 ; undefined
 914:	19429718 	.inst	0x19429718 ; undefined
 918:	24080000 	.inst	0x24080000 ; undefined
 91c:	3e0b0b00 	.inst	0x3e0b0b00 ; undefined
 920:	0008030b 	.inst	0x0008030b ; undefined
 924:	012e0900 	.inst	0x012e0900 ; undefined
 928:	0e03193f 	uzp1	v31.8b, v9.8b, v3.8b
 92c:	0b3b0b3a 	add	w26, w25, w27, uxtb #2
 930:	01111927 	.inst	0x01111927 ; undefined
 934:	18400712 	ldr	w18, 80a14 <get_page_from_buckets+0x18>
 938:	01194296 	.inst	0x01194296 ; undefined
 93c:	0a000013 	and	w19, w0, w0
 940:	08030005 	stxrb	w3, w5, [x0]
 944:	0b3b0b3a 	add	w26, w25, w27, uxtb #2
 948:	18021349 	ldr	w9, 4bb0 <_start-0x7b450>
 94c:	050b0000 	.inst	0x050b0000 ; undefined
 950:	3a0e0300 	adcs	w0, w24, w14
 954:	490b3b0b 	.inst	0x490b3b0b ; undefined
 958:	00180213 	.inst	0x00180213 ; undefined
 95c:	000f0c00 	.inst	0x000f0c00 ; undefined
 960:	13490b0b 	.inst	0x13490b0b ; undefined
 964:	2e0d0000 	ext	v0.8b, v0.8b, v13.8b, #0
 968:	03193f01 	.inst	0x03193f01 ; undefined
 96c:	3b0b3a0e 	.inst	0x3b0b3a0e ; undefined
 970:	3c13490b 	.inst	0x3c13490b ; undefined
 974:	0e000019 	tbl	v25.8b, {v0.16b}, v0.8b
 978:	00000018 	.inst	0x00000018 ; undefined
 97c:	3f012e0f 	.inst	0x3f012e0f ; undefined
 980:	3a0e0319 	adcs	w25, w24, w14
 984:	110b3b0b 	add	w11, w24, #0x2ce
 988:	40071201 	.inst	0x40071201 ; undefined
 98c:	19429618 	.inst	0x19429618 ; undefined
 990:	00001301 	.inst	0x00001301 ; undefined
 994:	3f012e10 	.inst	0x3f012e10 ; undefined
 998:	3a0e0319 	adcs	w25, w24, w14
 99c:	490b3b0b 	.inst	0x490b3b0b ; undefined
 9a0:	12011113 	and	w19, w8, #0x8000000f
 9a4:	96184007 	bl	fffffffff86109c0 <__stack_top+0xfffffffff85709c0>
 9a8:	13011942 	sbfx	w2, w10, #1, #6
 9ac:	34110000 	cbz	w0, 229ac <_start-0x5d654>
 9b0:	3a0e0300 	adcs	w0, w24, w14
 9b4:	490b3b0b 	.inst	0x490b3b0b ; undefined
 9b8:	00180213 	.inst	0x00180213 ; undefined
 9bc:	00341200 	.inst	0x00341200 ; NYI
 9c0:	0b3a0e03 	add	w3, w16, w26, uxtb #3
 9c4:	13490b3b 	.inst	0x13490b3b ; undefined
 9c8:	193c193f 	.inst	0x193c193f ; undefined
 9cc:	01130000 	.inst	0x01130000 ; undefined
 9d0:	01134901 	.inst	0x01134901 ; undefined
 9d4:	14000013 	b	a20 <_start-0x7f5e0>
 9d8:	13490021 	.inst	0x13490021 ; undefined
 9dc:	00000b2f 	.inst	0x00000b2f ; undefined
 9e0:	0b000f15 	add	w21, w24, w0, lsl #3
 9e4:	1600000b 	b	fffffffff8000a10 <__stack_top+0xfffffffff7f60a10>
 9e8:	13490026 	.inst	0x13490026 ; undefined
 9ec:	34170000 	cbz	w0, 2e9ec <_start-0x51614>
 9f0:	3a0e0300 	adcs	w0, w24, w14
 9f4:	490b3b0b 	.inst	0x490b3b0b ; undefined
 9f8:	02193f13 	.inst	0x02193f13 ; undefined
 9fc:	00000018 	.inst	0x00000018 ; undefined
 a00:	10001101 	adr	x1, c20 <_start-0x7f3e0>
 a04:	12011106 	and	w6, w8, #0x8000000f
 a08:	1b080301 	madd	w1, w24, w8, w0
 a0c:	13082508 	sbfx	w8, w8, #8, #2
 a10:	00000005 	.inst	0x00000005 ; undefined
 a14:	25011101 	.inst	0x25011101 ; undefined
 a18:	030b130e 	.inst	0x030b130e ; undefined
 a1c:	110e1b0e 	add	w14, w24, #0x386
 a20:	10071201 	adr	x1, ec60 <_start-0x713a0>
 a24:	02000017 	.inst	0x02000017 ; undefined
 a28:	193f012e 	.inst	0x193f012e ; undefined
 a2c:	0b3a0e03 	add	w3, w16, w26, uxtb #3
 a30:	19270b3b 	.inst	0x19270b3b ; undefined
 a34:	01111349 	.inst	0x01111349 ; undefined
 a38:	18400712 	ldr	w18, 80b18 <kmalloc+0x68>
 a3c:	01194297 	.inst	0x01194297 ; undefined
 a40:	03000013 	.inst	0x03000013 ; undefined
 a44:	08030005 	stxrb	w3, w5, [x0]
 a48:	0b3b0b3a 	add	w26, w25, w27, uxtb #2
 a4c:	18021349 	ldr	w9, 4cb4 <_start-0x7b34c>
 a50:	05040000 	.inst	0x05040000 ; undefined
 a54:	3a0e0300 	adcs	w0, w24, w14
 a58:	490b3b0b 	.inst	0x490b3b0b ; undefined
 a5c:	00180213 	.inst	0x00180213 ; undefined
 a60:	00340500 	.inst	0x00340500 ; NYI
 a64:	0b3a0803 	add	w3, w0, w26, uxtb #2
 a68:	13490b3b 	.inst	0x13490b3b ; undefined
 a6c:	00001802 	.inst	0x00001802 ; undefined
 a70:	03003406 	.inst	0x03003406 ; undefined
 a74:	3b0b3a0e 	.inst	0x3b0b3a0e ; undefined
 a78:	0213490b 	.inst	0x0213490b ; undefined
 a7c:	07000018 	.inst	0x07000018 ; undefined
 a80:	0111010b 	.inst	0x0111010b ; undefined
 a84:	13010712 	sbfx	w18, w24, #1, #1
 a88:	0b080000 	add	w0, w0, w8
 a8c:	12011101 	and	w1, w8, #0x8000000f
 a90:	09000007 	.inst	0x09000007 ; undefined
 a94:	0b0b0024 	add	w4, w1, w11
 a98:	08030b3e 	stxrb	w3, w30, [x25]
 a9c:	0f0a0000 	.inst	0x0f0a0000 ; undefined
 aa0:	490b0b00 	.inst	0x490b0b00 ; undefined
 aa4:	0b000013 	add	w19, w0, w0
 aa8:	0b0b0024 	add	w4, w1, w11
 aac:	0e030b3e 	.inst	0x0e030b3e ; undefined
 ab0:	2e0c0000 	ext	v0.8b, v0.8b, v12.8b, #0
 ab4:	03193f01 	.inst	0x03193f01 ; undefined
 ab8:	3b0b3a0e 	.inst	0x3b0b3a0e ; undefined
 abc:	1119270b 	add	w11, w24, #0x649
 ac0:	40071201 	.inst	0x40071201 ; undefined
 ac4:	19429718 	.inst	0x19429718 ; undefined
 ac8:	00001301 	.inst	0x00001301 ; undefined
 acc:	4901010d 	.inst	0x4901010d ; undefined
 ad0:	00130113 	.inst	0x00130113 ; undefined
 ad4:	00210e00 	.inst	0x00210e00 ; NYI
 ad8:	052f1349 	.inst	0x052f1349 ; undefined
 adc:	01000000 	.inst	0x01000000 ; undefined
 ae0:	06100011 	.inst	0x06100011 ; undefined
 ae4:	01120111 	.inst	0x01120111 ; undefined
 ae8:	081b0803 	stxrb	w27, w3, [x0]
 aec:	05130825 	.inst	0x05130825 ; undefined
 af0:	Address 0x0000000000000af0 is out of bounds.


Disassembly of section .debug_aranges:

0000000000000000 <.debug_aranges>:
   0:	0000002c 	.inst	0x0000002c ; undefined
   4:	00000002 	.inst	0x00000002 ; undefined
   8:	00080000 	.inst	0x00080000 ; undefined
   c:	00000000 	.inst	0x00000000 ; undefined
  10:	00080000 	.inst	0x00080000 ; undefined
  14:	00000000 	.inst	0x00000000 ; undefined
  18:	00000060 	.inst	0x00000060 ; undefined
	...
  30:	0000002c 	.inst	0x0000002c ; undefined
  34:	005b0002 	.inst	0x005b0002 ; undefined
  38:	00080000 	.inst	0x00080000 ; undefined
  3c:	00000000 	.inst	0x00000000 ; undefined
  40:	00080060 	.inst	0x00080060 ; undefined
  44:	00000000 	.inst	0x00000000 ; undefined
  48:	00000530 	.inst	0x00000530 ; undefined
	...
  60:	0000002c 	.inst	0x0000002c ; undefined
  64:	02ff0002 	.inst	0x02ff0002 ; undefined
  68:	00080000 	.inst	0x00080000 ; undefined
  6c:	00000000 	.inst	0x00000000 ; undefined
  70:	00080590 	.inst	0x00080590 ; undefined
  74:	00000000 	.inst	0x00000000 ; undefined
  78:	0000091c 	.inst	0x0000091c ; undefined
	...
  90:	0000002c 	.inst	0x0000002c ; undefined
  94:	09780002 	.inst	0x09780002 ; undefined
  98:	00080000 	.inst	0x00080000 ; undefined
  9c:	00000000 	.inst	0x00000000 ; undefined
  a0:	00080eac 	.inst	0x00080eac ; undefined
  a4:	00000000 	.inst	0x00000000 ; undefined
  a8:	00000118 	.inst	0x00000118 ; undefined
	...
  c0:	0000002c 	.inst	0x0000002c ; undefined
  c4:	0a630002 	bic	w2, w0, w3, lsr #0
  c8:	00080000 	.inst	0x00080000 ; undefined
  cc:	00000000 	.inst	0x00000000 ; undefined
  d0:	00080fc4 	.inst	0x00080fc4 ; undefined
  d4:	00000000 	.inst	0x00000000 ; undefined
  d8:	00000024 	.inst	0x00000024 ; undefined
	...
  f0:	0000002c 	.inst	0x0000002c ; undefined
  f4:	0abb0002 	bic	w2, w0, w27, asr #0
  f8:	00080000 	.inst	0x00080000 ; undefined
  fc:	00000000 	.inst	0x00000000 ; undefined
 100:	00080fe8 	.inst	0x00080fe8 ; undefined
 104:	00000000 	.inst	0x00000000 ; undefined
 108:	0000078c 	.inst	0x0000078c ; undefined
	...
 120:	0000002c 	.inst	0x0000002c ; undefined
 124:	10dc0002 	adr	x2, fffffffffffb8124 <__stack_top+0xfffffffffff18124>
 128:	00080000 	.inst	0x00080000 ; undefined
 12c:	00000000 	.inst	0x00000000 ; undefined
 130:	00081774 	.inst	0x00081774 ; undefined
 134:	00000000 	.inst	0x00000000 ; undefined
 138:	000001f0 	.inst	0x000001f0 ; undefined
	...
 150:	0000002c 	.inst	0x0000002c ; undefined
 154:	13ed0002 	.inst	0x13ed0002 ; undefined
 158:	00080000 	.inst	0x00080000 ; undefined
 15c:	00000000 	.inst	0x00000000 ; undefined
 160:	00081964 	.inst	0x00081964 ; undefined
 164:	00000000 	.inst	0x00000000 ; undefined
 168:	00000050 	.inst	0x00000050 ; undefined
	...
 180:	0000002c 	.inst	0x0000002c ; undefined
 184:	14480002 	b	120018c <__stack_top+0x116018c>
 188:	00080000 	.inst	0x00080000 ; undefined
 18c:	00000000 	.inst	0x00000000 ; undefined
 190:	00082000 	.inst	0x00082000 ; undefined
 194:	00000000 	.inst	0x00000000 ; undefined
 198:	0000100c 	.inst	0x0000100c ; undefined
	...
 1b0:	0000002c 	.inst	0x0000002c ; undefined
 1b4:	14aa0002 	b	2a801bc <__stack_top+0x29e01bc>
 1b8:	00080000 	.inst	0x00080000 ; undefined
 1bc:	00000000 	.inst	0x00000000 ; undefined
 1c0:	0008300c 	.inst	0x0008300c ; undefined
 1c4:	00000000 	.inst	0x00000000 ; undefined
 1c8:	000009e4 	.inst	0x000009e4 ; undefined
	...
 1e0:	0000002c 	.inst	0x0000002c ; undefined
 1e4:	18cd0002 	ldr	w2, fffffffffff9a1e4 <__stack_top+0xffffffffffefa1e4>
 1e8:	00080000 	.inst	0x00080000 ; undefined
 1ec:	00000000 	.inst	0x00000000 ; undefined
 1f0:	000839f0 	.inst	0x000839f0 ; undefined
 1f4:	00000000 	.inst	0x00000000 ; undefined
 1f8:	00000288 	.inst	0x00000288 ; undefined
	...
 210:	0000002c 	.inst	0x0000002c ; undefined
 214:	1a020002 	adc	w2, w0, w2
 218:	00080000 	.inst	0x00080000 ; undefined
 21c:	00000000 	.inst	0x00000000 ; undefined
 220:	00083c78 	.inst	0x00083c78 ; undefined
 224:	00000000 	.inst	0x00000000 ; undefined
 228:	00000084 	.inst	0x00000084 ; undefined
	...
 240:	0000002c 	.inst	0x0000002c ; undefined
 244:	1a7e0002 	.inst	0x1a7e0002 ; undefined
 248:	00080000 	.inst	0x00080000 ; undefined
 24c:	00000000 	.inst	0x00000000 ; undefined
 250:	00083cfc 	.inst	0x00083cfc ; undefined
 254:	00000000 	.inst	0x00000000 ; undefined
 258:	000000e8 	.inst	0x000000e8 ; undefined
	...
 270:	0000002c 	.inst	0x0000002c ; undefined
 274:	1d850002 	.inst	0x1d850002 ; undefined
 278:	00080000 	.inst	0x00080000 ; undefined
 27c:	00000000 	.inst	0x00000000 ; undefined
 280:	00083de4 	.inst	0x00083de4 ; undefined
 284:	00000000 	.inst	0x00000000 ; undefined
 288:	0000000c 	.inst	0x0000000c ; undefined
	...
 2a0:	0000002c 	.inst	0x0000002c ; undefined
 2a4:	1de00002 	.inst	0x1de00002 ; undefined
 2a8:	00080000 	.inst	0x00080000 ; undefined
 2ac:	00000000 	.inst	0x00000000 ; undefined
 2b0:	00083df0 	.inst	0x00083df0 ; undefined
 2b4:	00000000 	.inst	0x00000000 ; undefined
 2b8:	00000354 	.inst	0x00000354 ; undefined
	...
 2d0:	0000002c 	.inst	0x0000002c ; undefined
 2d4:	20000002 	.inst	0x20000002 ; undefined
 2d8:	00080000 	.inst	0x00080000 ; undefined
 2dc:	00000000 	.inst	0x00000000 ; undefined
 2e0:	00084148 	.inst	0x00084148 ; undefined
 2e4:	00000000 	.inst	0x00000000 ; undefined
 2e8:	00000088 	.inst	0x00000088 ; undefined
	...

Disassembly of section .debug_str:

0000000000000000 <.debug_str>:
   0:	75706e69 	.inst	0x75706e69 ; undefined
   4:	61750074 	.inst	0x61750074 ; undefined
   8:	705f7472 	adr	x18, bee97 <__stack_top+0x1ee97>
   c:	5f737475 	sqshl	d21, d3, #51
  10:	00746e69 	.inst	0x00746e69 ; undefined
  14:	6e72656b 	umax	v11.8h, v11.8h, v18.8h
  18:	752f6c65 	.inst	0x752f6c65 ; undefined
  1c:	2e747261 	uabdl	v1.4s, v19.4h, v20.4h
  20:	61750063 	.inst	0x61750063 ; undefined
  24:	725f7472 	.inst	0x725f7472 ; undefined
  28:	5f646165 	.inst	0x5f646165 ; undefined
  2c:	656e696c 	.inst	0x656e696c ; undefined
  30:	6f682f00 	.inst	0x6f682f00 ; undefined
  34:	732f656d 	.inst	0x732f656d ; undefined
  38:	63617261 	.inst	0x63617261 ; undefined
  3c:	2f756968 	umlsl	v8.4s, v11.4h, v5.h[7]
  40:	7574636e 	.inst	0x7574636e ; undefined
  44:	63736f2f 	.inst	0x63736f2f ; undefined
  48:	31323032 	adds	w18, w1, #0xc8c
  4c:	6e6f6c00 	umin	v0.8h, v0.8h, v15.8h
  50:	6e752067 	usubl2	v7.4s, v3.8h, v21.8h
  54:	6e676973 	.inst	0x6e676973 ; undefined
  58:	69206465 	.inst	0x69206465 ; undefined
  5c:	7500746e 	.inst	0x7500746e ; undefined
  60:	5f747261 	sqdmlsl	s1, h19, v4.h[3]
  64:	73747570 	.inst	0x73747570 ; undefined
  68:	7865685f 	ldrh	wzr, [x2,x5]
  6c:	72617500 	.inst	0x72617500 ; undefined
  70:	65725f74 	.inst	0x65725f74 ; undefined
  74:	625f6461 	.inst	0x625f6461 ; undefined
  78:	00666675 	.inst	0x00666675 ; undefined
  7c:	70736964 	adr	x4, e6dab <__stack_top+0x46dab>
  80:	0079616c 	.inst	0x0079616c ; undefined
  84:	74726175 	.inst	0x74726175 ; undefined
  88:	7475705f 	.inst	0x7475705f ; undefined
  8c:	61750073 	.inst	0x61750073 ; undefined
  90:	695f7472 	ldpsw	x18, x29, [x3,#248]
  94:	0074696e 	.inst	0x0074696e ; undefined
  98:	776f6873 	.inst	0x776f6873 ; undefined
  9c:	72617500 	.inst	0x72617500 ; undefined
  a0:	65675f74 	.inst	0x65675f74 ; undefined
  a4:	75005874 	.inst	0x75005874 ; undefined
  a8:	5f747261 	sqdmlsl	s1, h19, v4.h[3]
  ac:	646e6573 	.inst	0x646e6573 ; undefined
  b0:	554e4700 	.inst	0x554e4700 ; undefined
  b4:	31314320 	adds	w0, w25, #0xc50
  b8:	342e3520 	cbz	w0, 5c75c <_start-0x238a4>
  bc:	3220302e 	orr	w14, w1, #0x1fff
  c0:	30363130 	adr	x16, 6c6e5 <_start-0x1391b>
  c4:	20393036 	.inst	0x20393036 ; undefined
  c8:	696c6d2d 	ldpsw	x13, x27, [x9,#-160]
  cc:	656c7474 	.inst	0x656c7474 ; undefined
  d0:	646e652d 	.inst	0x646e652d ; undefined
  d4:	206e6169 	.inst	0x206e6169 ; undefined
  d8:	62616d2d 	.inst	0x62616d2d ; undefined
  dc:	706c3d69 	adr	x9, d888b <__stack_top+0x3888b>
  e0:	2d203436 	stp	s22, s13, [x1,#-256]
  e4:	662d2067 	.inst	0x662d2067 ; undefined
  e8:	65657266 	.inst	0x65657266 ; undefined
  ec:	6e617473 	uabd	v19.8h, v3.8h, v1.8h
  f0:	676e6964 	.inst	0x676e6964 ; undefined
  f4:	72617500 	.inst	0x72617500 ; undefined
  f8:	65675f74 	.inst	0x65675f74 ; undefined
  fc:	6e006374 	ext	v20.16b, v27.16b, v0.16b, #12
 100:	5f65646f 	.inst	0x5f65646f ; undefined
 104:	74696e69 	.inst	0x74696e69 ; undefined
 108:	64726f00 	.inst	0x64726f00 ; undefined
 10c:	4e007265 	tbx	v5.16b, {v19.16b-v22.16b}, v0.16b
 110:	0065646f 	.inst	0x0065646f ; undefined
 114:	6e72656b 	umax	v11.8h, v11.8h, v18.8h
 118:	612f6c65 	.inst	0x612f6c65 ; undefined
 11c:	636f6c6c 	.inst	0x636f6c6c ; undefined
 120:	726f7461 	.inst	0x726f7461 ; undefined
 124:	6c00632e 	stnp	d14, d24, [x25]
 128:	5f747369 	sqdmlsl	s9, h27, v4.h[3]
 12c:	6f6d6572 	sqshlu	v18.2d, v11.2d, #45
 130:	695f6576 	ldpsw	x22, x25, [x11,#248]
 134:	7865646e 	.inst	0x7865646e ; undefined
 138:	63756200 	.inst	0x63756200 ; undefined
 13c:	5f74656b 	.inst	0x5f74656b ; undefined
 140:	65676170 	.inst	0x65676170 ; undefined
 144:	6f67006e 	mla	v14.8h, v3.8h, v7.h[2]
 148:	5f6f745f 	sqshl	d31, d2, #47
 14c:	7478656e 	.inst	0x7478656e ; undefined
 150:	6375625f 	.inst	0x6375625f ; undefined
 154:	0074656b 	.inst	0x0074656b ; undefined
 158:	72727563 	.inst	0x72727563 ; undefined
 15c:	6375625f 	.inst	0x6375625f ; undefined
 160:	0074656b 	.inst	0x0074656b ; undefined
 164:	706d6574 	adr	x20, dae13 <__stack_top+0x3ae13>
 168:	6f6c6200 	umlsl2	v0.4s, v16.8h, v12.h[2]
 16c:	735f6b63 	.inst	0x735f6b63 ; undefined
 170:	00657a69 	.inst	0x00657a69 ; undefined
 174:	72617473 	.inst	0x72617473 ; undefined
 178:	75625f74 	.inst	0x75625f74 ; undefined
 17c:	74656b63 	.inst	0x74656b63 ; undefined
 180:	616d6b00 	.inst	0x616d6b00 ; undefined
 184:	636f6c6c 	.inst	0x636f6c6c ; undefined
 188:	74656700 	.inst	0x74656700 ; undefined
 18c:	6761705f 	.inst	0x6761705f ; undefined
 190:	72665f65 	.inst	0x72665f65 ; undefined
 194:	625f6d6f 	.inst	0x625f6d6f ; undefined
 198:	656b6375 	.inst	0x656b6375 ; undefined
 19c:	6c007374 	stnp	d20, d28, [x27]
 1a0:	5f747369 	sqdmlsl	s9, h27, v4.h[3]
 1a4:	68737570 	.inst	0x68737570 ; undefined
 1a8:	72656d00 	.inst	0x72656d00 ; undefined
 1ac:	74006567 	.inst	0x74006567 ; undefined
 1b0:	65677261 	.inst	0x65677261 ; undefined
 1b4:	6c620074 	ldnp	d20, d0, [x3,#-480]
 1b8:	5f6b636f 	.inst	0x5f6b636f ; undefined
 1bc:	65646e69 	.inst	0x65646e69 ; undefined
 1c0:	656d0078 	.inst	0x656d0078 ; undefined
 1c4:	5f656772 	.inst	0x5f656772 ; undefined
 1c8:	636f6c62 	.inst	0x636f6c62 ; undefined
 1cc:	656e006b 	.inst	0x656e006b ; undefined
 1d0:	625f7478 	.inst	0x625f7478 ; undefined
 1d4:	656b6375 	.inst	0x656b6375 ; undefined
 1d8:	6c007374 	stnp	d20, d28, [x27]
 1dc:	5f747369 	sqdmlsl	s9, h27, v4.h[3]
 1e0:	64616568 	.inst	0x64616568 ; undefined
 1e4:	7a697300 	.inst	0x7a697300 ; undefined
 1e8:	70797465 	adr	x5, f3077 <__stack_top+0x53077>
 1ec:	65720065 	.inst	0x65720065 ; undefined
 1f0:	72697571 	.inst	0x72697571 ; undefined
 1f4:	705f6465 	adr	x5, bee83 <__stack_top+0x1ee83>
 1f8:	6e656761 	umax	v1.8h, v27.8h, v5.8h
 1fc:	73696c00 	.inst	0x73696c00 ; undefined
 200:	65725f74 	.inst	0x65725f74 ; undefined
 204:	65766f6d 	.inst	0x65766f6d ; undefined
 208:	696e6900 	ldpsw	x0, x26, [x8,#-144]
 20c:	75625f74 	.inst	0x75625f74 ; undefined
 210:	74656b63 	.inst	0x74656b63 ; undefined
 214:	656e0073 	.inst	0x656e0073 ; undefined
 218:	6f6e5f77 	.inst	0x6f6e5f77 ; undefined
 21c:	73006564 	.inst	0x73006564 ; undefined
 220:	74696c70 	.inst	0x74696c70 ; undefined
 224:	6f6c625f 	umlsl2	v31.4s, v18.8h, v12.h[2]
 228:	66006b63 	.inst	0x66006b63 ; undefined
 22c:	5f656572 	.inst	0x5f656572 ; undefined
 230:	65676170 	.inst	0x65676170 ; undefined
 234:	78656e00 	.inst	0x78656e00 ; undefined
 238:	626b0074 	.inst	0x626b0074 ; undefined
 23c:	65676170 	.inst	0x65676170 ; undefined
 240:	62006e5f 	.inst	0x62006e5f ; undefined
 244:	656b6375 	.inst	0x656b6375 ; undefined
 248:	6e695f74 	uqrshl	v20.8h, v27.8h, v9.8h
 24c:	00786564 	.inst	0x00786564 ; undefined
 250:	6e697270 	uabdl2	v16.4s, v19.8h, v9.8h
 254:	72665f74 	.inst	0x72665f74 ; undefined
 258:	6c5f6565 	ldnp	d5, d25, [x11,#496]
 25c:	00747369 	.inst	0x00747369 ; undefined
 260:	6e72656b 	umax	v11.8h, v11.8h, v18.8h
 264:	652f6c65 	.inst	0x652f6c65 ; undefined
 268:	70656378 	adr	x24, caed7 <__stack_top+0x2aed7>
 26c:	6e6f6974 	.inst	0x6e6f6974 ; undefined
 270:	6500632e 	.inst	0x6500632e ; undefined
 274:	655f7273 	.inst	0x655f7273 ; undefined
 278:	6400316c 	.inst	0x6400316c ; undefined
 27c:	53706d75 	.inst	0x53706d75 ; undefined
 280:	65746174 	.inst	0x65746174 ; undefined
 284:	6d756400 	ldp	d0, d25, [x0,#-176]
 288:	6d695470 	ldp	d16, d21, [x3,#-368]
 28c:	63007265 	.inst	0x63007265 ; undefined
 290:	7266746e 	.inst	0x7266746e ; undefined
 294:	6c650071 	ldnp	d17, d0, [x3,#-432]
 298:	6c655f72 	ldnp	d18, d23, [x27,#-432]
 29c:	69740031 	ldpsw	x17, x0, [x1,#-96]
 2a0:	5f72656d 	.inst	0x5f72656d ; undefined
 2a4:	6b636974 	.inst	0x6b636974 ; undefined
 2a8:	73707300 	.inst	0x73707300 ; undefined
 2ac:	6c655f72 	ldnp	d18, d23, [x27,#-432]
 2b0:	6e630031 	uaddl2	v17.4s, v1.8h, v3.8h
 2b4:	74637074 	.inst	0x74637074 ; undefined
 2b8:	65727000 	.inst	0x65727000 ; undefined
 2bc:	74706d65 	.inst	0x74706d65 ; undefined
 2c0:	616c665f 	.inst	0x616c665f ; undefined
 2c4:	69660067 	ldpsw	x7, x0, [x3,#-208]
 2c8:	6e5f646e 	.inst	0x6e5f646e ; undefined
 2cc:	5f747865 	sqdmlsl	s5, h3, v4.h[7]
 2d0:	65726874 	.inst	0x65726874 ; undefined
 2d4:	63006461 	.inst	0x63006461 ; undefined
 2d8:	74616572 	.inst	0x74616572 ; undefined
 2dc:	68745f65 	.inst	0x68745f65 ; undefined
 2e0:	64616572 	.inst	0x64616572 ; undefined
 2e4:	70635f00 	adr	x0, c6ec7 <__stack_top+0x26ec7>
 2e8:	6f635f75 	.inst	0x6f635f75 ; undefined
 2ec:	7865746e 	.inst	0x7865746e ; undefined
 2f0:	656d0074 	.inst	0x656d0074 ; undefined
 2f4:	72657a6d 	.inst	0x72657a6d ; undefined
 2f8:	7261006f 	.inst	0x7261006f ; undefined
 2fc:	73007667 	.inst	0x73007667 ; undefined
 300:	6b636174 	.inst	0x6b636174 ; undefined
 304:	78656e00 	.inst	0x78656e00 ; undefined
 308:	6e695f74 	uqrshl	v20.8h, v27.8h, v9.8h
 30c:	00786564 	.inst	0x00786564 ; undefined
 310:	656c6469 	.inst	0x656c6469 ; undefined
 314:	69686300 	ldpsw	x0, x24, [x24,#-192]
 318:	6572646c 	.inst	0x6572646c ; undefined
 31c:	72007367 	ands	w7, w27, #0x1fffffff
 320:	636f6c65 	.inst	0x636f6c65 ; undefined
 324:	5f657461 	sqshl	d1, d3, #37
 328:	75657571 	.inst	0x75657571 ; undefined
 32c:	6f630065 	mla	v5.8h, v3.8h, v3.h[2]
 330:	65746e75 	.inst	0x65746e75 ; undefined
 334:	65640072 	.inst	0x65640072 ; undefined
 338:	0079616c 	.inst	0x0079616c ; undefined
 33c:	72727563 	.inst	0x72727563 ; undefined
 340:	00746e65 	.inst	0x00746e65 ; undefined
 344:	6f697270 	.inst	0x6f697270 ; undefined
 348:	79746972 	ldrh	w18, [x11,#6708]
 34c:	73617400 	.inst	0x73617400 ; undefined
 350:	74705f6b 	.inst	0x74705f6b ; undefined
 354:	6765725f 	.inst	0x6765725f ; undefined
 358:	75630073 	.inst	0x75630073 ; undefined
 35c:	695f7272 	ldpsw	x18, x28, [x19,#248]
 360:	7865646e 	.inst	0x7865646e ; undefined
 364:	73656400 	.inst	0x73656400 ; undefined
 368:	656b0074 	.inst	0x656b0074 ; undefined
 36c:	6c656e72 	ldnp	d18, d27, [x19,#-432]
 370:	6863732f 	.inst	0x6863732f ; undefined
 374:	6c756465 	ldnp	d5, d25, [x3,#-176]
 378:	632e7265 	.inst	0x632e7265 ; undefined
 37c:	6e757200 	uabdl2	v0.4s, v16.8h, v21.8h
 380:	6575715f 	.inst	0x6575715f ; undefined
 384:	73006575 	.inst	0x73006575 ; undefined
 388:	64656863 	.inst	0x64656863 ; undefined
 38c:	72656c75 	.inst	0x72656c75 ; undefined
 390:	65727000 	.inst	0x65727000 ; undefined
 394:	74706d65 	.inst	0x74706d65 ; undefined
 398:	616e655f 	.inst	0x616e655f ; undefined
 39c:	00656c62 	.inst	0x00656c62 ; undefined
 3a0:	65657270 	.inst	0x65657270 ; undefined
 3a4:	5f74706d 	sqdmlsl	s13, h3, v4.h[3]
 3a8:	61736964 	.inst	0x61736964 ; undefined
 3ac:	00656c62 	.inst	0x00656c62 ; undefined
 3b0:	636e7566 	.inst	0x636e7566 ; undefined
 3b4:	72756300 	.inst	0x72756300 ; undefined
 3b8:	6765725f 	.inst	0x6765725f ; undefined
 3bc:	73700073 	.inst	0x73700073 ; undefined
 3c0:	65746174 	.inst	0x65746174 ; undefined
 3c4:	616f6c00 	.inst	0x616f6c00 ; undefined
 3c8:	73755f64 	.inst	0x73755f64 ; undefined
 3cc:	705f7265 	adr	x5, bf21b <__stack_top+0x1f21b>
 3d0:	72676f72 	.inst	0x72676f72 ; undefined
 3d4:	775f6d61 	.inst	0x775f6d61 ; undefined
 3d8:	41687469 	.inst	0x41687469 ; undefined
 3dc:	00766772 	.inst	0x00766772 ; undefined
 3e0:	74697773 	.inst	0x74697773 ; undefined
 3e4:	745f6863 	.inst	0x745f6863 ; undefined
 3e8:	6c63006f 	ldnp	d15, d0, [x3,#-464]
 3ec:	5f656e6f 	.inst	0x5f656e6f ; undefined
 3f0:	67616c66 	.inst	0x67616c66 ; undefined
 3f4:	68740073 	.inst	0x68740073 ; undefined
 3f8:	64616572 	.inst	0x64616572 ; undefined
 3fc:	756f635f 	.inst	0x756f635f ; undefined
 400:	7000746e 	adr	x14, 128f <_start-0x7ed71>
 404:	00766572 	.inst	0x00766572 ; undefined
 408:	65686373 	.inst	0x65686373 ; undefined
 40c:	656c7564 	.inst	0x656c7564 ; undefined
 410:	6961745f 	ldpsw	xzr, x29, [x2,#-248]
 414:	616c006c 	.inst	0x616c006c ; undefined
 418:	6c003362 	stnp	d2, d12, [x27]
 41c:	5f356261 	.inst	0x5f356261 ; undefined
 420:	75716572 	.inst	0x75716572 ; undefined
 424:	64657269 	.inst	0x64657269 ; undefined
 428:	6c00325f 	stnp	d31, d12, [x18]
 42c:	5f356261 	.inst	0x5f356261 ; undefined
 430:	75716572 	.inst	0x75716572 ; undefined
 434:	64657269 	.inst	0x64657269 ; undefined
 438:	6600315f 	.inst	0x6600315f ; undefined
 43c:	00326f6f 	.inst	0x00326f6f ; NYI
 440:	6e72656b 	umax	v11.8h, v11.8h, v18.8h
 444:	642f6c65 	.inst	0x642f6c65 ; undefined
 448:	5f6f6d65 	.inst	0x5f6f6d65 ; undefined
 44c:	636e7566 	.inst	0x636e7566 ; undefined
 450:	7400632e 	.inst	0x7400632e ; undefined
 454:	31747365 	adds	w5, w27, #0xd1c, lsl #12
 458:	73657400 	.inst	0x73657400 ; undefined
 45c:	74003274 	.inst	0x74003274 ; undefined
 460:	33747365 	.inst	0x33747365 ; undefined
 464:	73657400 	.inst	0x73657400 ; undefined
 468:	6b003474 	subs	w20, w3, w0, lsl #13
 46c:	656e7265 	.inst	0x656e7265 ; undefined
 470:	70632f6c 	adr	x12, c6a5f <__stack_top+0x26a5f>
 474:	632e6f69 	.inst	0x632e6f69 ; undefined
 478:	616f6c00 	.inst	0x616f6c00 ; undefined
 47c:	73755f64 	.inst	0x73755f64 ; undefined
 480:	705f7265 	adr	x5, bf2cf <__stack_top+0x1f2cf>
 484:	72676f72 	.inst	0x72676f72 ; undefined
 488:	67006d61 	.inst	0x67006d61 ; undefined
 48c:	69467465 	ldpsw	x5, x29, [x3,#48]
 490:	6144656c 	.inst	0x6144656c ; undefined
 494:	6c006174 	stnp	d20, d24, [x11]
 498:	5f747369 	sqdmlsl	s9, h27, v4.h[3]
 49c:	656c6966 	.inst	0x656c6966 ; undefined
 4a0:	6d616e00 	ldp	d0, d27, [x16,#-496]
 4a4:	69735f65 	ldpsw	x5, x23, [x27,#-104]
 4a8:	7300657a 	.inst	0x7300657a ; undefined
 4ac:	6b636174 	.inst	0x6b636174 ; undefined
 4b0:	706f745f 	adr	xzr, df33b <__stack_top+0x3f33b>
 4b4:	6c696600 	ldnp	d0, d25, [x16,#-368]
 4b8:	69735f65 	ldpsw	x5, x23, [x27,#-104]
 4bc:	6300657a 	.inst	0x6300657a ; undefined
 4c0:	5f6f6970 	.inst	0x5f6f6970 ; undefined
 4c4:	72646461 	.inst	0x72646461 ; undefined
 4c8:	00737365 	.inst	0x00737365 ; undefined
 4cc:	6f697063 	.inst	0x6f697063 ; undefined
 4d0:	6464615f 	.inst	0x6464615f ; undefined
 4d4:	73736572 	.inst	0x73736572 ; undefined
 4d8:	7361625f 	.inst	0x7361625f ; undefined
 4dc:	61700065 	.inst	0x61700065 ; undefined
 4e0:	6e5f6874 	.inst	0x6e5f6874 ; undefined
 4e4:	00656d61 	.inst	0x00656d61 ; undefined
 4e8:	69736e75 	ldpsw	x21, x27, [x19,#-104]
 4ec:	64656e67 	.inst	0x64656e67 ; undefined
 4f0:	61686320 	.inst	0x61686320 ; undefined
 4f4:	72610072 	.inst	0x72610072 ; undefined
 4f8:	705f7667 	adr	x7, bf3c7 <__stack_top+0x1f3c7>
 4fc:	00737475 	.inst	0x00737475 ; undefined
 500:	676f7270 	.inst	0x676f7270 ; undefined
 504:	6464615f 	.inst	0x6464615f ; undefined
 508:	69660072 	ldpsw	x18, x0, [x3,#-208]
 50c:	645f656c 	.inst	0x645f656c ; undefined
 510:	00617461 	.inst	0x00617461 ; undefined
 514:	31746e63 	adds	w3, w19, #0xd1b, lsl #12
 518:	746e6300 	.inst	0x746e6300 ; undefined
 51c:	75620032 	.inst	0x75620032 ; undefined
 520:	72656666 	.inst	0x72656666 ; undefined
 524:	6c656800 	ldnp	d0, d26, [x0,#-432]
 528:	65680070 	.inst	0x65680070 ; undefined
 52c:	006f6c6c 	.inst	0x006f6c6c ; undefined
 530:	6e69616d 	rsubhn2	v13.8h, v11.4s, v9.4s
 534:	72656b00 	.inst	0x72656b00 ; undefined
 538:	2f6c656e 	.inst	0x2f6c656e ; undefined
 53c:	6e69616d 	rsubhn2	v13.8h, v11.4s, v9.4s
 540:	7200632e 	ands	w14, w25, #0x1ffffff
 544:	6f6f6265 	umlsl2	v5.4s, v19.8h, v15.h[2]
 548:	61630074 	.inst	0x61630074 ; undefined
 54c:	6c65636e 	ldnp	d14, d24, [x27,#-432]
 550:	7365725f 	.inst	0x7365725f ; undefined
 554:	77007465 	.inst	0x77007465 ; undefined
 558:	6f636c65 	.inst	0x6f636c65 ; undefined
 55c:	6b00656d 	subs	w13, w11, w0, lsl #25
 560:	656e7265 	.inst	0x656e7265 ; undefined
 564:	74732f6c 	.inst	0x74732f6c ; undefined
 568:	676e6972 	.inst	0x676e6972 ; undefined
 56c:	7300632e 	.inst	0x7300632e ; undefined
 570:	6d637274 	ldp	d20, d28, [x19,#-464]
 574:	79730070 	ldrh	w16, [x3,#6528]
 578:	61755f73 	.inst	0x61755f73 ; undefined
 57c:	775f7472 	.inst	0x775f7472 ; undefined
 580:	65746972 	.inst	0x65746972 ; undefined
 584:	73797300 	.inst	0x73797300 ; undefined
 588:	726f665f 	.inst	0x726f665f ; undefined
 58c:	7973006b 	ldrh	w11, [x3,#6528]
 590:	78655f73 	.inst	0x78655f73 ; undefined
 594:	73007469 	.inst	0x73007469 ; undefined
 598:	655f7379 	.inst	0x655f7379 ; undefined
 59c:	00636578 	.inst	0x00636578 ; undefined
 5a0:	6e72656b 	umax	v11.8h, v11.8h, v18.8h
 5a4:	732f6c65 	.inst	0x732f6c65 ; undefined
 5a8:	632e7379 	.inst	0x632e7379 ; undefined
 5ac:	73797300 	.inst	0x73797300 ; undefined
 5b0:	7261755f 	.inst	0x7261755f ; undefined
 5b4:	65725f74 	.inst	0x65725f74 ; undefined
 5b8:	73006461 	.inst	0x73006461 ; undefined
 5bc:	675f7379 	.inst	0x675f7379 ; undefined
 5c0:	69707465 	ldpsw	x5, x29, [x3,#-128]
 5c4:	79730064 	ldrh	w4, [x3,#6528]
 5c8:	61635f73 	.inst	0x61635f73 ; undefined
 5cc:	745f6c6c 	.inst	0x745f6c6c ; undefined
 5d0:	656c6261 	.inst	0x656c6261 ; undefined
 5d4:	65527000 	.inst	0x65527000 ; undefined
 5d8:	74690073 	.inst	0x74690073 ; undefined
 5dc:	6c00616f 	stnp	d15, d24, [x11]
 5e0:	74676e65 	.inst	0x74676e65 ; undefined
 5e4:	74610068 	.inst	0x74610068 ; undefined
 5e8:	6400696f 	.inst	0x6400696f ; undefined
 5ec:	74696769 	.inst	0x74696769 ; undefined
 5f0:	72656b00 	.inst	0x72656b00 ; undefined
 5f4:	2f6c656e 	.inst	0x2f6c656e ; undefined
 5f8:	6c697475 	ldnp	d21, d29, [x3,#-368]
 5fc:	00632e73 	.inst	0x00632e73 ; undefined
 600:	73655263 	.inst	0x73655263 ; undefined
 604:	67656e00 	.inst	0x67656e00 ; undefined
 608:	76697461 	.inst	0x76697461 ; undefined
 60c:	75730065 	.inst	0x75730065 ; undefined
 610:	72745362 	.inst	0x72745362 ; undefined
	...

Disassembly of section .comment:

0000000000000000 <.comment>:
   0:	3a434347 	ccmn	w26, w3, #0x7, mi
   4:	62552820 	.inst	0x62552820 ; undefined
   8:	75746e75 	.inst	0x75746e75 ; undefined
   c:	6e694c2f 	uqshl	v15.8h, v1.8h, v9.8h
  10:	206f7261 	.inst	0x206f7261 ; undefined
  14:	2e342e35 	uqsub	v21.8b, v17.8b, v20.8b
  18:	75362d30 	.inst	0x75362d30 ; undefined
  1c:	746e7562 	.inst	0x746e7562 ; undefined
  20:	317e3175 	adds	w21, w11, #0xf8c, lsl #12
  24:	34302e36 	cbz	w22, 605e8 <_start-0x1fa18>
  28:	2029392e 	.inst	0x2029392e ; undefined
  2c:	2e342e35 	uqsub	v21.8b, v17.8b, v20.8b
  30:	30322030 	adr	x16, 64435 <_start-0x1bbcb>
  34:	36303631 	tbz	w17, #6, 6f8 <_start-0x7f908>
  38:	Address 0x0000000000000038 is out of bounds.


Disassembly of section .debug_frame:

0000000000000000 <.debug_frame>:
   0:	0000000c 	.inst	0x0000000c ; undefined
   4:	ffffffff 	.inst	0xffffffff ; undefined
   8:	78040001 	sturh	w1, [x0,#64]
   c:	001f0c1e 	.inst	0x001f0c1e ; undefined
  10:	00000024 	.word	0x00000024
  14:	00000000 	.word	0x00000000
  18:	00080060 	.word	0x00080060
  1c:	00000000 	.word	0x00000000
  20:	00000144 	.word	0x00000144
  24:	00000000 	.word	0x00000000
  28:	93200e41 	.word	0x93200e41
  2c:	d34f0204 	.word	0xd34f0204
  30:	0000000e 	.word	0x0000000e
  34:	00000000 	.word	0x00000000
  38:	0000001c 	.word	0x0000001c
  3c:	00000000 	.word	0x00000000
  40:	000801a4 	.word	0x000801a4
  44:	00000000 	.word	0x00000000
  48:	00000040 	.word	0x00000040
  4c:	00000000 	.word	0x00000000
  50:	4e100e41 	.word	0x4e100e41
  54:	0000000e 	.word	0x0000000e
  58:	0000001c 	.word	0x0000001c
  5c:	00000000 	.word	0x00000000
  60:	000801e4 	.word	0x000801e4
  64:	00000000 	.word	0x00000000
  68:	00000050 	.word	0x00000050
  6c:	00000000 	.word	0x00000000
  70:	52100e41 	.word	0x52100e41
  74:	0000000e 	.word	0x0000000e
  78:	00000024 	.word	0x00000024
  7c:	00000000 	.word	0x00000000
  80:	00080234 	.word	0x00080234
  84:	00000000 	.word	0x00000000
  88:	00000058 	.word	0x00000058
  8c:	00000000 	.word	0x00000000
  90:	9d200e41 	.word	0x9d200e41
  94:	41039e04 	.word	0x41039e04
  98:	de531d0d 	.word	0xde531d0d
  9c:	001f0cdd 	.word	0x001f0cdd
  a0:	00000024 	.word	0x00000024
  a4:	00000000 	.word	0x00000000
  a8:	0008028c 	.word	0x0008028c
  ac:	00000000 	.word	0x00000000
  b0:	0000008c 	.word	0x0000008c
  b4:	00000000 	.word	0x00000000
  b8:	9d300e41 	.word	0x9d300e41
  bc:	41059e06 	.word	0x41059e06
  c0:	de601d0d 	.word	0xde601d0d
  c4:	001f0cdd 	.word	0x001f0cdd
  c8:	00000024 	.word	0x00000024
  cc:	00000000 	.word	0x00000000
  d0:	00080318 	.word	0x00080318
  d4:	00000000 	.word	0x00000000
  d8:	00000030 	.word	0x00000030
  dc:	00000000 	.word	0x00000000
  e0:	9d300e41 	.word	0x9d300e41
  e4:	41059e06 	.word	0x41059e06
  e8:	de491d0d 	.word	0xde491d0d
  ec:	001f0cdd 	.word	0x001f0cdd
  f0:	00000024 	.word	0x00000024
  f4:	00000000 	.word	0x00000000
  f8:	00080348 	.word	0x00080348
  fc:	00000000 	.word	0x00000000
 100:	000000a0 	.word	0x000000a0
 104:	00000000 	.word	0x00000000
 108:	9d300e41 	.word	0x9d300e41
 10c:	41059e06 	.word	0x41059e06
 110:	de651d0d 	.word	0xde651d0d
 114:	001f0cdd 	.word	0x001f0cdd
 118:	0000002c 	.word	0x0000002c
 11c:	00000000 	.word	0x00000000
 120:	000803e8 	.word	0x000803e8
 124:	00000000 	.word	0x00000000
 128:	000000c4 	.word	0x000000c4
 12c:	00000000 	.word	0x00000000
 130:	9d400e41 	.word	0x9d400e41
 134:	41079e08 	.word	0x41079e08
 138:	93411d0d 	.word	0x93411d0d
 13c:	ddde6d06 	.word	0xddde6d06
 140:	001f0cd3 	.word	0x001f0cd3
 144:	00000000 	.word	0x00000000
 148:	00000024 	.word	0x00000024
 14c:	00000000 	.word	0x00000000
 150:	000804ac 	.word	0x000804ac
 154:	00000000 	.word	0x00000000
 158:	000000e4 	.word	0x000000e4
 15c:	00000000 	.word	0x00000000
 160:	9d300e41 	.word	0x9d300e41
 164:	41059e06 	.word	0x41059e06
 168:	de761d0d 	.word	0xde761d0d
 16c:	001f0cdd 	.word	0x001f0cdd
 170:	0000000c 	.word	0x0000000c
 174:	ffffffff 	.word	0xffffffff
 178:	78040001 	.word	0x78040001
 17c:	001f0c1e 	.word	0x001f0c1e
 180:	0000001c 	.word	0x0000001c
 184:	00000170 	.word	0x00000170
 188:	00080590 	.word	0x00080590
 18c:	00000000 	.word	0x00000000
 190:	0000002c 	.word	0x0000002c
 194:	00000000 	.word	0x00000000
 198:	49100e41 	.word	0x49100e41
 19c:	0000000e 	.word	0x0000000e
 1a0:	0000001c 	.word	0x0000001c
 1a4:	00000170 	.word	0x00000170
 1a8:	000805bc 	.word	0x000805bc
 1ac:	00000000 	.word	0x00000000
 1b0:	0000004c 	.word	0x0000004c
 1b4:	00000000 	.word	0x00000000
 1b8:	51200e41 	.word	0x51200e41
 1bc:	0000000e 	.word	0x0000000e
 1c0:	0000001c 	.word	0x0000001c
 1c4:	00000170 	.word	0x00000170
 1c8:	00080608 	.word	0x00080608
 1cc:	00000000 	.word	0x00000000
 1d0:	0000005c 	.word	0x0000005c
 1d4:	00000000 	.word	0x00000000
 1d8:	55200e41 	.word	0x55200e41
 1dc:	0000000e 	.word	0x0000000e
 1e0:	0000001c 	.word	0x0000001c
 1e4:	00000170 	.word	0x00000170
 1e8:	00080664 	.word	0x00080664
 1ec:	00000000 	.word	0x00000000
 1f0:	00000074 	.word	0x00000074
 1f4:	00000000 	.word	0x00000000
 1f8:	5b200e41 	.word	0x5b200e41
 1fc:	0000000e 	.word	0x0000000e
 200:	0000002c 	.word	0x0000002c
 204:	00000170 	.word	0x00000170
 208:	000806d8 	.word	0x000806d8
 20c:	00000000 	.word	0x00000000
 210:	000001a4 	.word	0x000001a4
 214:	00000000 	.word	0x00000000
 218:	9d400e41 	.word	0x9d400e41
 21c:	41079e08 	.word	0x41079e08
 220:	66021d0d 	.word	0x66021d0d
 224:	1f0cddde 	.word	0x1f0cddde
	...
 230:	00000024 	.word	0x00000024
 234:	00000170 	.word	0x00000170
 238:	0008087c 	.word	0x0008087c
 23c:	00000000 	.word	0x00000000
 240:	00000090 	.word	0x00000090
 244:	00000000 	.word	0x00000000
 248:	9d300e41 	.word	0x9d300e41
 24c:	41059e06 	.word	0x41059e06
 250:	de611d0d 	.word	0xde611d0d
 254:	001f0cdd 	.word	0x001f0cdd
 258:	00000024 	.word	0x00000024
 25c:	00000170 	.word	0x00000170
 260:	0008090c 	.word	0x0008090c
 264:	00000000 	.word	0x00000000
 268:	000000f0 	.word	0x000000f0
 26c:	00000000 	.word	0x00000000
 270:	9d400e41 	.word	0x9d400e41
 274:	41079e08 	.word	0x41079e08
 278:	de791d0d 	.word	0xde791d0d
 27c:	001f0cdd 	.word	0x001f0cdd
 280:	00000024 	.word	0x00000024
 284:	00000170 	.word	0x00000170
 288:	000809fc 	.word	0x000809fc
 28c:	00000000 	.word	0x00000000
 290:	000000b4 	.word	0x000000b4
 294:	00000000 	.word	0x00000000
 298:	9d400e41 	.word	0x9d400e41
 29c:	41079e08 	.word	0x41079e08
 2a0:	de6a1d0d 	.word	0xde6a1d0d
 2a4:	001f0cdd 	.word	0x001f0cdd
 2a8:	0000002c 	.word	0x0000002c
 2ac:	00000170 	.word	0x00000170
 2b0:	00080ab0 	.word	0x00080ab0
 2b4:	00000000 	.word	0x00000000
 2b8:	00000158 	.word	0x00000158
 2bc:	00000000 	.word	0x00000000
 2c0:	9d500e41 	.word	0x9d500e41
 2c4:	41099e0a 	.word	0x41099e0a
 2c8:	53021d0d 	.word	0x53021d0d
 2cc:	1f0cddde 	.word	0x1f0cddde
	...
 2d8:	0000002c 	.word	0x0000002c
 2dc:	00000170 	.word	0x00000170
 2e0:	00080c08 	.word	0x00080c08
 2e4:	00000000 	.word	0x00000000
 2e8:	0000017c 	.word	0x0000017c
 2ec:	00000000 	.word	0x00000000
 2f0:	9d600e41 	.word	0x9d600e41
 2f4:	410b9e0c 	.word	0x410b9e0c
 2f8:	5c021d0d 	.word	0x5c021d0d
 2fc:	1f0cddde 	.word	0x1f0cddde
	...
 308:	0000002c 	.word	0x0000002c
 30c:	00000170 	.word	0x00000170
 310:	00080d84 	.word	0x00080d84
 314:	00000000 	.word	0x00000000
 318:	00000128 	.word	0x00000128
 31c:	00000000 	.word	0x00000000
 320:	9d500e41 	.word	0x9d500e41
 324:	41099e0a 	.word	0x41099e0a
 328:	47021d0d 	.word	0x47021d0d
 32c:	1f0cddde 	.word	0x1f0cddde
	...
 338:	0000000c 	.word	0x0000000c
 33c:	ffffffff 	.word	0xffffffff
 340:	78040001 	.word	0x78040001
 344:	001f0c1e 	.word	0x001f0c1e
 348:	00000024 	.word	0x00000024
 34c:	00000338 	.word	0x00000338
 350:	00080eac 	.word	0x00080eac
 354:	00000000 	.word	0x00000000
 358:	0000009c 	.word	0x0000009c
 35c:	00000000 	.word	0x00000000
 360:	9d300e41 	.word	0x9d300e41
 364:	41059e06 	.word	0x41059e06
 368:	00001d0d 	.word	0x00001d0d
 36c:	00000000 	.word	0x00000000
 370:	00000024 	.word	0x00000024
 374:	00000338 	.word	0x00000338
 378:	00080f48 	.word	0x00080f48
 37c:	00000000 	.word	0x00000000
 380:	0000007c 	.word	0x0000007c
 384:	00000000 	.word	0x00000000
 388:	9d300e41 	.word	0x9d300e41
 38c:	41059e06 	.word	0x41059e06
 390:	de5c1d0d 	.word	0xde5c1d0d
 394:	001f0cdd 	.word	0x001f0cdd
 398:	0000000c 	.word	0x0000000c
 39c:	ffffffff 	.word	0xffffffff
 3a0:	78040001 	.word	0x78040001
 3a4:	001f0c1e 	.word	0x001f0c1e
 3a8:	00000014 	.word	0x00000014
 3ac:	00000398 	.word	0x00000398
 3b0:	00080fe8 	.word	0x00080fe8
 3b4:	00000000 	.word	0x00000000
 3b8:	00000034 	.word	0x00000034
 3bc:	00000000 	.word	0x00000000
 3c0:	00000014 	.word	0x00000014
 3c4:	00000398 	.word	0x00000398
 3c8:	0008101c 	.word	0x0008101c
 3cc:	00000000 	.word	0x00000000
 3d0:	00000034 	.word	0x00000034
 3d4:	00000000 	.word	0x00000000
 3d8:	0000001c 	.word	0x0000001c
 3dc:	00000398 	.word	0x00000398
 3e0:	00081050 	.word	0x00081050
 3e4:	00000000 	.word	0x00000000
 3e8:	0000002c 	.word	0x0000002c
 3ec:	00000000 	.word	0x00000000
 3f0:	49100e41 	.word	0x49100e41
 3f4:	0000000e 	.word	0x0000000e
 3f8:	00000024 	.word	0x00000024
 3fc:	00000398 	.word	0x00000398
 400:	0008107c 	.word	0x0008107c
 404:	00000000 	.word	0x00000000
 408:	00000044 	.word	0x00000044
 40c:	00000000 	.word	0x00000000
 410:	9d300e41 	.word	0x9d300e41
 414:	41059e06 	.word	0x41059e06
 418:	de4e1d0d 	.word	0xde4e1d0d
 41c:	001f0cdd 	.word	0x001f0cdd
 420:	0000001c 	.word	0x0000001c
 424:	00000398 	.word	0x00000398
 428:	000810c0 	.word	0x000810c0
 42c:	00000000 	.word	0x00000000
 430:	00000020 	.word	0x00000020
 434:	00000000 	.word	0x00000000
 438:	46200e41 	.word	0x46200e41
 43c:	0000000e 	.word	0x0000000e
 440:	0000002c 	.word	0x0000002c
 444:	00000398 	.word	0x00000398
 448:	000810e0 	.word	0x000810e0
 44c:	00000000 	.word	0x00000000
 450:	00000188 	.word	0x00000188
 454:	00000000 	.word	0x00000000
 458:	9d500e41 	.word	0x9d500e41
 45c:	41099e0a 	.word	0x41099e0a
 460:	5f021d0d 	.word	0x5f021d0d
 464:	1f0cddde 	.word	0x1f0cddde
	...
 470:	0000002c 	.word	0x0000002c
 474:	00000398 	.word	0x00000398
 478:	00081268 	.word	0x00081268
 47c:	00000000 	.word	0x00000000
 480:	000001c0 	.word	0x000001c0
 484:	00000000 	.word	0x00000000
 488:	9d300e41 	.word	0x9d300e41
 48c:	41059e06 	.word	0x41059e06
 490:	6d021d0d 	.word	0x6d021d0d
 494:	1f0cddde 	.word	0x1f0cddde
	...
 4a0:	00000024 	.word	0x00000024
 4a4:	00000398 	.word	0x00000398
 4a8:	00081428 	.word	0x00081428
 4ac:	00000000 	.word	0x00000000
 4b0:	00000018 	.word	0x00000018
 4b4:	00000000 	.word	0x00000000
 4b8:	9d100e41 	.word	0x9d100e41
 4bc:	41019e02 	.word	0x41019e02
 4c0:	de431d0d 	.word	0xde431d0d
 4c4:	001f0cdd 	.word	0x001f0cdd
 4c8:	00000024 	.word	0x00000024
 4cc:	00000398 	.word	0x00000398
 4d0:	00081440 	.word	0x00081440
 4d4:	00000000 	.word	0x00000000
 4d8:	00000068 	.word	0x00000068
 4dc:	00000000 	.word	0x00000000
 4e0:	9d100e41 	.word	0x9d100e41
 4e4:	41019e02 	.word	0x41019e02
 4e8:	de571d0d 	.word	0xde571d0d
 4ec:	001f0cdd 	.word	0x001f0cdd
 4f0:	00000024 	.word	0x00000024
 4f4:	00000398 	.word	0x00000398
 4f8:	000814a8 	.word	0x000814a8
 4fc:	00000000 	.word	0x00000000
 500:	00000060 	.word	0x00000060
 504:	00000000 	.word	0x00000000
 508:	9d100e41 	.word	0x9d100e41
 50c:	41019e02 	.word	0x41019e02
 510:	de551d0d 	.word	0xde551d0d
 514:	001f0cdd 	.word	0x001f0cdd
 518:	0000002c 	.word	0x0000002c
 51c:	00000398 	.word	0x00000398
 520:	00081508 	.word	0x00081508
 524:	00000000 	.word	0x00000000
 528:	0000014c 	.word	0x0000014c
 52c:	00000000 	.word	0x00000000
 530:	9d400e41 	.word	0x9d400e41
 534:	41079e08 	.word	0x41079e08
 538:	50021d0d 	.word	0x50021d0d
 53c:	1f0cddde 	.word	0x1f0cddde
	...
 548:	00000024 	.word	0x00000024
 54c:	00000398 	.word	0x00000398
 550:	00081654 	.word	0x00081654
 554:	00000000 	.word	0x00000000
 558:	000000c8 	.word	0x000000c8
 55c:	00000000 	.word	0x00000000
 560:	9d200e41 	.word	0x9d200e41
 564:	41039e04 	.word	0x41039e04
 568:	00001d0d 	.word	0x00001d0d
 56c:	00000000 	.word	0x00000000
 570:	00000024 	.word	0x00000024
 574:	00000398 	.word	0x00000398
 578:	0008171c 	.word	0x0008171c
 57c:	00000000 	.word	0x00000000
 580:	00000058 	.word	0x00000058
 584:	00000000 	.word	0x00000000
 588:	9d300e41 	.word	0x9d300e41
 58c:	41059e06 	.word	0x41059e06
 590:	de531d0d 	.word	0xde531d0d
 594:	001f0cdd 	.word	0x001f0cdd
 598:	0000000c 	.word	0x0000000c
 59c:	ffffffff 	.word	0xffffffff
 5a0:	78040001 	.word	0x78040001
 5a4:	001f0c1e 	.word	0x001f0c1e
 5a8:	00000024 	.word	0x00000024
 5ac:	00000598 	.word	0x00000598
 5b0:	00081774 	.word	0x00081774
 5b4:	00000000 	.word	0x00000000
 5b8:	00000074 	.word	0x00000074
 5bc:	00000000 	.word	0x00000000
 5c0:	9d300e41 	.word	0x9d300e41
 5c4:	41059e06 	.word	0x41059e06
 5c8:	de5a1d0d 	.word	0xde5a1d0d
 5cc:	001f0cdd 	.word	0x001f0cdd
 5d0:	00000024 	.word	0x00000024
 5d4:	00000598 	.word	0x00000598
 5d8:	000817e8 	.word	0x000817e8
 5dc:	00000000 	.word	0x00000000
 5e0:	00000088 	.word	0x00000088
 5e4:	00000000 	.word	0x00000000
 5e8:	9d200e41 	.word	0x9d200e41
 5ec:	41039e04 	.word	0x41039e04
 5f0:	de5f1d0d 	.word	0xde5f1d0d
 5f4:	001f0cdd 	.word	0x001f0cdd
 5f8:	00000024 	.word	0x00000024
 5fc:	00000598 	.word	0x00000598
 600:	00081870 	.word	0x00081870
 604:	00000000 	.word	0x00000000
 608:	00000078 	.word	0x00000078
 60c:	00000000 	.word	0x00000000
 610:	9d300e41 	.word	0x9d300e41
 614:	41059e06 	.word	0x41059e06
 618:	00001d0d 	.word	0x00001d0d
 61c:	00000000 	.word	0x00000000
 620:	00000024 	.word	0x00000024
 624:	00000598 	.word	0x00000598
 628:	000818e8 	.word	0x000818e8
 62c:	00000000 	.word	0x00000000
 630:	0000004c 	.word	0x0000004c
 634:	00000000 	.word	0x00000000
 638:	9d400e41 	.word	0x9d400e41
 63c:	41079e08 	.word	0x41079e08
 640:	de501d0d 	.word	0xde501d0d
 644:	001f0cdd 	.word	0x001f0cdd
 648:	00000024 	.word	0x00000024
 64c:	00000598 	.word	0x00000598
 650:	00081934 	.word	0x00081934
 654:	00000000 	.word	0x00000000
 658:	00000030 	.word	0x00000030
 65c:	00000000 	.word	0x00000000
 660:	9d200e41 	.word	0x9d200e41
 664:	41039e04 	.word	0x41039e04
 668:	00001d0d 	.word	0x00001d0d
 66c:	00000000 	.word	0x00000000
 670:	0000000c 	.word	0x0000000c
 674:	ffffffff 	.word	0xffffffff
 678:	78040001 	.word	0x78040001
 67c:	001f0c1e 	.word	0x001f0c1e
 680:	0000002c 	.word	0x0000002c
 684:	00000670 	.word	0x00000670
 688:	0008300c 	.word	0x0008300c
 68c:	00000000 	.word	0x00000000
 690:	00000208 	.word	0x00000208
 694:	00000000 	.word	0x00000000
 698:	9d500e41 	.word	0x9d500e41
 69c:	41099e0a 	.word	0x41099e0a
 6a0:	7f021d0d 	.word	0x7f021d0d
 6a4:	1f0cddde 	.word	0x1f0cddde
	...
 6b0:	0000002c 	.word	0x0000002c
 6b4:	00000670 	.word	0x00000670
 6b8:	00083214 	.word	0x00083214
 6bc:	00000000 	.word	0x00000000
 6c0:	00000170 	.word	0x00000170
 6c4:	00000000 	.word	0x00000000
 6c8:	01900e41 	.word	0x01900e41
 6cc:	119e129d 	.word	0x119e129d
 6d0:	021d0d41 	.word	0x021d0d41
 6d4:	0cddde59 	.word	0x0cddde59
 6d8:	0000001f 	.word	0x0000001f
 6dc:	00000000 	.word	0x00000000
 6e0:	0000002c 	.word	0x0000002c
 6e4:	00000670 	.word	0x00000670
 6e8:	00083384 	.word	0x00083384
 6ec:	00000000 	.word	0x00000000
 6f0:	00000210 	.word	0x00000210
 6f4:	00000000 	.word	0x00000000
 6f8:	01b00e41 	.word	0x01b00e41
 6fc:	159e169d 	.word	0x159e169d
 700:	021d0d41 	.word	0x021d0d41
 704:	0cddde81 	.word	0x0cddde81
 708:	0000001f 	.word	0x0000001f
 70c:	00000000 	.word	0x00000000
 710:	0000001c 	.word	0x0000001c
 714:	00000670 	.word	0x00000670
 718:	00083594 	.word	0x00083594
 71c:	00000000 	.word	0x00000000
 720:	00000210 	.word	0x00000210
 724:	00000000 	.word	0x00000000
 728:	02400e41 	.word	0x02400e41
 72c:	00000e82 	.word	0x00000e82
 730:	0000002c 	.word	0x0000002c
 734:	00000670 	.word	0x00000670
 738:	000837a4 	.word	0x000837a4
 73c:	00000000 	.word	0x00000000
 740:	0000024c 	.word	0x0000024c
 744:	00000000 	.word	0x00000000
 748:	9d600e41 	.word	0x9d600e41
 74c:	410b9e0c 	.word	0x410b9e0c
 750:	90021d0d 	.word	0x90021d0d
 754:	1f0cddde 	.word	0x1f0cddde
	...
 760:	0000000c 	.word	0x0000000c
 764:	ffffffff 	.word	0xffffffff
 768:	78040001 	.word	0x78040001
 76c:	001f0c1e 	.word	0x001f0c1e
 770:	00000024 	.word	0x00000024
 774:	00000760 	.word	0x00000760
 778:	000839f0 	.word	0x000839f0
 77c:	00000000 	.word	0x00000000
 780:	00000020 	.word	0x00000020
 784:	00000000 	.word	0x00000000
 788:	9d100e41 	.word	0x9d100e41
 78c:	41019e02 	.word	0x41019e02
 790:	de451d0d 	.word	0xde451d0d
 794:	001f0cdd 	.word	0x001f0cdd
 798:	00000024 	.word	0x00000024
 79c:	00000760 	.word	0x00000760
 7a0:	00083a10 	.word	0x00083a10
 7a4:	00000000 	.word	0x00000000
 7a8:	00000044 	.word	0x00000044
 7ac:	00000000 	.word	0x00000000
 7b0:	9d100e41 	.word	0x9d100e41
 7b4:	41019e02 	.word	0x41019e02
 7b8:	de4e1d0d 	.word	0xde4e1d0d
 7bc:	001f0cdd 	.word	0x001f0cdd
 7c0:	0000001c 	.word	0x0000001c
 7c4:	00000760 	.word	0x00000760
 7c8:	00083a54 	.word	0x00083a54
 7cc:	00000000 	.word	0x00000000
 7d0:	00000040 	.word	0x00000040
 7d4:	00000000 	.word	0x00000000
 7d8:	4e100e41 	.word	0x4e100e41
 7dc:	0000000e 	.word	0x0000000e
 7e0:	00000014 	.word	0x00000014
 7e4:	00000760 	.word	0x00000760
 7e8:	00083a94 	.word	0x00083a94
 7ec:	00000000 	.word	0x00000000
 7f0:	00000028 	.word	0x00000028
 7f4:	00000000 	.word	0x00000000
 7f8:	00000024 	.word	0x00000024
 7fc:	00000760 	.word	0x00000760
 800:	00083abc 	.word	0x00083abc
 804:	00000000 	.word	0x00000000
 808:	00000028 	.word	0x00000028
 80c:	00000000 	.word	0x00000000
 810:	9d100e41 	.word	0x9d100e41
 814:	41019e02 	.word	0x41019e02
 818:	de471d0d 	.word	0xde471d0d
 81c:	001f0cdd 	.word	0x001f0cdd
 820:	00000024 	.word	0x00000024
 824:	00000760 	.word	0x00000760
 828:	00083ae4 	.word	0x00083ae4
 82c:	00000000 	.word	0x00000000
 830:	00000194 	.word	0x00000194
 834:	00000000 	.word	0x00000000
 838:	9d300e41 	.word	0x9d300e41
 83c:	41059e06 	.word	0x41059e06
 840:	00001d0d 	.word	0x00001d0d
 844:	00000000 	.word	0x00000000
 848:	0000000c 	.word	0x0000000c
 84c:	ffffffff 	.word	0xffffffff
 850:	78040001 	.word	0x78040001
 854:	001f0c1e 	.word	0x001f0c1e
 858:	0000001c 	.word	0x0000001c
 85c:	00000848 	.word	0x00000848
 860:	00083c78 	.word	0x00083c78
 864:	00000000 	.word	0x00000000
 868:	00000084 	.word	0x00000084
 86c:	00000000 	.word	0x00000000
 870:	5f100e41 	.word	0x5f100e41
 874:	0000000e 	.word	0x0000000e
 878:	0000000c 	.word	0x0000000c
 87c:	ffffffff 	.word	0xffffffff
 880:	78040001 	.word	0x78040001
 884:	001f0c1e 	.word	0x001f0c1e
 888:	00000014 	.word	0x00000014
 88c:	00000878 	.word	0x00000878
 890:	00083cfc 	.word	0x00083cfc
 894:	00000000 	.word	0x00000000
 898:	00000014 	.word	0x00000014
 89c:	00000000 	.word	0x00000000
 8a0:	00000024 	.word	0x00000024
 8a4:	00000878 	.word	0x00000878
 8a8:	00083d10 	.word	0x00083d10
 8ac:	00000000 	.word	0x00000000
 8b0:	0000002c 	.word	0x0000002c
 8b4:	00000000 	.word	0x00000000
 8b8:	9d200e41 	.word	0x9d200e41
 8bc:	41039e04 	.word	0x41039e04
 8c0:	de481d0d 	.word	0xde481d0d
 8c4:	001f0cdd 	.word	0x001f0cdd
 8c8:	00000024 	.word	0x00000024
 8cc:	00000878 	.word	0x00000878
 8d0:	00083d3c 	.word	0x00083d3c
 8d4:	00000000 	.word	0x00000000
 8d8:	00000024 	.word	0x00000024
 8dc:	00000000 	.word	0x00000000
 8e0:	9d200e41 	.word	0x9d200e41
 8e4:	41039e04 	.word	0x41039e04
 8e8:	de461d0d 	.word	0xde461d0d
 8ec:	001f0cdd 	.word	0x001f0cdd
 8f0:	00000024 	.word	0x00000024
 8f4:	00000878 	.word	0x00000878
 8f8:	00083d60 	.word	0x00083d60
 8fc:	00000000 	.word	0x00000000
 900:	00000028 	.word	0x00000028
 904:	00000000 	.word	0x00000000
 908:	9d200e41 	.word	0x9d200e41
 90c:	41039e04 	.word	0x41039e04
 910:	de471d0d 	.word	0xde471d0d
 914:	001f0cdd 	.word	0x001f0cdd
 918:	00000024 	.word	0x00000024
 91c:	00000878 	.word	0x00000878
 920:	00083d88 	.word	0x00083d88
 924:	00000000 	.word	0x00000000
 928:	00000018 	.word	0x00000018
 92c:	00000000 	.word	0x00000000
 930:	9d100e41 	.word	0x9d100e41
 934:	41019e02 	.word	0x41019e02
 938:	de431d0d 	.word	0xde431d0d
 93c:	001f0cdd 	.word	0x001f0cdd
 940:	00000024 	.word	0x00000024
 944:	00000878 	.word	0x00000878
 948:	00083da0 	.word	0x00083da0
 94c:	00000000 	.word	0x00000000
 950:	00000044 	.word	0x00000044
 954:	00000000 	.word	0x00000000
 958:	9d200e41 	.word	0x9d200e41
 95c:	41039e04 	.word	0x41039e04
 960:	de4e1d0d 	.word	0xde4e1d0d
 964:	001f0cdd 	.word	0x001f0cdd
 968:	0000000c 	.word	0x0000000c
 96c:	ffffffff 	.word	0xffffffff
 970:	78040001 	.word	0x78040001
 974:	001f0c1e 	.word	0x001f0c1e
 978:	0000001c 	.word	0x0000001c
 97c:	00000968 	.word	0x00000968
 980:	00083df0 	.word	0x00083df0
 984:	00000000 	.word	0x00000000
 988:	00000148 	.word	0x00000148
 98c:	00000000 	.word	0x00000000
 990:	02300e41 	.word	0x02300e41
 994:	00000e50 	.word	0x00000e50
 998:	0000001c 	.word	0x0000001c
 99c:	00000968 	.word	0x00000968
 9a0:	00083f38 	.word	0x00083f38
 9a4:	00000000 	.word	0x00000000
 9a8:	00000194 	.word	0x00000194
 9ac:	00000000 	.word	0x00000000
 9b0:	02200e41 	.word	0x02200e41
 9b4:	00000e63 	.word	0x00000e63
 9b8:	0000001c 	.word	0x0000001c
 9bc:	00000968 	.word	0x00000968
 9c0:	000840cc 	.word	0x000840cc
 9c4:	00000000 	.word	0x00000000
 9c8:	00000078 	.word	0x00000078
 9cc:	00000000 	.word	0x00000000
 9d0:	5c200e41 	.word	0x5c200e41
 9d4:	0000000e 	.word	0x0000000e

Disassembly of section .debug_ranges:

0000000000000000 <.debug_ranges>:
   0:	00000698 	.inst	0x00000698 ; undefined
   4:	00000000 	.inst	0x00000000 ; undefined
   8:	000007b4 	.inst	0x000007b4 ; undefined
   c:	00000000 	.inst	0x00000000 ; undefined
  10:	000007d0 	.inst	0x000007d0 ; undefined
  14:	00000000 	.inst	0x00000000 ; undefined
  18:	000007d4 	.inst	0x000007d4 ; undefined
	...
  30:	00000220 	.inst	0x00000220 ; undefined
  34:	00000000 	.inst	0x00000000 ; undefined
  38:	0000035c 	.inst	0x0000035c ; undefined
  3c:	00000000 	.inst	0x00000000 ; undefined
  40:	00000360 	.inst	0x00000360 ; undefined
  44:	00000000 	.inst	0x00000000 ; undefined
  48:	00000364 	.inst	0x00000364 ; undefined
	...
  60:	000007e4 	.inst	0x000007e4 ; undefined
  64:	00000000 	.inst	0x00000000 ; undefined
  68:	00000950 	.inst	0x00000950 ; undefined
  6c:	00000000 	.inst	0x00000000 ; undefined
  70:	00000958 	.inst	0x00000958 ; undefined
  74:	00000000 	.inst	0x00000000 ; undefined
  78:	00000968 	.inst	0x00000968 ; undefined
	...
  90:	00000950 	.inst	0x00000950 ; undefined
  94:	00000000 	.inst	0x00000000 ; undefined
  98:	00000958 	.inst	0x00000958 ; undefined
  9c:	00000000 	.inst	0x00000000 ; undefined
  a0:	0000096c 	.inst	0x0000096c ; undefined
  a4:	00000000 	.inst	0x00000000 ; undefined
  a8:	000009b0 	.inst	0x000009b0 ; undefined
	...
